
3ca6cd99-23c2-4762-be12-f462fd55e581.elf:     file format elf64-littleaarch64
3ca6cd99-23c2-4762-be12-f462fd55e581.elf
architecture: aarch64, flags 0x00000150:
HAS_SYMS, DYNAMIC, D_PAGED
start address 0x0000000000000020

Program Header:
    LOAD off    0x0000000000010000 vaddr 0x0000000000000000 paddr 0x0000000000000000 align 2**16
         filesz 0x000000000000b5a0 memsz 0x000000000000b5a0 flags r-x
    LOAD off    0x000000000001b5a0 vaddr 0x000000000000b5a0 paddr 0x000000000000b5a0 align 2**16
         filesz 0x0000000000002604 memsz 0x0000000000002604 flags r--
    LOAD off    0x000000000001e000 vaddr 0x000000000000e000 paddr 0x000000000000e000 align 2**16
         filesz 0x0000000000000128 memsz 0x000000000000b1a8 flags rw-
 DYNAMIC off    0x000000000001d7d8 vaddr 0x000000000000d7d8 paddr 0x000000000000d7d8 align 2**3
         filesz 0x0000000000000100 memsz 0x0000000000000100 flags rw-

Dynamic Section:
  HASH                 0x000000000000db48
  STRTAB               0x000000000000da88
  SYMTAB               0x000000000000d8d8
  STRSZ                0x00000000000000bd
  SYMENT               0x0000000000000018
  DEBUG                0x0000000000000000
  RELA                 0x000000000000d398
  RELASZ               0x00000000000003a8
  RELAENT              0x0000000000000018
  FLAGS_1              0x0000000008000000
  RELACOUNT            0x0000000000000018
private flags = 0:

Sections:
Idx Name          Size      VMA               LMA               File off  Algn
  0 .ta_head      00000020  0000000000000000  0000000000000000  00010000  2**3
                  CONTENTS, ALLOC, LOAD, DATA
  1 .text         0000b580  0000000000000020  0000000000000020  00010020  2**2
                  CONTENTS, ALLOC, LOAD, READONLY, CODE
  2 .rodata       00001df3  000000000000b5a0  000000000000b5a0  0001b5a0  2**3
                  CONTENTS, ALLOC, LOAD, READONLY, DATA
  3 .dynsym       000001b0  000000000000d8d8  000000000000d8d8  0001d8d8  2**3
                  CONTENTS, ALLOC, LOAD, READONLY, DATA
  4 .rela.dyn     00000240  000000000000d398  000000000000d398  0001d398  2**3
                  CONTENTS, ALLOC, LOAD, READONLY, DATA
  5 .got          00000098  000000000000d5d8  000000000000d5d8  0001d5d8  2**3
                  CONTENTS, ALLOC, LOAD, DATA
  6 .rela.got     00000168  000000000000d670  000000000000d670  0001d670  2**3
                  CONTENTS, ALLOC, LOAD, READONLY, DATA
  7 .dynamic      00000100  000000000000d7d8  000000000000d7d8  0001d7d8  2**3
                  CONTENTS, ALLOC, LOAD, DATA
  8 .dynstr       000000bd  000000000000da88  000000000000da88  0001da88  2**0
                  CONTENTS, ALLOC, LOAD, READONLY, DATA
  9 .hash         0000005c  000000000000db48  000000000000db48  0001db48  2**3
                  CONTENTS, ALLOC, LOAD, READONLY, DATA
 10 .data         00000128  000000000000e000  000000000000e000  0001e000  2**3
                  CONTENTS, ALLOC, LOAD, DATA
 11 .bss          0000b080  000000000000e128  000000000000e128  0001e128  2**3
                  ALLOC
 12 .debug_info   00015997  0000000000000000  0000000000000000  0001e128  2**0
                  CONTENTS, READONLY, DEBUGGING
 13 .debug_abbrev 00004753  0000000000000000  0000000000000000  00033abf  2**0
                  CONTENTS, READONLY, DEBUGGING
 14 .debug_loc    0001d60d  0000000000000000  0000000000000000  00038212  2**0
                  CONTENTS, READONLY, DEBUGGING
 15 .debug_aranges 000007d0  0000000000000000  0000000000000000  00055820  2**4
                  CONTENTS, READONLY, DEBUGGING
 16 .debug_ranges 00000f50  0000000000000000  0000000000000000  00055ff0  2**0
                  CONTENTS, READONLY, DEBUGGING
 17 .debug_macro  0000536c  0000000000000000  0000000000000000  00056f40  2**0
                  CONTENTS, READONLY, DEBUGGING
 18 .debug_line   00006a7b  0000000000000000  0000000000000000  0005c2ac  2**0
                  CONTENTS, READONLY, DEBUGGING
 19 .debug_str    00010c26  0000000000000000  0000000000000000  00062d27  2**0
                  CONTENTS, READONLY, DEBUGGING
 20 .comment      0000002d  0000000000000000  0000000000000000  0007394d  2**0
                  CONTENTS, READONLY
 21 .debug_frame  00003188  0000000000000000  0000000000000000  00073980  2**3
                  CONTENTS, READONLY, DEBUGGING
SYMBOL TABLE:
0000000000000000 l    d  .ta_head	0000000000000000 .ta_head
0000000000000020 l    d  .text	0000000000000000 .text
000000000000b5a0 l    d  .rodata	0000000000000000 .rodata
000000000000d398 l    d  .rela.dyn	0000000000000000 .rela.dyn
000000000000d5d8 l    d  .got	0000000000000000 .got
000000000000d670 l    d  .rela.got	0000000000000000 .rela.got
000000000000d7d8 l    d  .dynamic	0000000000000000 .dynamic
000000000000d8d8 l    d  .dynsym	0000000000000000 .dynsym
000000000000da88 l    d  .dynstr	0000000000000000 .dynstr
000000000000db48 l    d  .hash	0000000000000000 .hash
000000000000e000 l    d  .data	0000000000000000 .data
000000000000e128 l    d  .bss	0000000000000000 .bss
0000000000000000 l    d  .debug_info	0000000000000000 .debug_info
0000000000000000 l    d  .debug_abbrev	0000000000000000 .debug_abbrev
0000000000000000 l    d  .debug_loc	0000000000000000 .debug_loc
0000000000000000 l    d  .debug_aranges	0000000000000000 .debug_aranges
0000000000000000 l    d  .debug_ranges	0000000000000000 .debug_ranges
0000000000000000 l    d  .debug_macro	0000000000000000 .debug_macro
0000000000000000 l    d  .debug_line	0000000000000000 .debug_line
0000000000000000 l    d  .debug_str	0000000000000000 .debug_str
0000000000000000 l    d  .comment	0000000000000000 .comment
0000000000000000 l    d  .debug_frame	0000000000000000 .debug_frame
0000000000000000 l    df *ABS*	0000000000000000 user_ta_header.c
000000000000b6a0 l     O .rodata	0000000000000004 __compound_literal.5
000000000000b6a4 l     O .rodata	0000000000000004 __compound_literal.4
000000000000b6a8 l     O .rodata	0000000000000004 __compound_literal.3
000000000000b6ac l     O .rodata	0000000000000001 __compound_literal.2
000000000000b6ad l     O .rodata	0000000000000001 __compound_literal.1
000000000000b6ae l     O .rodata	0000000000000001 __compound_literal.0
0000000000000000 l    df *ABS*	0000000000000000 hello_world_ta.c
0000000000000020 l     F .text	0000000000000170 createAndOpenObject.constprop.5
000000000000b5a8 l     O .rodata	0000000000000014 __func__.3852
000000000000b5c0 l     O .rodata	0000000000000014 __func__.3807
000000000000b5d8 l     O .rodata	0000000000000015 __func__.3811
000000000000b5f0 l     O .rodata	0000000000000019 __func__.3818
000000000000b610 l     O .rodata	000000000000001a __func__.3822
000000000000b630 l     O .rodata	000000000000000c __func__.3870
000000000000b640 l     O .rodata	0000000000000013 __func__.3838
000000000000b658 l     O .rodata	000000000000001b __func__.3924
000000000000b678 l     O .rodata	0000000000000016 __func__.3910
000000000000b690 l     O .rodata	0000000000000004 __func__.3887
0000000000000000 l    df *ABS*	0000000000000000 tee_api.c
0000000000016588 l     O .bss	0000000000000008 tee_api_instance_data
0000000000000000 l    df *ABS*	0000000000000000 tee_api_objects.c
0000000000000000 l    df *ABS*	0000000000000000 tee_api_operations.c
0000000000004128 l     F .text	000000000000021c tee_buffer_update
0000000000000000 l    df *ABS*	0000000000000000 tee_api_panic.c
0000000000000000 l    df *ABS*	0000000000000000 user_ta_entry.c
000000000000434c l     F .text	0000000000000028 ta_header_get_session
0000000000004374 l     F .text	000000000000007c ta_header_remove_session
000000000001919c l     O .bss	0000000000000004 ta_ref_count
00000000000191a0 l     O .bss	0000000000000001 context_init
000000000000e0e0 l     O .data	0000000000000010 ta_sessions
0000000000000000 l    df *ABS*	0000000000000000 utee_syscalls_a64.o
0000000000000000 l    df *ABS*	0000000000000000 gprof_a64.o
0000000000000000 l    df *ABS*	0000000000000000 tee_user_mem.c
0000000000004970 l     F .text	0000000000000058 print_buf
00000000000049c8 l     F .text	0000000000000104 check_elem
000000000000b6c0 l     O .rodata	000000000000000b __func__.3881
000000000000b6d0 l     O .rodata	000000000000000f __func__.3876
000000000000b6e0 l     O .rodata	0000000000000013 __func__.3901
000000000000b6f8 l     O .rodata	0000000000000012 __func__.3918
000000000000b710 l     O .rodata	0000000000000018 __func__.3926
000000000000b728 l     O .rodata	0000000000000010 __func__.3886
000000000000b738 l     O .rodata	0000000000000014 __func__.3931
00000000000165d8 l     O .bss	0000000000000008 heap_level
00000000000165e0 l     O .bss	0000000000000010 global_stats
0000000000000000 l    df *ABS*	0000000000000000 assert.c
0000000000000000 l    df *ABS*	0000000000000000 tee_api_arith.c
0000000000005624 l     F .text	0000000000000028 TEE_BigInt_Panic
00000000000165f0 l     O .bss	0000000000001b40 mempool_u32
0000000000000000 l    df *ABS*	0000000000000000 utee_misc.c
0000000000000000 l    df *ABS*	0000000000000000 trace_ext.c
0000000000000000 l    df *ABS*	0000000000000000 bget_malloc.c
00000000000057ec l     F .text	000000000000004c raw_malloc_return_hook
0000000000005838 l     F .text	0000000000000110 create_free_block
000000000000b750 l     O .rodata	0000000000000012 __func__.3429
000000000000b768 l     O .rodata	0000000000000005 __func__.3297
000000000000b770 l     O .rodata	0000000000000006 __func__.3311
000000000000b778 l     O .rodata	0000000000000005 __func__.3326
000000000000b780 l     O .rodata	0000000000000006 __func__.3319
000000000000b788 l     O .rodata	0000000000000006 __func__.3334
000000000000b790 l     O .rodata	0000000000000007 __func__.3343
000000000000b798 l     O .rodata	000000000000000d __func__.3462
000000000000b7a8 l     O .rodata	000000000000000c __func__.3438
000000000000b7b8 l     O .rodata	000000000000000b __func__.3448
000000000000b7c8 l     O .rodata	0000000000000010 __func__.3514
000000000000b7d8 l     O .rodata	000000000000000e __func__.3468
000000000000b7e8 l     O .rodata	0000000000000013 __func__.3382
0000000000018130 l     O .bss	0000000000000008 totalloc
0000000000018138 l     O .bss	0000000000000038 mstats
0000000000018170 l     O .bss	0000000000000008 numget
0000000000018178 l     O .bss	0000000000000008 numrel
0000000000018180 l     O .bss	0000000000000008 malloc_pool_len
0000000000018188 l     O .bss	0000000000000008 malloc_pool
000000000000e100 l     O .data	0000000000000020 freelist
0000000000000000 l    df *ABS*	0000000000000000 snprintf.c
0000000000000000 l    df *ABS*	0000000000000000 memcmp.c
0000000000000000 l    df *ABS*	0000000000000000 memcpy.c
0000000000000000 l    df *ABS*	0000000000000000 memmove.c
0000000000000000 l    df *ABS*	0000000000000000 memset.c
0000000000000000 l    df *ABS*	0000000000000000 strlen.c
0000000000000000 l    df *ABS*	0000000000000000 snprintk.c
000000000000b800 l     O .rodata	0000000000000011 HEXDIGITS
000000000000b818 l     O .rodata	0000000000000011 hexdigits
0000000000000000 l    df *ABS*	0000000000000000 buf_compare_ct.c
0000000000000000 l    df *ABS*	0000000000000000 trace.c
000000000000b830 l     O .rodata	000000000000002d lvl_strs.3168
0000000000000000 l    df *ABS*	0000000000000000 memchr.c
0000000000000000 l    df *ABS*	0000000000000000 mpa_misc.c
0000000000000000 l    df *ABS*	0000000000000000 mpa_montgomery.c
0000000000000000 l    df *ABS*	0000000000000000 mpa_primetest.c
000000000000c4c8 l     O .rodata	0000000000000010 const_miller_rabin_proof_limit
000000000000c4d8 l     O .rodata	000000000000001c proof_a.3549
000000000000c4f8 l     O .rodata	000000000000000c const_two
000000000000c508 l     O .rodata	00000000000000b8 const_small_prime_factors
0000000000000000 l    df *ABS*	0000000000000000 mpa_conv.c
0000000000000000 l    df *ABS*	0000000000000000 mpa_div.c
0000000000000000 l    df *ABS*	0000000000000000 mpa_gcd.c
0000000000008bf4 l     F .text	0000000000000080 __mpa_divby2
0000000000008c74 l     F .text	000000000000016c __mpa_gcd.part.0
0000000000008de0 l     F .text	0000000000000380 __mpa_egcd
0000000000000000 l    df *ABS*	0000000000000000 mpa_mem_static.c
0000000000000000 l    df *ABS*	0000000000000000 mpa_mul.c
0000000000000000 l    df *ABS*	0000000000000000 mpa_random.c
0000000000018190 l     O .bss	0000000000000008 get_rng_array
0000000000000000 l    df *ABS*	0000000000000000 mpa_shift.c
0000000000000000 l    df *ABS*	0000000000000000 mpa_addsub.c
0000000000000000 l    df *ABS*	0000000000000000 mpa_cmp.c
0000000000000000 l    df *ABS*	0000000000000000 mpa_expmod.c
0000000000000000 l    df *ABS*	0000000000000000 mpa_init.c
0000000000000000 l    df *ABS*	0000000000000000 mpa_io.c
000000000000abac l     F .text	0000000000000044 __mpa_word_to_hexstr
000000000000abf0 l     F .text	0000000000000114 __mpa_mpanum_to_hexstr
000000000000ad04 l     F .text	000000000000003c __mpa_isspace
000000000000c5c8 l     O .rodata	000000000000000c __func__.3623
000000000000c5d8 l     O .rodata	000000000000000c __func__.3637
0000000000018198 l     O .bss	0000000000001002 buf.3609
0000000000000000 l    df *ABS*	0000000000000000 mpa_modulus.c
0000000000000000 l    df *ABS*	0000000000000000 
000000000000d7d8 l     O *ABS*	0000000000000000 _DYNAMIC
000000000000d5f0 l     O *ABS*	0000000000000000 _GLOBAL_OFFSET_TABLE_
0000000000004948 g     F .text	000000000000000c utee_se_channel_transmit
00000000000057b0 g     F .text	000000000000003c putchar
000000000000ab28 g     F .text	000000000000001c mpa_init_static
000000000000169c g     F .text	00000000000000c0 TEE_PopulateTransientObject
000000000000793c g     F .text	0000000000000054 mpa_copy
0000000000005564 g     F .text	000000000000001c TEE_BigIntConvertToFMM
0000000000005444 g     F .text	000000000000000c TEE_BigIntSquareMod
00000000000050c4 g     F .text	0000000000000004 TEE_BigIntShiftRight
0000000000008244 g     F .text	0000000000000074 mpa_get_S32
00000000000079c0 g     F .text	0000000000000044 mpa_highest_bit_index
0000000000004810 g     F .text	000000000000000c utee_storage_obj_create
0000000000004924 g     F .text	000000000000000c utee_se_session_close
0000000000004618 g     F .text	000000000000000c utee_return
0000000000002d48 g     F .text	0000000000000070 TEE_DigestUpdate
00000000000048c4 g     F .text	000000000000000c utee_se_service_get_readers
0000000000001260 g     F .text	0000000000000008 TEE_Realloc
0000000000008334 g     F .text	0000000000000148 __mpa_div_q_r_internal_word
0000000000004d5c g     F .text	00000000000000bc tee_user_mem_realloc
0000000000002a98 g     F .text	0000000000000190 TEE_SetOperationKey2
000000000000a360 g     F .text	000000000000019c mpa_sub
00000000000056a4 g     F .text	00000000000000cc printf
0000000000004c18 g     F .text	0000000000000144 tee_user_mem_free
0000000000004624 g     F .text	000000000000000c utee_log
000000000000c5c0 g     O .rodata	0000000000000004 NR_STORED_PRIMES
000000000000175c g     F .text	0000000000000054 TEE_InitRefAttribute
0000000000000f90 g     F .text	00000000000000b4 TEE_InvokeTACommand
0000000000007a48 g     F .text	000000000000001c mpa_can_hold
0000000000009618 g     F .text	0000000000000098 __mpa_abs_mul_word
000000000000378c g     F .text	00000000000001a8 TEE_AEEncryptFinal
0000000000007de4 g     F .text	0000000000000088 mpa_montgomery_mul
0000000000007550 g     F .text	0000000000000054 vsnprintk
0000000000007a64 g     F .text	000000000000000c mpa_parity
0000000000006924 g     F .text	000000000000004c memmove
0000000000009ee8 g     F .text	0000000000000020 __mpa_full_adder_ackum
0000000000006804 g     F .text	0000000000000078 snprintf
00000000000050c0 g     F .text	0000000000000004 TEE_BigIntCmpS32
00000000000017b0 g     F .text	0000000000000050 TEE_InitValueAttribute
00000000000050fc g     F .text	000000000000000c TEE_BigIntAdd
0000000000004648 g     F .text	000000000000000c utee_get_property_name_to_index
000000000000b6b0 g     O .rodata	0000000000000008 ta_heap_size
000000000000c5c4 g     O .rodata	0000000000000004 MAX_TABULATED_PRIME
0000000000001648 g     F .text	0000000000000054 TEE_ResetTransientObject
0000000000005654 g     F .text	0000000000000004 utee_malloc
00000000000046cc g     F .text	000000000000000c utee_cryp_state_alloc
00000000000047d4 g     F .text	000000000000000c utee_authenc_enc_final
00000000000095f8 g     F .text	0000000000000020 __mpa_mul_add_word_cum
0000000000002e7c g     F .text	00000000000000a4 TEE_CipherInit
0000000000005114 g     F .text	0000000000000004 TEE_BigIntNeg
0000000000008b04 g     F .text	00000000000000f0 mpa_div
0000000000000020 g       .text	0000000000000000 __text_start
0000000000001c6c g     F .text	0000000000000050 TEE_StartPersistentObjectEnumerator
000000000000b860 g     O .rodata	000000000000000c const_one
0000000000006798 g     F .text	000000000000006c malloc_buffer_overlaps_heap
000000000000a868 g     F .text	0000000000000018 __mpa_abs_less_than
00000000000052d4 g     F .text	00000000000000a8 TEE_BigIntSubMod
00000000000034e4 g     F .text	00000000000000c4 TEE_AEInit
0000000000009958 g     F .text	0000000000000114 mpa_get_random
0000000000005670 g     F .text	0000000000000004 get_rng_array
000000000000768c g     F .text	000000000000022c trace_printf
00000000000048ac g     F .text	000000000000000c utee_se_service_open
0000000000006904 g     F .text	0000000000000020 memcpy
00000000000046e4 g     F .text	000000000000000c utee_cryp_state_free
000000000000790c g     F .text	0000000000000030 mpa_wipe
0000000000005580 g     F .text	0000000000000094 TEE_BigIntConvertFromFMM
0000000000004344 g     F .text	0000000000000008 TEE_Panic
000000000000493c g     F .text	000000000000000c utee_se_channel_get_select_resp
0000000000002c28 g     F .text	0000000000000120 TEE_CopyOperation
0000000000005770 g     F .text	0000000000000040 puts
0000000000005614 g     F .text	0000000000000010 TEE_BigIntComputeFMM
00000000000082b8 g     F .text	0000000000000014 mpa_set_word
0000000000006090 g     F .text	0000000000000038 malloc_get_stats
0000000000009bd4 g     F .text	0000000000000190 mpa_shift_left
000000000000472c g     F .text	000000000000000c utee_cipher_final
00000000000097a4 g     F .text	00000000000000e4 mpa_mul
0000000000001230 g     F .text	0000000000000028 TEE_GetREETime
0000000000001bc0 g     F .text	000000000000005c TEE_AllocatePersistentObjectEnumerator
000000000000e000 g     O .data	00000000000000d8 ta_props
0000000000003acc g     F .text	0000000000000144 TEE_AsymmetricEncrypt
00000000000060c8 g     F .text	0000000000000038 malloc
0000000000004768 g     F .text	000000000000000c utee_cryp_obj_close
00000000000048e8 g     F .text	000000000000000c utee_se_reader_open_session
000000000000687c g     F .text	0000000000000054 vsnprintf
0000000000001900 g     F .text	0000000000000084 TEE_GenerateKey
000000000000e124 g     O .data	0000000000000004 trace_level
000000000000e360 g     O .bss	0000000000000200 out
000000000000564c g     F .text	0000000000000008 utee_get_ta_exec_id
00000000000050bc g     F .text	0000000000000004 TEE_BigIntCmp
0000000000005658 g     F .text	0000000000000004 utee_realloc
000000000000b698 g     O .rodata	0000000000000008 ta_num_props
0000000000005e58 g     F .text	000000000000009c bgetr
00000000000047c8 g     F .text	000000000000000c utee_authenc_update_payload
0000000000002f20 g     F .text	000000000000015c TEE_CipherUpdate
0000000000005058 g     F .text	0000000000000040 TEE_BigIntConvertToOctetString
00000000000027e8 g     F .text	0000000000000148 TEE_GetOperationInfoMultiple
0000000000004960 g     F .text	000000000000000c utee_cache_operation
00000000000047b0 g     F .text	000000000000000c utee_authenc_init
00000000000050c8 g     F .text	000000000000001c TEE_BigIntGetBit
000000000000b6b8 g     O .rodata	0000000000000008 trace_ext_prefix
0000000000009f08 g     F .text	00000000000000f4 __mpa_abs_add
0000000000005b24 g     F .text	0000000000000088 bgetz
00000000000010e8 g     F .text	000000000000000c TEE_GetInstanceData
0000000000001134 g     F .text	000000000000003c TEE_Wait
000000000000487c g     F .text	000000000000000c utee_storage_obj_write
0000000000009594 g     F .text	000000000000004c mpa_free_static_temp_var
0000000000007e6c g     F .text	00000000000003ac mpa_is_prob_prime
0000000000004954 g     F .text	000000000000000c utee_se_channel_close
0000000000009888 g     F .text	00000000000000c4 mpa_mul_word
000000000000e350 g     O .bss	0000000000000010 iv
0000000000001274 g     F .text	0000000000000008 TEE_CacheFlush
00000000000001c8 g     F .text	0000000000000024 TA_DestroyEntryPoint
0000000000004f38 g     F .text	0000000000000044 _assert_log
000000000000501c g     F .text	0000000000000014 TEE_BigIntFMMContextSizeInU32
0000000000003424 g     F .text	00000000000000c0 TEE_MACCompareFinal
0000000000001b54 g     F .text	000000000000006c TEE_RenamePersistentObject
0000000000002db8 g     F .text	00000000000000c4 TEE_DigestDoFinal
000000000000847c g     F .text	0000000000000688 __mpa_div_q_r
0000000000004f90 g     F .text	000000000000002c _TEE_MathAPI_Init
0000000000004864 g     F .text	000000000000000c utee_storage_next_enum
000000000000e588 g     O .bss	0000000000008000 ta_heap
0000000000005450 g     F .text	000000000000006c TEE_BigIntInvMod
0000000000000238 g     F .text	0000000000000024 TA_CloseSessionEntryPoint
0000000000003c10 g     F .text	0000000000000148 TEE_AsymmetricDecrypt
0000000000001984 g     F .text	0000000000000098 TEE_OpenPersistentObject
0000000000004630 g     F .text	000000000000000c __utee_panic
00000000000046d8 g     F .text	000000000000000c utee_cryp_state_copy
000000000000025c g     F .text	0000000000000b90 TA_InvokeCommandEntryPoint
000000000000b064 g     F .text	0000000000000110 mpa_set_oct_str
0000000000004918 g     F .text	000000000000000c utee_se_session_open_channel
0000000000009ad8 g     F .text	0000000000000098 __mpa_shift_words_left
000000000000475c g     F .text	000000000000000c utee_cryp_obj_alloc
00000000000046c0 g     F .text	000000000000000c utee_set_ta_time
0000000000004750 g     F .text	000000000000000c utee_cryp_obj_get_attr
00000000000018ac g     F .text	0000000000000054 TEE_CopyObjectAttributes
0000000000007af4 g     F .text	0000000000000090 __mpa_montgomery_sub_ack
000000000000610c g     F .text	000000000000004c calloc
0000000000001258 g     F .text	0000000000000008 TEE_Malloc
000000000000469c g     F .text	000000000000000c utee_mask_cancellation
0000000000004774 g     F .text	000000000000000c utee_cryp_obj_reset
00000000000010c8 g     F .text	0000000000000014 TEE_CheckMemoryAccessRights
00000000000191a8 g       .bss	0000000000000000 __gprof_buf_end
000000000000a4fc g     F .text	000000000000002c mpa_neg
000000000000b890 g     O .rodata	0000000000000c38 PRIME_TABLE
0000000000001d40 g     F .text	0000000000000068 TEE_ReadObjectData
00000000000013ec g     F .text	00000000000000ac TEE_GetObjectBufferAttribute
00000000000001ec g     F .text	000000000000004c TA_OpenSessionEntryPoint
0000000000009160 g     F .text	0000000000000120 mpa_gcd
0000000000007990 g     F .text	0000000000000030 mpa_abs
0000000000004858 g     F .text	000000000000000c utee_storage_start_enum
0000000000001f38 g     F .text	0000000000000044 TEE_FreeOperation
000000000000ad48 g     F .text	0000000000000298 mpa_set_str
0000000000004828 g     F .text	000000000000000c utee_storage_obj_rename
0000000000016590 g     O .bss	0000000000000004 ta_param_types
0000000000001284 g     F .text	000000000000004c __utee_from_attr
0000000000005540 g     F .text	0000000000000024 TEE_BigIntIsProbablePrime
0000000000009584 g     F .text	0000000000000010 mpa_alloc_static_temp_var
0000000000001ae4 g     F .text	0000000000000044 TEE_CloseAndDeletePersistentObject1
000000000000994c g     F .text	000000000000000c mpa_set_random_generator
000000000000463c g     F .text	000000000000000c utee_get_property
0000000000003934 g     F .text	0000000000000198 TEE_AEDecryptFinal
0000000000004fbc g     F .text	0000000000000004 TEE_BigIntInit
00000000000010f4 g     F .text	0000000000000008 TEE_MemMove
0000000000005030 g     F .text	0000000000000028 TEE_BigIntConvertFromOctetString
000000000000e0d8 g     O .data	0000000000000008 _ref__utee_mcount
0000000000003224 g     F .text	00000000000000a4 TEE_MACInit
0000000000003d58 g     F .text	000000000000013c TEE_AsymmetricSignDigest
00000000000078bc g     F .text	000000000000002c memchr
0000000000001070 g     F .text	000000000000002c TEE_UnmaskCancellation
00000000000012d0 g     F .text	0000000000000048 TEE_GetObjectInfo
000000000000b408 g     F .text	0000000000000084 mpa_mul_mod
000000000000481c g     F .text	000000000000000c utee_storage_obj_del
000000000000363c g     F .text	0000000000000150 TEE_AEUpdate
0000000000004894 g     F .text	000000000000000c utee_storage_obj_seek
00000000000015f4 g     F .text	0000000000000054 TEE_FreeTransientObject
0000000000007ca8 g     F .text	000000000000013c mpa_compute_fmm_context
000000000000e560 g     O .bss	0000000000000008 keyBuf
00000000000046fc g     F .text	000000000000000c utee_hash_update
000000000000946c g     F .text	0000000000000018 mpa_init_scratch_mem_sync
000000000000496c  w    F .text	0000000000000004 __utee_mcount
00000000000027a0 g     F .text	0000000000000048 TEE_GetOperationInfo
0000000000005198 g     F .text	0000000000000094 TEE_BigIntMod
0000000000004930 g     F .text	000000000000000c utee_se_channel_select_next
0000000000004660 g     F .text	000000000000000c utee_close_ta_session
0000000000005134 g     F .text	0000000000000064 TEE_BigIntDiv
000000000000e348 g     O .bss	0000000000000008 handle
0000000000006078 g     F .text	0000000000000018 malloc_reset_stats
0000000000004720 g     F .text	000000000000000c utee_cipher_update
0000000000001358 g     F .text	0000000000000044 TEE_RestrictObjectUsage1
000000000000490c g     F .text	000000000000000c utee_se_session_get_atr
0000000000006158 g     F .text	0000000000000038 realloc
0000000000009ffc g     F .text	00000000000000cc __mpa_abs_add_ackum
00000000000047f8 g     F .text	000000000000000c utee_asymm_verify
0000000000005118 g     F .text	000000000000000c TEE_BigIntMul
0000000000002930 g     F .text	0000000000000078 TEE_ResetOperation
00000000000082cc g     F .text	0000000000000018 mpa_get_word
0000000000001104 g     F .text	0000000000000008 TEE_MemFill
00000000000068d0 g     F .text	0000000000000034 memcmp
0000000000006520 g     F .text	00000000000000f8 malloc_add_pool
00000000000032c8 g     F .text	00000000000000a0 TEE_MACUpdate
000000000000767c g     F .text	0000000000000010 trace_get_level
00000000000047a4 g     F .text	000000000000000c utee_cryp_random_number_generate
000000000000139c g     F .text	0000000000000050 TEE_RestrictObjectUsage
000000000000500c g     F .text	0000000000000010 TEE_BigIntFMMSizeInU32
000000000000e328 g     O .bss	000000000000001c key_info
0000000000004fc0 g     F .text	0000000000000014 TEE_BigIntInitFMM
00000000000047ec g     F .text	000000000000000c utee_asymm_operate
0000000000001568 g     F .text	0000000000000028 TEE_CloseObject
00000000000043f0 g     F .text	000000000000021c __utee_entry
000000000000b5a0 g       .text	0000000000000000 __text_end
00000000000054bc g     F .text	0000000000000078 TEE_BigIntRelativePrime
0000000000009a6c g     F .text	000000000000006c mpa_get_random_digits
000000000000e568 g     O .bss	0000000000000008 p_storage_obj
000000000000e120 g     O .data	0000000000000004 iv_len
0000000000005ef4 g     F .text	00000000000000dc bpool
0000000000008218 g     F .text	000000000000002c mpa_set_S32
000000000000ab44 g     F .text	0000000000000068 mpa_init_static_fmm_context
0000000000001044 g     F .text	000000000000002c TEE_GetCancellationFlag
00000000000048b8 g     F .text	000000000000000c utee_se_service_close
0000000000004acc g     F .text	000000000000014c tee_user_mem_alloc
000000000000e0f0 g     O .data	0000000000000010 user_mem_head
00000000000011f0 g     F .text	0000000000000040 TEE_SetTAPersistentTime
000000000000a528 g     F .text	000000000000013c mpa_add_word
00000000000048d0 g     F .text	000000000000000c utee_se_reader_get_prop
0000000000006970 g     F .text	000000000000001c memset
0000000000001170 g     F .text	0000000000000080 TEE_GetTAPersistentTime
00000000000078b8 g     F .text	0000000000000004 dhex_dump
0000000000001a1c g     F .text	00000000000000c8 TEE_CreatePersistentObject
000000000000109c g     F .text	000000000000002c TEE_MaskCancellation
0000000000009ec4 g     F .text	0000000000000024 __mpa_full_sub
00000000000035a8 g     F .text	0000000000000094 TEE_AEUpdateAAD
0000000000004870 g     F .text	000000000000000c utee_storage_obj_read
0000000000001e0c g     F .text	000000000000005c TEE_TruncateObjectData
000000000000565c g     F .text	0000000000000010 utee_calloc
0000000000004780 g     F .text	000000000000000c utee_cryp_obj_populate
000000000000a880 g     F .text	0000000000000068 mpa_cmp
000000000000b48c g     F .text	0000000000000114 mpa_inv_mod
000000000000a664 g     F .text	0000000000000138 mpa_sub_word
00000000000095e0 g     F .text	0000000000000018 __mpa_mul_add_word
000000000000a1cc g     F .text	0000000000000194 mpa_add
000000000000a96c g     F .text	00000000000001bc mpa_exp_mod
0000000000001318 g     F .text	0000000000000040 TEE_GetObjectInfo1
000000000000e570 g     O .bss	0000000000000008 key
0000000000009b70 g     F .text	0000000000000064 __mpa_shift_words_right
0000000000007658 g     F .text	0000000000000024 trace_set_level
0000000000004900 g     F .text	000000000000000c utee_se_session_is_closed
0000000000004738 g     F .text	000000000000000c utee_cryp_obj_get_info
0000000000001498 g     F .text	00000000000000d0 TEE_GetObjectValueAttribute
00000000000029a8 g     F .text	00000000000000f0 TEE_SetOperationKey
0000000000004834 g     F .text	000000000000000c utee_storage_alloc_enum
000000000000484c g     F .text	000000000000000c utee_storage_reset_enum
0000000000004888 g     F .text	000000000000000c utee_storage_obj_trunc
000000000000b2e8 g     F .text	0000000000000018 mpa_mod
000000000000a84c g     F .text	000000000000001c __mpa_abs_greater_than
000000000000509c g     F .text	0000000000000020 TEE_BigIntConvertToS32
0000000000005108 g     F .text	000000000000000c TEE_BigIntSub
0000000000004678 g     F .text	000000000000000c utee_get_cancellation_flag
000000000000e578 g     O .bss	0000000000000008 object
00000000000046f0 g     F .text	000000000000000c utee_hash_init
0000000000000dec g     F .text	0000000000000008 tahead_get_trace_level
0000000000000df4 g     F .text	0000000000000078 __utee_from_param
0000000000001e68 g     F .text	00000000000000d0 TEE_SeekObjectData
000000000000b870 g     O .rodata	0000000000000010 Const_1_LShift_Base
0000000000000e6c g     F .text	000000000000006c __utee_to_param
0000000000006190 g     F .text	0000000000000390 memalign
000000000000307c g     F .text	00000000000001a8 TEE_CipherDoFinal
0000000000005098 g     F .text	0000000000000004 TEE_BigIntConvertFromS32
000000000000b384 g     F .text	0000000000000084 mpa_sub_mod
0000000000004744 g     F .text	000000000000000c utee_cryp_obj_restrict_usage
0000000000006618 g     F .text	0000000000000180 malloc_buffer_is_within_alloced
000000000000478c g     F .text	000000000000000c utee_cryp_obj_copy
0000000000009d64 g     F .text	0000000000000144 mpa_shift_right
0000000000004fd4 g     F .text	0000000000000038 TEE_BigIntInitFMMContext
0000000000004798 g     F .text	000000000000000c utee_cryp_derive_key
0000000000007b84 g     F .text	0000000000000124 __mpa_montgomery_mul
000000000000b174 g     F .text	0000000000000174 mpa_get_oct_str
000000000000a8e8 g     F .text	0000000000000084 mpa_cmp_short
00000000000047e0 g     F .text	000000000000000c utee_authenc_dec_final
0000000000001da8 g     F .text	0000000000000064 TEE_WriteObjectData
0000000000001c44 g     F .text	0000000000000028 TEE_ResetPersistentObjectEnumerator
000000000000a79c g     F .text	00000000000000b0 __mpa_abs_cmp
0000000000005124 g     F .text	0000000000000010 TEE_BigIntSquare
0000000000000190 g     F .text	0000000000000038 TA_CreateEntryPoint
000000000000e128 g     O .bss	0000000000000200 buf
00000000000075a4 g     F .text	0000000000000074 snprintk
00000000000050e4 g     F .text	0000000000000018 TEE_BigIntGetBitCount
000000000000537c g     F .text	00000000000000c8 TEE_BigIntMulMod
0000000000003fc0 g     F .text	0000000000000144 TEE_DeriveKey
0000000000016598 g     O .bss	0000000000000040 ta_params
00000000000096b0 g     F .text	00000000000000f4 __mpa_abs_mul
0000000000005948 g     F .text	00000000000001dc bget
0000000000001590 g     F .text	0000000000000064 TEE_AllocateTransientObject
0000000000001268 g     F .text	0000000000000004 TEE_Free
00000000000048dc g     F .text	000000000000000c utee_se_reader_get_name
000000000000127c g     F .text	0000000000000008 TEE_CacheInvalidate
0000000000004714 g     F .text	000000000000000c utee_cipher_init
0000000000004f7c g     F .text	0000000000000014 _assert_break
000000000000522c g     F .text	00000000000000a8 TEE_BigIntAddMod
0000000000004840 g     F .text	000000000000000c utee_storage_free_enum
00000000000047bc g     F .text	000000000000000c utee_authenc_update_aad
0000000000007a04 g     F .text	0000000000000044 mpa_get_bit
0000000000001f7c g     F .text	0000000000000824 TEE_AllocateOperation
0000000000009484 g     F .text	0000000000000018 mpa_init_scratch_mem
0000000000004104 g     F .text	0000000000000024 TEE_GenerateRandom
00000000000010fc g     F .text	0000000000000008 TEE_MemCompare
000000000000e580 g     O .bss	0000000000000004 res
00000000000069a8 g     F .text	0000000000000ba8 __vsnprintf
0000000000001c1c g     F .text	0000000000000028 TEE_FreePersistentObjectEnumerator
000000000000460c g     F .text	000000000000000c utee_panic
0000000000000ed8 g     F .text	0000000000000090 TEE_OpenTASession
0000000000005674 g     F .text	0000000000000028 trace_ext_puts
0000000000004ec0 g     F .text	0000000000000078 tee_user_mem_garbage
000000000000569c g     F .text	0000000000000008 trace_ext_get_thread_id
0000000000001b28 g     F .text	000000000000002c TEE_CloseAndDeletePersistentObject
000000000000126c g     F .text	0000000000000008 TEE_CacheClean
0000000000004654 g     F .text	000000000000000c utee_open_ta_session
0000000000007618 g     F .text	0000000000000040 buf_compare_ct
00000000000082e4 g     F .text	0000000000000050 __mpa_div_dword
00000000000078e8 g     F .text	0000000000000024 __mpa_set_unused_digits_to_zero
000000000000b880 g     O .rodata	000000000000000c const_largest_deci_base
000000000000ad40 g     F .text	0000000000000008 mpa_get_str_size
0000000000004e24 g     F .text	000000000000009c tee_user_mem_check_heap
0000000000001800 g     F .text	00000000000000ac TEE_CopyObjectAttributes1
0000000000004708 g     F .text	000000000000000c utee_hash_final
000000000000698c g     F .text	000000000000001c strlen
0000000000005534 g     F .text	000000000000000c TEE_BigIntComputeExtendedGcd
0000000000009280 g     F .text	00000000000001ec mpa_extended_gcd
000000000000b300 g     F .text	0000000000000084 mpa_add_mod
0000000000004804 g     F .text	000000000000000c utee_storage_obj_open
000000000000466c g     F .text	000000000000000c utee_invoke_ta_command
000000000000afe0 g     F .text	0000000000000084 mpa_get_str
00000000000046a8 g     F .text	000000000000000c utee_wait
000000000000566c g     F .text	0000000000000004 utee_free
0000000000004e18 g     F .text	000000000000000c tee_user_mem_mark_heap
000000000000110c g     F .text	0000000000000028 TEE_GetSystemTime
0000000000000000 g     O .ta_head	0000000000000020 ta_head
0000000000005bac g     F .text	00000000000002ac brel
000000000000949c g     F .text	00000000000000e8 mpa_alloc_static_temp_var_size
00000000000046b4 g     F .text	000000000000000c utee_get_time
0000000000007a7c g     F .text	0000000000000078 __mpa_montgomery_mul_add
00000000000010dc g     F .text	000000000000000c TEE_SetInstanceData
0000000000004690 g     F .text	000000000000000c utee_unmask_cancellation
0000000000004684 g     F .text	000000000000000c utee_check_access_rights
00000000000048f4 g     F .text	000000000000000c utee_se_reader_close_sessions
0000000000001cbc g     F .text	0000000000000084 TEE_GetNextPersistentObject
00000000000048a0 g     F .text	000000000000000c utee_cryp_obj_generate_key
0000000000007a70 g     F .text	000000000000000c mpa_constant_one
0000000000000f68 g     F .text	0000000000000028 TEE_CloseTASession
0000000000003e94 g     F .text	000000000000012c TEE_AsymmetricVerifyDigest
0000000000009ea8 g     F .text	000000000000001c __mpa_full_adder
000000000000a0c8 g     F .text	0000000000000104 __mpa_abs_sub
00000000000191a8 g       .bss	0000000000000000 __gprof_buf_start
0000000000006100 g     F .text	000000000000000c free
0000000000005fd0 g     F .text	00000000000000a8 bstats
0000000000003368 g     F .text	00000000000000bc TEE_MACComputeFinal



Disassembly of section .text:

0000000000000020 <createAndOpenObject.constprop.5>:
createAndOpenObject():
/home/pwnz/devel/optee/optee_examples/crypto/ta/hello_world_ta.c:182
      20:	a9bd7bfd 	stp	x29, x30, [sp,#-48]!
/home/pwnz/devel/optee/optee_examples/crypto/ta/hello_world_ta.c:186
      24:	528000e3 	mov	w3, #0x7                   	// #7
/home/pwnz/devel/optee/optee_examples/crypto/ta/hello_world_ta.c:182
      28:	910003fd 	mov	x29, sp
      2c:	a90153f3 	stp	x19, x20, [sp,#16]
/home/pwnz/devel/optee/optee_examples/crypto/ta/hello_world_ta.c:186
      30:	b0000074 	adrp	x20, d000 <__func__.3637+0xa28>
/home/pwnz/devel/optee/optee_examples/crypto/ta/hello_world_ta.c:182
      34:	a9025bf5 	stp	x21, x22, [sp,#32]
      38:	2a0203f3 	mov	w19, w2
/home/pwnz/devel/optee/optee_examples/crypto/ta/hello_world_ta.c:186
      3c:	f9432a94 	ldr	x20, [x20,#1616]
/home/pwnz/devel/optee/optee_examples/crypto/ta/hello_world_ta.c:182
      40:	aa0003f5 	mov	x21, x0
      44:	aa0103f6 	mov	x22, x1
/home/pwnz/devel/optee/optee_examples/crypto/ta/hello_world_ta.c:186
      48:	52800802 	mov	w2, #0x40                  	// #64
      4c:	aa0003e1 	mov	x1, x0
      50:	aa1403e4 	mov	x4, x20
      54:	52800020 	mov	w0, #0x1                   	// #1
      58:	9400064b 	bl	1984 <TEE_OpenPersistentObject>
/home/pwnz/devel/optee/optee_examples/crypto/ta/hello_world_ta.c:187
      5c:	7100001f 	cmp	w0, #0x0
      60:	1a9f07e1 	cset	w1, ne
      64:	7100067f 	cmp	w19, #0x1
      68:	1a9f17e0 	cset	w0, eq
      6c:	6a00003f 	tst	w1, w0
      70:	f0000040 	adrp	x0, b000 <mpa_get_str+0x20>
      74:	54000680 	b.eq	144 <createAndOpenObject.constprop.5+0x124>
/home/pwnz/devel/optee/optee_examples/crypto/ta/hello_world_ta.c:188
      78:	9116a013 	add	x19, x0, #0x5a8
      7c:	52800023 	mov	w3, #0x1                   	// #1
      80:	52800042 	mov	w2, #0x2                   	// #2
      84:	52801781 	mov	w1, #0xbc                  	// #188
      88:	aa1303e0 	mov	x0, x19
      8c:	90000064 	adrp	x4, c000 <PRIME_TABLE+0x770>
      90:	9117cc84 	add	x4, x4, #0x5f3
      94:	94001d7e 	bl	768c <trace_printf>
/home/pwnz/devel/optee/optee_examples/crypto/ta/hello_world_ta.c:189
      98:	52800023 	mov	w3, #0x1                   	// #1
      9c:	52800022 	mov	w2, #0x1                   	// #1
      a0:	528017a1 	mov	w1, #0xbd                  	// #189
      a4:	aa1303e0 	mov	x0, x19
      a8:	90000064 	adrp	x4, c000 <PRIME_TABLE+0x770>
      ac:	91184c84 	add	x4, x4, #0x613
      b0:	94001d77 	bl	768c <trace_printf>
/home/pwnz/devel/optee/optee_examples/crypto/ta/hello_world_ta.c:190
      b4:	aa1603e5 	mov	x5, x22
      b8:	d2800007 	mov	x7, #0x0                   	// #0
      bc:	52800206 	mov	w6, #0x10                  	// #16
      c0:	d2800004 	mov	x4, #0x0                   	// #0
      c4:	52800083 	mov	w3, #0x4                   	// #4
      c8:	52800802 	mov	w2, #0x40                  	// #64
      cc:	aa1503e1 	mov	x1, x21
      d0:	52800020 	mov	w0, #0x1                   	// #1
      d4:	94000652 	bl	1a1c <TEE_CreatePersistentObject>
/home/pwnz/devel/optee/optee_examples/crypto/ta/hello_world_ta.c:195
      d8:	2a0003e5 	mov	w5, w0
      dc:	52800023 	mov	w3, #0x1                   	// #1
      e0:	52800022 	mov	w2, #0x1                   	// #1
      e4:	52801861 	mov	w1, #0xc3                  	// #195
      e8:	aa1303e0 	mov	x0, x19
      ec:	90000064 	adrp	x4, c000 <PRIME_TABLE+0x770>
      f0:	9118d484 	add	x4, x4, #0x635
      f4:	94001d66 	bl	768c <trace_printf>
/home/pwnz/devel/optee/optee_examples/crypto/ta/hello_world_ta.c:196
      f8:	aa1403e4 	mov	x4, x20
      fc:	528000e3 	mov	w3, #0x7                   	// #7
     100:	52800802 	mov	w2, #0x40                  	// #64
     104:	aa1503e1 	mov	x1, x21
     108:	52800020 	mov	w0, #0x1                   	// #1
     10c:	9400061e 	bl	1984 <TEE_OpenPersistentObject>
/home/pwnz/devel/optee/optee_examples/crypto/ta/hello_world_ta.c:199
     110:	90000064 	adrp	x4, c000 <PRIME_TABLE+0x770>
     114:	2a0003e5 	mov	w5, w0
     118:	91198884 	add	x4, x4, #0x662
     11c:	aa1303e0 	mov	x0, x19
     120:	52800023 	mov	w3, #0x1                   	// #1
     124:	52800022 	mov	w2, #0x1                   	// #1
     128:	528018e1 	mov	w1, #0xc7                  	// #199
     12c:	94001d58 	bl	768c <trace_printf>
/home/pwnz/devel/optee/optee_examples/crypto/ta/hello_world_ta.c:200
     130:	12800000 	mov	w0, #0xffffffff            	// #-1
/home/pwnz/devel/optee/optee_examples/crypto/ta/hello_world_ta.c:209
     134:	a94153f3 	ldp	x19, x20, [sp,#16]
     138:	a9425bf5 	ldp	x21, x22, [sp,#32]
     13c:	a8c37bfd 	ldp	x29, x30, [sp],#48
     140:	d65f03c0 	ret
/home/pwnz/devel/optee/optee_examples/crypto/ta/hello_world_ta.c:202
     144:	71000a7f 	cmp	w19, #0x2
     148:	1a9f17e2 	cset	w2, eq
     14c:	6a02003f 	tst	w1, w2
     150:	54000140 	b.eq	178 <createAndOpenObject.constprop.5+0x158>
/home/pwnz/devel/optee/optee_examples/crypto/ta/hello_world_ta.c:203
     154:	90000064 	adrp	x4, c000 <PRIME_TABLE+0x770>
     158:	911a3484 	add	x4, x4, #0x68d
     15c:	52800023 	mov	w3, #0x1                   	// #1
     160:	52800022 	mov	w2, #0x1                   	// #1
     164:	52801961 	mov	w1, #0xcb                  	// #203
/home/pwnz/devel/optee/optee_examples/crypto/ta/hello_world_ta.c:206
     168:	9116a000 	add	x0, x0, #0x5a8
     16c:	94001d48 	bl	768c <trace_printf>
/home/pwnz/devel/optee/optee_examples/crypto/ta/hello_world_ta.c:208
     170:	52800020 	mov	w0, #0x1                   	// #1
     174:	17fffff0 	b	134 <createAndOpenObject.constprop.5+0x114>
/home/pwnz/devel/optee/optee_examples/crypto/ta/hello_world_ta.c:206
     178:	90000064 	adrp	x4, c000 <PRIME_TABLE+0x770>
     17c:	52800023 	mov	w3, #0x1                   	// #1
     180:	911b3c84 	add	x4, x4, #0x6cf
     184:	52800022 	mov	w2, #0x1                   	// #1
     188:	528019c1 	mov	w1, #0xce                  	// #206
     18c:	17fffff7 	b	168 <createAndOpenObject.constprop.5+0x148>

0000000000000190 <TA_CreateEntryPoint>:
TA_CreateEntryPoint():
/home/pwnz/devel/optee/optee_examples/crypto/ta/hello_world_ta.c:57
     190:	a9bf7bfd 	stp	x29, x30, [sp,#-16]!
/home/pwnz/devel/optee/optee_examples/crypto/ta/hello_world_ta.c:58
     194:	f0000040 	adrp	x0, b000 <mpa_get_str+0x20>
     198:	9116a000 	add	x0, x0, #0x5a8
     19c:	52800023 	mov	w3, #0x1                   	// #1
/home/pwnz/devel/optee/optee_examples/crypto/ta/hello_world_ta.c:57
     1a0:	910003fd 	mov	x29, sp
/home/pwnz/devel/optee/optee_examples/crypto/ta/hello_world_ta.c:58
     1a4:	52800062 	mov	w2, #0x3                   	// #3
     1a8:	52800741 	mov	w1, #0x3a                  	// #58
     1ac:	91006000 	add	x0, x0, #0x18
     1b0:	90000064 	adrp	x4, c000 <PRIME_TABLE+0x770>
     1b4:	911bcc84 	add	x4, x4, #0x6f3
     1b8:	94001d35 	bl	768c <trace_printf>
/home/pwnz/devel/optee/optee_examples/crypto/ta/hello_world_ta.c:61
     1bc:	52800000 	mov	w0, #0x0                   	// #0
     1c0:	a8c17bfd 	ldp	x29, x30, [sp],#16
     1c4:	d65f03c0 	ret

00000000000001c8 <TA_DestroyEntryPoint>:
TA_DestroyEntryPoint():
/home/pwnz/devel/optee/optee_examples/crypto/ta/hello_world_ta.c:69
     1c8:	f0000040 	adrp	x0, b000 <mpa_get_str+0x20>
     1cc:	9116a000 	add	x0, x0, #0x5a8
     1d0:	90000064 	adrp	x4, c000 <PRIME_TABLE+0x770>
     1d4:	52800023 	mov	w3, #0x1                   	// #1
     1d8:	911bcc84 	add	x4, x4, #0x6f3
     1dc:	52800062 	mov	w2, #0x3                   	// #3
     1e0:	528008a1 	mov	w1, #0x45                  	// #69
     1e4:	9100c000 	add	x0, x0, #0x30
     1e8:	14001d29 	b	768c <trace_printf>

00000000000001ec <TA_OpenSessionEntryPoint>:
TA_OpenSessionEntryPoint():
/home/pwnz/devel/optee/optee_examples/crypto/ta/hello_world_ta.c:81
     1ec:	a9be7bfd 	stp	x29, x30, [sp,#-32]!
/home/pwnz/devel/optee/optee_examples/crypto/ta/hello_world_ta.c:87
     1f0:	52800023 	mov	w3, #0x1                   	// #1
     1f4:	52800062 	mov	w2, #0x3                   	// #3
     1f8:	52800ae1 	mov	w1, #0x57                  	// #87
/home/pwnz/devel/optee/optee_examples/crypto/ta/hello_world_ta.c:81
     1fc:	910003fd 	mov	x29, sp
     200:	f9000bf3 	str	x19, [sp,#16]
     204:	2a0003f3 	mov	w19, w0
/home/pwnz/devel/optee/optee_examples/crypto/ta/hello_world_ta.c:87
     208:	f0000040 	adrp	x0, b000 <mpa_get_str+0x20>
     20c:	9116a000 	add	x0, x0, #0x5a8
     210:	91012000 	add	x0, x0, #0x48
     214:	90000064 	adrp	x4, c000 <PRIME_TABLE+0x770>
     218:	911bcc84 	add	x4, x4, #0x6f3
     21c:	94001d1c 	bl	768c <trace_printf>
/home/pwnz/devel/optee/optee_examples/crypto/ta/hello_world_ta.c:103
     220:	7100027f 	cmp	w19, #0x0
/home/pwnz/devel/optee/optee_examples/crypto/ta/hello_world_ta.c:104
     224:	129fff20 	mov	w0, #0xffff0006            	// #-65530
     228:	f9400bf3 	ldr	x19, [sp,#16]
     22c:	1a9f1000 	csel	w0, w0, wzr, ne
     230:	a8c27bfd 	ldp	x29, x30, [sp],#32
     234:	d65f03c0 	ret

0000000000000238 <TA_CloseSessionEntryPoint>:
TA_CloseSessionEntryPoint():
/home/pwnz/devel/optee/optee_examples/crypto/ta/hello_world_ta.c:113
     238:	f0000040 	adrp	x0, b000 <mpa_get_str+0x20>
     23c:	9116a000 	add	x0, x0, #0x5a8
     240:	90000064 	adrp	x4, c000 <PRIME_TABLE+0x770>
     244:	52800023 	mov	w3, #0x1                   	// #1
     248:	911c0c84 	add	x4, x4, #0x703
     24c:	52800042 	mov	w2, #0x2                   	// #2
     250:	52800e21 	mov	w1, #0x71                  	// #113
     254:	9101a000 	add	x0, x0, #0x68
     258:	14001d0d 	b	768c <trace_printf>

000000000000025c <TA_InvokeCommandEntryPoint>:
TA_InvokeCommandEntryPoint():
/home/pwnz/devel/optee/optee_examples/crypto/ta/hello_world_ta.c:558
     25c:	a9b27bfd 	stp	x29, x30, [sp,#-224]!
/home/pwnz/devel/optee/optee_examples/crypto/ta/hello_world_ta.c:563
     260:	51000421 	sub	w1, w1, #0x1
     264:	71000c3f 	cmp	w1, #0x3
/home/pwnz/devel/optee/optee_examples/crypto/ta/hello_world_ta.c:558
     268:	910003fd 	mov	x29, sp
     26c:	a90153f3 	stp	x19, x20, [sp,#16]
     270:	f0000053 	adrp	x19, b000 <mpa_get_str+0x20>
     274:	a9025bf5 	stp	x21, x22, [sp,#32]
     278:	a90363f7 	stp	x23, x24, [sp,#48]
     27c:	a9046bf9 	stp	x25, x26, [sp,#64]
     280:	a90573fb 	stp	x27, x28, [sp,#80]
/home/pwnz/devel/optee/optee_examples/crypto/ta/hello_world_ta.c:563
     284:	540059c8 	b.hi	dbc <TA_InvokeCommandEntryPoint+0xb60>
     288:	f0000040 	adrp	x0, b000 <mpa_get_str+0x20>
     28c:	aa0303f6 	mov	x22, x3
     290:	91168000 	add	x0, x0, #0x5a0
     294:	78615800 	ldrh	w0, [x0,w1,uxtw #1]
     298:	10000061 	adr	x1, 2a4 <TA_InvokeCommandEntryPoint+0x48>
     29c:	8b20a820 	add	x0, x1, w0, sxth #2
     2a0:	d61f0000 	br	x0
hashUserKey():
/home/pwnz/devel/optee/optee_examples/crypto/ta/hello_world_ta.c:228
     2a4:	910042d5 	add	x21, x22, #0x10
/home/pwnz/devel/optee/optee_examples/crypto/ta/hello_world_ta.c:227
     2a8:	9116a277 	add	x23, x19, #0x5a8
/home/pwnz/devel/optee/optee_examples/crypto/ta/hello_world_ta.c:215
     2ac:	910263b9 	add	x25, x29, #0x98
/home/pwnz/devel/optee/optee_examples/crypto/ta/hello_world_ta.c:227
     2b0:	910222f4 	add	x20, x23, #0x88
/home/pwnz/devel/optee/optee_examples/crypto/ta/hello_world_ta.c:215
     2b4:	d2800822 	mov	x2, #0x41                  	// #65
     2b8:	90000061 	adrp	x1, c000 <PRIME_TABLE+0x770>
     2bc:	aa1903e0 	mov	x0, x25
     2c0:	91325c21 	add	x1, x1, #0xc97
     2c4:	94001990 	bl	6904 <memcpy>
/home/pwnz/devel/optee/optee_examples/crypto/ta/hello_world_ta.c:218
     2c8:	b90073bf 	str	wzr, [x29,#112]
/home/pwnz/devel/optee/optee_examples/crypto/ta/hello_world_ta.c:227
     2cc:	aa1403e0 	mov	x0, x20
     2d0:	52800023 	mov	w3, #0x1                   	// #1
     2d4:	52800042 	mov	w2, #0x2                   	// #2
     2d8:	52801c61 	mov	w1, #0xe3                  	// #227
     2dc:	90000064 	adrp	x4, c000 <PRIME_TABLE+0x770>
     2e0:	911c6484 	add	x4, x4, #0x719
     2e4:	94001cea 	bl	768c <trace_printf>
hashBufferWithSHA1():
/home/pwnz/devel/optee/optee_examples/crypto/ta/hello_world_ta.c:156
     2e8:	910383b8 	add	x24, x29, #0xe0
hashUserKey():
/home/pwnz/devel/optee/optee_examples/crypto/ta/hello_world_ta.c:228
     2ec:	b9400aa5 	ldr	w5, [x21,#8]
     2f0:	52800023 	mov	w3, #0x1                   	// #1
     2f4:	52800042 	mov	w2, #0x2                   	// #2
     2f8:	aa1403e0 	mov	x0, x20
     2fc:	52801c81 	mov	w1, #0xe4                  	// #228
     300:	90000064 	adrp	x4, c000 <PRIME_TABLE+0x770>
     304:	911cc084 	add	x4, x4, #0x730
/home/pwnz/devel/optee/optee_examples/crypto/ta/hello_world_ta.c:229
     308:	b0000074 	adrp	x20, d000 <__func__.3637+0xa28>
/home/pwnz/devel/optee/optee_examples/crypto/ta/hello_world_ta.c:228
     30c:	94001ce0 	bl	768c <trace_printf>
     310:	910262f7 	add	x23, x23, #0x98
/home/pwnz/devel/optee/optee_examples/crypto/ta/hello_world_ta.c:229
     314:	b9400aa0 	ldr	w0, [x21,#8]
     318:	52800001 	mov	w1, #0x0                   	// #0
     31c:	940003cf 	bl	1258 <TEE_Malloc>
     320:	f9431e81 	ldr	x1, [x20,#1592]
/home/pwnz/devel/optee/optee_examples/crypto/ta/hello_world_ta.c:230
     324:	b9400aa2 	ldr	w2, [x21,#8]
/home/pwnz/devel/optee/optee_examples/crypto/ta/hello_world_ta.c:229
     328:	f9000020 	str	x0, [x1]
/home/pwnz/devel/optee/optee_examples/crypto/ta/hello_world_ta.c:230
     32c:	f9400ac1 	ldr	x1, [x22,#16]
     330:	aa1403f6 	mov	x22, x20
     334:	94000370 	bl	10f4 <TEE_MemMove>
/home/pwnz/devel/optee/optee_examples/crypto/ta/hello_world_ta.c:231
     338:	b9400abb 	ldr	w27, [x21,#8]
/home/pwnz/devel/optee/optee_examples/crypto/ta/hello_world_ta.c:232
     33c:	52800280 	mov	w0, #0x14                  	// #20
/home/pwnz/devel/optee/optee_examples/crypto/ta/hello_world_ta.c:233
     340:	52800001 	mov	w1, #0x0                   	// #0
/home/pwnz/devel/optee/optee_examples/crypto/ta/hello_world_ta.c:232
     344:	b90077a0 	str	w0, [x29,#116]
/home/pwnz/devel/optee/optee_examples/crypto/ta/hello_world_ta.c:233
     348:	940003c4 	bl	1258 <TEE_Malloc>
hashBufferWithSHA1():
/home/pwnz/devel/optee/optee_examples/crypto/ta/hello_world_ta.c:156
     34c:	f8198f1f 	str	xzr, [x24,#-104]!
/home/pwnz/devel/optee/optee_examples/crypto/ta/hello_world_ta.c:158
     350:	52800041 	mov	w1, #0x2                   	// #2
hashUserKey():
/home/pwnz/devel/optee/optee_examples/crypto/ta/hello_world_ta.c:233
     354:	aa0003fa 	mov	x26, x0
hashBufferWithSHA1():
/home/pwnz/devel/optee/optee_examples/crypto/ta/hello_world_ta.c:158
     358:	52800003 	mov	w3, #0x0                   	// #0
     35c:	528000a2 	mov	w2, #0x5                   	// #5
     360:	72aa0001 	movk	w1, #0x5000, lsl #16
     364:	aa1803e0 	mov	x0, x24
     368:	94000705 	bl	1f7c <TEE_AllocateOperation>
/home/pwnz/devel/optee/optee_examples/crypto/ta/hello_world_ta.c:159
     36c:	34000940 	cbz	w0, 494 <TA_InvokeCommandEntryPoint+0x238>
/home/pwnz/devel/optee/optee_examples/crypto/ta/hello_world_ta.c:160
     370:	2a0003e5 	mov	w5, w0
     374:	90000064 	adrp	x4, c000 <PRIME_TABLE+0x770>
     378:	aa1703e0 	mov	x0, x23
     37c:	911d2884 	add	x4, x4, #0x74a
     380:	52800023 	mov	w3, #0x1                   	// #1
     384:	52800042 	mov	w2, #0x2                   	// #2
     388:	52801401 	mov	w1, #0xa0                  	// #160
/home/pwnz/devel/optee/optee_examples/crypto/ta/hello_world_ta.c:172
     38c:	94001cc0 	bl	768c <trace_printf>
/home/pwnz/devel/optee/optee_examples/crypto/ta/hello_world_ta.c:176
     390:	f9403fa0 	ldr	x0, [x29,#120]
     394:	940006e9 	bl	1f38 <TEE_FreeOperation>
hashUserKey():
/home/pwnz/devel/optee/optee_examples/crypto/ta/hello_world_ta.c:237
     398:	52800022 	mov	w2, #0x1                   	// #1
     39c:	aa1a03e1 	mov	x1, x26
     3a0:	aa1903e0 	mov	x0, x25
     3a4:	97ffff1f 	bl	20 <createAndOpenObject.constprop.5>
/home/pwnz/devel/optee/optee_examples/crypto/ta/hello_world_ta.c:238
     3a8:	7100041f 	cmp	w0, #0x1
     3ac:	540003e0 	b.eq	428 <TA_InvokeCommandEntryPoint+0x1cc>
/home/pwnz/devel/optee/optee_examples/crypto/ta/hello_world_ta.c:241
     3b0:	f9432ad7 	ldr	x23, [x22,#1616]
     3b4:	aa1803e1 	mov	x1, x24
/home/pwnz/devel/optee/optee_examples/crypto/ta/hello_world_ta.c:244
     3b8:	9116a274 	add	x20, x19, #0x5a8
     3bc:	91022294 	add	x20, x20, #0x88
/home/pwnz/devel/optee/optee_examples/crypto/ta/hello_world_ta.c:241
     3c0:	f94002e0 	ldr	x0, [x23]
     3c4:	940003c3 	bl	12d0 <TEE_GetObjectInfo>
/home/pwnz/devel/optee/optee_examples/crypto/ta/hello_world_ta.c:242
     3c8:	52800001 	mov	w1, #0x0                   	// #0
     3cc:	52800200 	mov	w0, #0x10                  	// #16
     3d0:	940003a2 	bl	1258 <TEE_Malloc>
     3d4:	aa0003f9 	mov	x25, x0
/home/pwnz/devel/optee/optee_examples/crypto/ta/hello_world_ta.c:244
     3d8:	52800023 	mov	w3, #0x1                   	// #1
     3dc:	52800042 	mov	w2, #0x2                   	// #2
     3e0:	52801e81 	mov	w1, #0xf4                  	// #244
     3e4:	aa1403e0 	mov	x0, x20
     3e8:	90000064 	adrp	x4, c000 <PRIME_TABLE+0x770>
     3ec:	911ef084 	add	x4, x4, #0x7bc
     3f0:	94001ca7 	bl	768c <trace_printf>
/home/pwnz/devel/optee/optee_examples/crypto/ta/hello_world_ta.c:245
     3f4:	f94002e0 	ldr	x0, [x23]
     3f8:	9101c3a3 	add	x3, x29, #0x70
     3fc:	52800202 	mov	w2, #0x10                  	// #16
     400:	aa1903e1 	mov	x1, x25
     404:	9400064f 	bl	1d40 <TEE_ReadObjectData>
/home/pwnz/devel/optee/optee_examples/crypto/ta/hello_world_ta.c:246
     408:	34000980 	cbz	w0, 538 <TA_InvokeCommandEntryPoint+0x2dc>
/home/pwnz/devel/optee/optee_examples/crypto/ta/hello_world_ta.c:247
     40c:	90000064 	adrp	x4, c000 <PRIME_TABLE+0x770>
     410:	52800023 	mov	w3, #0x1                   	// #1
     414:	911f6484 	add	x4, x4, #0x7d9
     418:	52800022 	mov	w2, #0x1                   	// #1
     41c:	52801ee1 	mov	w1, #0xf7                  	// #247
     420:	aa1403e0 	mov	x0, x20
     424:	94001c9a 	bl	768c <trace_printf>
/home/pwnz/devel/optee/optee_examples/crypto/ta/hello_world_ta.c:260
     428:	9116a273 	add	x19, x19, #0x5a8
     42c:	52800023 	mov	w3, #0x1                   	// #1
     430:	52800042 	mov	w2, #0x2                   	// #2
     434:	52802081 	mov	w1, #0x104                 	// #260
     438:	91022260 	add	x0, x19, #0x88
     43c:	90000064 	adrp	x4, c000 <PRIME_TABLE+0x770>
     440:	9120b484 	add	x4, x4, #0x82d
     444:	94001c92 	bl	768c <trace_printf>
/home/pwnz/devel/optee/optee_examples/crypto/ta/hello_world_ta.c:261
     448:	f9432ac0 	ldr	x0, [x22,#1616]
TA_InvokeCommandEntryPoint():
/home/pwnz/devel/optee/optee_examples/crypto/ta/hello_world_ta.c:568
     44c:	9102c273 	add	x19, x19, #0xb0
/home/pwnz/devel/optee/optee_examples/crypto/ta/hello_world_ta.c:570
     450:	90000078 	adrp	x24, c000 <PRIME_TABLE+0x770>
/home/pwnz/devel/optee/optee_examples/crypto/ta/hello_world_ta.c:569
     454:	52800017 	mov	w23, #0x0                   	// #0
/home/pwnz/devel/optee/optee_examples/crypto/ta/hello_world_ta.c:570
     458:	9121b718 	add	x24, x24, #0x86d
hashUserKey():
/home/pwnz/devel/optee/optee_examples/crypto/ta/hello_world_ta.c:261
     45c:	f9400000 	ldr	x0, [x0]
     460:	94000442 	bl	1568 <TEE_CloseObject>
TA_InvokeCommandEntryPoint():
/home/pwnz/devel/optee/optee_examples/crypto/ta/hello_world_ta.c:568
     464:	90000064 	adrp	x4, c000 <PRIME_TABLE+0x770>
     468:	52800023 	mov	w3, #0x1                   	// #1
     46c:	91212484 	add	x4, x4, #0x849
     470:	52800042 	mov	w2, #0x2                   	// #2
     474:	52804701 	mov	w1, #0x238                 	// #568
     478:	aa1303e0 	mov	x0, x19
     47c:	94001c84 	bl	768c <trace_printf>
/home/pwnz/devel/optee/optee_examples/crypto/ta/hello_world_ta.c:569 (discriminator 1)
     480:	b9400aa0 	ldr	w0, [x21,#8]
     484:	6b0002ff 	cmp	w23, w0
     488:	54000883 	b.cc	598 <TA_InvokeCommandEntryPoint+0x33c>
/home/pwnz/devel/optee/optee_examples/crypto/ta/hello_world_ta.c:584
     48c:	52800015 	mov	w21, #0x0                   	// #0
     490:	140000cd 	b	7c4 <TA_InvokeCommandEntryPoint+0x568>
hashBufferWithSHA1():
/home/pwnz/devel/optee/optee_examples/crypto/ta/hello_world_ta.c:165
     494:	90000064 	adrp	x4, c000 <PRIME_TABLE+0x770>
     498:	52800023 	mov	w3, #0x1                   	// #1
     49c:	911dc484 	add	x4, x4, #0x771
     4a0:	52800042 	mov	w2, #0x2                   	// #2
     4a4:	528014a1 	mov	w1, #0xa5                  	// #165
     4a8:	aa1703e0 	mov	x0, x23
     4ac:	94001c78 	bl	768c <trace_printf>
     4b0:	d280001c 	mov	x28, #0x0                   	// #0
/home/pwnz/devel/optee/optee_examples/crypto/ta/hello_world_ta.c:167
     4b4:	90000066 	adrp	x6, c000 <PRIME_TABLE+0x770>
     4b8:	911e20c6 	add	x6, x6, #0x788
     4bc:	f9431ec0 	ldr	x0, [x22,#1592]
/home/pwnz/devel/optee/optee_examples/crypto/ta/hello_world_ta.c:166
     4c0:	6b1c037f 	cmp	w27, w28
     4c4:	5400022c 	b.gt	508 <TA_InvokeCommandEntryPoint+0x2ac>
/home/pwnz/devel/optee/optee_examples/crypto/ta/hello_world_ta.c:170
     4c8:	f9400001 	ldr	x1, [x0]
     4cc:	9101d3a4 	add	x4, x29, #0x74
     4d0:	f9403fa0 	ldr	x0, [x29,#120]
     4d4:	aa1a03e3 	mov	x3, x26
     4d8:	2a1b03e2 	mov	w2, w27
     4dc:	94000a37 	bl	2db8 <TEE_DigestDoFinal>
/home/pwnz/devel/optee/optee_examples/crypto/ta/hello_world_ta.c:171
     4e0:	34fff580 	cbz	w0, 390 <TA_InvokeCommandEntryPoint+0x134>
/home/pwnz/devel/optee/optee_examples/crypto/ta/hello_world_ta.c:172
     4e4:	9116a266 	add	x6, x19, #0x5a8
     4e8:	2a0003e5 	mov	w5, w0
     4ec:	90000064 	adrp	x4, c000 <PRIME_TABLE+0x770>
     4f0:	52800023 	mov	w3, #0x1                   	// #1
     4f4:	911e6484 	add	x4, x4, #0x799
     4f8:	52800042 	mov	w2, #0x2                   	// #2
     4fc:	52801581 	mov	w1, #0xac                  	// #172
     500:	910260c0 	add	x0, x6, #0x98
     504:	17ffffa2 	b	38c <TA_InvokeCommandEntryPoint+0x130>
/home/pwnz/devel/optee/optee_examples/crypto/ta/hello_world_ta.c:167
     508:	f9400000 	ldr	x0, [x0]
     50c:	aa0603e4 	mov	x4, x6
     510:	f90037a6 	str	x6, [x29,#104]
     514:	52800023 	mov	w3, #0x1                   	// #1
     518:	52800042 	mov	w2, #0x2                   	// #2
     51c:	528014e1 	mov	w1, #0xa7                  	// #167
     520:	387c6805 	ldrb	w5, [x0,x28]
     524:	aa1703e0 	mov	x0, x23
     528:	9100079c 	add	x28, x28, #0x1
     52c:	94001c58 	bl	768c <trace_printf>
     530:	f94037a6 	ldr	x6, [x29,#104]
     534:	17ffffe2 	b	4bc <TA_InvokeCommandEntryPoint+0x260>
hashUserKey():
/home/pwnz/devel/optee/optee_examples/crypto/ta/hello_world_ta.c:250
     538:	b94073a5 	ldr	w5, [x29,#112]
     53c:	90000064 	adrp	x4, c000 <PRIME_TABLE+0x770>
/home/pwnz/devel/optee/optee_examples/crypto/ta/hello_world_ta.c:254
     540:	90000078 	adrp	x24, c000 <PRIME_TABLE+0x770>
/home/pwnz/devel/optee/optee_examples/crypto/ta/hello_world_ta.c:250
     544:	aa1903e6 	mov	x6, x25
     548:	911fd884 	add	x4, x4, #0x7f6
     54c:	52800023 	mov	w3, #0x1                   	// #1
     550:	52800022 	mov	w2, #0x1                   	// #1
     554:	52801f41 	mov	w1, #0xfa                  	// #250
     558:	aa1403e0 	mov	x0, x20
     55c:	d2800017 	mov	x23, #0x0                   	// #0
/home/pwnz/devel/optee/optee_examples/crypto/ta/hello_world_ta.c:254
     560:	91203f18 	add	x24, x24, #0x80f
/home/pwnz/devel/optee/optee_examples/crypto/ta/hello_world_ta.c:250
     564:	94001c4a 	bl	768c <trace_printf>
/home/pwnz/devel/optee/optee_examples/crypto/ta/hello_world_ta.c:254
     568:	38776b26 	ldrb	w6, [x25,x23]
     56c:	2a1703e5 	mov	w5, w23
     570:	aa1803e4 	mov	x4, x24
     574:	52800023 	mov	w3, #0x1                   	// #1
     578:	52800042 	mov	w2, #0x2                   	// #2
     57c:	52801fc1 	mov	w1, #0xfe                  	// #254
     580:	aa1403e0 	mov	x0, x20
     584:	910006f7 	add	x23, x23, #0x1
     588:	94001c41 	bl	768c <trace_printf>
/home/pwnz/devel/optee/optee_examples/crypto/ta/hello_world_ta.c:253
     58c:	f10042ff 	cmp	x23, #0x10
     590:	54fffec1 	b.ne	568 <TA_InvokeCommandEntryPoint+0x30c>
     594:	17ffffa5 	b	428 <TA_InvokeCommandEntryPoint+0x1cc>
TA_InvokeCommandEntryPoint():
/home/pwnz/devel/optee/optee_examples/crypto/ta/hello_world_ta.c:570 (discriminator 3)
     598:	f9431ec0 	ldr	x0, [x22,#1592]
     59c:	2a1703e5 	mov	w5, w23
     5a0:	aa1803e4 	mov	x4, x24
     5a4:	52800023 	mov	w3, #0x1                   	// #1
     5a8:	52800042 	mov	w2, #0x2                   	// #2
     5ac:	52804741 	mov	w1, #0x23a                 	// #570
     5b0:	f9400000 	ldr	x0, [x0]
     5b4:	38774806 	ldrb	w6, [x0,w23,uxtw]
     5b8:	aa1303e0 	mov	x0, x19
/home/pwnz/devel/optee/optee_examples/crypto/ta/hello_world_ta.c:569 (discriminator 3)
     5bc:	110006f7 	add	w23, w23, #0x1
/home/pwnz/devel/optee/optee_examples/crypto/ta/hello_world_ta.c:570 (discriminator 3)
     5c0:	94001c33 	bl	768c <trace_printf>
/home/pwnz/devel/optee/optee_examples/crypto/ta/hello_world_ta.c:571 (discriminator 3)
     5c4:	90000064 	adrp	x4, c000 <PRIME_TABLE+0x770>
     5c8:	52800023 	mov	w3, #0x1                   	// #1
     5cc:	9121ac84 	add	x4, x4, #0x86b
     5d0:	52800042 	mov	w2, #0x2                   	// #2
     5d4:	52804761 	mov	w1, #0x23b                 	// #571
     5d8:	aa1303e0 	mov	x0, x19
     5dc:	94001c2c 	bl	768c <trace_printf>
     5e0:	17ffffa8 	b	480 <TA_InvokeCommandEntryPoint+0x224>
/home/pwnz/devel/optee/optee_examples/crypto/ta/hello_world_ta.c:576
     5e4:	d0000077 	adrp	x23, e000 <ta_props>
     5e8:	90000064 	adrp	x4, c000 <PRIME_TABLE+0x770>
     5ec:	9104a2e5 	add	x5, x23, #0x128
     5f0:	91221084 	add	x4, x4, #0x884
     5f4:	52800023 	mov	w3, #0x1                   	// #1
     5f8:	52800042 	mov	w2, #0x2                   	// #2
     5fc:	9116a275 	add	x21, x19, #0x5a8
     600:	52804801 	mov	w1, #0x240                 	// #576
     604:	9102c2a0 	add	x0, x21, #0xb0
encryptWithPrivateKey():
/home/pwnz/devel/optee/optee_examples/crypto/ta/hello_world_ta.c:473
     608:	b0000074 	adrp	x20, d000 <__func__.3637+0xa28>
TA_InvokeCommandEntryPoint():
/home/pwnz/devel/optee/optee_examples/crypto/ta/hello_world_ta.c:576
     60c:	94001c20 	bl	768c <trace_printf>
encryptWithPrivateKey():
/home/pwnz/devel/optee/optee_examples/crypto/ta/hello_world_ta.c:465
     610:	52800219 	mov	w25, #0x10                  	// #16
/home/pwnz/devel/optee/optee_examples/crypto/ta/hello_world_ta.c:469
     614:	910263b8 	add	x24, x29, #0x98
/home/pwnz/devel/optee/optee_examples/crypto/ta/hello_world_ta.c:468
     618:	52800001 	mov	w1, #0x0                   	// #0
     61c:	2a1903e0 	mov	w0, w25
/home/pwnz/devel/optee/optee_examples/crypto/ta/hello_world_ta.c:465
     620:	b90077b9 	str	w25, [x29,#116]
/home/pwnz/devel/optee/optee_examples/crypto/ta/hello_world_ta.c:468
     624:	9400030d 	bl	1258 <TEE_Malloc>
     628:	aa0003fa 	mov	x26, x0
/home/pwnz/devel/optee/optee_examples/crypto/ta/hello_world_ta.c:469
     62c:	d2800822 	mov	x2, #0x41                  	// #65
     630:	aa1803e0 	mov	x0, x24
     634:	90000061 	adrp	x1, c000 <PRIME_TABLE+0x770>
     638:	91325c21 	add	x1, x1, #0xc97
     63c:	940018b2 	bl	6904 <memcpy>
/home/pwnz/devel/optee/optee_examples/crypto/ta/hello_world_ta.c:473
     640:	f9432a9b 	ldr	x27, [x20,#1616]
/home/pwnz/devel/optee/optee_examples/crypto/ta/hello_world_ta.c:475
     644:	2a1903e2 	mov	w2, w25
     648:	52800001 	mov	w1, #0x0                   	// #0
     64c:	aa1a03e0 	mov	x0, x26
/home/pwnz/devel/optee/optee_examples/crypto/ta/hello_world_ta.c:477
     650:	910342b5 	add	x21, x21, #0xd0
/home/pwnz/devel/optee/optee_examples/crypto/ta/hello_world_ta.c:473
     654:	f900037f 	str	xzr, [x27]
/home/pwnz/devel/optee/optee_examples/crypto/ta/hello_world_ta.c:475
     658:	940002ab 	bl	1104 <TEE_MemFill>
/home/pwnz/devel/optee/optee_examples/crypto/ta/hello_world_ta.c:477
     65c:	90000064 	adrp	x4, c000 <PRIME_TABLE+0x770>
     660:	91229484 	add	x4, x4, #0x8a5
     664:	52800023 	mov	w3, #0x1                   	// #1
     668:	52800042 	mov	w2, #0x2                   	// #2
     66c:	52803ba1 	mov	w1, #0x1dd                 	// #477
     670:	aa1503e0 	mov	x0, x21
     674:	94001c06 	bl	768c <trace_printf>
/home/pwnz/devel/optee/optee_examples/crypto/ta/hello_world_ta.c:478
     678:	aa1803e0 	mov	x0, x24
     67c:	52800042 	mov	w2, #0x2                   	// #2
     680:	d2800001 	mov	x1, #0x0                   	// #0
     684:	aa1403f8 	mov	x24, x20
     688:	97fffe66 	bl	20 <createAndOpenObject.constprop.5>
     68c:	3100041f 	cmn	w0, #0x1
     690:	54000121 	b.ne	6b4 <TA_InvokeCommandEntryPoint+0x458>
/home/pwnz/devel/optee/optee_examples/crypto/ta/hello_world_ta.c:479
     694:	90000064 	adrp	x4, c000 <PRIME_TABLE+0x770>
     698:	aa1503e0 	mov	x0, x21
     69c:	91230884 	add	x4, x4, #0x8c2
     6a0:	52800023 	mov	w3, #0x1                   	// #1
     6a4:	52800042 	mov	w2, #0x2                   	// #2
     6a8:	52803be1 	mov	w1, #0x1df                 	// #479
/home/pwnz/devel/optee/optee_examples/crypto/ta/hello_world_ta.c:517
     6ac:	94001bf8 	bl	768c <trace_printf>
     6b0:	1400007a 	b	898 <TA_InvokeCommandEntryPoint+0x63c>
/home/pwnz/devel/optee/optee_examples/crypto/ta/hello_world_ta.c:483
     6b4:	52800023 	mov	w3, #0x1                   	// #1
     6b8:	52800042 	mov	w2, #0x2                   	// #2
     6bc:	52803c61 	mov	w1, #0x1e3                 	// #483
     6c0:	aa1503e0 	mov	x0, x21
     6c4:	90000064 	adrp	x4, c000 <PRIME_TABLE+0x770>
     6c8:	91236084 	add	x4, x4, #0x8d8
     6cc:	94001bf0 	bl	768c <trace_printf>
/home/pwnz/devel/optee/optee_examples/crypto/ta/hello_world_ta.c:484
     6d0:	f9400360 	ldr	x0, [x27]
     6d4:	9101c3a3 	add	x3, x29, #0x70
     6d8:	2a1903e2 	mov	w2, w25
     6dc:	aa1a03e1 	mov	x1, x26
     6e0:	94000598 	bl	1d40 <TEE_ReadObjectData>
     6e4:	34000100 	cbz	w0, 704 <TA_InvokeCommandEntryPoint+0x4a8>
/home/pwnz/devel/optee/optee_examples/crypto/ta/hello_world_ta.c:485
     6e8:	90000064 	adrp	x4, c000 <PRIME_TABLE+0x770>
     6ec:	52800023 	mov	w3, #0x1                   	// #1
     6f0:	9123d084 	add	x4, x4, #0x8f4
     6f4:	52800022 	mov	w2, #0x1                   	// #1
     6f8:	52803ca1 	mov	w1, #0x1e5                 	// #485
     6fc:	aa1503e0 	mov	x0, x21
     700:	94001be3 	bl	768c <trace_printf>
/home/pwnz/devel/optee/optee_examples/crypto/ta/hello_world_ta.c:488
     704:	9116a273 	add	x19, x19, #0x5a8
     708:	52800023 	mov	w3, #0x1                   	// #1
     70c:	91034273 	add	x19, x19, #0xd0
     710:	52800042 	mov	w2, #0x2                   	// #2
     714:	52803d01 	mov	w1, #0x1e8                 	// #488
     718:	aa1303e0 	mov	x0, x19
     71c:	90000064 	adrp	x4, c000 <PRIME_TABLE+0x770>
     720:	91244084 	add	x4, x4, #0x910
     724:	94001bda 	bl	768c <trace_printf>
setAttribute():
/home/pwnz/devel/optee/optee_examples/crypto/ta/hello_world_ta.c:457
     728:	f90043ba 	str	x26, [x29,#128]
/home/pwnz/devel/optee/optee_examples/crypto/ta/hello_world_ta.c:456
     72c:	52b80000 	mov	w0, #0xc0000000            	// #-1073741824
encryptWithPrivateKey():
/home/pwnz/devel/optee/optee_examples/crypto/ta/hello_world_ta.c:491
     730:	52800023 	mov	w3, #0x1                   	// #1
     734:	52800042 	mov	w2, #0x2                   	// #2
     738:	52803d61 	mov	w1, #0x1eb                 	// #491
setAttribute():
/home/pwnz/devel/optee/optee_examples/crypto/ta/hello_world_ta.c:456
     73c:	b9007ba0 	str	w0, [x29,#120]
/home/pwnz/devel/optee/optee_examples/crypto/ta/hello_world_ta.c:458
     740:	5280021a 	mov	w26, #0x10                  	// #16
encryptWithPrivateKey():
/home/pwnz/devel/optee/optee_examples/crypto/ta/hello_world_ta.c:491
     744:	aa1303e0 	mov	x0, x19
     748:	90000064 	adrp	x4, c000 <PRIME_TABLE+0x770>
setAttribute():
/home/pwnz/devel/optee/optee_examples/crypto/ta/hello_world_ta.c:458
     74c:	b9008bba 	str	w26, [x29,#136]
encryptWithPrivateKey():
/home/pwnz/devel/optee/optee_examples/crypto/ta/hello_world_ta.c:491
     750:	91249884 	add	x4, x4, #0x926
     754:	94001bce 	bl	768c <trace_printf>
/home/pwnz/devel/optee/optee_examples/crypto/ta/hello_world_ta.c:492
     758:	f9432714 	ldr	x20, [x24,#1608]
     75c:	f9400280 	ldr	x0, [x20]
     760:	940003ba 	bl	1648 <TEE_ResetTransientObject>
/home/pwnz/devel/optee/optee_examples/crypto/ta/hello_world_ta.c:494
     764:	52800023 	mov	w3, #0x1                   	// #1
     768:	52800042 	mov	w2, #0x2                   	// #2
     76c:	52803dc1 	mov	w1, #0x1ee                 	// #494
     770:	aa1303e0 	mov	x0, x19
     774:	90000064 	adrp	x4, c000 <PRIME_TABLE+0x770>
     778:	91252084 	add	x4, x4, #0x948
     77c:	94001bc4 	bl	768c <trace_printf>
/home/pwnz/devel/optee/optee_examples/crypto/ta/hello_world_ta.c:495
     780:	2a1a03e0 	mov	w0, w26
     784:	aa1403e2 	mov	x2, x20
     788:	52801001 	mov	w1, #0x80                  	// #128
     78c:	72b40000 	movk	w0, #0xa000, lsl #16
     790:	94000380 	bl	1590 <TEE_AllocateTransientObject>
     794:	f9433715 	ldr	x21, [x24,#1640]
     798:	b90002a0 	str	w0, [x21]
/home/pwnz/devel/optee/optee_examples/crypto/ta/hello_world_ta.c:496
     79c:	34000240 	cbz	w0, 7e4 <TA_InvokeCommandEntryPoint+0x588>
/home/pwnz/devel/optee/optee_examples/crypto/ta/hello_world_ta.c:497
     7a0:	2a0003e5 	mov	w5, w0
     7a4:	90000064 	adrp	x4, c000 <PRIME_TABLE+0x770>
     7a8:	52800023 	mov	w3, #0x1                   	// #1
     7ac:	9125b484 	add	x4, x4, #0x96d
     7b0:	52800042 	mov	w2, #0x2                   	// #2
     7b4:	52803e21 	mov	w1, #0x1f1                 	// #497
     7b8:	aa1303e0 	mov	x0, x19
     7bc:	94001bb4 	bl	768c <trace_printf>
/home/pwnz/devel/optee/optee_examples/crypto/ta/hello_world_ta.c:498
     7c0:	b94002b5 	ldr	w21, [x21]
TA_InvokeCommandEntryPoint():
/home/pwnz/devel/optee/optee_examples/crypto/ta/hello_world_ta.c:594
     7c4:	2a1503e0 	mov	w0, w21
     7c8:	a94153f3 	ldp	x19, x20, [sp,#16]
     7cc:	a9425bf5 	ldp	x21, x22, [sp,#32]
     7d0:	a94363f7 	ldp	x23, x24, [sp,#48]
     7d4:	a9446bf9 	ldp	x25, x26, [sp,#64]
     7d8:	a94573fb 	ldp	x27, x28, [sp,#80]
     7dc:	a8ce7bfd 	ldp	x29, x30, [sp],#224
     7e0:	d65f03c0 	ret
encryptWithPrivateKey():
/home/pwnz/devel/optee/optee_examples/crypto/ta/hello_world_ta.c:501
     7e4:	52800023 	mov	w3, #0x1                   	// #1
     7e8:	52800042 	mov	w2, #0x2                   	// #2
     7ec:	52803ea1 	mov	w1, #0x1f5                 	// #501
     7f0:	aa1303e0 	mov	x0, x19
     7f4:	90000064 	adrp	x4, c000 <PRIME_TABLE+0x770>
     7f8:	91266884 	add	x4, x4, #0x99a
     7fc:	94001ba4 	bl	768c <trace_printf>
/home/pwnz/devel/optee/optee_examples/crypto/ta/hello_world_ta.c:505
     800:	9104a2f9 	add	x25, x23, #0x128
/home/pwnz/devel/optee/optee_examples/crypto/ta/hello_world_ta.c:502
     804:	f9400280 	ldr	x0, [x20]
     808:	52800022 	mov	w2, #0x1                   	// #1
     80c:	9101e3a1 	add	x1, x29, #0x78
     810:	940003a3 	bl	169c <TEE_PopulateTransientObject>
/home/pwnz/devel/optee/optee_examples/crypto/ta/hello_world_ta.c:504
     814:	52800023 	mov	w3, #0x1                   	// #1
     818:	52800042 	mov	w2, #0x2                   	// #2
     81c:	52803f01 	mov	w1, #0x1f8                 	// #504
     820:	aa1303e0 	mov	x0, x19
     824:	90000064 	adrp	x4, c000 <PRIME_TABLE+0x770>
     828:	9126fc84 	add	x4, x4, #0x9bf
     82c:	94001b98 	bl	768c <trace_printf>
/home/pwnz/devel/optee/optee_examples/crypto/ta/hello_world_ta.c:505
     830:	f9400280 	ldr	x0, [x20]
     834:	91080321 	add	x1, x25, #0x200
     838:	940002a6 	bl	12d0 <TEE_GetObjectInfo>
/home/pwnz/devel/optee/optee_examples/crypto/ta/hello_world_ta.c:508
     83c:	90000064 	adrp	x4, c000 <PRIME_TABLE+0x770>
     840:	91276884 	add	x4, x4, #0x9da
     844:	52800023 	mov	w3, #0x1                   	// #1
     848:	52800042 	mov	w2, #0x2                   	// #2
     84c:	52803f81 	mov	w1, #0x1fc                 	// #508
     850:	aa1303e0 	mov	x0, x19
     854:	94001b8e 	bl	768c <trace_printf>
/home/pwnz/devel/optee/optee_examples/crypto/ta/hello_world_ta.c:509
     858:	52802201 	mov	w1, #0x110                 	// #272
     85c:	52801003 	mov	w3, #0x80                  	// #128
     860:	52800002 	mov	w2, #0x0                   	// #0
     864:	72a20001 	movk	w1, #0x1000, lsl #16
     868:	91088320 	add	x0, x25, #0x220
     86c:	940005c4 	bl	1f7c <TEE_AllocateOperation>
     870:	34000180 	cbz	w0, 8a0 <TA_InvokeCommandEntryPoint+0x644>
/home/pwnz/devel/optee/optee_examples/crypto/ta/hello_world_ta.c:510
     874:	aa1303e0 	mov	x0, x19
     878:	90000064 	adrp	x4, c000 <PRIME_TABLE+0x770>
     87c:	52800023 	mov	w3, #0x1                   	// #1
     880:	9127e484 	add	x4, x4, #0x9f9
     884:	52800042 	mov	w2, #0x2                   	// #2
     888:	52803fc1 	mov	w1, #0x1fe                 	// #510
     88c:	94001b80 	bl	768c <trace_printf>
/home/pwnz/devel/optee/optee_examples/crypto/ta/hello_world_ta.c:511
     890:	f9400280 	ldr	x0, [x20]
     894:	94000358 	bl	15f4 <TEE_FreeTransientObject>
/home/pwnz/devel/optee/optee_examples/crypto/ta/hello_world_ta.c:512
     898:	129ffef5 	mov	w21, #0xffff0008            	// #-65528
     89c:	17ffffca 	b	7c4 <TA_InvokeCommandEntryPoint+0x568>
/home/pwnz/devel/optee/optee_examples/crypto/ta/hello_world_ta.c:515
     8a0:	52800023 	mov	w3, #0x1                   	// #1
     8a4:	52800042 	mov	w2, #0x2                   	// #2
     8a8:	52804061 	mov	w1, #0x203                 	// #515
     8ac:	aa1303e0 	mov	x0, x19
     8b0:	90000064 	adrp	x4, c000 <PRIME_TABLE+0x770>
     8b4:	91286084 	add	x4, x4, #0xa18
     8b8:	94001b75 	bl	768c <trace_printf>
/home/pwnz/devel/optee/optee_examples/crypto/ta/hello_world_ta.c:516
     8bc:	f9400281 	ldr	x1, [x20]
     8c0:	f9411320 	ldr	x0, [x25,#544]
     8c4:	94000839 	bl	29a8 <TEE_SetOperationKey>
     8c8:	2a0003f5 	mov	w21, w0
     8cc:	34000100 	cbz	w0, 8ec <TA_InvokeCommandEntryPoint+0x690>
/home/pwnz/devel/optee/optee_examples/crypto/ta/hello_world_ta.c:517
     8d0:	90000064 	adrp	x4, c000 <PRIME_TABLE+0x770>
     8d4:	52800023 	mov	w3, #0x1                   	// #1
     8d8:	9128d484 	add	x4, x4, #0xa35
     8dc:	52800042 	mov	w2, #0x2                   	// #2
     8e0:	528040a1 	mov	w1, #0x205                 	// #517
     8e4:	aa1303e0 	mov	x0, x19
     8e8:	17ffff71 	b	6ac <TA_InvokeCommandEntryPoint+0x450>
/home/pwnz/devel/optee/optee_examples/crypto/ta/hello_world_ta.c:521
     8ec:	52800023 	mov	w3, #0x1                   	// #1
     8f0:	52800042 	mov	w2, #0x2                   	// #2
     8f4:	52804121 	mov	w1, #0x209                 	// #521
     8f8:	aa1303e0 	mov	x0, x19
     8fc:	90000064 	adrp	x4, c000 <PRIME_TABLE+0x770>
     900:	91294884 	add	x4, x4, #0xa52
     904:	94001b62 	bl	768c <trace_printf>
/home/pwnz/devel/optee/optee_examples/crypto/ta/hello_world_ta.c:527
     908:	d2800014 	mov	x20, #0x0                   	// #0
/home/pwnz/devel/optee/optee_examples/crypto/ta/hello_world_ta.c:522
     90c:	d0000060 	adrp	x0, e000 <ta_props>
     910:	9108a321 	add	x1, x25, #0x228
/home/pwnz/devel/optee/optee_examples/crypto/ta/hello_world_ta.c:529
     914:	910042d6 	add	x22, x22, #0x10
/home/pwnz/devel/optee/optee_examples/crypto/ta/hello_world_ta.c:522
     918:	b9412002 	ldr	w2, [x0,#288]
     91c:	f9411320 	ldr	x0, [x25,#544]
/home/pwnz/devel/optee/optee_examples/crypto/ta/hello_world_ta.c:529
     920:	90000079 	adrp	x25, c000 <PRIME_TABLE+0x770>
     924:	912a0339 	add	x25, x25, #0xa80
/home/pwnz/devel/optee/optee_examples/crypto/ta/hello_world_ta.c:522
     928:	94000955 	bl	2e7c <TEE_CipherInit>
/home/pwnz/devel/optee/optee_examples/crypto/ta/hello_world_ta.c:525
     92c:	b90077ba 	str	w26, [x29,#116]
/home/pwnz/devel/optee/optee_examples/crypto/ta/hello_world_ta.c:527
     930:	90000064 	adrp	x4, c000 <PRIME_TABLE+0x770>
     934:	52800023 	mov	w3, #0x1                   	// #1
     938:	9129a884 	add	x4, x4, #0xa6a
     93c:	52800042 	mov	w2, #0x2                   	// #2
     940:	528041e1 	mov	w1, #0x20f                 	// #527
     944:	aa1303e0 	mov	x0, x19
     948:	94001b51 	bl	768c <trace_printf>
/home/pwnz/devel/optee/optee_examples/crypto/ta/hello_world_ta.c:529
     94c:	f94002c0 	ldr	x0, [x22]
     950:	2a1403e5 	mov	w5, w20
     954:	aa1903e4 	mov	x4, x25
     958:	52800023 	mov	w3, #0x1                   	// #1
     95c:	52800042 	mov	w2, #0x2                   	// #2
     960:	52804221 	mov	w1, #0x211                 	// #529
     964:	38746806 	ldrb	w6, [x0,x20]
     968:	aa1303e0 	mov	x0, x19
     96c:	91000694 	add	x20, x20, #0x1
     970:	94001b47 	bl	768c <trace_printf>
/home/pwnz/devel/optee/optee_examples/crypto/ta/hello_world_ta.c:528
     974:	f100429f 	cmp	x20, #0x10
     978:	54fffea1 	b.ne	94c <TA_InvokeCommandEntryPoint+0x6f0>
/home/pwnz/devel/optee/optee_examples/crypto/ta/hello_world_ta.c:532
     97c:	52800023 	mov	w3, #0x1                   	// #1
     980:	52800042 	mov	w2, #0x2                   	// #2
     984:	52804281 	mov	w1, #0x214                 	// #532
     988:	aa1303e0 	mov	x0, x19
     98c:	90000064 	adrp	x4, c000 <PRIME_TABLE+0x770>
     990:	912a6084 	add	x4, x4, #0xa98
     994:	94001b3e 	bl	768c <trace_printf>
/home/pwnz/devel/optee/optee_examples/crypto/ta/hello_world_ta.c:537
     998:	90000079 	adrp	x25, c000 <PRIME_TABLE+0x770>
/home/pwnz/devel/optee/optee_examples/crypto/ta/hello_world_ta.c:533
     99c:	9104a2e0 	add	x0, x23, #0x128
     9a0:	f94002c3 	ldr	x3, [x22]
     9a4:	2a1403e2 	mov	w2, w20
     9a8:	9101d3a4 	add	x4, x29, #0x74
     9ac:	aa0303e1 	mov	x1, x3
/home/pwnz/devel/optee/optee_examples/crypto/ta/hello_world_ta.c:535
     9b0:	d2800014 	mov	x20, #0x0                   	// #0
/home/pwnz/devel/optee/optee_examples/crypto/ta/hello_world_ta.c:533
     9b4:	f9411000 	ldr	x0, [x0,#544]
/home/pwnz/devel/optee/optee_examples/crypto/ta/hello_world_ta.c:537
     9b8:	912b3739 	add	x25, x25, #0xacd
/home/pwnz/devel/optee/optee_examples/crypto/ta/hello_world_ta.c:533
     9bc:	940009b0 	bl	307c <TEE_CipherDoFinal>
/home/pwnz/devel/optee/optee_examples/crypto/ta/hello_world_ta.c:535
     9c0:	90000064 	adrp	x4, c000 <PRIME_TABLE+0x770>
     9c4:	52800023 	mov	w3, #0x1                   	// #1
     9c8:	912acc84 	add	x4, x4, #0xab3
     9cc:	52800042 	mov	w2, #0x2                   	// #2
     9d0:	528042e1 	mov	w1, #0x217                 	// #535
     9d4:	aa1303e0 	mov	x0, x19
     9d8:	94001b2d 	bl	768c <trace_printf>
/home/pwnz/devel/optee/optee_examples/crypto/ta/hello_world_ta.c:537
     9dc:	f94002c0 	ldr	x0, [x22]
     9e0:	2a1403e5 	mov	w5, w20
     9e4:	aa1903e4 	mov	x4, x25
     9e8:	52800023 	mov	w3, #0x1                   	// #1
     9ec:	52800042 	mov	w2, #0x2                   	// #2
     9f0:	52804321 	mov	w1, #0x219                 	// #537
     9f4:	38746806 	ldrb	w6, [x0,x20]
     9f8:	aa1303e0 	mov	x0, x19
     9fc:	91000694 	add	x20, x20, #0x1
     a00:	94001b23 	bl	768c <trace_printf>
/home/pwnz/devel/optee/optee_examples/crypto/ta/hello_world_ta.c:536
     a04:	f100429f 	cmp	x20, #0x10
     a08:	54fffea1 	b.ne	9dc <TA_InvokeCommandEntryPoint+0x780>
/home/pwnz/devel/optee/optee_examples/crypto/ta/hello_world_ta.c:542
     a0c:	9104a2f7 	add	x23, x23, #0x128
     a10:	f94112e0 	ldr	x0, [x23,#544]
     a14:	94000549 	bl	1f38 <TEE_FreeOperation>
/home/pwnz/devel/optee/optee_examples/crypto/ta/hello_world_ta.c:543
     a18:	f9432700 	ldr	x0, [x24,#1608]
     a1c:	f9400000 	ldr	x0, [x0]
     a20:	940002f5 	bl	15f4 <TEE_FreeTransientObject>
/home/pwnz/devel/optee/optee_examples/crypto/ta/hello_world_ta.c:544
     a24:	f9432b00 	ldr	x0, [x24,#1616]
     a28:	f9400000 	ldr	x0, [x0]
     a2c:	940002cf 	bl	1568 <TEE_CloseObject>
TA_InvokeCommandEntryPoint():
/home/pwnz/devel/optee/optee_examples/crypto/ta/hello_world_ta.c:577
     a30:	17ffff65 	b	7c4 <TA_InvokeCommandEntryPoint+0x568>
/home/pwnz/devel/optee/optee_examples/crypto/ta/hello_world_ta.c:580
     a34:	d0000079 	adrp	x25, e000 <ta_props>
     a38:	9104a338 	add	x24, x25, #0x128
     a3c:	aa1803e5 	mov	x5, x24
     a40:	90000064 	adrp	x4, c000 <PRIME_TABLE+0x770>
     a44:	912ba484 	add	x4, x4, #0xae9
     a48:	52800023 	mov	w3, #0x1                   	// #1
     a4c:	9116a273 	add	x19, x19, #0x5a8
     a50:	52800042 	mov	w2, #0x2                   	// #2
     a54:	52804881 	mov	w1, #0x244                 	// #580
     a58:	9102c260 	add	x0, x19, #0xb0
dec():
/home/pwnz/devel/optee/optee_examples/crypto/ta/hello_world_ta.c:274
     a5c:	910263b4 	add	x20, x29, #0x98
TA_InvokeCommandEntryPoint():
/home/pwnz/devel/optee/optee_examples/crypto/ta/hello_world_ta.c:580
     a60:	94001b0b 	bl	768c <trace_printf>
dec():
/home/pwnz/devel/optee/optee_examples/crypto/ta/hello_world_ta.c:274
     a64:	d2800822 	mov	x2, #0x41                  	// #65
/home/pwnz/devel/optee/optee_examples/crypto/ta/hello_world_ta.c:269
     a68:	5280401a 	mov	w26, #0x200                 	// #512
/home/pwnz/devel/optee/optee_examples/crypto/ta/hello_world_ta.c:274
     a6c:	90000061 	adrp	x1, c000 <PRIME_TABLE+0x770>
     a70:	aa1403e0 	mov	x0, x20
     a74:	91325c21 	add	x1, x1, #0xc97
/home/pwnz/devel/optee/optee_examples/crypto/ta/hello_world_ta.c:269
     a78:	b90077ba 	str	w26, [x29,#116]
/home/pwnz/devel/optee/optee_examples/crypto/ta/hello_world_ta.c:274
     a7c:	940017a2 	bl	6904 <memcpy>
/home/pwnz/devel/optee/optee_examples/crypto/ta/hello_world_ta.c:280
     a80:	9103a277 	add	x23, x19, #0xe8
     a84:	f9400ac5 	ldr	x5, [x22,#16]
     a88:	52800023 	mov	w3, #0x1                   	// #1
     a8c:	52800042 	mov	w2, #0x2                   	// #2
     a90:	52802301 	mov	w1, #0x118                 	// #280
     a94:	aa1703e0 	mov	x0, x23
     a98:	90000064 	adrp	x4, c000 <PRIME_TABLE+0x770>
     a9c:	912c2884 	add	x4, x4, #0xb0a
     aa0:	94001afb 	bl	768c <trace_printf>
/home/pwnz/devel/optee/optee_examples/crypto/ta/hello_world_ta.c:283
     aa4:	b9401ac2 	ldr	w2, [x22,#24]
     aa8:	aa1803e0 	mov	x0, x24
     aac:	f9400ac1 	ldr	x1, [x22,#16]
     ab0:	94000191 	bl	10f4 <TEE_MemMove>
/home/pwnz/devel/optee/optee_examples/crypto/ta/hello_world_ta.c:291
     ab4:	52800042 	mov	w2, #0x2                   	// #2
     ab8:	9101e3a1 	add	x1, x29, #0x78
     abc:	aa1403e0 	mov	x0, x20
     ac0:	97fffd58 	bl	20 <createAndOpenObject.constprop.5>
     ac4:	2a0003f6 	mov	w22, w0
/home/pwnz/devel/optee/optee_examples/crypto/ta/hello_world_ta.c:292
     ac8:	7100041f 	cmp	w0, #0x1
     acc:	54000100 	b.eq	aec <TA_InvokeCommandEntryPoint+0x890>
/home/pwnz/devel/optee/optee_examples/crypto/ta/hello_world_ta.c:293
     ad0:	90000064 	adrp	x4, c000 <PRIME_TABLE+0x770>
     ad4:	52800023 	mov	w3, #0x1                   	// #1
     ad8:	91230884 	add	x4, x4, #0x8c2
     adc:	52800042 	mov	w2, #0x2                   	// #2
     ae0:	528024a1 	mov	w1, #0x125                 	// #293
     ae4:	aa1703e0 	mov	x0, x23
     ae8:	17fffef1 	b	6ac <TA_InvokeCommandEntryPoint+0x450>
/home/pwnz/devel/optee/optee_examples/crypto/ta/hello_world_ta.c:298
     aec:	b0000074 	adrp	x20, d000 <__func__.3637+0xa28>
/home/pwnz/devel/optee/optee_examples/crypto/ta/hello_world_ta.c:297
     af0:	2a0003e3 	mov	w3, w0
     af4:	90000064 	adrp	x4, c000 <PRIME_TABLE+0x770>
     af8:	912c6484 	add	x4, x4, #0xb19
     afc:	52800042 	mov	w2, #0x2                   	// #2
     b00:	52802521 	mov	w1, #0x129                 	// #297
     b04:	aa1703e0 	mov	x0, x23
     b08:	94001ae1 	bl	768c <trace_printf>
/home/pwnz/devel/optee/optee_examples/crypto/ta/hello_world_ta.c:298
     b0c:	f9432a95 	ldr	x21, [x20,#1616]
     b10:	52800200 	mov	w0, #0x10                  	// #16
     b14:	52801001 	mov	w1, #0x80                  	// #128
     b18:	72b40000 	movk	w0, #0xa000, lsl #16
     b1c:	aa1503e2 	mov	x2, x21
     b20:	9400029c 	bl	1590 <TEE_AllocateTransientObject>
     b24:	f9433694 	ldr	x20, [x20,#1640]
     b28:	b9000280 	str	w0, [x20]
/home/pwnz/devel/optee/optee_examples/crypto/ta/hello_world_ta.c:299
     b2c:	34000140 	cbz	w0, b54 <TA_InvokeCommandEntryPoint+0x8f8>
/home/pwnz/devel/optee/optee_examples/crypto/ta/hello_world_ta.c:300
     b30:	90000064 	adrp	x4, c000 <PRIME_TABLE+0x770>
     b34:	2a0003e5 	mov	w5, w0
     b38:	9125b484 	add	x4, x4, #0x96d
     b3c:	2a1603e3 	mov	w3, w22
     b40:	52800042 	mov	w2, #0x2                   	// #2
     b44:	52802581 	mov	w1, #0x12c                 	// #300
/home/pwnz/devel/optee/optee_examples/crypto/ta/hello_world_ta.c:329
     b48:	aa1703e0 	mov	x0, x23
     b4c:	94001ad0 	bl	768c <trace_printf>
     b50:	1400001a 	b	bb8 <TA_InvokeCommandEntryPoint+0x95c>
/home/pwnz/devel/optee/optee_examples/crypto/ta/hello_world_ta.c:304
     b54:	90000064 	adrp	x4, c000 <PRIME_TABLE+0x770>
     b58:	912cd884 	add	x4, x4, #0xb36
     b5c:	2a1603e3 	mov	w3, w22
     b60:	52800042 	mov	w2, #0x2                   	// #2
     b64:	52802601 	mov	w1, #0x130                 	// #304
     b68:	aa1703e0 	mov	x0, x23
     b6c:	94001ac8 	bl	768c <trace_printf>
/home/pwnz/devel/optee/optee_examples/crypto/ta/hello_world_ta.c:305
     b70:	52802201 	mov	w1, #0x110                 	// #272
     b74:	52801003 	mov	w3, #0x80                  	// #128
     b78:	2a1603e2 	mov	w2, w22
     b7c:	72a20001 	movk	w1, #0x1000, lsl #16
     b80:	91088300 	add	x0, x24, #0x220
     b84:	940004fe 	bl	1f7c <TEE_AllocateOperation>
     b88:	b9000280 	str	w0, [x20]
/home/pwnz/devel/optee/optee_examples/crypto/ta/hello_world_ta.c:306
     b8c:	340001a0 	cbz	w0, bc0 <TA_InvokeCommandEntryPoint+0x964>
/home/pwnz/devel/optee/optee_examples/crypto/ta/hello_world_ta.c:307
     b90:	2a0003e5 	mov	w5, w0
     b94:	90000064 	adrp	x4, c000 <PRIME_TABLE+0x770>
     b98:	aa1703e0 	mov	x0, x23
     b9c:	911d2884 	add	x4, x4, #0x74a
     ba0:	2a1603e3 	mov	w3, w22
     ba4:	52800042 	mov	w2, #0x2                   	// #2
     ba8:	52802661 	mov	w1, #0x133                 	// #307
     bac:	94001ab8 	bl	768c <trace_printf>
/home/pwnz/devel/optee/optee_examples/crypto/ta/hello_world_ta.c:308
     bb0:	f94002a0 	ldr	x0, [x21]
     bb4:	94000290 	bl	15f4 <TEE_FreeTransientObject>
/home/pwnz/devel/optee/optee_examples/crypto/ta/hello_world_ta.c:330
     bb8:	b9400295 	ldr	w21, [x20]
     bbc:	17ffff02 	b	7c4 <TA_InvokeCommandEntryPoint+0x568>
/home/pwnz/devel/optee/optee_examples/crypto/ta/hello_world_ta.c:313
     bc0:	2a1603e3 	mov	w3, w22
     bc4:	52800042 	mov	w2, #0x2                   	// #2
     bc8:	52802721 	mov	w1, #0x139                 	// #313
     bcc:	aa1703e0 	mov	x0, x23
     bd0:	90000064 	adrp	x4, c000 <PRIME_TABLE+0x770>
     bd4:	912d3484 	add	x4, x4, #0xb4d
     bd8:	94001aad 	bl	768c <trace_printf>
/home/pwnz/devel/optee/optee_examples/crypto/ta/hello_world_ta.c:315
     bdc:	2a1603e3 	mov	w3, w22
     be0:	52800042 	mov	w2, #0x2                   	// #2
     be4:	52802761 	mov	w1, #0x13b                 	// #315
     be8:	aa1703e0 	mov	x0, x23
     bec:	90000064 	adrp	x4, c000 <PRIME_TABLE+0x770>
     bf0:	912dc484 	add	x4, x4, #0xb71
     bf4:	94001aa6 	bl	768c <trace_printf>
/home/pwnz/devel/optee/optee_examples/crypto/ta/hello_world_ta.c:316
     bf8:	f94002a1 	ldr	x1, [x21]
     bfc:	f9411300 	ldr	x0, [x24,#544]
     c00:	9400076a 	bl	29a8 <TEE_SetOperationKey>
     c04:	b9000280 	str	w0, [x20]
/home/pwnz/devel/optee/optee_examples/crypto/ta/hello_world_ta.c:317
     c08:	34000100 	cbz	w0, c28 <TA_InvokeCommandEntryPoint+0x9cc>
/home/pwnz/devel/optee/optee_examples/crypto/ta/hello_world_ta.c:318
     c0c:	90000064 	adrp	x4, c000 <PRIME_TABLE+0x770>
     c10:	2a0003e5 	mov	w5, w0
     c14:	912e1884 	add	x4, x4, #0xb86
     c18:	2a1603e3 	mov	w3, w22
     c1c:	52800042 	mov	w2, #0x2                   	// #2
     c20:	528027c1 	mov	w1, #0x13e                 	// #318
     c24:	17ffffc9 	b	b48 <TA_InvokeCommandEntryPoint+0x8ec>
/home/pwnz/devel/optee/optee_examples/crypto/ta/hello_world_ta.c:323
     c28:	2a1603e3 	mov	w3, w22
     c2c:	52800042 	mov	w2, #0x2                   	// #2
     c30:	52802861 	mov	w1, #0x143                 	// #323
     c34:	aa1703e0 	mov	x0, x23
     c38:	90000064 	adrp	x4, c000 <PRIME_TABLE+0x770>
     c3c:	912eac84 	add	x4, x4, #0xbab
     c40:	94001a93 	bl	768c <trace_printf>
/home/pwnz/devel/optee/optee_examples/crypto/ta/hello_world_ta.c:325
     c44:	2a1603e3 	mov	w3, w22
     c48:	52800042 	mov	w2, #0x2                   	// #2
     c4c:	528028a1 	mov	w1, #0x145                 	// #325
     c50:	aa1703e0 	mov	x0, x23
     c54:	90000064 	adrp	x4, c000 <PRIME_TABLE+0x770>
     c58:	912f0c84 	add	x4, x4, #0xbc3
     c5c:	94001a8c 	bl	768c <trace_printf>
/home/pwnz/devel/optee/optee_examples/crypto/ta/hello_world_ta.c:327
     c60:	d0000060 	adrp	x0, e000 <ta_props>
     c64:	9108a301 	add	x1, x24, #0x228
     c68:	b9412002 	ldr	w2, [x0,#288]
     c6c:	f9411300 	ldr	x0, [x24,#544]
     c70:	94000883 	bl	2e7c <TEE_CipherInit>
/home/pwnz/devel/optee/optee_examples/crypto/ta/hello_world_ta.c:328
     c74:	b9400295 	ldr	w21, [x20]
     c78:	34000115 	cbz	w21, c98 <TA_InvokeCommandEntryPoint+0xa3c>
/home/pwnz/devel/optee/optee_examples/crypto/ta/hello_world_ta.c:329
     c7c:	90000064 	adrp	x4, c000 <PRIME_TABLE+0x770>
     c80:	2a1503e5 	mov	w5, w21
     c84:	912f4c84 	add	x4, x4, #0xbd3
     c88:	2a1603e3 	mov	w3, w22
     c8c:	52800042 	mov	w2, #0x2                   	// #2
     c90:	52802921 	mov	w1, #0x149                 	// #329
     c94:	17ffffad 	b	b48 <TA_InvokeCommandEntryPoint+0x8ec>
/home/pwnz/devel/optee/optee_examples/crypto/ta/hello_world_ta.c:334
     c98:	910383bc 	add	x28, x29, #0xe0
/home/pwnz/devel/optee/optee_examples/crypto/ta/hello_world_ta.c:332
     c9c:	2a1603e3 	mov	w3, w22
     ca0:	52800042 	mov	w2, #0x2                   	// #2
     ca4:	52802981 	mov	w1, #0x14c                 	// #332
     ca8:	aa1703e0 	mov	x0, x23
     cac:	90000064 	adrp	x4, c000 <PRIME_TABLE+0x770>
     cb0:	912fcc84 	add	x4, x4, #0xbf3
     cb4:	94001a76 	bl	768c <trace_printf>
/home/pwnz/devel/optee/optee_examples/crypto/ta/hello_world_ta.c:336
     cb8:	2a1603e3 	mov	w3, w22
/home/pwnz/devel/optee/optee_examples/crypto/ta/hello_world_ta.c:334
     cbc:	b8194f9a 	str	w26, [x28,#-108]!
/home/pwnz/devel/optee/optee_examples/crypto/ta/hello_world_ta.c:336
     cc0:	52800042 	mov	w2, #0x2                   	// #2
     cc4:	52802a01 	mov	w1, #0x150                 	// #336
     cc8:	aa1703e0 	mov	x0, x23
     ccc:	90000064 	adrp	x4, c000 <PRIME_TABLE+0x770>
     cd0:	91301084 	add	x4, x4, #0xc04
     cd4:	94001a6e 	bl	768c <trace_printf>
/home/pwnz/devel/optee/optee_examples/crypto/ta/hello_world_ta.c:337
     cd8:	f9411300 	ldr	x0, [x24,#544]
     cdc:	9108e31b 	add	x27, x24, #0x238
     ce0:	aa1c03e4 	mov	x4, x28
     ce4:	aa1b03e3 	mov	x3, x27
     ce8:	2a1a03e2 	mov	w2, w26
     cec:	aa1803e1 	mov	x1, x24
     cf0:	9400088c 	bl	2f20 <TEE_CipherUpdate>
     cf4:	b9000280 	str	w0, [x20]
/home/pwnz/devel/optee/optee_examples/crypto/ta/hello_world_ta.c:338
     cf8:	2a1603e3 	mov	w3, w22
     cfc:	52800042 	mov	w2, #0x2                   	// #2
     d00:	52802a41 	mov	w1, #0x152                 	// #338
     d04:	aa1703e0 	mov	x0, x23
     d08:	90000064 	adrp	x4, c000 <PRIME_TABLE+0x770>
     d0c:	91307084 	add	x4, x4, #0xc1c
     d10:	94001a5f 	bl	768c <trace_printf>
/home/pwnz/devel/optee/optee_examples/crypto/ta/hello_world_ta.c:344
     d14:	d2800014 	mov	x20, #0x0                   	// #0
     d18:	2a1603e3 	mov	w3, w22
/home/pwnz/devel/optee/optee_examples/crypto/ta/hello_world_ta.c:346
     d1c:	90000076 	adrp	x22, c000 <PRIME_TABLE+0x770>
     d20:	9130ced6 	add	x22, x22, #0xc33
/home/pwnz/devel/optee/optee_examples/crypto/ta/hello_world_ta.c:344
     d24:	90000064 	adrp	x4, c000 <PRIME_TABLE+0x770>
     d28:	52800042 	mov	w2, #0x2                   	// #2
     d2c:	912acc84 	add	x4, x4, #0xab3
     d30:	52802b01 	mov	w1, #0x158                 	// #344
     d34:	aa1703e0 	mov	x0, x23
     d38:	94001a55 	bl	768c <trace_printf>
/home/pwnz/devel/optee/optee_examples/crypto/ta/hello_world_ta.c:345
     d3c:	b94077a0 	ldr	w0, [x29,#116]
     d40:	6b00029f 	cmp	w20, w0
     d44:	54000123 	b.cc	d68 <TA_InvokeCommandEntryPoint+0xb0c>
/home/pwnz/devel/optee/optee_examples/crypto/ta/hello_world_ta.c:351
     d48:	9104a339 	add	x25, x25, #0x128
/home/pwnz/devel/optee/optee_examples/crypto/ta/hello_world_ta.c:352
     d4c:	b0000074 	adrp	x20, d000 <__func__.3637+0xa28>
/home/pwnz/devel/optee/optee_examples/crypto/ta/hello_world_ta.c:351
     d50:	f9411320 	ldr	x0, [x25,#544]
     d54:	94000479 	bl	1f38 <TEE_FreeOperation>
/home/pwnz/devel/optee/optee_examples/crypto/ta/hello_world_ta.c:352
     d58:	f9432694 	ldr	x20, [x20,#1608]
     d5c:	f9400280 	ldr	x0, [x20]
     d60:	94000225 	bl	15f4 <TEE_FreeTransientObject>
TA_InvokeCommandEntryPoint():
/home/pwnz/devel/optee/optee_examples/crypto/ta/hello_world_ta.c:581
     d64:	17fffe98 	b	7c4 <TA_InvokeCommandEntryPoint+0x568>
dec():
/home/pwnz/devel/optee/optee_examples/crypto/ta/hello_world_ta.c:346
     d68:	38746b66 	ldrb	w6, [x27,x20]
     d6c:	2a1403e5 	mov	w5, w20
     d70:	aa1603e4 	mov	x4, x22
     d74:	52800023 	mov	w3, #0x1                   	// #1
     d78:	52800042 	mov	w2, #0x2                   	// #2
     d7c:	52802b41 	mov	w1, #0x15a                 	// #346
     d80:	9103a260 	add	x0, x19, #0xe8
     d84:	91000694 	add	x20, x20, #0x1
     d88:	94001a41 	bl	768c <trace_printf>
     d8c:	17ffffec 	b	d3c <TA_InvokeCommandEntryPoint+0xae0>
TA_InvokeCommandEntryPoint():
/home/pwnz/devel/optee/optee_examples/crypto/ta/hello_world_ta.c:583
     d90:	9116a260 	add	x0, x19, #0x5a8
     d94:	d0000065 	adrp	x5, e000 <ta_props>
     d98:	90000064 	adrp	x4, c000 <PRIME_TABLE+0x770>
     d9c:	9104a0a5 	add	x5, x5, #0x128
     da0:	91311484 	add	x4, x4, #0xc45
     da4:	52800023 	mov	w3, #0x1                   	// #1
     da8:	52800042 	mov	w2, #0x2                   	// #2
     dac:	528048e1 	mov	w1, #0x247                 	// #583
     db0:	9102c000 	add	x0, x0, #0xb0
     db4:	94001a36 	bl	768c <trace_printf>
     db8:	17fffdb5 	b	48c <TA_InvokeCommandEntryPoint+0x230>
/home/pwnz/devel/optee/optee_examples/crypto/ta/hello_world_ta.c:587
     dbc:	9116a260 	add	x0, x19, #0x5a8
     dc0:	d0000065 	adrp	x5, e000 <ta_props>
     dc4:	90000064 	adrp	x4, c000 <PRIME_TABLE+0x770>
     dc8:	9104a0a5 	add	x5, x5, #0x128
     dcc:	91319484 	add	x4, x4, #0xc65
     dd0:	52800023 	mov	w3, #0x1                   	// #1
     dd4:	52800042 	mov	w2, #0x2                   	// #2
     dd8:	52804961 	mov	w1, #0x24b                 	// #587
     ddc:	9102c000 	add	x0, x0, #0xb0
/home/pwnz/devel/optee/optee_examples/crypto/ta/hello_world_ta.c:588
     de0:	129fff35 	mov	w21, #0xffff0006            	// #-65530
/home/pwnz/devel/optee/optee_examples/crypto/ta/hello_world_ta.c:587
     de4:	94001a2a 	bl	768c <trace_printf>
/home/pwnz/devel/optee/optee_examples/crypto/ta/hello_world_ta.c:588
     de8:	17fffe77 	b	7c4 <TA_InvokeCommandEntryPoint+0x568>

0000000000000dec <tahead_get_trace_level>:
tahead_get_trace_level():
/home/pwnz/devel/optee/optee_os/out/arm/export-ta_arm64/src/user_ta_header.c:133
     dec:	52800080 	mov	w0, #0x4                   	// #4
     df0:	d65f03c0 	ret

0000000000000df4 <__utee_from_param>:
__utee_from_param():
/home/pwnz/devel/optee/optee_os/lib/libutee/tee_api.c:47
     df4:	90000065 	adrp	x5, c000 <PRIME_TABLE+0x770>
     df8:	911790a5 	add	x5, x5, #0x5e4
/home/pwnz/devel/optee/optee_os/lib/libutee/tee_api.c:45
     dfc:	2a0103e3 	mov	w3, w1
     e00:	52800004 	mov	w4, #0x0                   	// #0
     e04:	f8008403 	str	x3, [x0],#8
/home/pwnz/devel/optee/optee_os/lib/libutee/tee_api.c:47
     e08:	1ac42423 	lsr	w3, w1, w4
     e0c:	12000c63 	and	w3, w3, #0xf
     e10:	51000463 	sub	w3, w3, #0x1
     e14:	7100187f 	cmp	w3, #0x6
     e18:	54000268 	b.hi	e64 <__utee_from_param+0x70>
     e1c:	386348a3 	ldrb	w3, [x5,w3,uxtw]
     e20:	10000066 	adr	x6, e2c <__utee_from_param+0x38>
     e24:	8b2388c3 	add	x3, x6, w3, sxtb #2
     e28:	d61f0060 	br	x3
/home/pwnz/devel/optee/optee_os/lib/libutee/tee_api.c:51
     e2c:	b9400043 	ldr	w3, [x2]
     e30:	f9000003 	str	x3, [x0]
/home/pwnz/devel/optee/optee_os/lib/libutee/tee_api.c:52
     e34:	b9400443 	ldr	w3, [x2,#4]
/home/pwnz/devel/optee/optee_os/lib/libutee/tee_api.c:58
     e38:	f9000403 	str	x3, [x0,#8]
     e3c:	11001084 	add	w4, w4, #0x4
     e40:	91004042 	add	x2, x2, #0x10
     e44:	91004000 	add	x0, x0, #0x10
/home/pwnz/devel/optee/optee_os/lib/libutee/tee_api.c:46 (discriminator 2)
     e48:	7100409f 	cmp	w4, #0x10
     e4c:	54fffde1 	b.ne	e08 <__utee_from_param+0x14>
/home/pwnz/devel/optee/optee_os/lib/libutee/tee_api.c:66
     e50:	d65f03c0 	ret
/home/pwnz/devel/optee/optee_os/lib/libutee/tee_api.c:57
     e54:	f9400043 	ldr	x3, [x2]
     e58:	f9000003 	str	x3, [x0]
/home/pwnz/devel/optee/optee_os/lib/libutee/tee_api.c:58
     e5c:	b9400843 	ldr	w3, [x2,#8]
     e60:	17fffff6 	b	e38 <__utee_from_param+0x44>
/home/pwnz/devel/optee/optee_os/lib/libutee/tee_api.c:62
     e64:	a9007c1f 	stp	xzr, xzr, [x0]
/home/pwnz/devel/optee/optee_os/lib/libutee/tee_api.c:63
     e68:	17fffff5 	b	e3c <__utee_from_param+0x48>

0000000000000e6c <__utee_to_param>:
__utee_to_param():
/home/pwnz/devel/optee/optee_os/lib/libutee/tee_api.c:72
     e6c:	f8408446 	ldr	x6, [x2],#8
/home/pwnz/devel/optee/optee_os/lib/libutee/tee_api.c:78
     e70:	90000065 	adrp	x5, c000 <PRIME_TABLE+0x770>
     e74:	9117b0a5 	add	x5, x5, #0x5ec
/home/pwnz/devel/optee/optee_os/lib/libutee/tee_api.c:72
     e78:	52800004 	mov	w4, #0x0                   	// #0
     e7c:	2a0603e9 	mov	w9, w6
/home/pwnz/devel/optee/optee_os/lib/libutee/tee_api.c:78
     e80:	1ac42523 	lsr	w3, w9, w4
     e84:	12000c63 	and	w3, w3, #0xf
     e88:	51000463 	sub	w3, w3, #0x1
     e8c:	7100187f 	cmp	w3, #0x6
/home/pwnz/devel/optee/optee_os/lib/libutee/tee_api.c:76
     e90:	a9401c48 	ldp	x8, x7, [x2]
/home/pwnz/devel/optee/optee_os/lib/libutee/tee_api.c:78
     e94:	540000c8 	b.hi	eac <__utee_to_param+0x40>
     e98:	386348a3 	ldrb	w3, [x5,w3,uxtw]
     e9c:	1000006a 	adr	x10, ea8 <__utee_to_param+0x3c>
     ea0:	8b238943 	add	x3, x10, w3, sxtb #2
     ea4:	d61f0060 	br	x3
/home/pwnz/devel/optee/optee_os/lib/libutee/tee_api.c:83
     ea8:	29001c08 	stp	w8, w7, [x0]
     eac:	11001084 	add	w4, w4, #0x4
     eb0:	91004042 	add	x2, x2, #0x10
     eb4:	91004000 	add	x0, x0, #0x10
/home/pwnz/devel/optee/optee_os/lib/libutee/tee_api.c:74 (discriminator 2)
     eb8:	7100409f 	cmp	w4, #0x10
     ebc:	54fffe21 	b.ne	e80 <__utee_to_param+0x14>
/home/pwnz/devel/optee/optee_os/lib/libutee/tee_api.c:96
     ec0:	b4000041 	cbz	x1, ec8 <__utee_to_param+0x5c>
/home/pwnz/devel/optee/optee_os/lib/libutee/tee_api.c:97
     ec4:	b9000026 	str	w6, [x1]
     ec8:	d65f03c0 	ret
/home/pwnz/devel/optee/optee_os/lib/libutee/tee_api.c:88
     ecc:	f9000008 	str	x8, [x0]
/home/pwnz/devel/optee/optee_os/lib/libutee/tee_api.c:89
     ed0:	b9000807 	str	w7, [x0,#8]
/home/pwnz/devel/optee/optee_os/lib/libutee/tee_api.c:90
     ed4:	17fffff6 	b	eac <__utee_to_param+0x40>

0000000000000ed8 <TEE_OpenTASession>:
TEE_OpenTASession():
/home/pwnz/devel/optee/optee_os/lib/libutee/tee_api.c:106
     ed8:	a9b77bfd 	stp	x29, x30, [sp,#-144]!
     edc:	910003fd 	mov	x29, sp
     ee0:	a90153f3 	stp	x19, x20, [sp,#16]
/home/pwnz/devel/optee/optee_os/lib/libutee/tee_api.c:111
     ee4:	910123b3 	add	x19, x29, #0x48
/home/pwnz/devel/optee/optee_os/lib/libutee/tee_api.c:106
     ee8:	a9025bf5 	stp	x21, x22, [sp,#32]
     eec:	aa0303f4 	mov	x20, x3
     ef0:	a90363f7 	stp	x23, x24, [sp,#48]
     ef4:	aa0003f6 	mov	x22, x0
     ef8:	aa0503f8 	mov	x24, x5
     efc:	2a0103f7 	mov	w23, w1
     f00:	aa0403f5 	mov	x21, x4
     f04:	2a0203e1 	mov	w1, w2
/home/pwnz/devel/optee/optee_os/lib/libutee/tee_api.c:111
     f08:	aa1303e0 	mov	x0, x19
     f0c:	aa0303e2 	mov	x2, x3
     f10:	97ffffb9 	bl	df4 <__utee_from_param>
/home/pwnz/devel/optee/optee_os/lib/libutee/tee_api.c:112
     f14:	aa1803e4 	mov	x4, x24
     f18:	910113a3 	add	x3, x29, #0x44
     f1c:	aa1303e2 	mov	x2, x19
     f20:	2a1703e1 	mov	w1, w23
     f24:	aa1603e0 	mov	x0, x22
     f28:	94000dcb 	bl	4654 <utee_open_ta_session>
/home/pwnz/devel/optee/optee_os/lib/libutee/tee_api.c:114
     f2c:	aa1303e2 	mov	x2, x19
/home/pwnz/devel/optee/optee_os/lib/libutee/tee_api.c:112
     f30:	2a0003f6 	mov	w22, w0
/home/pwnz/devel/optee/optee_os/lib/libutee/tee_api.c:114
     f34:	d2800001 	mov	x1, #0x0                   	// #0
     f38:	aa1403e0 	mov	x0, x20
     f3c:	97ffffcc 	bl	e6c <__utee_to_param>
/home/pwnz/devel/optee/optee_os/lib/libutee/tee_api.c:120
     f40:	34000056 	cbz	w22, f48 <TEE_OpenTASession+0x70>
/home/pwnz/devel/optee/optee_os/lib/libutee/tee_api.c:121
     f44:	b90047bf 	str	wzr, [x29,#68]
/home/pwnz/devel/optee/optee_os/lib/libutee/tee_api.c:123
     f48:	b94047a0 	ldr	w0, [x29,#68]
/home/pwnz/devel/optee/optee_os/lib/libutee/tee_api.c:125
     f4c:	a94153f3 	ldp	x19, x20, [sp,#16]
     f50:	a94363f7 	ldp	x23, x24, [sp,#48]
/home/pwnz/devel/optee/optee_os/lib/libutee/tee_api.c:123
     f54:	f90002a0 	str	x0, [x21]
/home/pwnz/devel/optee/optee_os/lib/libutee/tee_api.c:125
     f58:	2a1603e0 	mov	w0, w22
     f5c:	a9425bf5 	ldp	x21, x22, [sp,#32]
     f60:	a8c97bfd 	ldp	x29, x30, [sp],#144
     f64:	d65f03c0 	ret

0000000000000f68 <TEE_CloseTASession>:
TEE_CloseTASession():
/home/pwnz/devel/optee/optee_os/lib/libutee/tee_api.c:129
     f68:	b4000120 	cbz	x0, f8c <TEE_CloseTASession+0x24>
/home/pwnz/devel/optee/optee_os/lib/libutee/tee_api.c:128
     f6c:	a9bf7bfd 	stp	x29, x30, [sp,#-16]!
     f70:	910003fd 	mov	x29, sp
/home/pwnz/devel/optee/optee_os/lib/libutee/tee_api.c:130
     f74:	94000dbb 	bl	4660 <utee_close_ta_session>
/home/pwnz/devel/optee/optee_os/lib/libutee/tee_api.c:132
     f78:	34000060 	cbz	w0, f84 <TEE_CloseTASession+0x1c>
/home/pwnz/devel/optee/optee_os/lib/libutee/tee_api.c:135
     f7c:	a8c17bfd 	ldp	x29, x30, [sp],#16
/home/pwnz/devel/optee/optee_os/lib/libutee/tee_api.c:133
     f80:	14000cf1 	b	4344 <TEE_Panic>
/home/pwnz/devel/optee/optee_os/lib/libutee/tee_api.c:135
     f84:	a8c17bfd 	ldp	x29, x30, [sp],#16
     f88:	d65f03c0 	ret
     f8c:	d65f03c0 	ret

0000000000000f90 <TEE_InvokeTACommand>:
TEE_InvokeTACommand():
/home/pwnz/devel/optee/optee_os/lib/libutee/tee_api.c:142
     f90:	a9b77bfd 	stp	x29, x30, [sp,#-144]!
     f94:	910003fd 	mov	x29, sp
     f98:	a90153f3 	stp	x19, x20, [sp,#16]
/home/pwnz/devel/optee/optee_os/lib/libutee/tee_api.c:147
     f9c:	910123b4 	add	x20, x29, #0x48
/home/pwnz/devel/optee/optee_os/lib/libutee/tee_api.c:142
     fa0:	a9025bf5 	stp	x21, x22, [sp,#32]
     fa4:	aa0003f3 	mov	x19, x0
     fa8:	a90363f7 	stp	x23, x24, [sp,#48]
     fac:	aa0403f6 	mov	x22, x4
     fb0:	aa0503f5 	mov	x21, x5
     fb4:	2a0103f7 	mov	w23, w1
     fb8:	2a0203f8 	mov	w24, w2
/home/pwnz/devel/optee/optee_os/lib/libutee/tee_api.c:147
     fbc:	2a0303e1 	mov	w1, w3
     fc0:	aa0403e2 	mov	x2, x4
     fc4:	aa1403e0 	mov	x0, x20
     fc8:	97ffff8b 	bl	df4 <__utee_from_param>
/home/pwnz/devel/optee/optee_os/lib/libutee/tee_api.c:148
     fcc:	910113a4 	add	x4, x29, #0x44
     fd0:	aa1403e3 	mov	x3, x20
     fd4:	2a1803e2 	mov	w2, w24
     fd8:	2a1703e1 	mov	w1, w23
     fdc:	aa1303e0 	mov	x0, x19
     fe0:	94000da3 	bl	466c <utee_invoke_ta_command>
/home/pwnz/devel/optee/optee_os/lib/libutee/tee_api.c:151
     fe4:	aa1403e2 	mov	x2, x20
/home/pwnz/devel/optee/optee_os/lib/libutee/tee_api.c:148
     fe8:	2a0003f3 	mov	w19, w0
/home/pwnz/devel/optee/optee_os/lib/libutee/tee_api.c:151
     fec:	d2800001 	mov	x1, #0x0                   	// #0
     ff0:	aa1603e0 	mov	x0, x22
     ff4:	97ffff9e 	bl	e6c <__utee_to_param>
     ff8:	b94047a0 	ldr	w0, [x29,#68]
/home/pwnz/devel/optee/optee_os/lib/libutee/tee_api.c:153
     ffc:	b4000055 	cbz	x21, 1004 <TEE_InvokeTACommand+0x74>
/home/pwnz/devel/optee/optee_os/lib/libutee/tee_api.c:154
    1000:	b90002a0 	str	w0, [x21]
/home/pwnz/devel/optee/optee_os/lib/libutee/tee_api.c:156
    1004:	7100101f 	cmp	w0, #0x4
    1008:	54000120 	b.eq	102c <TEE_InvokeTACommand+0x9c>
/home/pwnz/devel/optee/optee_os/lib/libutee/tee_api.c:160
    100c:	7100027f 	cmp	w19, #0x0
    1010:	129ffe60 	mov	w0, #0xffff000c            	// #-65524
    1014:	7a401264 	ccmp	w19, w0, #0x4, ne
    1018:	1299fb60 	mov	w0, #0xffff3024            	// #-53212
    101c:	7a401264 	ccmp	w19, w0, #0x4, ne
    1020:	54000060 	b.eq	102c <TEE_InvokeTACommand+0x9c>
/home/pwnz/devel/optee/optee_os/lib/libutee/tee_api.c:162
    1024:	2a1303e0 	mov	w0, w19
    1028:	94000cc7 	bl	4344 <TEE_Panic>
/home/pwnz/devel/optee/optee_os/lib/libutee/tee_api.c:165
    102c:	2a1303e0 	mov	w0, w19
    1030:	a94153f3 	ldp	x19, x20, [sp,#16]
    1034:	a9425bf5 	ldp	x21, x22, [sp,#32]
    1038:	a94363f7 	ldp	x23, x24, [sp,#48]
    103c:	a8c97bfd 	ldp	x29, x30, [sp],#144
    1040:	d65f03c0 	ret

0000000000001044 <TEE_GetCancellationFlag>:
TEE_GetCancellationFlag():
/home/pwnz/devel/optee/optee_os/lib/libutee/tee_api.c:170
    1044:	a9be7bfd 	stp	x29, x30, [sp,#-32]!
    1048:	910003fd 	mov	x29, sp
/home/pwnz/devel/optee/optee_os/lib/libutee/tee_api.c:172
    104c:	910073a0 	add	x0, x29, #0x1c
    1050:	94000d8a 	bl	4678 <utee_get_cancellation_flag>
/home/pwnz/devel/optee/optee_os/lib/libutee/tee_api.c:174
    1054:	34000040 	cbz	w0, 105c <TEE_GetCancellationFlag+0x18>
/home/pwnz/devel/optee/optee_os/lib/libutee/tee_api.c:175
    1058:	b9001fbf 	str	wzr, [x29,#28]
/home/pwnz/devel/optee/optee_os/lib/libutee/tee_api.c:176
    105c:	b9401fa0 	ldr	w0, [x29,#28]
/home/pwnz/devel/optee/optee_os/lib/libutee/tee_api.c:177
    1060:	a8c27bfd 	ldp	x29, x30, [sp],#32
/home/pwnz/devel/optee/optee_os/lib/libutee/tee_api.c:176
    1064:	7100001f 	cmp	w0, #0x0
/home/pwnz/devel/optee/optee_os/lib/libutee/tee_api.c:177
    1068:	1a9f07e0 	cset	w0, ne
    106c:	d65f03c0 	ret

0000000000001070 <TEE_UnmaskCancellation>:
TEE_UnmaskCancellation():
/home/pwnz/devel/optee/optee_os/lib/libutee/tee_api.c:180
    1070:	a9be7bfd 	stp	x29, x30, [sp,#-32]!
    1074:	910003fd 	mov	x29, sp
/home/pwnz/devel/optee/optee_os/lib/libutee/tee_api.c:182
    1078:	910073a0 	add	x0, x29, #0x1c
    107c:	94000d85 	bl	4690 <utee_unmask_cancellation>
/home/pwnz/devel/optee/optee_os/lib/libutee/tee_api.c:184
    1080:	34000040 	cbz	w0, 1088 <TEE_UnmaskCancellation+0x18>
/home/pwnz/devel/optee/optee_os/lib/libutee/tee_api.c:185
    1084:	94000cb0 	bl	4344 <TEE_Panic>
/home/pwnz/devel/optee/optee_os/lib/libutee/tee_api.c:186
    1088:	b9401fa0 	ldr	w0, [x29,#28]
/home/pwnz/devel/optee/optee_os/lib/libutee/tee_api.c:187
    108c:	a8c27bfd 	ldp	x29, x30, [sp],#32
/home/pwnz/devel/optee/optee_os/lib/libutee/tee_api.c:186
    1090:	7100001f 	cmp	w0, #0x0
/home/pwnz/devel/optee/optee_os/lib/libutee/tee_api.c:187
    1094:	1a9f07e0 	cset	w0, ne
    1098:	d65f03c0 	ret

000000000000109c <TEE_MaskCancellation>:
TEE_MaskCancellation():
/home/pwnz/devel/optee/optee_os/lib/libutee/tee_api.c:190
    109c:	a9be7bfd 	stp	x29, x30, [sp,#-32]!
    10a0:	910003fd 	mov	x29, sp
/home/pwnz/devel/optee/optee_os/lib/libutee/tee_api.c:192
    10a4:	910073a0 	add	x0, x29, #0x1c
    10a8:	94000d7d 	bl	469c <utee_mask_cancellation>
/home/pwnz/devel/optee/optee_os/lib/libutee/tee_api.c:194
    10ac:	34000040 	cbz	w0, 10b4 <TEE_MaskCancellation+0x18>
/home/pwnz/devel/optee/optee_os/lib/libutee/tee_api.c:195
    10b0:	94000ca5 	bl	4344 <TEE_Panic>
/home/pwnz/devel/optee/optee_os/lib/libutee/tee_api.c:196
    10b4:	b9401fa0 	ldr	w0, [x29,#28]
/home/pwnz/devel/optee/optee_os/lib/libutee/tee_api.c:197
    10b8:	a8c27bfd 	ldp	x29, x30, [sp],#32
/home/pwnz/devel/optee/optee_os/lib/libutee/tee_api.c:196
    10bc:	7100001f 	cmp	w0, #0x0
/home/pwnz/devel/optee/optee_os/lib/libutee/tee_api.c:197
    10c0:	1a9f07e0 	cset	w0, ne
    10c4:	d65f03c0 	ret

00000000000010c8 <TEE_CheckMemoryAccessRights>:
TEE_CheckMemoryAccessRights():
/home/pwnz/devel/optee/optee_os/lib/libutee/tee_api.c:206
    10c8:	34000062 	cbz	w2, 10d4 <TEE_CheckMemoryAccessRights+0xc>
/home/pwnz/devel/optee/optee_os/lib/libutee/tee_api.c:210
    10cc:	2a0203e2 	mov	w2, w2
    10d0:	14000d6d 	b	4684 <utee_check_access_rights>
/home/pwnz/devel/optee/optee_os/lib/libutee/tee_api.c:222
    10d4:	52800000 	mov	w0, #0x0                   	// #0
    10d8:	d65f03c0 	ret

00000000000010dc <TEE_SetInstanceData>:
TEE_SetInstanceData():
/home/pwnz/devel/optee/optee_os/lib/libutee/tee_api.c:226
    10dc:	b00000a1 	adrp	x1, 16000 <ta_heap+0x7a78>
    10e0:	f902c420 	str	x0, [x1,#1416]
    10e4:	d65f03c0 	ret

00000000000010e8 <TEE_GetInstanceData>:
TEE_GetInstanceData():
/home/pwnz/devel/optee/optee_os/lib/libutee/tee_api.c:232
    10e8:	b00000a0 	adrp	x0, 16000 <ta_heap+0x7a78>
    10ec:	f942c400 	ldr	x0, [x0,#1416]
    10f0:	d65f03c0 	ret

00000000000010f4 <TEE_MemMove>:
TEE_MemMove():
/home/pwnz/devel/optee/optee_os/lib/libutee/tee_api.c:236
    10f4:	2a0203e2 	mov	w2, w2
    10f8:	1400160b 	b	6924 <memmove>

00000000000010fc <TEE_MemCompare>:
TEE_MemCompare():
/home/pwnz/devel/optee/optee_os/lib/libutee/tee_api.c:241
    10fc:	2a0203e2 	mov	w2, w2
    1100:	140015f4 	b	68d0 <memcmp>

0000000000001104 <TEE_MemFill>:
TEE_MemFill():
/home/pwnz/devel/optee/optee_os/lib/libutee/tee_api.c:246
    1104:	2a0203e2 	mov	w2, w2
    1108:	1400161a 	b	6970 <memset>

000000000000110c <TEE_GetSystemTime>:
TEE_GetSystemTime():
/home/pwnz/devel/optee/optee_os/lib/libutee/tee_api.c:252
    110c:	a9bf7bfd 	stp	x29, x30, [sp,#-16]!
/home/pwnz/devel/optee/optee_os/lib/libutee/tee_api.c:253
    1110:	aa0003e1 	mov	x1, x0
    1114:	d2800000 	mov	x0, #0x0                   	// #0
/home/pwnz/devel/optee/optee_os/lib/libutee/tee_api.c:252
    1118:	910003fd 	mov	x29, sp
/home/pwnz/devel/optee/optee_os/lib/libutee/tee_api.c:253
    111c:	94000d66 	bl	46b4 <utee_get_time>
/home/pwnz/devel/optee/optee_os/lib/libutee/tee_api.c:255
    1120:	34000060 	cbz	w0, 112c <TEE_GetSystemTime+0x20>
/home/pwnz/devel/optee/optee_os/lib/libutee/tee_api.c:257
    1124:	a8c17bfd 	ldp	x29, x30, [sp],#16
/home/pwnz/devel/optee/optee_os/lib/libutee/tee_api.c:256
    1128:	14000c87 	b	4344 <TEE_Panic>
/home/pwnz/devel/optee/optee_os/lib/libutee/tee_api.c:257
    112c:	a8c17bfd 	ldp	x29, x30, [sp],#16
    1130:	d65f03c0 	ret

0000000000001134 <TEE_Wait>:
TEE_Wait():
/home/pwnz/devel/optee/optee_os/lib/libutee/tee_api.c:260
    1134:	a9be7bfd 	stp	x29, x30, [sp,#-32]!
/home/pwnz/devel/optee/optee_os/lib/libutee/tee_api.c:261
    1138:	2a0003e0 	mov	w0, w0
/home/pwnz/devel/optee/optee_os/lib/libutee/tee_api.c:260
    113c:	910003fd 	mov	x29, sp
    1140:	f9000bf3 	str	x19, [sp,#16]
/home/pwnz/devel/optee/optee_os/lib/libutee/tee_api.c:261
    1144:	94000d59 	bl	46a8 <utee_wait>
/home/pwnz/devel/optee/optee_os/lib/libutee/tee_api.c:263
    1148:	7100001f 	cmp	w0, #0x0
    114c:	129fffa1 	mov	w1, #0xffff0002            	// #-65534
/home/pwnz/devel/optee/optee_os/lib/libutee/tee_api.c:261
    1150:	2a0003f3 	mov	w19, w0
/home/pwnz/devel/optee/optee_os/lib/libutee/tee_api.c:263
    1154:	7a411004 	ccmp	w0, w1, #0x4, ne
    1158:	54000040 	b.eq	1160 <TEE_Wait+0x2c>
/home/pwnz/devel/optee/optee_os/lib/libutee/tee_api.c:264
    115c:	94000c7a 	bl	4344 <TEE_Panic>
/home/pwnz/devel/optee/optee_os/lib/libutee/tee_api.c:267
    1160:	2a1303e0 	mov	w0, w19
    1164:	f9400bf3 	ldr	x19, [sp,#16]
    1168:	a8c27bfd 	ldp	x29, x30, [sp],#32
    116c:	d65f03c0 	ret

0000000000001170 <TEE_GetTAPersistentTime>:
TEE_GetTAPersistentTime():
/home/pwnz/devel/optee/optee_os/lib/libutee/tee_api.c:270
    1170:	a9be7bfd 	stp	x29, x30, [sp,#-32]!
/home/pwnz/devel/optee/optee_os/lib/libutee/tee_api.c:273
    1174:	aa0003e1 	mov	x1, x0
/home/pwnz/devel/optee/optee_os/lib/libutee/tee_api.c:270
    1178:	910003fd 	mov	x29, sp
    117c:	a90153f3 	stp	x19, x20, [sp,#16]
    1180:	aa0003f4 	mov	x20, x0
/home/pwnz/devel/optee/optee_os/lib/libutee/tee_api.c:273
    1184:	d2800020 	mov	x0, #0x1                   	// #1
    1188:	94000d4b 	bl	46b4 <utee_get_time>
/home/pwnz/devel/optee/optee_os/lib/libutee/tee_api.c:275
    118c:	7100001f 	cmp	w0, #0x0
/home/pwnz/devel/optee/optee_os/lib/libutee/tee_api.c:273
    1190:	2a0003f3 	mov	w19, w0
/home/pwnz/devel/optee/optee_os/lib/libutee/tee_api.c:275
    1194:	1a9f07e1 	cset	w1, ne
    1198:	1299fe00 	mov	w0, #0xffff300f            	// #-53233
    119c:	6b00027f 	cmp	w19, w0
    11a0:	1a9f07e0 	cset	w0, ne
    11a4:	6a00003f 	tst	w1, w0
    11a8:	54000040 	b.eq	11b0 <TEE_GetTAPersistentTime+0x40>
/home/pwnz/devel/optee/optee_os/lib/libutee/tee_api.c:277
    11ac:	29007e9f 	stp	wzr, wzr, [x20]
/home/pwnz/devel/optee/optee_os/lib/libutee/tee_api.c:281
    11b0:	11402e62 	add	w2, w19, #0xb, lsl #12
    11b4:	7100045f 	cmp	w2, #0x1
    11b8:	1a9f97e2 	cset	w2, hi
/home/pwnz/devel/optee/optee_os/lib/libutee/tee_api.c:280
    11bc:	6a02003f 	tst	w1, w2
    11c0:	54000100 	b.eq	11e0 <TEE_GetTAPersistentTime+0x70>
/home/pwnz/devel/optee/optee_os/lib/libutee/tee_api.c:283
    11c4:	129ffe61 	mov	w1, #0xffff000c            	// #-65524
    11c8:	6b01027f 	cmp	w19, w1
    11cc:	1a9f07e1 	cset	w1, ne
    11d0:	6a01001f 	tst	w0, w1
    11d4:	54000060 	b.eq	11e0 <TEE_GetTAPersistentTime+0x70>
/home/pwnz/devel/optee/optee_os/lib/libutee/tee_api.c:285
    11d8:	2a1303e0 	mov	w0, w19
    11dc:	94000c5a 	bl	4344 <TEE_Panic>
/home/pwnz/devel/optee/optee_os/lib/libutee/tee_api.c:288
    11e0:	2a1303e0 	mov	w0, w19
    11e4:	a94153f3 	ldp	x19, x20, [sp,#16]
    11e8:	a8c27bfd 	ldp	x29, x30, [sp],#32
    11ec:	d65f03c0 	ret

00000000000011f0 <TEE_SetTAPersistentTime>:
TEE_SetTAPersistentTime():
/home/pwnz/devel/optee/optee_os/lib/libutee/tee_api.c:291
    11f0:	a9be7bfd 	stp	x29, x30, [sp,#-32]!
    11f4:	910003fd 	mov	x29, sp
    11f8:	f9000bf3 	str	x19, [sp,#16]
/home/pwnz/devel/optee/optee_os/lib/libutee/tee_api.c:294
    11fc:	94000d31 	bl	46c0 <utee_set_ta_time>
/home/pwnz/devel/optee/optee_os/lib/libutee/tee_api.c:297
    1200:	7100001f 	cmp	w0, #0x0
    1204:	129ffe61 	mov	w1, #0xffff000c            	// #-65524
    1208:	7a411004 	ccmp	w0, w1, #0x4, ne
/home/pwnz/devel/optee/optee_os/lib/libutee/tee_api.c:294
    120c:	2a0003f3 	mov	w19, w0
/home/pwnz/devel/optee/optee_os/lib/libutee/tee_api.c:297
    1210:	1299f7c1 	mov	w1, #0xffff3041            	// #-53183
    1214:	7a411004 	ccmp	w0, w1, #0x4, ne
    1218:	54000040 	b.eq	1220 <TEE_SetTAPersistentTime+0x30>
/home/pwnz/devel/optee/optee_os/lib/libutee/tee_api.c:299
    121c:	94000c4a 	bl	4344 <TEE_Panic>
/home/pwnz/devel/optee/optee_os/lib/libutee/tee_api.c:302
    1220:	2a1303e0 	mov	w0, w19
    1224:	f9400bf3 	ldr	x19, [sp,#16]
    1228:	a8c27bfd 	ldp	x29, x30, [sp],#32
    122c:	d65f03c0 	ret

0000000000001230 <TEE_GetREETime>:
TEE_GetREETime():
/home/pwnz/devel/optee/optee_os/lib/libutee/tee_api.c:305
    1230:	a9bf7bfd 	stp	x29, x30, [sp,#-16]!
/home/pwnz/devel/optee/optee_os/lib/libutee/tee_api.c:306
    1234:	aa0003e1 	mov	x1, x0
    1238:	d2800040 	mov	x0, #0x2                   	// #2
/home/pwnz/devel/optee/optee_os/lib/libutee/tee_api.c:305
    123c:	910003fd 	mov	x29, sp
/home/pwnz/devel/optee/optee_os/lib/libutee/tee_api.c:306
    1240:	94000d1d 	bl	46b4 <utee_get_time>
/home/pwnz/devel/optee/optee_os/lib/libutee/tee_api.c:308
    1244:	34000060 	cbz	w0, 1250 <TEE_GetREETime+0x20>
/home/pwnz/devel/optee/optee_os/lib/libutee/tee_api.c:310
    1248:	a8c17bfd 	ldp	x29, x30, [sp],#16
/home/pwnz/devel/optee/optee_os/lib/libutee/tee_api.c:309
    124c:	14000c3e 	b	4344 <TEE_Panic>
/home/pwnz/devel/optee/optee_os/lib/libutee/tee_api.c:310
    1250:	a8c17bfd 	ldp	x29, x30, [sp],#16
    1254:	d65f03c0 	ret

0000000000001258 <TEE_Malloc>:
TEE_Malloc():
/home/pwnz/devel/optee/optee_os/lib/libutee/tee_api.c:314
    1258:	2a0003e0 	mov	w0, w0
    125c:	14000e1c 	b	4acc <tee_user_mem_alloc>

0000000000001260 <TEE_Realloc>:
TEE_Realloc():
/home/pwnz/devel/optee/optee_os/lib/libutee/tee_api.c:323
    1260:	2a0103e1 	mov	w1, w1
    1264:	14000ebe 	b	4d5c <tee_user_mem_realloc>

0000000000001268 <TEE_Free>:
TEE_Free():
/home/pwnz/devel/optee/optee_os/lib/libutee/tee_api.c:328
    1268:	14000e6c 	b	4c18 <tee_user_mem_free>

000000000000126c <TEE_CacheClean>:
TEE_CacheClean():
/home/pwnz/devel/optee/optee_os/lib/libutee/tee_api.c:334
    126c:	d2800002 	mov	x2, #0x0                   	// #0
    1270:	14000dbc 	b	4960 <utee_cache_operation>

0000000000001274 <TEE_CacheFlush>:
TEE_CacheFlush():
/home/pwnz/devel/optee/optee_os/lib/libutee/tee_api.c:338
    1274:	d2800022 	mov	x2, #0x1                   	// #1
    1278:	14000dba 	b	4960 <utee_cache_operation>

000000000000127c <TEE_CacheInvalidate>:
TEE_CacheInvalidate():
/home/pwnz/devel/optee/optee_os/lib/libutee/tee_api.c:343
    127c:	d2800042 	mov	x2, #0x2                   	// #2
    1280:	14000db8 	b	4960 <utee_cache_operation>

0000000000001284 <__utee_from_attr>:
__utee_from_attr():
/home/pwnz/devel/optee/optee_os/lib/libutee/tee_api_objects.c:41
    1284:	52800303 	mov	w3, #0x18                  	// #24
    1288:	9ba30442 	umaddl	x2, w2, w3, x1
/home/pwnz/devel/optee/optee_os/lib/libutee/tee_api_objects.c:44 (discriminator 1)
    128c:	eb02003f 	cmp	x1, x2
    1290:	54000041 	b.ne	1298 <__utee_from_attr+0x14>
/home/pwnz/devel/optee/optee_os/lib/libutee/tee_api_objects.c:54
    1294:	d65f03c0 	ret
/home/pwnz/devel/optee/optee_os/lib/libutee/tee_api_objects.c:45
    1298:	b9400023 	ldr	w3, [x1]
    129c:	b9001003 	str	w3, [x0,#16]
/home/pwnz/devel/optee/optee_os/lib/libutee/tee_api_objects.c:46
    12a0:	36e80103 	tbz	w3, #29, 12c0 <__utee_from_attr+0x3c>
/home/pwnz/devel/optee/optee_os/lib/libutee/tee_api_objects.c:47
    12a4:	b9400823 	ldr	w3, [x1,#8]
    12a8:	f9000003 	str	x3, [x0]
/home/pwnz/devel/optee/optee_os/lib/libutee/tee_api_objects.c:48
    12ac:	b9400c23 	ldr	w3, [x1,#12]
/home/pwnz/devel/optee/optee_os/lib/libutee/tee_api_objects.c:51
    12b0:	f9000403 	str	x3, [x0,#8]
    12b4:	91006021 	add	x1, x1, #0x18
    12b8:	91006000 	add	x0, x0, #0x18
    12bc:	17fffff4 	b	128c <__utee_from_attr+0x8>
/home/pwnz/devel/optee/optee_os/lib/libutee/tee_api_objects.c:50
    12c0:	f9400423 	ldr	x3, [x1,#8]
    12c4:	f9000003 	str	x3, [x0]
/home/pwnz/devel/optee/optee_os/lib/libutee/tee_api_objects.c:51
    12c8:	b9401023 	ldr	w3, [x1,#16]
    12cc:	17fffff9 	b	12b0 <__utee_from_attr+0x2c>

00000000000012d0 <TEE_GetObjectInfo>:
TEE_GetObjectInfo():
/home/pwnz/devel/optee/optee_os/lib/libutee/tee_api_objects.c:64
    12d0:	a9be7bfd 	stp	x29, x30, [sp,#-32]!
    12d4:	910003fd 	mov	x29, sp
    12d8:	f9000bf3 	str	x19, [sp,#16]
    12dc:	aa0103f3 	mov	x19, x1
/home/pwnz/devel/optee/optee_os/lib/libutee/tee_api_objects.c:67
    12e0:	94000d16 	bl	4738 <utee_cryp_obj_get_info>
/home/pwnz/devel/optee/optee_os/lib/libutee/tee_api_objects.c:69
    12e4:	34000040 	cbz	w0, 12ec <TEE_GetObjectInfo+0x1c>
/home/pwnz/devel/optee/optee_os/lib/libutee/tee_api_objects.c:70
    12e8:	94000c17 	bl	4344 <TEE_Panic>
/home/pwnz/devel/optee/optee_os/lib/libutee/tee_api_objects.c:72
    12ec:	b9400261 	ldr	w1, [x19]
    12f0:	528017c0 	mov	w0, #0xbe                  	// #190
    12f4:	72b40000 	movk	w0, #0xa000, lsl #16
    12f8:	6b00003f 	cmp	w1, w0
    12fc:	54000081 	b.ne	130c <TEE_GetObjectInfo+0x3c>
/home/pwnz/devel/optee/optee_os/lib/libutee/tee_api_objects.c:74
    1300:	2900fe7f 	stp	wzr, wzr, [x19,#4]
/home/pwnz/devel/optee/optee_os/lib/libutee/tee_api_objects.c:76
    1304:	2901fe7f 	stp	wzr, wzr, [x19,#12]
/home/pwnz/devel/optee/optee_os/lib/libutee/tee_api_objects.c:78
    1308:	2902fe7f 	stp	wzr, wzr, [x19,#20]
/home/pwnz/devel/optee/optee_os/lib/libutee/tee_api_objects.c:80
    130c:	f9400bf3 	ldr	x19, [sp,#16]
    1310:	a8c27bfd 	ldp	x29, x30, [sp],#32
    1314:	d65f03c0 	ret

0000000000001318 <TEE_GetObjectInfo1>:
TEE_GetObjectInfo1():
/home/pwnz/devel/optee/optee_os/lib/libutee/tee_api_objects.c:83
    1318:	a9be7bfd 	stp	x29, x30, [sp,#-32]!
    131c:	910003fd 	mov	x29, sp
    1320:	f9000bf3 	str	x19, [sp,#16]
/home/pwnz/devel/optee/optee_os/lib/libutee/tee_api_objects.c:86
    1324:	94000d05 	bl	4738 <utee_cryp_obj_get_info>
/home/pwnz/devel/optee/optee_os/lib/libutee/tee_api_objects.c:89
    1328:	52800021 	mov	w1, #0x1                   	// #1
    132c:	121e7802 	and	w2, w0, #0xfffffffd
    1330:	7100001f 	cmp	w0, #0x0
    1334:	72be0201 	movk	w1, #0xf010, lsl #16
/home/pwnz/devel/optee/optee_os/lib/libutee/tee_api_objects.c:86
    1338:	2a0003f3 	mov	w19, w0
/home/pwnz/devel/optee/optee_os/lib/libutee/tee_api_objects.c:89
    133c:	7a411044 	ccmp	w2, w1, #0x4, ne
    1340:	54000040 	b.eq	1348 <TEE_GetObjectInfo1+0x30>
/home/pwnz/devel/optee/optee_os/lib/libutee/tee_api_objects.c:91
    1344:	94000c00 	bl	4344 <TEE_Panic>
/home/pwnz/devel/optee/optee_os/lib/libutee/tee_api_objects.c:94
    1348:	2a1303e0 	mov	w0, w19
    134c:	f9400bf3 	ldr	x19, [sp,#16]
    1350:	a8c27bfd 	ldp	x29, x30, [sp],#32
    1354:	d65f03c0 	ret

0000000000001358 <TEE_RestrictObjectUsage1>:
TEE_RestrictObjectUsage1():
/home/pwnz/devel/optee/optee_os/lib/libutee/tee_api_objects.c:118
    1358:	a9be7bfd 	stp	x29, x30, [sp,#-32]!
/home/pwnz/devel/optee/optee_os/lib/libutee/tee_api_objects.c:121
    135c:	2a0103e1 	mov	w1, w1
/home/pwnz/devel/optee/optee_os/lib/libutee/tee_api_objects.c:118
    1360:	910003fd 	mov	x29, sp
    1364:	f9000bf3 	str	x19, [sp,#16]
/home/pwnz/devel/optee/optee_os/lib/libutee/tee_api_objects.c:121
    1368:	94000cf7 	bl	4744 <utee_cryp_obj_restrict_usage>
/home/pwnz/devel/optee/optee_os/lib/libutee/tee_api_objects.c:124
    136c:	52800021 	mov	w1, #0x1                   	// #1
    1370:	121e7802 	and	w2, w0, #0xfffffffd
    1374:	7100001f 	cmp	w0, #0x0
    1378:	72be0201 	movk	w1, #0xf010, lsl #16
/home/pwnz/devel/optee/optee_os/lib/libutee/tee_api_objects.c:121
    137c:	2a0003f3 	mov	w19, w0
/home/pwnz/devel/optee/optee_os/lib/libutee/tee_api_objects.c:124
    1380:	7a411044 	ccmp	w2, w1, #0x4, ne
    1384:	54000040 	b.eq	138c <TEE_RestrictObjectUsage1+0x34>
/home/pwnz/devel/optee/optee_os/lib/libutee/tee_api_objects.c:126
    1388:	94000bef 	bl	4344 <TEE_Panic>
/home/pwnz/devel/optee/optee_os/lib/libutee/tee_api_objects.c:129
    138c:	2a1303e0 	mov	w0, w19
    1390:	f9400bf3 	ldr	x19, [sp,#16]
    1394:	a8c27bfd 	ldp	x29, x30, [sp],#32
    1398:	d65f03c0 	ret

000000000000139c <TEE_RestrictObjectUsage>:
TEE_RestrictObjectUsage():
/home/pwnz/devel/optee/optee_os/lib/libutee/tee_api_objects.c:103
    139c:	a9bc7bfd 	stp	x29, x30, [sp,#-64]!
    13a0:	910003fd 	mov	x29, sp
    13a4:	a90153f3 	stp	x19, x20, [sp,#16]
    13a8:	aa0003f3 	mov	x19, x0
    13ac:	2a0103f4 	mov	w20, w1
/home/pwnz/devel/optee/optee_os/lib/libutee/tee_api_objects.c:107
    13b0:	910083a1 	add	x1, x29, #0x20
    13b4:	94000ce1 	bl	4738 <utee_cryp_obj_get_info>
/home/pwnz/devel/optee/optee_os/lib/libutee/tee_api_objects.c:108
    13b8:	b94023a1 	ldr	w1, [x29,#32]
    13bc:	528017c0 	mov	w0, #0xbe                  	// #190
    13c0:	72b40000 	movk	w0, #0xa000, lsl #16
    13c4:	6b00003f 	cmp	w1, w0
    13c8:	540000c0 	b.eq	13e0 <TEE_RestrictObjectUsage+0x44>
/home/pwnz/devel/optee/optee_os/lib/libutee/tee_api_objects.c:111
    13cc:	2a1403e1 	mov	w1, w20
    13d0:	aa1303e0 	mov	x0, x19
    13d4:	97ffffe1 	bl	1358 <TEE_RestrictObjectUsage1>
/home/pwnz/devel/optee/optee_os/lib/libutee/tee_api_objects.c:113
    13d8:	34000040 	cbz	w0, 13e0 <TEE_RestrictObjectUsage+0x44>
/home/pwnz/devel/optee/optee_os/lib/libutee/tee_api_objects.c:114
    13dc:	94000bda 	bl	4344 <TEE_Panic>
/home/pwnz/devel/optee/optee_os/lib/libutee/tee_api_objects.c:115
    13e0:	a94153f3 	ldp	x19, x20, [sp,#16]
    13e4:	a8c47bfd 	ldp	x29, x30, [sp],#64
    13e8:	d65f03c0 	ret

00000000000013ec <TEE_GetObjectBufferAttribute>:
TEE_GetObjectBufferAttribute():
/home/pwnz/devel/optee/optee_os/lib/libutee/tee_api_objects.c:134
    13ec:	a9b97bfd 	stp	x29, x30, [sp,#-112]!
    13f0:	910003fd 	mov	x29, sp
    13f4:	a90153f3 	stp	x19, x20, [sp,#16]
    13f8:	aa0303f4 	mov	x20, x3
    13fc:	a9025bf5 	stp	x21, x22, [sp,#32]
    1400:	aa0003f6 	mov	x22, x0
    1404:	f9001bf7 	str	x23, [sp,#48]
    1408:	2a0103f5 	mov	w21, w1
    140c:	aa0203f7 	mov	x23, x2
/home/pwnz/devel/optee/optee_os/lib/libutee/tee_api_objects.c:139
    1410:	910143a1 	add	x1, x29, #0x50
    1414:	94000cc9 	bl	4738 <utee_cryp_obj_get_info>
    1418:	2a0003f3 	mov	w19, w0
/home/pwnz/devel/optee/optee_os/lib/libutee/tee_api_objects.c:140
    141c:	350001a0 	cbnz	w0, 1450 <TEE_GetObjectBufferAttribute+0x64>
/home/pwnz/devel/optee/optee_os/lib/libutee/tee_api_objects.c:145
    1420:	129fff33 	mov	w19, #0xffff0006            	// #-65530
/home/pwnz/devel/optee/optee_os/lib/libutee/tee_api_objects.c:144
    1424:	37e80175 	tbnz	w21, #29, 1450 <TEE_GetObjectBufferAttribute+0x64>
/home/pwnz/devel/optee/optee_os/lib/libutee/tee_api_objects.c:149
    1428:	9101c3a3 	add	x3, x29, #0x70
    142c:	b9400280 	ldr	w0, [x20]
/home/pwnz/devel/optee/optee_os/lib/libutee/tee_api_objects.c:150
    1430:	aa1703e2 	mov	x2, x23
    1434:	2a1503e1 	mov	w1, w21
/home/pwnz/devel/optee/optee_os/lib/libutee/tee_api_objects.c:149
    1438:	f81d8c60 	str	x0, [x3,#-40]!
/home/pwnz/devel/optee/optee_os/lib/libutee/tee_api_objects.c:150
    143c:	aa1603e0 	mov	x0, x22
    1440:	94000cc4 	bl	4750 <utee_cryp_obj_get_attr>
    1444:	2a0003f3 	mov	w19, w0
/home/pwnz/devel/optee/optee_os/lib/libutee/tee_api_objects.c:152
    1448:	f94027a0 	ldr	x0, [x29,#72]
    144c:	b9000280 	str	w0, [x20]
/home/pwnz/devel/optee/optee_os/lib/libutee/tee_api_objects.c:156
    1450:	529fff00 	mov	w0, #0xfff8                	// #65528
    1454:	0b000260 	add	w0, w19, w0
/home/pwnz/devel/optee/optee_os/lib/libutee/tee_api_objects.c:155
    1458:	721c781f 	tst	w0, #0xfffffff7
    145c:	7a401a64 	ccmp	w19, #0x0, #0x4, ne
    1460:	54000100 	b.eq	1480 <TEE_GetObjectBufferAttribute+0x94>
/home/pwnz/devel/optee/optee_os/lib/libutee/tee_api_objects.c:158
    1464:	121e7a61 	and	w1, w19, #0xfffffffd
    1468:	52800020 	mov	w0, #0x1                   	// #1
    146c:	72be0200 	movk	w0, #0xf010, lsl #16
    1470:	6b00003f 	cmp	w1, w0
    1474:	54000060 	b.eq	1480 <TEE_GetObjectBufferAttribute+0x94>
/home/pwnz/devel/optee/optee_os/lib/libutee/tee_api_objects.c:160
    1478:	2a1303e0 	mov	w0, w19
    147c:	94000bb2 	bl	4344 <TEE_Panic>
/home/pwnz/devel/optee/optee_os/lib/libutee/tee_api_objects.c:163
    1480:	2a1303e0 	mov	w0, w19
    1484:	f9401bf7 	ldr	x23, [sp,#48]
    1488:	a94153f3 	ldp	x19, x20, [sp,#16]
    148c:	a9425bf5 	ldp	x21, x22, [sp,#32]
    1490:	a8c77bfd 	ldp	x29, x30, [sp],#112
    1494:	d65f03c0 	ret

0000000000001498 <TEE_GetObjectValueAttribute>:
TEE_GetObjectValueAttribute():
/home/pwnz/devel/optee/optee_os/lib/libutee/tee_api_objects.c:168
    1498:	a9b97bfd 	stp	x29, x30, [sp,#-112]!
    149c:	910003fd 	mov	x29, sp
    14a0:	a9025bf5 	stp	x21, x22, [sp,#32]
    14a4:	2a0103f6 	mov	w22, w1
/home/pwnz/devel/optee/optee_os/lib/libutee/tee_api_objects.c:172
    14a8:	d2800101 	mov	x1, #0x8                   	// #8
/home/pwnz/devel/optee/optee_os/lib/libutee/tee_api_objects.c:168
    14ac:	a90153f3 	stp	x19, x20, [sp,#16]
/home/pwnz/devel/optee/optee_os/lib/libutee/tee_api_objects.c:172
    14b0:	f90027a1 	str	x1, [x29,#72]
/home/pwnz/devel/optee/optee_os/lib/libutee/tee_api_objects.c:168
    14b4:	aa0203f5 	mov	x21, x2
    14b8:	f9001bf7 	str	x23, [sp,#48]
    14bc:	aa0303f4 	mov	x20, x3
/home/pwnz/devel/optee/optee_os/lib/libutee/tee_api_objects.c:174
    14c0:	910143a1 	add	x1, x29, #0x50
/home/pwnz/devel/optee/optee_os/lib/libutee/tee_api_objects.c:168
    14c4:	aa0003f7 	mov	x23, x0
/home/pwnz/devel/optee/optee_os/lib/libutee/tee_api_objects.c:174
    14c8:	94000c9c 	bl	4738 <utee_cryp_obj_get_info>
    14cc:	2a0003f3 	mov	w19, w0
/home/pwnz/devel/optee/optee_os/lib/libutee/tee_api_objects.c:175
    14d0:	35000120 	cbnz	w0, 14f4 <TEE_GetObjectValueAttribute+0x5c>
/home/pwnz/devel/optee/optee_os/lib/libutee/tee_api_objects.c:180
    14d4:	129fff33 	mov	w19, #0xffff0006            	// #-65530
/home/pwnz/devel/optee/optee_os/lib/libutee/tee_api_objects.c:179
    14d8:	36e800f6 	tbz	w22, #29, 14f4 <TEE_GetObjectValueAttribute+0x5c>
/home/pwnz/devel/optee/optee_os/lib/libutee/tee_api_objects.c:184
    14dc:	910123a3 	add	x3, x29, #0x48
    14e0:	910103a2 	add	x2, x29, #0x40
    14e4:	2a1603e1 	mov	w1, w22
    14e8:	aa1703e0 	mov	x0, x23
    14ec:	94000c99 	bl	4750 <utee_cryp_obj_get_attr>
    14f0:	2a0003f3 	mov	w19, w0
/home/pwnz/devel/optee/optee_os/lib/libutee/tee_api_objects.c:188
    14f4:	7100027f 	cmp	w19, #0x0
    14f8:	129ffee0 	mov	w0, #0xffff0008            	// #-65528
    14fc:	7a401264 	ccmp	w19, w0, #0x4, ne
    1500:	54000100 	b.eq	1520 <TEE_GetObjectValueAttribute+0x88>
/home/pwnz/devel/optee/optee_os/lib/libutee/tee_api_objects.c:190
    1504:	121e7a61 	and	w1, w19, #0xfffffffd
    1508:	52800020 	mov	w0, #0x1                   	// #1
    150c:	72be0200 	movk	w0, #0xf010, lsl #16
    1510:	6b00003f 	cmp	w1, w0
    1514:	54000060 	b.eq	1520 <TEE_GetObjectValueAttribute+0x88>
/home/pwnz/devel/optee/optee_os/lib/libutee/tee_api_objects.c:192
    1518:	2a1303e0 	mov	w0, w19
    151c:	94000b8a 	bl	4344 <TEE_Panic>
/home/pwnz/devel/optee/optee_os/lib/libutee/tee_api_objects.c:194
    1520:	f94027a0 	ldr	x0, [x29,#72]
    1524:	f100201f 	cmp	x0, #0x8
    1528:	54000060 	b.eq	1534 <TEE_GetObjectValueAttribute+0x9c>
/home/pwnz/devel/optee/optee_os/lib/libutee/tee_api_objects.c:195
    152c:	52800000 	mov	w0, #0x0                   	// #0
    1530:	94000b85 	bl	4344 <TEE_Panic>
/home/pwnz/devel/optee/optee_os/lib/libutee/tee_api_objects.c:197
    1534:	350000f3 	cbnz	w19, 1550 <TEE_GetObjectValueAttribute+0xb8>
/home/pwnz/devel/optee/optee_os/lib/libutee/tee_api_objects.c:198
    1538:	b4000075 	cbz	x21, 1544 <TEE_GetObjectValueAttribute+0xac>
/home/pwnz/devel/optee/optee_os/lib/libutee/tee_api_objects.c:199
    153c:	b94043a0 	ldr	w0, [x29,#64]
    1540:	b90002a0 	str	w0, [x21]
/home/pwnz/devel/optee/optee_os/lib/libutee/tee_api_objects.c:200
    1544:	b4000074 	cbz	x20, 1550 <TEE_GetObjectValueAttribute+0xb8>
/home/pwnz/devel/optee/optee_os/lib/libutee/tee_api_objects.c:201
    1548:	b94047a0 	ldr	w0, [x29,#68]
    154c:	b9000280 	str	w0, [x20]
/home/pwnz/devel/optee/optee_os/lib/libutee/tee_api_objects.c:205
    1550:	2a1303e0 	mov	w0, w19
    1554:	f9401bf7 	ldr	x23, [sp,#48]
    1558:	a94153f3 	ldp	x19, x20, [sp,#16]
    155c:	a9425bf5 	ldp	x21, x22, [sp,#32]
    1560:	a8c77bfd 	ldp	x29, x30, [sp],#112
    1564:	d65f03c0 	ret

0000000000001568 <TEE_CloseObject>:
TEE_CloseObject():
/home/pwnz/devel/optee/optee_os/lib/libutee/tee_api_objects.c:211
    1568:	b4000120 	cbz	x0, 158c <TEE_CloseObject+0x24>
/home/pwnz/devel/optee/optee_os/lib/libutee/tee_api_objects.c:208
    156c:	a9bf7bfd 	stp	x29, x30, [sp,#-16]!
    1570:	910003fd 	mov	x29, sp
/home/pwnz/devel/optee/optee_os/lib/libutee/tee_api_objects.c:214
    1574:	94000c7d 	bl	4768 <utee_cryp_obj_close>
/home/pwnz/devel/optee/optee_os/lib/libutee/tee_api_objects.c:215
    1578:	34000060 	cbz	w0, 1584 <TEE_CloseObject+0x1c>
/home/pwnz/devel/optee/optee_os/lib/libutee/tee_api_objects.c:217
    157c:	a8c17bfd 	ldp	x29, x30, [sp],#16
/home/pwnz/devel/optee/optee_os/lib/libutee/tee_api_objects.c:216
    1580:	14000b71 	b	4344 <TEE_Panic>
/home/pwnz/devel/optee/optee_os/lib/libutee/tee_api_objects.c:217
    1584:	a8c17bfd 	ldp	x29, x30, [sp],#16
    1588:	d65f03c0 	ret
    158c:	d65f03c0 	ret

0000000000001590 <TEE_AllocateTransientObject>:
TEE_AllocateTransientObject():
/home/pwnz/devel/optee/optee_os/lib/libutee/tee_api_objects.c:224
    1590:	a9bd7bfd 	stp	x29, x30, [sp,#-48]!
/home/pwnz/devel/optee/optee_os/lib/libutee/tee_api_objects.c:228
    1594:	2a0103e1 	mov	w1, w1
    1598:	2a0003e0 	mov	w0, w0
/home/pwnz/devel/optee/optee_os/lib/libutee/tee_api_objects.c:224
    159c:	910003fd 	mov	x29, sp
    15a0:	a90153f3 	stp	x19, x20, [sp,#16]
    15a4:	aa0203f4 	mov	x20, x2
/home/pwnz/devel/optee/optee_os/lib/libutee/tee_api_objects.c:228
    15a8:	9100b3a2 	add	x2, x29, #0x2c
    15ac:	94000c6c 	bl	475c <utee_cryp_obj_alloc>
/home/pwnz/devel/optee/optee_os/lib/libutee/tee_api_objects.c:230
    15b0:	7100001f 	cmp	w0, #0x0
    15b4:	129ffe61 	mov	w1, #0xffff000c            	// #-65524
/home/pwnz/devel/optee/optee_os/lib/libutee/tee_api_objects.c:228
    15b8:	2a0003f3 	mov	w19, w0
/home/pwnz/devel/optee/optee_os/lib/libutee/tee_api_objects.c:230
    15bc:	7a411004 	ccmp	w0, w1, #0x4, ne
    15c0:	54000120 	b.eq	15e4 <TEE_AllocateTransientObject+0x54>
/home/pwnz/devel/optee/optee_os/lib/libutee/tee_api_objects.c:231
    15c4:	129ffea1 	mov	w1, #0xffff000a            	// #-65526
    15c8:	6b01001f 	cmp	w0, w1
    15cc:	54000040 	b.eq	15d4 <TEE_AllocateTransientObject+0x44>
/home/pwnz/devel/optee/optee_os/lib/libutee/tee_api_objects.c:233
    15d0:	94000b5d 	bl	4344 <TEE_Panic>
/home/pwnz/devel/optee/optee_os/lib/libutee/tee_api_objects.c:239
    15d4:	2a1303e0 	mov	w0, w19
    15d8:	a94153f3 	ldp	x19, x20, [sp,#16]
    15dc:	a8c37bfd 	ldp	x29, x30, [sp],#48
    15e0:	d65f03c0 	ret
/home/pwnz/devel/optee/optee_os/lib/libutee/tee_api_objects.c:235
    15e4:	35ffff80 	cbnz	w0, 15d4 <TEE_AllocateTransientObject+0x44>
/home/pwnz/devel/optee/optee_os/lib/libutee/tee_api_objects.c:236
    15e8:	b9402fa0 	ldr	w0, [x29,#44]
    15ec:	f9000280 	str	x0, [x20]
/home/pwnz/devel/optee/optee_os/lib/libutee/tee_api_objects.c:238
    15f0:	17fffff9 	b	15d4 <TEE_AllocateTransientObject+0x44>

00000000000015f4 <TEE_FreeTransientObject>:
TEE_FreeTransientObject():
/home/pwnz/devel/optee/optee_os/lib/libutee/tee_api_objects.c:246
    15f4:	b4000280 	cbz	x0, 1644 <TEE_FreeTransientObject+0x50>
/home/pwnz/devel/optee/optee_os/lib/libutee/tee_api_objects.c:242
    15f8:	a9bc7bfd 	stp	x29, x30, [sp,#-64]!
    15fc:	910003fd 	mov	x29, sp
    1600:	f9000bf3 	str	x19, [sp,#16]
/home/pwnz/devel/optee/optee_os/lib/libutee/tee_api_objects.c:249
    1604:	910083a1 	add	x1, x29, #0x20
    1608:	aa0003f3 	mov	x19, x0
    160c:	94000c4b 	bl	4738 <utee_cryp_obj_get_info>
/home/pwnz/devel/optee/optee_os/lib/libutee/tee_api_objects.c:250
    1610:	34000040 	cbz	w0, 1618 <TEE_FreeTransientObject+0x24>
/home/pwnz/devel/optee/optee_os/lib/libutee/tee_api_objects.c:251
    1614:	94000b4c 	bl	4344 <TEE_Panic>
/home/pwnz/devel/optee/optee_os/lib/libutee/tee_api_objects.c:253
    1618:	b9403ba0 	ldr	w0, [x29,#56]
    161c:	36800060 	tbz	w0, #16, 1628 <TEE_FreeTransientObject+0x34>
/home/pwnz/devel/optee/optee_os/lib/libutee/tee_api_objects.c:254
    1620:	52800000 	mov	w0, #0x0                   	// #0
    1624:	94000b48 	bl	4344 <TEE_Panic>
/home/pwnz/devel/optee/optee_os/lib/libutee/tee_api_objects.c:256
    1628:	aa1303e0 	mov	x0, x19
    162c:	94000c4f 	bl	4768 <utee_cryp_obj_close>
/home/pwnz/devel/optee/optee_os/lib/libutee/tee_api_objects.c:257
    1630:	34000040 	cbz	w0, 1638 <TEE_FreeTransientObject+0x44>
/home/pwnz/devel/optee/optee_os/lib/libutee/tee_api_objects.c:258
    1634:	94000b44 	bl	4344 <TEE_Panic>
/home/pwnz/devel/optee/optee_os/lib/libutee/tee_api_objects.c:259
    1638:	f9400bf3 	ldr	x19, [sp,#16]
    163c:	a8c47bfd 	ldp	x29, x30, [sp],#64
    1640:	d65f03c0 	ret
    1644:	d65f03c0 	ret

0000000000001648 <TEE_ResetTransientObject>:
TEE_ResetTransientObject():
/home/pwnz/devel/optee/optee_os/lib/libutee/tee_api_objects.c:266
    1648:	b4000280 	cbz	x0, 1698 <TEE_ResetTransientObject+0x50>
/home/pwnz/devel/optee/optee_os/lib/libutee/tee_api_objects.c:262
    164c:	a9bc7bfd 	stp	x29, x30, [sp,#-64]!
    1650:	910003fd 	mov	x29, sp
    1654:	f9000bf3 	str	x19, [sp,#16]
/home/pwnz/devel/optee/optee_os/lib/libutee/tee_api_objects.c:269
    1658:	910083a1 	add	x1, x29, #0x20
    165c:	aa0003f3 	mov	x19, x0
    1660:	94000c36 	bl	4738 <utee_cryp_obj_get_info>
/home/pwnz/devel/optee/optee_os/lib/libutee/tee_api_objects.c:270
    1664:	34000040 	cbz	w0, 166c <TEE_ResetTransientObject+0x24>
/home/pwnz/devel/optee/optee_os/lib/libutee/tee_api_objects.c:271
    1668:	94000b37 	bl	4344 <TEE_Panic>
/home/pwnz/devel/optee/optee_os/lib/libutee/tee_api_objects.c:273
    166c:	b9403ba0 	ldr	w0, [x29,#56]
    1670:	36800060 	tbz	w0, #16, 167c <TEE_ResetTransientObject+0x34>
/home/pwnz/devel/optee/optee_os/lib/libutee/tee_api_objects.c:274
    1674:	52800000 	mov	w0, #0x0                   	// #0
    1678:	94000b33 	bl	4344 <TEE_Panic>
/home/pwnz/devel/optee/optee_os/lib/libutee/tee_api_objects.c:276
    167c:	aa1303e0 	mov	x0, x19
    1680:	94000c3d 	bl	4774 <utee_cryp_obj_reset>
/home/pwnz/devel/optee/optee_os/lib/libutee/tee_api_objects.c:277
    1684:	34000040 	cbz	w0, 168c <TEE_ResetTransientObject+0x44>
/home/pwnz/devel/optee/optee_os/lib/libutee/tee_api_objects.c:278
    1688:	94000b2f 	bl	4344 <TEE_Panic>
/home/pwnz/devel/optee/optee_os/lib/libutee/tee_api_objects.c:279
    168c:	f9400bf3 	ldr	x19, [sp,#16]
    1690:	a8c47bfd 	ldp	x29, x30, [sp],#64
    1694:	d65f03c0 	ret
    1698:	d65f03c0 	ret

000000000000169c <TEE_PopulateTransientObject>:
TEE_PopulateTransientObject():
/home/pwnz/devel/optee/optee_os/lib/libutee/tee_api_objects.c:284
    169c:	a9ba7bfd 	stp	x29, x30, [sp,#-96]!
    16a0:	910003fd 	mov	x29, sp
    16a4:	a9025bf5 	stp	x21, x22, [sp,#32]
    16a8:	2a0203f6 	mov	w22, w2
    16ac:	f9001bf7 	str	x23, [sp,#48]
    16b0:	aa0103f7 	mov	x23, x1
/home/pwnz/devel/optee/optee_os/lib/libutee/tee_api_objects.c:287
    16b4:	52800301 	mov	w1, #0x18                  	// #24
/home/pwnz/devel/optee/optee_os/lib/libutee/tee_api_objects.c:284
    16b8:	a90153f3 	stp	x19, x20, [sp,#16]
    16bc:	aa0003f5 	mov	x21, x0
    16c0:	aa1603f3 	mov	x19, x22
/home/pwnz/devel/optee/optee_os/lib/libutee/tee_api_objects.c:287
    16c4:	9ba17ec1 	umull	x1, w22, w1
    16c8:	91005821 	add	x1, x1, #0x16
    16cc:	927c8421 	and	x1, x1, #0x3ffffffff0
    16d0:	cb2163ff 	sub	sp, sp, x1
/home/pwnz/devel/optee/optee_os/lib/libutee/tee_api_objects.c:289
    16d4:	910103a1 	add	x1, x29, #0x40
/home/pwnz/devel/optee/optee_os/lib/libutee/tee_api_objects.c:287
    16d8:	910003f4 	mov	x20, sp
/home/pwnz/devel/optee/optee_os/lib/libutee/tee_api_objects.c:289
    16dc:	94000c17 	bl	4738 <utee_cryp_obj_get_info>
/home/pwnz/devel/optee/optee_os/lib/libutee/tee_api_objects.c:290
    16e0:	34000040 	cbz	w0, 16e8 <TEE_PopulateTransientObject+0x4c>
/home/pwnz/devel/optee/optee_os/lib/libutee/tee_api_objects.c:291
    16e4:	94000b18 	bl	4344 <TEE_Panic>
/home/pwnz/devel/optee/optee_os/lib/libutee/tee_api_objects.c:294
    16e8:	b9405ba0 	ldr	w0, [x29,#88]
    16ec:	36800060 	tbz	w0, #16, 16f8 <TEE_PopulateTransientObject+0x5c>
/home/pwnz/devel/optee/optee_os/lib/libutee/tee_api_objects.c:295
    16f0:	52800000 	mov	w0, #0x0                   	// #0
    16f4:	94000b14 	bl	4344 <TEE_Panic>
/home/pwnz/devel/optee/optee_os/lib/libutee/tee_api_objects.c:298
    16f8:	b9405ba0 	ldr	w0, [x29,#88]
    16fc:	36880060 	tbz	w0, #17, 1708 <TEE_PopulateTransientObject+0x6c>
/home/pwnz/devel/optee/optee_os/lib/libutee/tee_api_objects.c:299
    1700:	52800000 	mov	w0, #0x0                   	// #0
    1704:	94000b10 	bl	4344 <TEE_Panic>
/home/pwnz/devel/optee/optee_os/lib/libutee/tee_api_objects.c:301
    1708:	2a1303e2 	mov	w2, w19
    170c:	aa1703e1 	mov	x1, x23
    1710:	aa1403e0 	mov	x0, x20
    1714:	97fffedc 	bl	1284 <__utee_from_attr>
/home/pwnz/devel/optee/optee_os/lib/libutee/tee_api_objects.c:302
    1718:	aa1403e1 	mov	x1, x20
    171c:	aa1603e2 	mov	x2, x22
    1720:	aa1503e0 	mov	x0, x21
    1724:	94000c17 	bl	4780 <utee_cryp_obj_populate>
/home/pwnz/devel/optee/optee_os/lib/libutee/tee_api_objects.c:303
    1728:	7100001f 	cmp	w0, #0x0
    172c:	129fff21 	mov	w1, #0xffff0006            	// #-65530
/home/pwnz/devel/optee/optee_os/lib/libutee/tee_api_objects.c:302
    1730:	2a0003f3 	mov	w19, w0
/home/pwnz/devel/optee/optee_os/lib/libutee/tee_api_objects.c:303
    1734:	7a411004 	ccmp	w0, w1, #0x4, ne
    1738:	54000040 	b.eq	1740 <TEE_PopulateTransientObject+0xa4>
/home/pwnz/devel/optee/optee_os/lib/libutee/tee_api_objects.c:304
    173c:	94000b02 	bl	4344 <TEE_Panic>
/home/pwnz/devel/optee/optee_os/lib/libutee/tee_api_objects.c:306
    1740:	910003bf 	mov	sp, x29
    1744:	2a1303e0 	mov	w0, w19
    1748:	f9401bf7 	ldr	x23, [sp,#48]
    174c:	a94153f3 	ldp	x19, x20, [sp,#16]
    1750:	a9425bf5 	ldp	x21, x22, [sp,#32]
    1754:	a8c67bfd 	ldp	x29, x30, [sp],#96
    1758:	d65f03c0 	ret

000000000000175c <TEE_InitRefAttribute>:
TEE_InitRefAttribute():
/home/pwnz/devel/optee/optee_os/lib/libutee/tee_api_objects.c:310
    175c:	a9bd7bfd 	stp	x29, x30, [sp,#-48]!
    1760:	910003fd 	mov	x29, sp
    1764:	a90153f3 	stp	x19, x20, [sp,#16]
    1768:	aa0003f3 	mov	x19, x0
    176c:	a9025bf5 	stp	x21, x22, [sp,#32]
    1770:	2a0103f4 	mov	w20, w1
    1774:	aa0203f6 	mov	x22, x2
    1778:	2a0303f5 	mov	w21, w3
/home/pwnz/devel/optee/optee_os/lib/libutee/tee_api_objects.c:311
    177c:	b5000060 	cbnz	x0, 1788 <TEE_InitRefAttribute+0x2c>
/home/pwnz/devel/optee/optee_os/lib/libutee/tee_api_objects.c:312
    1780:	52800000 	mov	w0, #0x0                   	// #0
    1784:	94000af0 	bl	4344 <TEE_Panic>
/home/pwnz/devel/optee/optee_os/lib/libutee/tee_api_objects.c:313
    1788:	36e80074 	tbz	w20, #29, 1794 <TEE_InitRefAttribute+0x38>
/home/pwnz/devel/optee/optee_os/lib/libutee/tee_api_objects.c:314
    178c:	52800000 	mov	w0, #0x0                   	// #0
    1790:	94000aed 	bl	4344 <TEE_Panic>
/home/pwnz/devel/optee/optee_os/lib/libutee/tee_api_objects.c:316
    1794:	f9000676 	str	x22, [x19,#8]
/home/pwnz/devel/optee/optee_os/lib/libutee/tee_api_objects.c:317
    1798:	b9001275 	str	w21, [x19,#16]
/home/pwnz/devel/optee/optee_os/lib/libutee/tee_api_objects.c:315
    179c:	b9000274 	str	w20, [x19]
/home/pwnz/devel/optee/optee_os/lib/libutee/tee_api_objects.c:318
    17a0:	a9425bf5 	ldp	x21, x22, [sp,#32]
    17a4:	a94153f3 	ldp	x19, x20, [sp,#16]
    17a8:	a8c37bfd 	ldp	x29, x30, [sp],#48
    17ac:	d65f03c0 	ret

00000000000017b0 <TEE_InitValueAttribute>:
TEE_InitValueAttribute():
/home/pwnz/devel/optee/optee_os/lib/libutee/tee_api_objects.c:322
    17b0:	a9bd7bfd 	stp	x29, x30, [sp,#-48]!
    17b4:	910003fd 	mov	x29, sp
    17b8:	a90153f3 	stp	x19, x20, [sp,#16]
    17bc:	aa0003f3 	mov	x19, x0
    17c0:	a9025bf5 	stp	x21, x22, [sp,#32]
    17c4:	2a0103f4 	mov	w20, w1
    17c8:	2a0203f6 	mov	w22, w2
    17cc:	2a0303f5 	mov	w21, w3
/home/pwnz/devel/optee/optee_os/lib/libutee/tee_api_objects.c:323
    17d0:	b5000060 	cbnz	x0, 17dc <TEE_InitValueAttribute+0x2c>
/home/pwnz/devel/optee/optee_os/lib/libutee/tee_api_objects.c:324
    17d4:	52800000 	mov	w0, #0x0                   	// #0
    17d8:	94000adb 	bl	4344 <TEE_Panic>
/home/pwnz/devel/optee/optee_os/lib/libutee/tee_api_objects.c:325
    17dc:	37e80074 	tbnz	w20, #29, 17e8 <TEE_InitValueAttribute+0x38>
/home/pwnz/devel/optee/optee_os/lib/libutee/tee_api_objects.c:326
    17e0:	52800000 	mov	w0, #0x0                   	// #0
    17e4:	94000ad8 	bl	4344 <TEE_Panic>
/home/pwnz/devel/optee/optee_os/lib/libutee/tee_api_objects.c:329
    17e8:	29015676 	stp	w22, w21, [x19,#8]
/home/pwnz/devel/optee/optee_os/lib/libutee/tee_api_objects.c:327
    17ec:	b9000274 	str	w20, [x19]
/home/pwnz/devel/optee/optee_os/lib/libutee/tee_api_objects.c:330
    17f0:	a9425bf5 	ldp	x21, x22, [sp,#32]
    17f4:	a94153f3 	ldp	x19, x20, [sp,#16]
    17f8:	a8c37bfd 	ldp	x29, x30, [sp],#48
    17fc:	d65f03c0 	ret

0000000000001800 <TEE_CopyObjectAttributes1>:
TEE_CopyObjectAttributes1():
/home/pwnz/devel/optee/optee_os/lib/libutee/tee_api_objects.c:355
    1800:	a9b97bfd 	stp	x29, x30, [sp,#-112]!
    1804:	910003fd 	mov	x29, sp
    1808:	a90153f3 	stp	x19, x20, [sp,#16]
    180c:	aa0103f4 	mov	x20, x1
    1810:	f90013f5 	str	x21, [sp,#32]
/home/pwnz/devel/optee/optee_os/lib/libutee/tee_api_objects.c:360
    1814:	9100c3a1 	add	x1, x29, #0x30
/home/pwnz/devel/optee/optee_os/lib/libutee/tee_api_objects.c:355
    1818:	aa0003f5 	mov	x21, x0
/home/pwnz/devel/optee/optee_os/lib/libutee/tee_api_objects.c:360
    181c:	94000bc7 	bl	4738 <utee_cryp_obj_get_info>
    1820:	2a0003f3 	mov	w19, w0
/home/pwnz/devel/optee/optee_os/lib/libutee/tee_api_objects.c:361
    1824:	350002a0 	cbnz	w0, 1878 <TEE_CopyObjectAttributes1+0x78>
/home/pwnz/devel/optee/optee_os/lib/libutee/tee_api_objects.c:364
    1828:	910143a1 	add	x1, x29, #0x50
    182c:	aa1403e0 	mov	x0, x20
    1830:	94000bc2 	bl	4738 <utee_cryp_obj_get_info>
    1834:	2a0003f3 	mov	w19, w0
/home/pwnz/devel/optee/optee_os/lib/libutee/tee_api_objects.c:365
    1838:	35000200 	cbnz	w0, 1878 <TEE_CopyObjectAttributes1+0x78>
/home/pwnz/devel/optee/optee_os/lib/libutee/tee_api_objects.c:368
    183c:	b9406ba1 	ldr	w1, [x29,#104]
    1840:	37880041 	tbnz	w1, #17, 1848 <TEE_CopyObjectAttributes1+0x48>
/home/pwnz/devel/optee/optee_os/lib/libutee/tee_api_objects.c:369
    1844:	94000ac0 	bl	4344 <TEE_Panic>
/home/pwnz/devel/optee/optee_os/lib/libutee/tee_api_objects.c:371
    1848:	b9404ba0 	ldr	w0, [x29,#72]
    184c:	36800060 	tbz	w0, #16, 1858 <TEE_CopyObjectAttributes1+0x58>
/home/pwnz/devel/optee/optee_os/lib/libutee/tee_api_objects.c:372
    1850:	52800000 	mov	w0, #0x0                   	// #0
    1854:	94000abc 	bl	4344 <TEE_Panic>
/home/pwnz/devel/optee/optee_os/lib/libutee/tee_api_objects.c:374
    1858:	b9404ba0 	ldr	w0, [x29,#72]
    185c:	36880060 	tbz	w0, #17, 1868 <TEE_CopyObjectAttributes1+0x68>
/home/pwnz/devel/optee/optee_os/lib/libutee/tee_api_objects.c:375
    1860:	52800000 	mov	w0, #0x0                   	// #0
    1864:	94000ab8 	bl	4344 <TEE_Panic>
/home/pwnz/devel/optee/optee_os/lib/libutee/tee_api_objects.c:377
    1868:	aa1403e1 	mov	x1, x20
    186c:	aa1503e0 	mov	x0, x21
    1870:	94000bc7 	bl	478c <utee_cryp_obj_copy>
    1874:	2a0003f3 	mov	w19, w0
/home/pwnz/devel/optee/optee_os/lib/libutee/tee_api_objects.c:382
    1878:	121e7a60 	and	w0, w19, #0xfffffffd
    187c:	7100027f 	cmp	w19, #0x0
    1880:	52800021 	mov	w1, #0x1                   	// #1
    1884:	72be0201 	movk	w1, #0xf010, lsl #16
    1888:	7a411004 	ccmp	w0, w1, #0x4, ne
    188c:	54000060 	b.eq	1898 <TEE_CopyObjectAttributes1+0x98>
/home/pwnz/devel/optee/optee_os/lib/libutee/tee_api_objects.c:384
    1890:	2a1303e0 	mov	w0, w19
    1894:	94000aac 	bl	4344 <TEE_Panic>
/home/pwnz/devel/optee/optee_os/lib/libutee/tee_api_objects.c:387
    1898:	2a1303e0 	mov	w0, w19
    189c:	f94013f5 	ldr	x21, [sp,#32]
    18a0:	a94153f3 	ldp	x19, x20, [sp,#16]
    18a4:	a8c77bfd 	ldp	x29, x30, [sp],#112
    18a8:	d65f03c0 	ret

00000000000018ac <TEE_CopyObjectAttributes>:
TEE_CopyObjectAttributes():
/home/pwnz/devel/optee/optee_os/lib/libutee/tee_api_objects.c:340
    18ac:	a9bc7bfd 	stp	x29, x30, [sp,#-64]!
    18b0:	910003fd 	mov	x29, sp
    18b4:	a90153f3 	stp	x19, x20, [sp,#16]
    18b8:	aa0103f3 	mov	x19, x1
    18bc:	aa0003f4 	mov	x20, x0
/home/pwnz/devel/optee/optee_os/lib/libutee/tee_api_objects.c:344
    18c0:	910083a1 	add	x1, x29, #0x20
    18c4:	aa1303e0 	mov	x0, x19
    18c8:	94000b9c 	bl	4738 <utee_cryp_obj_get_info>
/home/pwnz/devel/optee/optee_os/lib/libutee/tee_api_objects.c:345
    18cc:	b94023a1 	ldr	w1, [x29,#32]
    18d0:	528017c0 	mov	w0, #0xbe                  	// #190
    18d4:	72b40000 	movk	w0, #0xa000, lsl #16
    18d8:	6b00003f 	cmp	w1, w0
    18dc:	540000c0 	b.eq	18f4 <TEE_CopyObjectAttributes+0x48>
/home/pwnz/devel/optee/optee_os/lib/libutee/tee_api_objects.c:348
    18e0:	aa1303e1 	mov	x1, x19
    18e4:	aa1403e0 	mov	x0, x20
    18e8:	97ffffc6 	bl	1800 <TEE_CopyObjectAttributes1>
/home/pwnz/devel/optee/optee_os/lib/libutee/tee_api_objects.c:349
    18ec:	34000040 	cbz	w0, 18f4 <TEE_CopyObjectAttributes+0x48>
/home/pwnz/devel/optee/optee_os/lib/libutee/tee_api_objects.c:350
    18f0:	94000a95 	bl	4344 <TEE_Panic>
/home/pwnz/devel/optee/optee_os/lib/libutee/tee_api_objects.c:351
    18f4:	a94153f3 	ldp	x19, x20, [sp,#16]
    18f8:	a8c47bfd 	ldp	x29, x30, [sp],#64
    18fc:	d65f03c0 	ret

0000000000001900 <TEE_GenerateKey>:
TEE_GenerateKey():
/home/pwnz/devel/optee/optee_os/lib/libutee/tee_api_objects.c:391
    1900:	a9bd7bfd 	stp	x29, x30, [sp,#-48]!
    1904:	910003fd 	mov	x29, sp
    1908:	a9025bf5 	stp	x21, x22, [sp,#32]
    190c:	aa0003f5 	mov	x21, x0
/home/pwnz/devel/optee/optee_os/lib/libutee/tee_api_objects.c:393
    1910:	52800300 	mov	w0, #0x18                  	// #24
/home/pwnz/devel/optee/optee_os/lib/libutee/tee_api_objects.c:391
    1914:	a90153f3 	stp	x19, x20, [sp,#16]
    1918:	2a0103f6 	mov	w22, w1
    191c:	2a0303f3 	mov	w19, w3
/home/pwnz/devel/optee/optee_os/lib/libutee/tee_api_objects.c:393
    1920:	9ba07c60 	umull	x0, w3, w0
/home/pwnz/devel/optee/optee_os/lib/libutee/tee_api_objects.c:391
    1924:	aa0203e1 	mov	x1, x2
/home/pwnz/devel/optee/optee_os/lib/libutee/tee_api_objects.c:395
    1928:	2a0303e2 	mov	w2, w3
/home/pwnz/devel/optee/optee_os/lib/libutee/tee_api_objects.c:393
    192c:	91005800 	add	x0, x0, #0x16
    1930:	927c8400 	and	x0, x0, #0x3ffffffff0
    1934:	cb2063ff 	sub	sp, sp, x0
/home/pwnz/devel/optee/optee_os/lib/libutee/tee_api_objects.c:395
    1938:	910003e0 	mov	x0, sp
    193c:	97fffe52 	bl	1284 <__utee_from_attr>
/home/pwnz/devel/optee/optee_os/lib/libutee/tee_api_objects.c:396
    1940:	2a1303e3 	mov	w3, w19
    1944:	2a1603e1 	mov	w1, w22
    1948:	910003e2 	mov	x2, sp
    194c:	aa1503e0 	mov	x0, x21
    1950:	94000bd4 	bl	48a0 <utee_cryp_obj_generate_key>
/home/pwnz/devel/optee/optee_os/lib/libutee/tee_api_objects.c:399
    1954:	7100001f 	cmp	w0, #0x0
    1958:	129fff21 	mov	w1, #0xffff0006            	// #-65530
/home/pwnz/devel/optee/optee_os/lib/libutee/tee_api_objects.c:396
    195c:	2a0003f3 	mov	w19, w0
/home/pwnz/devel/optee/optee_os/lib/libutee/tee_api_objects.c:399
    1960:	7a411004 	ccmp	w0, w1, #0x4, ne
    1964:	54000040 	b.eq	196c <TEE_GenerateKey+0x6c>
/home/pwnz/devel/optee/optee_os/lib/libutee/tee_api_objects.c:400
    1968:	94000a77 	bl	4344 <TEE_Panic>
/home/pwnz/devel/optee/optee_os/lib/libutee/tee_api_objects.c:403
    196c:	910003bf 	mov	sp, x29
    1970:	2a1303e0 	mov	w0, w19
    1974:	a94153f3 	ldp	x19, x20, [sp,#16]
    1978:	a9425bf5 	ldp	x21, x22, [sp,#32]
    197c:	a8c37bfd 	ldp	x29, x30, [sp],#48
    1980:	d65f03c0 	ret

0000000000001984 <TEE_OpenPersistentObject>:
TEE_OpenPersistentObject():
/home/pwnz/devel/optee/optee_os/lib/libutee/tee_api_objects.c:410
    1984:	a9bd7bfd 	stp	x29, x30, [sp,#-48]!
    1988:	910003fd 	mov	x29, sp
    198c:	a90153f3 	stp	x19, x20, [sp,#16]
/home/pwnz/devel/optee/optee_os/lib/libutee/tee_api_objects.c:415
    1990:	129ffef3 	mov	w19, #0xffff0008            	// #-65528
/home/pwnz/devel/optee/optee_os/lib/libutee/tee_api_objects.c:414
    1994:	b40001e1 	cbz	x1, 19d0 <TEE_OpenPersistentObject+0x4c>
/home/pwnz/devel/optee/optee_os/lib/libutee/tee_api_objects.c:424
    1998:	7101005f 	cmp	w2, #0x40
    199c:	aa0403f4 	mov	x20, x4
/home/pwnz/devel/optee/optee_os/lib/libutee/tee_api_objects.c:425
    19a0:	129fff33 	mov	w19, #0xffff0006            	// #-65530
/home/pwnz/devel/optee/optee_os/lib/libutee/tee_api_objects.c:424
    19a4:	fa409884 	ccmp	x4, #0x0, #0x4, ls
    19a8:	54000140 	b.eq	19d0 <TEE_OpenPersistentObject+0x4c>
/home/pwnz/devel/optee/optee_os/lib/libutee/tee_api_objects.c:429
    19ac:	9100b3a4 	add	x4, x29, #0x2c
    19b0:	2a0303e3 	mov	w3, w3
    19b4:	2a0203e2 	mov	w2, w2
    19b8:	2a0003e0 	mov	w0, w0
    19bc:	94000b92 	bl	4804 <utee_storage_obj_open>
    19c0:	2a0003f3 	mov	w19, w0
/home/pwnz/devel/optee/optee_os/lib/libutee/tee_api_objects.c:431
    19c4:	35000060 	cbnz	w0, 19d0 <TEE_OpenPersistentObject+0x4c>
/home/pwnz/devel/optee/optee_os/lib/libutee/tee_api_objects.c:432
    19c8:	b9402fa0 	ldr	w0, [x29,#44]
    19cc:	f9000280 	str	x0, [x20]
/home/pwnz/devel/optee/optee_os/lib/libutee/tee_api_objects.c:436
    19d0:	121d7a60 	and	w0, w19, #0xfffffffb
/home/pwnz/devel/optee/optee_os/lib/libutee/tee_api_objects.c:435
    19d4:	7100027f 	cmp	w19, #0x0
    19d8:	129ffee1 	mov	w1, #0xffff0008            	// #-65528
    19dc:	7a411004 	ccmp	w0, w1, #0x4, ne
    19e0:	54000160 	b.eq	1a0c <TEE_OpenPersistentObject+0x88>
/home/pwnz/devel/optee/optee_os/lib/libutee/tee_api_objects.c:437
    19e4:	129fff80 	mov	w0, #0xffff0003            	// #-65533
    19e8:	6b00027f 	cmp	w19, w0
    19ec:	54000100 	b.eq	1a0c <TEE_OpenPersistentObject+0x88>
/home/pwnz/devel/optee/optee_os/lib/libutee/tee_api_objects.c:439
    19f0:	121e7a61 	and	w1, w19, #0xfffffffd
    19f4:	52800020 	mov	w0, #0x1                   	// #1
    19f8:	72be0200 	movk	w0, #0xf010, lsl #16
    19fc:	6b00003f 	cmp	w1, w0
    1a00:	54000060 	b.eq	1a0c <TEE_OpenPersistentObject+0x88>
/home/pwnz/devel/optee/optee_os/lib/libutee/tee_api_objects.c:441
    1a04:	2a1303e0 	mov	w0, w19
    1a08:	94000a4f 	bl	4344 <TEE_Panic>
/home/pwnz/devel/optee/optee_os/lib/libutee/tee_api_objects.c:444
    1a0c:	2a1303e0 	mov	w0, w19
    1a10:	a94153f3 	ldp	x19, x20, [sp,#16]
    1a14:	a8c37bfd 	ldp	x29, x30, [sp],#48
    1a18:	d65f03c0 	ret

0000000000001a1c <TEE_CreatePersistentObject>:
TEE_CreatePersistentObject():
/home/pwnz/devel/optee/optee_os/lib/libutee/tee_api_objects.c:452
    1a1c:	a9bd7bfd 	stp	x29, x30, [sp,#-48]!
    1a20:	910003fd 	mov	x29, sp
    1a24:	f9000bf3 	str	x19, [sp,#16]
    1a28:	aa0703f3 	mov	x19, x7
/home/pwnz/devel/optee/optee_os/lib/libutee/tee_api_objects.c:456
    1a2c:	b4000501 	cbz	x1, 1acc <TEE_CreatePersistentObject+0xb0>
/home/pwnz/devel/optee/optee_os/lib/libutee/tee_api_objects.c:461
    1a30:	7101005f 	cmp	w2, #0x40
    1a34:	54000528 	b.hi	1ad8 <TEE_CreatePersistentObject+0xbc>
/home/pwnz/devel/optee/optee_os/lib/libutee/tee_api_objects.c:466
    1a38:	9100b3a7 	add	x7, x29, #0x2c
    1a3c:	2a0603e6 	mov	w6, w6
    1a40:	2a0303e3 	mov	w3, w3
    1a44:	2a0203e2 	mov	w2, w2
    1a48:	2a0003e0 	mov	w0, w0
    1a4c:	94000b71 	bl	4810 <utee_storage_obj_create>
/home/pwnz/devel/optee/optee_os/lib/libutee/tee_api_objects.c:469
    1a50:	35000380 	cbnz	w0, 1ac0 <TEE_CreatePersistentObject+0xa4>
    1a54:	b9402fa1 	ldr	w1, [x29,#44]
/home/pwnz/devel/optee/optee_os/lib/libutee/tee_api_objects.c:470
    1a58:	b40000b3 	cbz	x19, 1a6c <TEE_CreatePersistentObject+0x50>
/home/pwnz/devel/optee/optee_os/lib/libutee/tee_api_objects.c:471
    1a5c:	f9000261 	str	x1, [x19]
/home/pwnz/devel/optee/optee_os/lib/libutee/tee_api_objects.c:490
    1a60:	f9400bf3 	ldr	x19, [sp,#16]
    1a64:	a8c37bfd 	ldp	x29, x30, [sp],#48
    1a68:	d65f03c0 	ret
/home/pwnz/devel/optee/optee_os/lib/libutee/tee_api_objects.c:473
    1a6c:	aa0103e0 	mov	x0, x1
    1a70:	94000b3e 	bl	4768 <utee_cryp_obj_close>
/home/pwnz/devel/optee/optee_os/lib/libutee/tee_api_objects.c:474
    1a74:	34ffff60 	cbz	w0, 1a60 <TEE_CreatePersistentObject+0x44>
/home/pwnz/devel/optee/optee_os/lib/libutee/tee_api_objects.c:480
    1a78:	129ffee1 	mov	w1, #0xffff0008            	// #-65528
    1a7c:	6b01001f 	cmp	w0, w1
    1a80:	129fff81 	mov	w1, #0xffff0003            	// #-65533
    1a84:	7a411004 	ccmp	w0, w1, #0x4, ne
    1a88:	54fffec0 	b.eq	1a60 <TEE_CreatePersistentObject+0x44>
/home/pwnz/devel/optee/optee_os/lib/libutee/tee_api_objects.c:482
    1a8c:	129ffe61 	mov	w1, #0xffff000c            	// #-65524
    1a90:	6b01001f 	cmp	w0, w1
    1a94:	1299f7c1 	mov	w1, #0xffff3041            	// #-53183
    1a98:	7a411004 	ccmp	w0, w1, #0x4, ne
    1a9c:	54fffe20 	b.eq	1a60 <TEE_CreatePersistentObject+0x44>
/home/pwnz/devel/optee/optee_os/lib/libutee/tee_api_objects.c:484
    1aa0:	121e7802 	and	w2, w0, #0xfffffffd
    1aa4:	52800021 	mov	w1, #0x1                   	// #1
    1aa8:	72be0201 	movk	w1, #0xf010, lsl #16
    1aac:	6b01005f 	cmp	w2, w1
    1ab0:	54fffd80 	b.eq	1a60 <TEE_CreatePersistentObject+0x44>
/home/pwnz/devel/optee/optee_os/lib/libutee/tee_api_objects.c:487
    1ab4:	94000a24 	bl	4344 <TEE_Panic>
/home/pwnz/devel/optee/optee_os/lib/libutee/tee_api_objects.c:489
    1ab8:	52800000 	mov	w0, #0x0                   	// #0
    1abc:	17ffffe9 	b	1a60 <TEE_CreatePersistentObject+0x44>
/home/pwnz/devel/optee/optee_os/lib/libutee/tee_api_objects.c:478
    1ac0:	b4fffdd3 	cbz	x19, 1a78 <TEE_CreatePersistentObject+0x5c>
/home/pwnz/devel/optee/optee_os/lib/libutee/tee_api_objects.c:479
    1ac4:	f900027f 	str	xzr, [x19]
    1ac8:	17ffffec 	b	1a78 <TEE_CreatePersistentObject+0x5c>
/home/pwnz/devel/optee/optee_os/lib/libutee/tee_api_objects.c:457
    1acc:	129ffee0 	mov	w0, #0xffff0008            	// #-65528
/home/pwnz/devel/optee/optee_os/lib/libutee/tee_api_objects.c:478
    1ad0:	b5ffffa7 	cbnz	x7, 1ac4 <TEE_CreatePersistentObject+0xa8>
    1ad4:	17ffffe3 	b	1a60 <TEE_CreatePersistentObject+0x44>
/home/pwnz/devel/optee/optee_os/lib/libutee/tee_api_objects.c:462
    1ad8:	129fff20 	mov	w0, #0xffff0006            	// #-65530
/home/pwnz/devel/optee/optee_os/lib/libutee/tee_api_objects.c:478
    1adc:	b5ffff47 	cbnz	x7, 1ac4 <TEE_CreatePersistentObject+0xa8>
    1ae0:	17ffffeb 	b	1a8c <TEE_CreatePersistentObject+0x70>

0000000000001ae4 <TEE_CloseAndDeletePersistentObject1>:
TEE_CloseAndDeletePersistentObject1():
/home/pwnz/devel/optee/optee_os/lib/libutee/tee_api_objects.c:512
    1ae4:	a9be7bfd 	stp	x29, x30, [sp,#-32]!
    1ae8:	910003fd 	mov	x29, sp
    1aec:	a90153f3 	stp	x19, x20, [sp,#16]
    1af0:	52800074 	mov	w20, #0x3                   	// #3
    1af4:	72be0214 	movk	w20, #0xf010, lsl #16
/home/pwnz/devel/optee/optee_os/lib/libutee/tee_api_objects.c:516
    1af8:	2a1403f3 	mov	w19, w20
/home/pwnz/devel/optee/optee_os/lib/libutee/tee_api_objects.c:515
    1afc:	b40000e0 	cbz	x0, 1b18 <TEE_CloseAndDeletePersistentObject1+0x34>
/home/pwnz/devel/optee/optee_os/lib/libutee/tee_api_objects.c:518
    1b00:	94000b47 	bl	481c <utee_storage_obj_del>
/home/pwnz/devel/optee/optee_os/lib/libutee/tee_api_objects.c:520
    1b04:	7100001f 	cmp	w0, #0x0
/home/pwnz/devel/optee/optee_os/lib/libutee/tee_api_objects.c:518
    1b08:	2a0003f3 	mov	w19, w0
/home/pwnz/devel/optee/optee_os/lib/libutee/tee_api_objects.c:520
    1b0c:	7a541004 	ccmp	w0, w20, #0x4, ne
    1b10:	54000040 	b.eq	1b18 <TEE_CloseAndDeletePersistentObject1+0x34>
/home/pwnz/devel/optee/optee_os/lib/libutee/tee_api_objects.c:521
    1b14:	94000a0c 	bl	4344 <TEE_Panic>
/home/pwnz/devel/optee/optee_os/lib/libutee/tee_api_objects.c:524
    1b18:	2a1303e0 	mov	w0, w19
    1b1c:	a94153f3 	ldp	x19, x20, [sp,#16]
    1b20:	a8c27bfd 	ldp	x29, x30, [sp],#32
    1b24:	d65f03c0 	ret

0000000000001b28 <TEE_CloseAndDeletePersistentObject>:
TEE_CloseAndDeletePersistentObject():
/home/pwnz/devel/optee/optee_os/lib/libutee/tee_api_objects.c:502
    1b28:	b4000140 	cbz	x0, 1b50 <TEE_CloseAndDeletePersistentObject+0x28>
/home/pwnz/devel/optee/optee_os/lib/libutee/tee_api_objects.c:499
    1b2c:	a9bf7bfd 	stp	x29, x30, [sp,#-16]!
    1b30:	910003fd 	mov	x29, sp
/home/pwnz/devel/optee/optee_os/lib/libutee/tee_api_objects.c:505
    1b34:	97ffffec 	bl	1ae4 <TEE_CloseAndDeletePersistentObject1>
/home/pwnz/devel/optee/optee_os/lib/libutee/tee_api_objects.c:507
    1b38:	34000080 	cbz	w0, 1b48 <TEE_CloseAndDeletePersistentObject+0x20>
/home/pwnz/devel/optee/optee_os/lib/libutee/tee_api_objects.c:509
    1b3c:	a8c17bfd 	ldp	x29, x30, [sp],#16
/home/pwnz/devel/optee/optee_os/lib/libutee/tee_api_objects.c:508
    1b40:	52800000 	mov	w0, #0x0                   	// #0
    1b44:	14000a00 	b	4344 <TEE_Panic>
/home/pwnz/devel/optee/optee_os/lib/libutee/tee_api_objects.c:509
    1b48:	a8c17bfd 	ldp	x29, x30, [sp],#16
    1b4c:	d65f03c0 	ret
    1b50:	d65f03c0 	ret

0000000000001b54 <TEE_RenamePersistentObject>:
TEE_RenamePersistentObject():
/home/pwnz/devel/optee/optee_os/lib/libutee/tee_api_objects.c:530
    1b54:	a9be7bfd 	stp	x29, x30, [sp,#-32]!
    1b58:	910003fd 	mov	x29, sp
    1b5c:	f9000bf3 	str	x19, [sp,#16]
/home/pwnz/devel/optee/optee_os/lib/libutee/tee_api_objects.c:534
    1b60:	129ffef3 	mov	w19, #0xffff0008            	// #-65528
/home/pwnz/devel/optee/optee_os/lib/libutee/tee_api_objects.c:533
    1b64:	b4000100 	cbz	x0, 1b84 <TEE_RenamePersistentObject+0x30>
/home/pwnz/devel/optee/optee_os/lib/libutee/tee_api_objects.c:543
    1b68:	7101005f 	cmp	w2, #0x40
/home/pwnz/devel/optee/optee_os/lib/libutee/tee_api_objects.c:544
    1b6c:	129fff33 	mov	w19, #0xffff0006            	// #-65530
/home/pwnz/devel/optee/optee_os/lib/libutee/tee_api_objects.c:543
    1b70:	fa409824 	ccmp	x1, #0x0, #0x4, ls
    1b74:	54000080 	b.eq	1b84 <TEE_RenamePersistentObject+0x30>
/home/pwnz/devel/optee/optee_os/lib/libutee/tee_api_objects.c:548
    1b78:	2a0203e2 	mov	w2, w2
    1b7c:	94000b2b 	bl	4828 <utee_storage_obj_rename>
    1b80:	2a0003f3 	mov	w19, w0
/home/pwnz/devel/optee/optee_os/lib/libutee/tee_api_objects.c:552
    1b84:	7100027f 	cmp	w19, #0x0
    1b88:	129fff80 	mov	w0, #0xffff0003            	// #-65533
    1b8c:	7a401264 	ccmp	w19, w0, #0x4, ne
    1b90:	54000100 	b.eq	1bb0 <TEE_RenamePersistentObject+0x5c>
/home/pwnz/devel/optee/optee_os/lib/libutee/tee_api_objects.c:554
    1b94:	121e7a61 	and	w1, w19, #0xfffffffd
    1b98:	52800020 	mov	w0, #0x1                   	// #1
    1b9c:	72be0200 	movk	w0, #0xf010, lsl #16
    1ba0:	6b00003f 	cmp	w1, w0
    1ba4:	54000060 	b.eq	1bb0 <TEE_RenamePersistentObject+0x5c>
/home/pwnz/devel/optee/optee_os/lib/libutee/tee_api_objects.c:556
    1ba8:	2a1303e0 	mov	w0, w19
    1bac:	940009e6 	bl	4344 <TEE_Panic>
/home/pwnz/devel/optee/optee_os/lib/libutee/tee_api_objects.c:559
    1bb0:	2a1303e0 	mov	w0, w19
    1bb4:	f9400bf3 	ldr	x19, [sp,#16]
    1bb8:	a8c27bfd 	ldp	x29, x30, [sp],#32
    1bbc:	d65f03c0 	ret

0000000000001bc0 <TEE_AllocatePersistentObjectEnumerator>:
TEE_AllocatePersistentObjectEnumerator():
/home/pwnz/devel/optee/optee_os/lib/libutee/tee_api_objects.c:563
    1bc0:	a9bd7bfd 	stp	x29, x30, [sp,#-48]!
    1bc4:	910003fd 	mov	x29, sp
    1bc8:	a90153f3 	stp	x19, x20, [sp,#16]
/home/pwnz/devel/optee/optee_os/lib/libutee/tee_api_objects.c:568
    1bcc:	129fff33 	mov	w19, #0xffff0006            	// #-65530
/home/pwnz/devel/optee/optee_os/lib/libutee/tee_api_objects.c:567
    1bd0:	b40001e0 	cbz	x0, 1c0c <TEE_AllocatePersistentObjectEnumerator+0x4c>
    1bd4:	aa0003f4 	mov	x20, x0
/home/pwnz/devel/optee/optee_os/lib/libutee/tee_api_objects.c:570
    1bd8:	9100b3a0 	add	x0, x29, #0x2c
    1bdc:	94000b16 	bl	4834 <utee_storage_alloc_enum>
    1be0:	2a0003f3 	mov	w19, w0
/home/pwnz/devel/optee/optee_os/lib/libutee/tee_api_objects.c:572
    1be4:	34000040 	cbz	w0, 1bec <TEE_AllocatePersistentObjectEnumerator+0x2c>
/home/pwnz/devel/optee/optee_os/lib/libutee/tee_api_objects.c:573
    1be8:	b9002fbf 	str	wzr, [x29,#44]
/home/pwnz/devel/optee/optee_os/lib/libutee/tee_api_objects.c:575
    1bec:	b9402fa0 	ldr	w0, [x29,#44]
/home/pwnz/devel/optee/optee_os/lib/libutee/tee_api_objects.c:577
    1bf0:	7100027f 	cmp	w19, #0x0
/home/pwnz/devel/optee/optee_os/lib/libutee/tee_api_objects.c:575
    1bf4:	f9000280 	str	x0, [x20]
/home/pwnz/devel/optee/optee_os/lib/libutee/tee_api_objects.c:577
    1bf8:	129fff80 	mov	w0, #0xffff0003            	// #-65533
    1bfc:	7a401264 	ccmp	w19, w0, #0x4, ne
    1c00:	54000060 	b.eq	1c0c <TEE_AllocatePersistentObjectEnumerator+0x4c>
/home/pwnz/devel/optee/optee_os/lib/libutee/tee_api_objects.c:579
    1c04:	2a1303e0 	mov	w0, w19
    1c08:	940009cf 	bl	4344 <TEE_Panic>
/home/pwnz/devel/optee/optee_os/lib/libutee/tee_api_objects.c:582
    1c0c:	2a1303e0 	mov	w0, w19
    1c10:	a94153f3 	ldp	x19, x20, [sp,#16]
    1c14:	a8c37bfd 	ldp	x29, x30, [sp],#48
    1c18:	d65f03c0 	ret

0000000000001c1c <TEE_FreePersistentObjectEnumerator>:
TEE_FreePersistentObjectEnumerator():
/home/pwnz/devel/optee/optee_os/lib/libutee/tee_api_objects.c:588
    1c1c:	b4000120 	cbz	x0, 1c40 <TEE_FreePersistentObjectEnumerator+0x24>
/home/pwnz/devel/optee/optee_os/lib/libutee/tee_api_objects.c:585
    1c20:	a9bf7bfd 	stp	x29, x30, [sp,#-16]!
    1c24:	910003fd 	mov	x29, sp
/home/pwnz/devel/optee/optee_os/lib/libutee/tee_api_objects.c:591
    1c28:	94000b06 	bl	4840 <utee_storage_free_enum>
/home/pwnz/devel/optee/optee_os/lib/libutee/tee_api_objects.c:593
    1c2c:	34000060 	cbz	w0, 1c38 <TEE_FreePersistentObjectEnumerator+0x1c>
/home/pwnz/devel/optee/optee_os/lib/libutee/tee_api_objects.c:595
    1c30:	a8c17bfd 	ldp	x29, x30, [sp],#16
/home/pwnz/devel/optee/optee_os/lib/libutee/tee_api_objects.c:594
    1c34:	140009c4 	b	4344 <TEE_Panic>
/home/pwnz/devel/optee/optee_os/lib/libutee/tee_api_objects.c:595
    1c38:	a8c17bfd 	ldp	x29, x30, [sp],#16
    1c3c:	d65f03c0 	ret
    1c40:	d65f03c0 	ret

0000000000001c44 <TEE_ResetPersistentObjectEnumerator>:
TEE_ResetPersistentObjectEnumerator():
/home/pwnz/devel/optee/optee_os/lib/libutee/tee_api_objects.c:601
    1c44:	b4000120 	cbz	x0, 1c68 <TEE_ResetPersistentObjectEnumerator+0x24>
/home/pwnz/devel/optee/optee_os/lib/libutee/tee_api_objects.c:598
    1c48:	a9bf7bfd 	stp	x29, x30, [sp,#-16]!
    1c4c:	910003fd 	mov	x29, sp
/home/pwnz/devel/optee/optee_os/lib/libutee/tee_api_objects.c:604
    1c50:	94000aff 	bl	484c <utee_storage_reset_enum>
/home/pwnz/devel/optee/optee_os/lib/libutee/tee_api_objects.c:606
    1c54:	34000060 	cbz	w0, 1c60 <TEE_ResetPersistentObjectEnumerator+0x1c>
/home/pwnz/devel/optee/optee_os/lib/libutee/tee_api_objects.c:608
    1c58:	a8c17bfd 	ldp	x29, x30, [sp],#16
/home/pwnz/devel/optee/optee_os/lib/libutee/tee_api_objects.c:607
    1c5c:	140009ba 	b	4344 <TEE_Panic>
/home/pwnz/devel/optee/optee_os/lib/libutee/tee_api_objects.c:608
    1c60:	a8c17bfd 	ldp	x29, x30, [sp],#16
    1c64:	d65f03c0 	ret
    1c68:	d65f03c0 	ret

0000000000001c6c <TEE_StartPersistentObjectEnumerator>:
TEE_StartPersistentObjectEnumerator():
/home/pwnz/devel/optee/optee_os/lib/libutee/tee_api_objects.c:613
    1c6c:	a9be7bfd 	stp	x29, x30, [sp,#-32]!
/home/pwnz/devel/optee/optee_os/lib/libutee/tee_api_objects.c:616
    1c70:	2a0103e1 	mov	w1, w1
/home/pwnz/devel/optee/optee_os/lib/libutee/tee_api_objects.c:613
    1c74:	910003fd 	mov	x29, sp
    1c78:	f9000bf3 	str	x19, [sp,#16]
/home/pwnz/devel/optee/optee_os/lib/libutee/tee_api_objects.c:616
    1c7c:	94000af7 	bl	4858 <utee_storage_start_enum>
/home/pwnz/devel/optee/optee_os/lib/libutee/tee_api_objects.c:619
    1c80:	7100001f 	cmp	w0, #0x0
    1c84:	129ffee1 	mov	w1, #0xffff0008            	// #-65528
/home/pwnz/devel/optee/optee_os/lib/libutee/tee_api_objects.c:616
    1c88:	2a0003f3 	mov	w19, w0
/home/pwnz/devel/optee/optee_os/lib/libutee/tee_api_objects.c:619
    1c8c:	7a411004 	ccmp	w0, w1, #0x4, ne
    1c90:	540000e0 	b.eq	1cac <TEE_StartPersistentObjectEnumerator+0x40>
/home/pwnz/devel/optee/optee_os/lib/libutee/tee_api_objects.c:621
    1c94:	121e7802 	and	w2, w0, #0xfffffffd
    1c98:	52800021 	mov	w1, #0x1                   	// #1
    1c9c:	72be0201 	movk	w1, #0xf010, lsl #16
    1ca0:	6b01005f 	cmp	w2, w1
    1ca4:	54000040 	b.eq	1cac <TEE_StartPersistentObjectEnumerator+0x40>
/home/pwnz/devel/optee/optee_os/lib/libutee/tee_api_objects.c:623
    1ca8:	940009a7 	bl	4344 <TEE_Panic>
/home/pwnz/devel/optee/optee_os/lib/libutee/tee_api_objects.c:626
    1cac:	2a1303e0 	mov	w0, w19
    1cb0:	f9400bf3 	ldr	x19, [sp,#16]
    1cb4:	a8c27bfd 	ldp	x29, x30, [sp],#32
    1cb8:	d65f03c0 	ret

0000000000001cbc <TEE_GetNextPersistentObject>:
TEE_GetNextPersistentObject():
/home/pwnz/devel/optee/optee_os/lib/libutee/tee_api_objects.c:631
    1cbc:	a9bb7bfd 	stp	x29, x30, [sp,#-80]!
/home/pwnz/devel/optee/optee_os/lib/libutee/tee_api_objects.c:642
    1cc0:	f100005f 	cmp	x2, #0x0
    1cc4:	fa401864 	ccmp	x3, #0x0, #0x4, ne
/home/pwnz/devel/optee/optee_os/lib/libutee/tee_api_objects.c:631
    1cc8:	910003fd 	mov	x29, sp
    1ccc:	a90153f3 	stp	x19, x20, [sp,#16]
    1cd0:	129fff33 	mov	w19, #0xffff0006            	// #-65530
/home/pwnz/devel/optee/optee_os/lib/libutee/tee_api_objects.c:642
    1cd4:	54000180 	b.eq	1d04 <TEE_GetNextPersistentObject+0x48>
    1cd8:	aa0303f4 	mov	x20, x3
/home/pwnz/devel/optee/optee_os/lib/libutee/tee_api_objects.c:651
    1cdc:	910143a3 	add	x3, x29, #0x50
/home/pwnz/devel/optee/optee_os/lib/libutee/tee_api_objects.c:650
    1ce0:	f100003f 	cmp	x1, #0x0
/home/pwnz/devel/optee/optee_os/lib/libutee/tee_api_objects.c:651
    1ce4:	b9400284 	ldr	w4, [x20]
    1ce8:	f81d8c64 	str	x4, [x3,#-40]!
/home/pwnz/devel/optee/optee_os/lib/libutee/tee_api_objects.c:652
    1cec:	9100c3a4 	add	x4, x29, #0x30
    1cf0:	9a810081 	csel	x1, x4, x1, eq
    1cf4:	94000adc 	bl	4864 <utee_storage_next_enum>
    1cf8:	2a0003f3 	mov	w19, w0
/home/pwnz/devel/optee/optee_os/lib/libutee/tee_api_objects.c:654
    1cfc:	f94017a0 	ldr	x0, [x29,#40]
    1d00:	b9000280 	str	w0, [x20]
/home/pwnz/devel/optee/optee_os/lib/libutee/tee_api_objects.c:657
    1d04:	7100027f 	cmp	w19, #0x0
    1d08:	129ffee0 	mov	w0, #0xffff0008            	// #-65528
    1d0c:	7a401264 	ccmp	w19, w0, #0x4, ne
    1d10:	54000100 	b.eq	1d30 <TEE_GetNextPersistentObject+0x74>
/home/pwnz/devel/optee/optee_os/lib/libutee/tee_api_objects.c:659
    1d14:	121e7a61 	and	w1, w19, #0xfffffffd
    1d18:	52800020 	mov	w0, #0x1                   	// #1
    1d1c:	72be0200 	movk	w0, #0xf010, lsl #16
    1d20:	6b00003f 	cmp	w1, w0
    1d24:	54000060 	b.eq	1d30 <TEE_GetNextPersistentObject+0x74>
/home/pwnz/devel/optee/optee_os/lib/libutee/tee_api_objects.c:661
    1d28:	2a1303e0 	mov	w0, w19
    1d2c:	94000986 	bl	4344 <TEE_Panic>
/home/pwnz/devel/optee/optee_os/lib/libutee/tee_api_objects.c:664
    1d30:	2a1303e0 	mov	w0, w19
    1d34:	a94153f3 	ldp	x19, x20, [sp,#16]
    1d38:	a8c57bfd 	ldp	x29, x30, [sp],#80
    1d3c:	d65f03c0 	ret

0000000000001d40 <TEE_ReadObjectData>:
TEE_ReadObjectData():
/home/pwnz/devel/optee/optee_os/lib/libutee/tee_api_objects.c:670
    1d40:	a9bd7bfd 	stp	x29, x30, [sp,#-48]!
    1d44:	910003fd 	mov	x29, sp
    1d48:	a90153f3 	stp	x19, x20, [sp,#16]
    1d4c:	129fff33 	mov	w19, #0xffff0006            	// #-65530
/home/pwnz/devel/optee/optee_os/lib/libutee/tee_api_objects.c:674
    1d50:	b4000140 	cbz	x0, 1d78 <TEE_ReadObjectData+0x38>
    1d54:	aa0303f4 	mov	x20, x3
/home/pwnz/devel/optee/optee_os/lib/libutee/tee_api_objects.c:679
    1d58:	9100c3a3 	add	x3, x29, #0x30
/home/pwnz/devel/optee/optee_os/lib/libutee/tee_api_objects.c:680
    1d5c:	2a0203e2 	mov	w2, w2
/home/pwnz/devel/optee/optee_os/lib/libutee/tee_api_objects.c:679
    1d60:	b9400284 	ldr	w4, [x20]
    1d64:	f81f8c64 	str	x4, [x3,#-8]!
/home/pwnz/devel/optee/optee_os/lib/libutee/tee_api_objects.c:680
    1d68:	94000ac2 	bl	4870 <utee_storage_obj_read>
    1d6c:	2a0003f3 	mov	w19, w0
/home/pwnz/devel/optee/optee_os/lib/libutee/tee_api_objects.c:682
    1d70:	f94017a0 	ldr	x0, [x29,#40]
    1d74:	b9000280 	str	w0, [x20]
/home/pwnz/devel/optee/optee_os/lib/libutee/tee_api_objects.c:686
    1d78:	121e7a60 	and	w0, w19, #0xfffffffd
    1d7c:	7100027f 	cmp	w19, #0x0
    1d80:	52800021 	mov	w1, #0x1                   	// #1
    1d84:	72be0201 	movk	w1, #0xf010, lsl #16
    1d88:	7a411004 	ccmp	w0, w1, #0x4, ne
    1d8c:	54000060 	b.eq	1d98 <TEE_ReadObjectData+0x58>
/home/pwnz/devel/optee/optee_os/lib/libutee/tee_api_objects.c:688
    1d90:	2a1303e0 	mov	w0, w19
    1d94:	9400096c 	bl	4344 <TEE_Panic>
/home/pwnz/devel/optee/optee_os/lib/libutee/tee_api_objects.c:691
    1d98:	2a1303e0 	mov	w0, w19
    1d9c:	a94153f3 	ldp	x19, x20, [sp,#16]
    1da0:	a8c37bfd 	ldp	x29, x30, [sp],#48
    1da4:	d65f03c0 	ret

0000000000001da8 <TEE_WriteObjectData>:
TEE_WriteObjectData():
/home/pwnz/devel/optee/optee_os/lib/libutee/tee_api_objects.c:695
    1da8:	a9be7bfd 	stp	x29, x30, [sp,#-32]!
    1dac:	910003fd 	mov	x29, sp
    1db0:	f9000bf3 	str	x19, [sp,#16]
    1db4:	129fff33 	mov	w19, #0xffff0006            	// #-65530
/home/pwnz/devel/optee/optee_os/lib/libutee/tee_api_objects.c:698
    1db8:	b4000080 	cbz	x0, 1dc8 <TEE_WriteObjectData+0x20>
/home/pwnz/devel/optee/optee_os/lib/libutee/tee_api_objects.c:708
    1dbc:	2a0203e2 	mov	w2, w2
    1dc0:	94000aaf 	bl	487c <utee_storage_obj_write>
    1dc4:	2a0003f3 	mov	w19, w0
/home/pwnz/devel/optee/optee_os/lib/libutee/tee_api_objects.c:711
    1dc8:	7100027f 	cmp	w19, #0x0
    1dcc:	1299f7c0 	mov	w0, #0xffff3041            	// #-53183
    1dd0:	7a401264 	ccmp	w19, w0, #0x4, ne
    1dd4:	54000140 	b.eq	1dfc <TEE_WriteObjectData+0x54>
/home/pwnz/devel/optee/optee_os/lib/libutee/tee_api_objects.c:714
    1dd8:	121e7a61 	and	w1, w19, #0xfffffffd
    1ddc:	52800020 	mov	w0, #0x1                   	// #1
    1de0:	72be0200 	movk	w0, #0xf010, lsl #16
    1de4:	6b00003f 	cmp	w1, w0
    1de8:	1299fe00 	mov	w0, #0xffff300f            	// #-53233
    1dec:	7a401264 	ccmp	w19, w0, #0x4, ne
    1df0:	54000060 	b.eq	1dfc <TEE_WriteObjectData+0x54>
/home/pwnz/devel/optee/optee_os/lib/libutee/tee_api_objects.c:716
    1df4:	2a1303e0 	mov	w0, w19
    1df8:	94000953 	bl	4344 <TEE_Panic>
/home/pwnz/devel/optee/optee_os/lib/libutee/tee_api_objects.c:719
    1dfc:	2a1303e0 	mov	w0, w19
    1e00:	f9400bf3 	ldr	x19, [sp,#16]
    1e04:	a8c27bfd 	ldp	x29, x30, [sp],#32
    1e08:	d65f03c0 	ret

0000000000001e0c <TEE_TruncateObjectData>:
TEE_TruncateObjectData():
/home/pwnz/devel/optee/optee_os/lib/libutee/tee_api_objects.c:722
    1e0c:	a9be7bfd 	stp	x29, x30, [sp,#-32]!
    1e10:	910003fd 	mov	x29, sp
    1e14:	f9000bf3 	str	x19, [sp,#16]
    1e18:	129fff33 	mov	w19, #0xffff0006            	// #-65530
/home/pwnz/devel/optee/optee_os/lib/libutee/tee_api_objects.c:725
    1e1c:	b4000080 	cbz	x0, 1e2c <TEE_TruncateObjectData+0x20>
/home/pwnz/devel/optee/optee_os/lib/libutee/tee_api_objects.c:730
    1e20:	2a0103e1 	mov	w1, w1
    1e24:	94000a99 	bl	4888 <utee_storage_obj_trunc>
    1e28:	2a0003f3 	mov	w19, w0
/home/pwnz/devel/optee/optee_os/lib/libutee/tee_api_objects.c:733
    1e2c:	7100027f 	cmp	w19, #0x0
    1e30:	1299f7c0 	mov	w0, #0xffff3041            	// #-53183
    1e34:	7a401264 	ccmp	w19, w0, #0x4, ne
    1e38:	54000100 	b.eq	1e58 <TEE_TruncateObjectData+0x4c>
/home/pwnz/devel/optee/optee_os/lib/libutee/tee_api_objects.c:735
    1e3c:	121e7a61 	and	w1, w19, #0xfffffffd
    1e40:	52800020 	mov	w0, #0x1                   	// #1
    1e44:	72be0200 	movk	w0, #0xf010, lsl #16
    1e48:	6b00003f 	cmp	w1, w0
    1e4c:	54000060 	b.eq	1e58 <TEE_TruncateObjectData+0x4c>
/home/pwnz/devel/optee/optee_os/lib/libutee/tee_api_objects.c:737
    1e50:	2a1303e0 	mov	w0, w19
    1e54:	9400093c 	bl	4344 <TEE_Panic>
/home/pwnz/devel/optee/optee_os/lib/libutee/tee_api_objects.c:740
    1e58:	2a1303e0 	mov	w0, w19
    1e5c:	f9400bf3 	ldr	x19, [sp,#16]
    1e60:	a8c27bfd 	ldp	x29, x30, [sp],#32
    1e64:	d65f03c0 	ret

0000000000001e68 <TEE_SeekObjectData>:
TEE_SeekObjectData():
/home/pwnz/devel/optee/optee_os/lib/libutee/tee_api_objects.c:744
    1e68:	a9bb7bfd 	stp	x29, x30, [sp,#-80]!
    1e6c:	910003fd 	mov	x29, sp
    1e70:	a90153f3 	stp	x19, x20, [sp,#16]
/home/pwnz/devel/optee/optee_os/lib/libutee/tee_api_objects.c:749
    1e74:	129fff33 	mov	w19, #0xffff0006            	// #-65530
/home/pwnz/devel/optee/optee_os/lib/libutee/tee_api_objects.c:744
    1e78:	a9025bf5 	stp	x21, x22, [sp,#32]
/home/pwnz/devel/optee/optee_os/lib/libutee/tee_api_objects.c:748
    1e7c:	b40003e0 	cbz	x0, 1ef8 <TEE_SeekObjectData+0x90>
    1e80:	aa0003f6 	mov	x22, x0
    1e84:	2a0103f4 	mov	w20, w1
    1e88:	2a0203f5 	mov	w21, w2
/home/pwnz/devel/optee/optee_os/lib/libutee/tee_api_objects.c:753
    1e8c:	9100c3a1 	add	x1, x29, #0x30
    1e90:	94000a2a 	bl	4738 <utee_cryp_obj_get_info>
    1e94:	2a0003f3 	mov	w19, w0
/home/pwnz/devel/optee/optee_os/lib/libutee/tee_api_objects.c:754
    1e98:	35000300 	cbnz	w0, 1ef8 <TEE_SeekObjectData+0x90>
/home/pwnz/devel/optee/optee_os/lib/libutee/tee_api_objects.c:757
    1e9c:	710006bf 	cmp	w21, #0x1
    1ea0:	540000c0 	b.eq	1eb8 <TEE_SeekObjectData+0x50>
    1ea4:	34000115 	cbz	w21, 1ec4 <TEE_SeekObjectData+0x5c>
    1ea8:	71000abf 	cmp	w21, #0x2
    1eac:	54000180 	b.eq	1edc <TEE_SeekObjectData+0x74>
/home/pwnz/devel/optee/optee_os/lib/libutee/tee_api_objects.c:783
    1eb0:	129ffef3 	mov	w19, #0xffff0008            	// #-65528
    1eb4:	14000011 	b	1ef8 <TEE_SeekObjectData+0x90>
/home/pwnz/devel/optee/optee_os/lib/libutee/tee_api_objects.c:768
    1eb8:	b94047a0 	ldr	w0, [x29,#68]
/home/pwnz/devel/optee/optee_os/lib/libutee/tee_api_objects.c:765
    1ebc:	7100029f 	cmp	w20, #0x0
    1ec0:	5400014c 	b.gt	1ee8 <TEE_SeekObjectData+0x80>
/home/pwnz/devel/optee/optee_os/lib/libutee/tee_api_objects.c:787
    1ec4:	2a1503e2 	mov	w2, w21
    1ec8:	2a1403e1 	mov	w1, w20
    1ecc:	aa1603e0 	mov	x0, x22
    1ed0:	94000a71 	bl	4894 <utee_storage_obj_seek>
    1ed4:	2a0003f3 	mov	w19, w0
    1ed8:	14000008 	b	1ef8 <TEE_SeekObjectData+0x90>
/home/pwnz/devel/optee/optee_os/lib/libutee/tee_api_objects.c:775
    1edc:	7100029f 	cmp	w20, #0x0
    1ee0:	54ffff2d 	b.le	1ec4 <TEE_SeekObjectData+0x5c>
/home/pwnz/devel/optee/optee_os/lib/libutee/tee_api_objects.c:777 (discriminator 1)
    1ee4:	b94043a0 	ldr	w0, [x29,#64]
    1ee8:	0b000281 	add	w1, w20, w0
/home/pwnz/devel/optee/optee_os/lib/libutee/tee_api_objects.c:770 (discriminator 1)
    1eec:	1299fe13 	mov	w19, #0xffff300f            	// #-53233
/home/pwnz/devel/optee/optee_os/lib/libutee/tee_api_objects.c:775 (discriminator 1)
    1ef0:	6b01001f 	cmp	w0, w1
    1ef4:	54fffe89 	b.ls	1ec4 <TEE_SeekObjectData+0x5c>
/home/pwnz/devel/optee/optee_os/lib/libutee/tee_api_objects.c:790
    1ef8:	7100027f 	cmp	w19, #0x0
    1efc:	1299fe00 	mov	w0, #0xffff300f            	// #-53233
    1f00:	7a401264 	ccmp	w19, w0, #0x4, ne
    1f04:	54000100 	b.eq	1f24 <TEE_SeekObjectData+0xbc>
/home/pwnz/devel/optee/optee_os/lib/libutee/tee_api_objects.c:792
    1f08:	121e7a61 	and	w1, w19, #0xfffffffd
    1f0c:	52800020 	mov	w0, #0x1                   	// #1
    1f10:	72be0200 	movk	w0, #0xf010, lsl #16
    1f14:	6b00003f 	cmp	w1, w0
    1f18:	54000060 	b.eq	1f24 <TEE_SeekObjectData+0xbc>
/home/pwnz/devel/optee/optee_os/lib/libutee/tee_api_objects.c:794
    1f1c:	2a1303e0 	mov	w0, w19
    1f20:	94000909 	bl	4344 <TEE_Panic>
/home/pwnz/devel/optee/optee_os/lib/libutee/tee_api_objects.c:797
    1f24:	2a1303e0 	mov	w0, w19
    1f28:	a94153f3 	ldp	x19, x20, [sp,#16]
    1f2c:	a9425bf5 	ldp	x21, x22, [sp,#32]
    1f30:	a8c57bfd 	ldp	x29, x30, [sp],#80
    1f34:	d65f03c0 	ret

0000000000001f38 <TEE_FreeOperation>:
TEE_FreeOperation():
/home/pwnz/devel/optee/optee_os/lib/libutee/tee_api_operations.c:366
    1f38:	a9be7bfd 	stp	x29, x30, [sp,#-32]!
    1f3c:	910003fd 	mov	x29, sp
    1f40:	f9000bf3 	str	x19, [sp,#16]
    1f44:	aa0003f3 	mov	x19, x0
/home/pwnz/devel/optee/optee_os/lib/libutee/tee_api_operations.c:369
    1f48:	b5000060 	cbnz	x0, 1f54 <TEE_FreeOperation+0x1c>
/home/pwnz/devel/optee/optee_os/lib/libutee/tee_api_operations.c:370
    1f4c:	52800000 	mov	w0, #0x0                   	// #0
    1f50:	940008fd 	bl	4344 <TEE_Panic>
/home/pwnz/devel/optee/optee_os/lib/libutee/tee_api_operations.c:377
    1f54:	b9405a60 	ldr	w0, [x19,#88]
    1f58:	940009e3 	bl	46e4 <utee_cryp_state_free>
/home/pwnz/devel/optee/optee_os/lib/libutee/tee_api_operations.c:378
    1f5c:	34000040 	cbz	w0, 1f64 <TEE_FreeOperation+0x2c>
/home/pwnz/devel/optee/optee_os/lib/libutee/tee_api_operations.c:379
    1f60:	940008f9 	bl	4344 <TEE_Panic>
/home/pwnz/devel/optee/optee_os/lib/libutee/tee_api_operations.c:381
    1f64:	f9401e60 	ldr	x0, [x19,#56]
    1f68:	97fffcc0 	bl	1268 <TEE_Free>
/home/pwnz/devel/optee/optee_os/lib/libutee/tee_api_operations.c:382
    1f6c:	aa1303e0 	mov	x0, x19
/home/pwnz/devel/optee/optee_os/lib/libutee/tee_api_operations.c:383
    1f70:	f9400bf3 	ldr	x19, [sp,#16]
    1f74:	a8c27bfd 	ldp	x29, x30, [sp],#32
/home/pwnz/devel/optee/optee_os/lib/libutee/tee_api_operations.c:382
    1f78:	17fffcbc 	b	1268 <TEE_Free>

0000000000001f7c <TEE_AllocateOperation>:
TEE_AllocateOperation():
/home/pwnz/devel/optee/optee_os/lib/libutee/tee_api_operations.c:59
    1f7c:	a9b97bfd 	stp	x29, x30, [sp,#-112]!
    1f80:	910003fd 	mov	x29, sp
    1f84:	a90363f7 	stp	x23, x24, [sp,#48]
    1f88:	2a0203f8 	mov	w24, w2
    1f8c:	a90153f3 	stp	x19, x20, [sp,#16]
    1f90:	2a0303f7 	mov	w23, w3
    1f94:	a9025bf5 	stp	x21, x22, [sp,#32]
    1f98:	2a0103f3 	mov	w19, w1
    1f9c:	a9046bf9 	stp	x25, x26, [sp,#64]
    1fa0:	a90573fb 	stp	x27, x28, [sp,#80]
    1fa4:	f90037a0 	str	x0, [x29,#104]
/home/pwnz/devel/optee/optee_os/lib/libutee/tee_api_operations.c:68
    1fa8:	b5000040 	cbnz	x0, 1fb0 <TEE_AllocateOperation+0x34>
/home/pwnz/devel/optee/optee_os/lib/libutee/tee_api_operations.c:69
    1fac:	940008e6 	bl	4344 <TEE_Panic>
/home/pwnz/devel/optee/optee_os/lib/libutee/tee_api_operations.c:71
    1fb0:	52808200 	mov	w0, #0x410                 	// #1040
    1fb4:	72a20000 	movk	w0, #0x1000, lsl #16
    1fb8:	6b00027f 	cmp	w19, w0
    1fbc:	54002cc0 	b.eq	2554 <TEE_AllocateOperation+0x5d8>
/home/pwnz/devel/optee/optee_os/lib/libutee/tee_api_operations.c:75
    1fc0:	52882620 	mov	w0, #0x4131                	// #16689
    1fc4:	72ae0000 	movk	w0, #0x7000, lsl #16
    1fc8:	6b00027f 	cmp	w19, w0
    1fcc:	54000e60 	b.eq	2198 <TEE_AllocateOperation+0x21c>
    1fd0:	540007c8 	b.hi	20c8 <TEE_AllocateOperation+0x14c>
    1fd4:	52842620 	mov	w0, #0x2131                	// #8497
    1fd8:	72ae0000 	movk	w0, #0x7000, lsl #16
    1fdc:	6b00027f 	cmp	w19, w0
    1fe0:	54000aa0 	b.eq	2134 <TEE_AllocateOperation+0x1b8>
    1fe4:	54000568 	b.hi	2090 <TEE_AllocateOperation+0x114>
    1fe8:	52820820 	mov	w0, #0x1041                	// #4161
    1fec:	72ae0000 	movk	w0, #0x7000, lsl #16
    1ff0:	6b00027f 	cmp	w19, w0
    1ff4:	54000840 	b.eq	20fc <TEE_AllocateOperation+0x180>
    1ff8:	11400400 	add	w0, w0, #0x1, lsl #12
    1ffc:	6b00027f 	cmp	w19, w0
    2000:	54000d40 	b.eq	21a8 <TEE_AllocateOperation+0x22c>
/home/pwnz/devel/optee/optee_os/lib/libutee/tee_api_operations.c:130
    2004:	52842620 	mov	w0, #0x2131                	// #8497
    2008:	72ae0000 	movk	w0, #0x7000, lsl #16
    200c:	6b00027f 	cmp	w19, w0
    2010:	540009e0 	b.eq	214c <TEE_AllocateOperation+0x1d0>
    2014:	54001ae8 	b.hi	2370 <TEE_AllocateOperation+0x3f4>
    2018:	5280a260 	mov	w0, #0x513                 	// #1299
    201c:	72a60000 	movk	w0, #0x3000, lsl #16
    2020:	6b00027f 	cmp	w19, w0
    2024:	54001000 	b.eq	2224 <TEE_AllocateOperation+0x2a8>
    2028:	54001208 	b.hi	2268 <TEE_AllocateOperation+0x2ec>
    202c:	52806200 	mov	w0, #0x310                 	// #784
    2030:	72a20000 	movk	w0, #0x1000, lsl #16
    2034:	6b00027f 	cmp	w19, w0
    2038:	54002a80 	b.eq	2588 <TEE_AllocateOperation+0x60c>
    203c:	52802220 	mov	w0, #0x111                 	// #273
    2040:	54000dc8 	b.hi	21f8 <TEE_AllocateOperation+0x27c>
    2044:	72a20000 	movk	w0, #0x1000, lsl #16
    2048:	6b00027f 	cmp	w19, w0
    204c:	54000c08 	b.hi	21cc <TEE_AllocateOperation+0x250>
    2050:	52802200 	mov	w0, #0x110                 	// #272
    2054:	72a20000 	movk	w0, #0x1000, lsl #16
    2058:	6b00027f 	cmp	w19, w0
    205c:	540029a2 	b.cs	2590 <TEE_AllocateOperation+0x614>
    2060:	52800200 	mov	w0, #0x10                  	// #16
    2064:	72a20000 	movk	w0, #0x1000, lsl #16
    2068:	6b00027f 	cmp	w19, w0
    206c:	540000e3 	b.cc	2088 <TEE_AllocateOperation+0x10c>
    2070:	11000400 	add	w0, w0, #0x1
    2074:	6b00027f 	cmp	w19, w0
    2078:	540028c9 	b.ls	2590 <TEE_AllocateOperation+0x614>
    207c:	11000800 	add	w0, w0, #0x2
    2080:	6b00027f 	cmp	w19, w0
    2084:	54002860 	b.eq	2590 <TEE_AllocateOperation+0x614>
/home/pwnz/devel/optee/optee_os/lib/libutee/tee_api_operations.c:269
    2088:	129ffeb4 	mov	w20, #0xffff000a            	// #-65526
    208c:	1400003b 	b	2178 <TEE_AllocateOperation+0x1fc>
/home/pwnz/devel/optee/optee_os/lib/libutee/tee_api_operations.c:75
    2090:	52862620 	mov	w0, #0x3131                	// #12593
    2094:	72ae0000 	movk	w0, #0x7000, lsl #16
    2098:	6b00027f 	cmp	w19, w0
    209c:	54000680 	b.eq	216c <TEE_AllocateOperation+0x1f0>
    20a0:	113c4000 	add	w0, w0, #0xf10
    20a4:	6b00027f 	cmp	w19, w0
    20a8:	54000860 	b.eq	21b4 <TEE_AllocateOperation+0x238>
    20ac:	52860820 	mov	w0, #0x3041                	// #12353
    20b0:	72ae0000 	movk	w0, #0x7000, lsl #16
    20b4:	6b00027f 	cmp	w19, w0
    20b8:	54fffa61 	b.ne	2004 <TEE_AllocateOperation+0x88>
/home/pwnz/devel/optee/optee_os/lib/libutee/tee_api_operations.c:80
    20bc:	129ffeb4 	mov	w20, #0xffff000a            	// #-65526
/home/pwnz/devel/optee/optee_os/lib/libutee/tee_api_operations.c:109
    20c0:	710402ff 	cmp	w23, #0x100
    20c4:	14000010 	b	2104 <TEE_AllocateOperation+0x188>
/home/pwnz/devel/optee/optee_os/lib/libutee/tee_api_operations.c:75
    20c8:	52840840 	mov	w0, #0x2042                	// #8258
    20cc:	72b00000 	movk	w0, #0x8000, lsl #16
    20d0:	6b00027f 	cmp	w19, w0
    20d4:	540006a0 	b.eq	21a8 <TEE_AllocateOperation+0x22c>
    20d8:	540001a8 	b.hi	210c <TEE_AllocateOperation+0x190>
    20dc:	528a0820 	mov	w0, #0x5041                	// #20545
    20e0:	72ae0000 	movk	w0, #0x7000, lsl #16
    20e4:	6b00027f 	cmp	w19, w0
    20e8:	540006c0 	b.eq	21c0 <TEE_AllocateOperation+0x244>
    20ec:	52820840 	mov	w0, #0x1042                	// #4162
    20f0:	72b00000 	movk	w0, #0x8000, lsl #16
    20f4:	6b00027f 	cmp	w19, w0
    20f8:	54fff861 	b.ne	2004 <TEE_AllocateOperation+0x88>
/home/pwnz/devel/optee/optee_os/lib/libutee/tee_api_operations.c:97
    20fc:	710302ff 	cmp	w23, #0xc0
/home/pwnz/devel/optee/optee_os/lib/libutee/tee_api_operations.c:80
    2100:	129ffeb4 	mov	w20, #0xffff000a            	// #-65526
/home/pwnz/devel/optee/optee_os/lib/libutee/tee_api_operations.c:121
    2104:	540003a1 	b.ne	2178 <TEE_AllocateOperation+0x1fc>
    2108:	17ffffbf 	b	2004 <TEE_AllocateOperation+0x88>
/home/pwnz/devel/optee/optee_os/lib/libutee/tee_api_operations.c:75
    210c:	52880840 	mov	w0, #0x4042                	// #16450
    2110:	72b00000 	movk	w0, #0x8000, lsl #16
    2114:	6b00027f 	cmp	w19, w0
    2118:	540004e0 	b.eq	21b4 <TEE_AllocateOperation+0x238>
    211c:	11400400 	add	w0, w0, #0x1, lsl #12
    2120:	6b00027f 	cmp	w19, w0
    2124:	540004e0 	b.eq	21c0 <TEE_AllocateOperation+0x244>
    2128:	52860840 	mov	w0, #0x3042                	// #12354
    212c:	72b00000 	movk	w0, #0x8000, lsl #16
    2130:	17ffffe1 	b	20b4 <TEE_AllocateOperation+0x138>
/home/pwnz/devel/optee/optee_os/lib/libutee/tee_api_operations.c:79
    2134:	510802e0 	sub	w0, w23, #0x200
/home/pwnz/devel/optee/optee_os/lib/libutee/tee_api_operations.c:80
    2138:	129ffeb4 	mov	w20, #0xffff000a            	// #-65526
/home/pwnz/devel/optee/optee_os/lib/libutee/tee_api_operations.c:79
    213c:	7108001f 	cmp	w0, #0x200
    2140:	540001c8 	b.hi	2178 <TEE_AllocateOperation+0x1fc>
/home/pwnz/devel/optee/optee_os/lib/libutee/tee_api_operations.c:81
    2144:	f24016ff 	tst	x23, #0x3f
    2148:	54000181 	b.ne	2178 <TEE_AllocateOperation+0x1fc>
/home/pwnz/devel/optee/optee_os/lib/libutee/tee_api_operations.c:176
    214c:	71000b1f 	cmp	w24, #0x2
    2150:	540029c0 	b.eq	2688 <TEE_AllocateOperation+0x70c>
/home/pwnz/devel/optee/optee_os/lib/libutee/tee_api_operations.c:179
    2154:	71000f1f 	cmp	w24, #0x3
    2158:	54fff981 	b.ne	2088 <TEE_AllocateOperation+0x10c>
/home/pwnz/devel/optee/optee_os/lib/libutee/tee_api_operations.c:66
    215c:	52800019 	mov	w25, #0x0                   	// #0
/home/pwnz/devel/optee/optee_os/lib/libutee/tee_api_operations.c:65
    2160:	5280001a 	mov	w26, #0x0                   	// #0
/home/pwnz/devel/optee/optee_os/lib/libutee/tee_api_operations.c:180
    2164:	52800403 	mov	w3, #0x20                  	// #32
    2168:	140000d6 	b	24c0 <TEE_AllocateOperation+0x544>
/home/pwnz/devel/optee/optee_os/lib/libutee/tee_api_operations.c:86
    216c:	712002ff 	cmp	w23, #0x800
/home/pwnz/devel/optee/optee_os/lib/libutee/tee_api_operations.c:80
    2170:	129ffeb4 	mov	w20, #0xffff000a            	// #-65526
/home/pwnz/devel/optee/optee_os/lib/libutee/tee_api_operations.c:91
    2174:	54fffec0 	b.eq	214c <TEE_AllocateOperation+0x1d0>
/home/pwnz/devel/optee/optee_os/lib/libutee/tee_api_operations.c:363
    2178:	2a1403e0 	mov	w0, w20
    217c:	a94153f3 	ldp	x19, x20, [sp,#16]
    2180:	a9425bf5 	ldp	x21, x22, [sp,#32]
    2184:	a94363f7 	ldp	x23, x24, [sp,#48]
    2188:	a9446bf9 	ldp	x25, x26, [sp,#64]
    218c:	a94573fb 	ldp	x27, x28, [sp,#80]
    2190:	a8c77bfd 	ldp	x29, x30, [sp],#112
    2194:	d65f03c0 	ret
/home/pwnz/devel/optee/optee_os/lib/libutee/tee_api_operations.c:91
    2198:	12157ae0 	and	w0, w23, #0xfffffbff
/home/pwnz/devel/optee/optee_os/lib/libutee/tee_api_operations.c:80
    219c:	129ffeb4 	mov	w20, #0xffff000a            	// #-65526
/home/pwnz/devel/optee/optee_os/lib/libutee/tee_api_operations.c:91
    21a0:	7120001f 	cmp	w0, #0x800
    21a4:	17fffff4 	b	2174 <TEE_AllocateOperation+0x1f8>
/home/pwnz/devel/optee/optee_os/lib/libutee/tee_api_operations.c:80
    21a8:	129ffeb4 	mov	w20, #0xffff000a            	// #-65526
/home/pwnz/devel/optee/optee_os/lib/libutee/tee_api_operations.c:103
    21ac:	710382ff 	cmp	w23, #0xe0
    21b0:	17ffffd5 	b	2104 <TEE_AllocateOperation+0x188>
/home/pwnz/devel/optee/optee_os/lib/libutee/tee_api_operations.c:80
    21b4:	129ffeb4 	mov	w20, #0xffff000a            	// #-65526
/home/pwnz/devel/optee/optee_os/lib/libutee/tee_api_operations.c:115
    21b8:	710602ff 	cmp	w23, #0x180
    21bc:	17ffffd2 	b	2104 <TEE_AllocateOperation+0x188>
/home/pwnz/devel/optee/optee_os/lib/libutee/tee_api_operations.c:80
    21c0:	129ffeb4 	mov	w20, #0xffff000a            	// #-65526
/home/pwnz/devel/optee/optee_os/lib/libutee/tee_api_operations.c:121
    21c4:	710826ff 	cmp	w23, #0x209
    21c8:	17ffffcf 	b	2104 <TEE_AllocateOperation+0x188>
/home/pwnz/devel/optee/optee_os/lib/libutee/tee_api_operations.c:130
    21cc:	52802260 	mov	w0, #0x113                 	// #275
    21d0:	72a20000 	movk	w0, #0x1000, lsl #16
    21d4:	6b00027f 	cmp	w19, w0
    21d8:	54001dc0 	b.eq	2590 <TEE_AllocateOperation+0x614>
    21dc:	1103f400 	add	w0, w0, #0xfd
    21e0:	6b00027f 	cmp	w19, w0
    21e4:	54fff521 	b.ne	2088 <TEE_AllocateOperation+0x10c>
    21e8:	5280001c 	mov	w28, #0x0                   	// #0
/home/pwnz/devel/optee/optee_os/lib/libutee/tee_api_operations.c:66
    21ec:	52800019 	mov	w25, #0x0                   	// #0
/home/pwnz/devel/optee/optee_os/lib/libutee/tee_api_operations.c:63
    21f0:	d2800036 	mov	x22, #0x1                   	// #1
    21f4:	140000df 	b	2570 <TEE_AllocateOperation+0x5f4>
/home/pwnz/devel/optee/optee_os/lib/libutee/tee_api_operations.c:130
    21f8:	72a60000 	movk	w0, #0x3000, lsl #16
    21fc:	6b00027f 	cmp	w19, w0
    2200:	54000208 	b.hi	2240 <TEE_AllocateOperation+0x2c4>
    2204:	52802200 	mov	w0, #0x110                 	// #272
    2208:	72a60000 	movk	w0, #0x3000, lsl #16
    220c:	6b00027f 	cmp	w19, w0
    2210:	540000a2 	b.cs	2224 <TEE_AllocateOperation+0x2a8>
    2214:	12a60000 	mov	w0, #0xcfffffff            	// #-805306369
    2218:	0b000260 	add	w0, w19, w0
    221c:	7100141f 	cmp	w0, #0x5
    2220:	54fff348 	b.hi	2088 <TEE_AllocateOperation+0x10c>
/home/pwnz/devel/optee/optee_os/lib/libutee/tee_api_operations.c:80
    2224:	129ffeb4 	mov	w20, #0xffff000a            	// #-65526
/home/pwnz/devel/optee/optee_os/lib/libutee/tee_api_operations.c:263
    2228:	7100131f 	cmp	w24, #0x4
    222c:	54fffa61 	b.ne	2178 <TEE_AllocateOperation+0x1fc>
/home/pwnz/devel/optee/optee_os/lib/libutee/tee_api_operations.c:66
    2230:	52800019 	mov	w25, #0x0                   	// #0
/home/pwnz/devel/optee/optee_os/lib/libutee/tee_api_operations.c:65
    2234:	5280001a 	mov	w26, #0x0                   	// #0
/home/pwnz/devel/optee/optee_os/lib/libutee/tee_api_operations.c:265
    2238:	52800103 	mov	w3, #0x8                   	// #8
    223c:	140000a1 	b	24c0 <TEE_AllocateOperation+0x544>
/home/pwnz/devel/optee/optee_os/lib/libutee/tee_api_operations.c:130
    2240:	52802260 	mov	w0, #0x113                 	// #275
    2244:	72a60000 	movk	w0, #0x3000, lsl #16
    2248:	6b00027f 	cmp	w19, w0
    224c:	54fffec0 	b.eq	2224 <TEE_AllocateOperation+0x2a8>
    2250:	54fff1c3 	b.cc	2088 <TEE_AllocateOperation+0x10c>
    2254:	529f5e00 	mov	w0, #0xfaf0                	// #64240
    2258:	72b9ffe0 	movk	w0, #0xcfff, lsl #16
    225c:	0b000260 	add	w0, w19, w0
    2260:	7100041f 	cmp	w0, #0x1
    2264:	17ffffef 	b	2220 <TEE_AllocateOperation+0x2a4>
    2268:	52804600 	mov	w0, #0x230                 	// #560
    226c:	72ac0420 	movk	w0, #0x6021, lsl #16
    2270:	6b00027f 	cmp	w19, w0
    2274:	540003a0 	b.eq	22e8 <TEE_AllocateOperation+0x36c>
    2278:	54000468 	b.hi	2304 <TEE_AllocateOperation+0x388>
    227c:	528000c0 	mov	w0, #0x6                   	// #6
    2280:	72aa0000 	movk	w0, #0x5000, lsl #16
    2284:	6b00027f 	cmp	w19, w0
    2288:	54000228 	b.hi	22cc <TEE_AllocateOperation+0x350>
    228c:	52800020 	mov	w0, #0x1                   	// #1
    2290:	72aa0000 	movk	w0, #0x5000, lsl #16
    2294:	6b00027f 	cmp	w19, w0
    2298:	54001902 	b.cs	25b8 <TEE_AllocateOperation+0x63c>
    229c:	5280e200 	mov	w0, #0x710                 	// #1808
    22a0:	72a80000 	movk	w0, #0x4000, lsl #16
    22a4:	6b00027f 	cmp	w19, w0
    22a8:	54001740 	b.eq	2590 <TEE_AllocateOperation+0x614>
    22ac:	11040000 	add	w0, w0, #0x100
    22b0:	6b00027f 	cmp	w19, w0
    22b4:	54fff9a0 	b.eq	21e8 <TEE_AllocateOperation+0x26c>
    22b8:	5280c200 	mov	w0, #0x610                 	// #1552
    22bc:	72a60000 	movk	w0, #0x3000, lsl #16
    22c0:	6b00027f 	cmp	w19, w0
    22c4:	54ffee21 	b.ne	2088 <TEE_AllocateOperation+0x10c>
    22c8:	17ffffd7 	b	2224 <TEE_AllocateOperation+0x2a8>
    22cc:	52800600 	mov	w0, #0x30                  	// #48
    22d0:	72ac0000 	movk	w0, #0x6000, lsl #16
    22d4:	6b00027f 	cmp	w19, w0
    22d8:	54001620 	b.eq	259c <TEE_AllocateOperation+0x620>
    22dc:	11040000 	add	w0, w0, #0x100
    22e0:	6b00027f 	cmp	w19, w0
    22e4:	54ffed21 	b.ne	2088 <TEE_AllocateOperation+0x10c>
/home/pwnz/devel/optee/optee_os/lib/libutee/tee_api_operations.c:192
    22e8:	34001d98 	cbz	w24, 2698 <TEE_AllocateOperation+0x71c>
/home/pwnz/devel/optee/optee_os/lib/libutee/tee_api_operations.c:194
    22ec:	7100071f 	cmp	w24, #0x1
    22f0:	54ffecc1 	b.ne	2088 <TEE_AllocateOperation+0x10c>
/home/pwnz/devel/optee/optee_os/lib/libutee/tee_api_operations.c:66
    22f4:	52800019 	mov	w25, #0x0                   	// #0
/home/pwnz/devel/optee/optee_os/lib/libutee/tee_api_operations.c:195
    22f8:	2a1803fa 	mov	w26, w24
/home/pwnz/devel/optee/optee_os/lib/libutee/tee_api_operations.c:196
    22fc:	52800083 	mov	w3, #0x4                   	// #4
    2300:	14000070 	b	24c0 <TEE_AllocateOperation+0x544>
/home/pwnz/devel/optee/optee_os/lib/libutee/tee_api_operations.c:130
    2304:	52804600 	mov	w0, #0x230                 	// #560
    2308:	72ac0c20 	movk	w0, #0x6061, lsl #16
    230c:	6b00027f 	cmp	w19, w0
    2310:	54fffec0 	b.eq	22e8 <TEE_AllocateOperation+0x36c>
    2314:	54000168 	b.hi	2340 <TEE_AllocateOperation+0x3c4>
    2318:	52804600 	mov	w0, #0x230                 	// #560
    231c:	72ac0820 	movk	w0, #0x6041, lsl #16
    2320:	6b00027f 	cmp	w19, w0
    2324:	54fffe20 	b.eq	22e8 <TEE_AllocateOperation+0x36c>
    2328:	11440000 	add	w0, w0, #0x100, lsl #12
    232c:	6b00027f 	cmp	w19, w0
    2330:	54fffdc0 	b.eq	22e8 <TEE_AllocateOperation+0x36c>
    2334:	52804600 	mov	w0, #0x230                 	// #560
    2338:	72ac0620 	movk	w0, #0x6031, lsl #16
    233c:	17ffffe9 	b	22e0 <TEE_AllocateOperation+0x364>
    2340:	52830600 	mov	w0, #0x1830                	// #6192
    2344:	72ae0000 	movk	w0, #0x7000, lsl #16
    2348:	6b00027f 	cmp	w19, w0
    234c:	54fff000 	b.eq	214c <TEE_AllocateOperation+0x1d0>
    2350:	11204400 	add	w0, w0, #0x811
    2354:	6b00027f 	cmp	w19, w0
    2358:	54ffefa0 	b.eq	214c <TEE_AllocateOperation+0x1d0>
    235c:	52820820 	mov	w0, #0x1041                	// #4161
    2360:	72ae0000 	movk	w0, #0x7000, lsl #16
    2364:	6b00027f 	cmp	w19, w0
    2368:	54ffe901 	b.ne	2088 <TEE_AllocateOperation+0x10c>
    236c:	17ffff78 	b	214c <TEE_AllocateOperation+0x1d0>
    2370:	52800640 	mov	w0, #0x32                  	// #50
    2374:	72b00000 	movk	w0, #0x8000, lsl #16
    2378:	6b00027f 	cmp	w19, w0
    237c:	54000960 	b.eq	24a8 <TEE_AllocateOperation+0x52c>
    2380:	540006c8 	b.hi	2458 <TEE_AllocateOperation+0x4dc>
    2384:	528a0820 	mov	w0, #0x5041                	// #20545
    2388:	72ae0000 	movk	w0, #0x7000, lsl #16
    238c:	6b00027f 	cmp	w19, w0
    2390:	54ffede0 	b.eq	214c <TEE_AllocateOperation+0x1d0>
    2394:	54000308 	b.hi	23f4 <TEE_AllocateOperation+0x478>
    2398:	52870600 	mov	w0, #0x3830                	// #14384
    239c:	72ae0000 	movk	w0, #0x7000, lsl #16
    23a0:	6b00027f 	cmp	w19, w0
    23a4:	54ffed40 	b.eq	214c <TEE_AllocateOperation+0x1d0>
    23a8:	54000148 	b.hi	23d0 <TEE_AllocateOperation+0x454>
    23ac:	52860820 	mov	w0, #0x3041                	// #12353
    23b0:	72ae0000 	movk	w0, #0x7000, lsl #16
    23b4:	6b00027f 	cmp	w19, w0
    23b8:	54ffeca0 	b.eq	214c <TEE_AllocateOperation+0x1d0>
    23bc:	1103c000 	add	w0, w0, #0xf0
    23c0:	6b00027f 	cmp	w19, w0
    23c4:	54ffec40 	b.eq	214c <TEE_AllocateOperation+0x1d0>
    23c8:	52850600 	mov	w0, #0x2830                	// #10288
    23cc:	17ffffe5 	b	2360 <TEE_AllocateOperation+0x3e4>
    23d0:	52882620 	mov	w0, #0x4131                	// #16689
    23d4:	72ae0000 	movk	w0, #0x7000, lsl #16
    23d8:	6b00027f 	cmp	w19, w0
    23dc:	54ffeb80 	b.eq	214c <TEE_AllocateOperation+0x1d0>
    23e0:	111bfc00 	add	w0, w0, #0x6ff
    23e4:	6b00027f 	cmp	w19, w0
    23e8:	54ffeb20 	b.eq	214c <TEE_AllocateOperation+0x1d0>
    23ec:	52880820 	mov	w0, #0x4041                	// #16449
    23f0:	17ffffdc 	b	2360 <TEE_AllocateOperation+0x3e4>
    23f4:	52872600 	mov	w0, #0x3930                	// #14640
    23f8:	72ae0620 	movk	w0, #0x7031, lsl #16
    23fc:	6b00027f 	cmp	w19, w0
    2400:	54ffea60 	b.eq	214c <TEE_AllocateOperation+0x1d0>
    2404:	54000168 	b.hi	2430 <TEE_AllocateOperation+0x4b4>
    2408:	528d0600 	mov	w0, #0x6830                	// #26672
    240c:	72ae0000 	movk	w0, #0x7000, lsl #16
    2410:	6b00027f 	cmp	w19, w0
    2414:	54ffe9c0 	b.eq	214c <TEE_AllocateOperation+0x1d0>
    2418:	52852600 	mov	w0, #0x2930                	// #10544
    241c:	72ae0420 	movk	w0, #0x7021, lsl #16
    2420:	6b00027f 	cmp	w19, w0
    2424:	54ffe940 	b.eq	214c <TEE_AllocateOperation+0x1d0>
    2428:	528b0600 	mov	w0, #0x5830                	// #22576
    242c:	17ffffcd 	b	2360 <TEE_AllocateOperation+0x3e4>
    2430:	528b2600 	mov	w0, #0x5930                	// #22832
    2434:	72ae0a20 	movk	w0, #0x7051, lsl #16
    2438:	6b00027f 	cmp	w19, w0
    243c:	54ffe880 	b.eq	214c <TEE_AllocateOperation+0x1d0>
    2440:	11440400 	add	w0, w0, #0x101, lsl #12
    2444:	6b00027f 	cmp	w19, w0
    2448:	54ffe820 	b.eq	214c <TEE_AllocateOperation+0x1d0>
    244c:	52892600 	mov	w0, #0x4930                	// #18736
    2450:	72ae0820 	movk	w0, #0x7041, lsl #16
    2454:	17ffffc4 	b	2364 <TEE_AllocateOperation+0x3e8>
    2458:	52861820 	mov	w0, #0x30c1                	// #12481
    245c:	72b00000 	movk	w0, #0x8000, lsl #16
    2460:	6b00027f 	cmp	w19, w0
    2464:	54000468 	b.hi	24f0 <TEE_AllocateOperation+0x574>
    2468:	52861800 	mov	w0, #0x30c0                	// #12480
    246c:	72b00000 	movk	w0, #0x8000, lsl #16
    2470:	6b00027f 	cmp	w19, w0
    2474:	540001a2 	b.cs	24a8 <TEE_AllocateOperation+0x52c>
    2478:	52840840 	mov	w0, #0x2042                	// #8258
    247c:	72b00000 	movk	w0, #0x8000, lsl #16
    2480:	6b00027f 	cmp	w19, w0
    2484:	54000120 	b.eq	24a8 <TEE_AllocateOperation+0x52c>
    2488:	54000228 	b.hi	24cc <TEE_AllocateOperation+0x550>
    248c:	52820840 	mov	w0, #0x1042                	// #4162
    2490:	72b00000 	movk	w0, #0x8000, lsl #16
    2494:	6b00027f 	cmp	w19, w0
    2498:	54000080 	b.eq	24a8 <TEE_AllocateOperation+0x52c>
    249c:	1101f800 	add	w0, w0, #0x7e
    24a0:	6b00027f 	cmp	w19, w0
    24a4:	54ffdf21 	b.ne	2088 <TEE_AllocateOperation+0x10c>
/home/pwnz/devel/optee/optee_os/lib/libutee/tee_api_operations.c:80
    24a8:	129ffeb4 	mov	w20, #0xffff000a            	// #-65526
/home/pwnz/devel/optee/optee_os/lib/libutee/tee_api_operations.c:231
    24ac:	71001b1f 	cmp	w24, #0x6
    24b0:	54ffe641 	b.ne	2178 <TEE_AllocateOperation+0x1fc>
/home/pwnz/devel/optee/optee_os/lib/libutee/tee_api_operations.c:66
    24b4:	52800019 	mov	w25, #0x0                   	// #0
/home/pwnz/devel/optee/optee_os/lib/libutee/tee_api_operations.c:233
    24b8:	5280003a 	mov	w26, #0x1                   	// #1
/home/pwnz/devel/optee/optee_os/lib/libutee/tee_api_operations.c:234
    24bc:	52800803 	mov	w3, #0x40                  	// #64
/home/pwnz/devel/optee/optee_os/lib/libutee/tee_api_operations.c:63
    24c0:	d2800036 	mov	x22, #0x1                   	// #1
    24c4:	5280001c 	mov	w28, #0x0                   	// #0
    24c8:	14000044 	b	25d8 <TEE_AllocateOperation+0x65c>
/home/pwnz/devel/optee/optee_os/lib/libutee/tee_api_operations.c:130
    24cc:	52841800 	mov	w0, #0x20c0                	// #8384
    24d0:	72b00000 	movk	w0, #0x8000, lsl #16
    24d4:	6b00027f 	cmp	w19, w0
    24d8:	54ffdd83 	b.cc	2088 <TEE_AllocateOperation+0x10c>
    24dc:	11000800 	add	w0, w0, #0x2
    24e0:	6b00027f 	cmp	w19, w0
    24e4:	54fffe29 	b.ls	24a8 <TEE_AllocateOperation+0x52c>
    24e8:	113e0000 	add	w0, w0, #0xf80
    24ec:	17ffffed 	b	24a0 <TEE_AllocateOperation+0x524>
    24f0:	528a0840 	mov	w0, #0x5042                	// #20546
    24f4:	72b00000 	movk	w0, #0x8000, lsl #16
    24f8:	6b00027f 	cmp	w19, w0
    24fc:	54fffd60 	b.eq	24a8 <TEE_AllocateOperation+0x52c>
    2500:	54000188 	b.hi	2530 <TEE_AllocateOperation+0x5b4>
    2504:	52880840 	mov	w0, #0x4042                	// #16450
    2508:	72b00000 	movk	w0, #0x8000, lsl #16
    250c:	6b00027f 	cmp	w19, w0
    2510:	54fffcc0 	b.eq	24a8 <TEE_AllocateOperation+0x52c>
    2514:	5297e800 	mov	w0, #0xbf40                	// #48960
    2518:	54ffdb83 	b.cc	2088 <TEE_AllocateOperation+0x10c>
    251c:	72afffe0 	movk	w0, #0x7fff, lsl #16
    2520:	0b000260 	add	w0, w19, w0
    2524:	7100041f 	cmp	w0, #0x1
    2528:	54fffc09 	b.ls	24a8 <TEE_AllocateOperation+0x52c>
    252c:	17fffed7 	b	2088 <TEE_AllocateOperation+0x10c>
    2530:	528a1800 	mov	w0, #0x50c0                	// #20672
    2534:	72b00000 	movk	w0, #0x8000, lsl #16
    2538:	6b00027f 	cmp	w19, w0
    253c:	54ffda63 	b.cc	2088 <TEE_AllocateOperation+0x10c>
    2540:	11000400 	add	w0, w0, #0x1
    2544:	6b00027f 	cmp	w19, w0
    2548:	54fffb09 	b.ls	24a8 <TEE_AllocateOperation+0x52c>
    254c:	5293e800 	mov	w0, #0x9f40                	// #40768
    2550:	17fffff3 	b	251c <TEE_AllocateOperation+0x5a0>
/home/pwnz/devel/optee/optee_os/lib/libutee/tee_api_operations.c:72
    2554:	52a0011c 	mov	w28, #0x80000               	// #524288
/home/pwnz/devel/optee/optee_os/lib/libutee/tee_api_operations.c:133
    2558:	52800039 	mov	w25, #0x1                   	// #1
/home/pwnz/devel/optee/optee_os/lib/libutee/tee_api_operations.c:142
    255c:	12001e60 	and	w0, w19, #0xff
/home/pwnz/devel/optee/optee_os/lib/libutee/tee_api_operations.c:145
    2560:	d2800216 	mov	x22, #0x10                  	// #16
    2564:	7100401f 	cmp	w0, #0x10
    2568:	d2800100 	mov	x0, #0x8                   	// #8
    256c:	9a8002d6 	csel	x22, x22, x0, eq
/home/pwnz/devel/optee/optee_os/lib/libutee/tee_api_operations.c:149
    2570:	34000878 	cbz	w24, 267c <TEE_AllocateOperation+0x700>
/home/pwnz/devel/optee/optee_os/lib/libutee/tee_api_operations.c:151
    2574:	7100071f 	cmp	w24, #0x1
    2578:	54ffd881 	b.ne	2088 <TEE_AllocateOperation+0x10c>
/home/pwnz/devel/optee/optee_os/lib/libutee/tee_api_operations.c:65
    257c:	5280001a 	mov	w26, #0x0                   	// #0
/home/pwnz/devel/optee/optee_os/lib/libutee/tee_api_operations.c:152
    2580:	52800083 	mov	w3, #0x4                   	// #4
    2584:	14000015 	b	25d8 <TEE_AllocateOperation+0x65c>
/home/pwnz/devel/optee/optee_os/lib/libutee/tee_api_operations.c:130
    2588:	5280001c 	mov	w28, #0x0                   	// #0
    258c:	17fffff3 	b	2558 <TEE_AllocateOperation+0x5dc>
    2590:	5280001c 	mov	w28, #0x0                   	// #0
/home/pwnz/devel/optee/optee_os/lib/libutee/tee_api_operations.c:66
    2594:	52800019 	mov	w25, #0x0                   	// #0
    2598:	17fffff1 	b	255c <TEE_AllocateOperation+0x5e0>
/home/pwnz/devel/optee/optee_os/lib/libutee/tee_api_operations.c:203
    259c:	340008b8 	cbz	w24, 26b0 <TEE_AllocateOperation+0x734>
/home/pwnz/devel/optee/optee_os/lib/libutee/tee_api_operations.c:205
    25a0:	7100071f 	cmp	w24, #0x1
    25a4:	54ffd721 	b.ne	2088 <TEE_AllocateOperation+0x10c>
/home/pwnz/devel/optee/optee_os/lib/libutee/tee_api_operations.c:66
    25a8:	52800019 	mov	w25, #0x0                   	// #0
/home/pwnz/devel/optee/optee_os/lib/libutee/tee_api_operations.c:206
    25ac:	5280003a 	mov	w26, #0x1                   	// #1
/home/pwnz/devel/optee/optee_os/lib/libutee/tee_api_operations.c:207
    25b0:	52800283 	mov	w3, #0x14                  	// #20
    25b4:	17ffffc3 	b	24c0 <TEE_AllocateOperation+0x544>
/home/pwnz/devel/optee/optee_os/lib/libutee/tee_api_operations.c:80
    25b8:	129ffeb4 	mov	w20, #0xffff000a            	// #-65526
/home/pwnz/devel/optee/optee_os/lib/libutee/tee_api_operations.c:243
    25bc:	7100171f 	cmp	w24, #0x5
    25c0:	54ffddc1 	b.ne	2178 <TEE_AllocateOperation+0x1fc>
/home/pwnz/devel/optee/optee_os/lib/libutee/tee_api_operations.c:66
    25c4:	52800019 	mov	w25, #0x0                   	// #0
/home/pwnz/devel/optee/optee_os/lib/libutee/tee_api_operations.c:65
    25c8:	5280001a 	mov	w26, #0x0                   	// #0
/home/pwnz/devel/optee/optee_os/lib/libutee/tee_api_operations.c:247
    25cc:	52800003 	mov	w3, #0x0                   	// #0
/home/pwnz/devel/optee/optee_os/lib/libutee/tee_api_operations.c:63
    25d0:	d2800036 	mov	x22, #0x1                   	// #1
/home/pwnz/devel/optee/optee_os/lib/libutee/tee_api_operations.c:246
    25d4:	52a0009c 	mov	w28, #0x40000               	// #262144
/home/pwnz/devel/optee/optee_os/lib/libutee/tee_api_operations.c:272
    25d8:	52800001 	mov	w1, #0x0                   	// #0
    25dc:	52800c00 	mov	w0, #0x60                  	// #96
    25e0:	b90067a3 	str	w3, [x29,#100]
/home/pwnz/devel/optee/optee_os/lib/libutee/tee_api_operations.c:274
    25e4:	129ffe74 	mov	w20, #0xffff000c            	// #-65524
/home/pwnz/devel/optee/optee_os/lib/libutee/tee_api_operations.c:272
    25e8:	97fffb1c 	bl	1258 <TEE_Malloc>
    25ec:	aa0003f5 	mov	x21, x0
/home/pwnz/devel/optee/optee_os/lib/libutee/tee_api_operations.c:273
    25f0:	b4ffdc40 	cbz	x0, 2178 <TEE_AllocateOperation+0x1fc>
/home/pwnz/devel/optee/optee_os/lib/libutee/tee_api_operations.c:280
    25f4:	b94067a3 	ldr	w3, [x29,#100]
/home/pwnz/devel/optee/optee_os/lib/libutee/tee_api_operations.c:277
    25f8:	531c7e7b 	lsr	w27, w19, #28
/home/pwnz/devel/optee/optee_os/lib/libutee/tee_api_operations.c:278
    25fc:	b9000818 	str	w24, [x0,#8]
/home/pwnz/devel/optee/optee_os/lib/libutee/tee_api_operations.c:283
    2600:	f10006df 	cmp	x22, #0x1
/home/pwnz/devel/optee/optee_os/lib/libutee/tee_api_operations.c:277
    2604:	29006c13 	stp	w19, w27, [x0]
/home/pwnz/devel/optee/optee_os/lib/libutee/tee_api_operations.c:279
    2608:	b9001017 	str	w23, [x0,#16]
/home/pwnz/devel/optee/optee_os/lib/libutee/tee_api_operations.c:281
    260c:	29037003 	stp	w3, w28, [x0,#24]
/home/pwnz/devel/optee/optee_os/lib/libutee/tee_api_operations.c:283
    2610:	540005a1 	b.ne	26c4 <TEE_AllocateOperation+0x748>
/home/pwnz/devel/optee/optee_os/lib/libutee/tee_api_operations.c:297
    2614:	390102b9 	strb	w25, [x21,#64]
/home/pwnz/devel/optee/optee_os/lib/libutee/tee_api_operations.c:299
    2618:	7100177f 	cmp	w27, #0x5
/home/pwnz/devel/optee/optee_os/lib/libutee/tee_api_operations.c:296
    261c:	f90026b6 	str	x22, [x21,#72]
/home/pwnz/devel/optee/optee_os/lib/libutee/tee_api_operations.c:299
    2620:	54000641 	b.ne	26e8 <TEE_AllocateOperation+0x76c>
/home/pwnz/devel/optee/optee_os/lib/libutee/tee_api_operations.c:323
    2624:	a9420ea2 	ldp	x2, x3, [x21,#32]
    2628:	910162a4 	add	x4, x21, #0x58
    262c:	2a1803e1 	mov	w1, w24
    2630:	2a1303e0 	mov	w0, w19
    2634:	94000826 	bl	46cc <utee_cryp_state_alloc>
/home/pwnz/devel/optee/optee_os/lib/libutee/tee_api_operations.c:325
    2638:	35000b00 	cbnz	w0, 2798 <TEE_AllocateOperation+0x81c>
/home/pwnz/devel/optee/optee_os/lib/libutee/tee_api_operations.c:333
    263c:	7100177f 	cmp	w27, #0x5
    2640:	54000141 	b.ne	2668 <TEE_AllocateOperation+0x6ec>
/home/pwnz/devel/optee/optee_os/lib/libutee/tee_api_operations.c:334
    2644:	b9405aa0 	ldr	w0, [x21,#88]
    2648:	d2800002 	mov	x2, #0x0                   	// #0
    264c:	d2800001 	mov	x1, #0x0                   	// #0
    2650:	94000828 	bl	46f0 <utee_hash_init>
    2654:	2a0003f4 	mov	w20, w0
/home/pwnz/devel/optee/optee_os/lib/libutee/tee_api_operations.c:335
    2658:	35000780 	cbnz	w0, 2748 <TEE_AllocateOperation+0x7cc>
/home/pwnz/devel/optee/optee_os/lib/libutee/tee_api_operations.c:338
    265c:	b9401ea0 	ldr	w0, [x21,#28]
    2660:	320f0000 	orr	w0, w0, #0x20000
    2664:	b9001ea0 	str	w0, [x21,#28]
/home/pwnz/devel/optee/optee_os/lib/libutee/tee_api_operations.c:343
    2668:	f94037a0 	ldr	x0, [x29,#104]
    266c:	52800014 	mov	w20, #0x0                   	// #0
/home/pwnz/devel/optee/optee_os/lib/libutee/tee_api_operations.c:341
    2670:	b90032bf 	str	wzr, [x21,#48]
/home/pwnz/devel/optee/optee_os/lib/libutee/tee_api_operations.c:343
    2674:	f9000015 	str	x21, [x0]
    2678:	17fffec0 	b	2178 <TEE_AllocateOperation+0x1fc>
/home/pwnz/devel/optee/optee_os/lib/libutee/tee_api_operations.c:65
    267c:	5280001a 	mov	w26, #0x0                   	// #0
/home/pwnz/devel/optee/optee_os/lib/libutee/tee_api_operations.c:150
    2680:	52800043 	mov	w3, #0x2                   	// #2
    2684:	17ffffd5 	b	25d8 <TEE_AllocateOperation+0x65c>
/home/pwnz/devel/optee/optee_os/lib/libutee/tee_api_operations.c:66
    2688:	52800019 	mov	w25, #0x0                   	// #0
/home/pwnz/devel/optee/optee_os/lib/libutee/tee_api_operations.c:177
    268c:	5280003a 	mov	w26, #0x1                   	// #1
/home/pwnz/devel/optee/optee_os/lib/libutee/tee_api_operations.c:178
    2690:	52800203 	mov	w3, #0x10                  	// #16
    2694:	17ffff8b 	b	24c0 <TEE_AllocateOperation+0x544>
    2698:	5280001c 	mov	w28, #0x0                   	// #0
/home/pwnz/devel/optee/optee_os/lib/libutee/tee_api_operations.c:66
    269c:	52800019 	mov	w25, #0x0                   	// #0
/home/pwnz/devel/optee/optee_os/lib/libutee/tee_api_operations.c:65
    26a0:	5280001a 	mov	w26, #0x0                   	// #0
/home/pwnz/devel/optee/optee_os/lib/libutee/tee_api_operations.c:193
    26a4:	52800043 	mov	w3, #0x2                   	// #2
/home/pwnz/devel/optee/optee_os/lib/libutee/tee_api_operations.c:63
    26a8:	d2800036 	mov	x22, #0x1                   	// #1
    26ac:	17ffffcb 	b	25d8 <TEE_AllocateOperation+0x65c>
    26b0:	5280001c 	mov	w28, #0x0                   	// #0
/home/pwnz/devel/optee/optee_os/lib/libutee/tee_api_operations.c:66
    26b4:	52800019 	mov	w25, #0x0                   	// #0
/home/pwnz/devel/optee/optee_os/lib/libutee/tee_api_operations.c:65
    26b8:	5280001a 	mov	w26, #0x0                   	// #0
/home/pwnz/devel/optee/optee_os/lib/libutee/tee_api_operations.c:204
    26bc:	52800443 	mov	w3, #0x22                  	// #34
    26c0:	17fffffa 	b	26a8 <TEE_AllocateOperation+0x72c>
/home/pwnz/devel/optee/optee_os/lib/libutee/tee_api_operations.c:287
    26c4:	7100033f 	cmp	w25, #0x0
    26c8:	d37ffac0 	lsl	x0, x22, #1
/home/pwnz/devel/optee/optee_os/lib/libutee/tee_api_operations.c:289
    26cc:	52b00001 	mov	w1, #0x80000000            	// #-2147483648
    26d0:	9a961000 	csel	x0, x0, x22, ne
    26d4:	97fffae1 	bl	1258 <TEE_Malloc>
    26d8:	f9001ea0 	str	x0, [x21,#56]
/home/pwnz/devel/optee/optee_os/lib/libutee/tee_api_operations.c:291
    26dc:	b5fff9c0 	cbnz	x0, 2614 <TEE_AllocateOperation+0x698>
/home/pwnz/devel/optee/optee_os/lib/libutee/tee_api_operations.c:292
    26e0:	129ffe74 	mov	w20, #0xffff000c            	// #-65524
    26e4:	14000019 	b	2748 <TEE_AllocateOperation+0x7cc>
/home/pwnz/devel/optee/optee_os/lib/libutee/tee_api_operations.c:301
    26e8:	7100035f 	cmp	w26, #0x0
    26ec:	52b40001 	mov	w1, #0xa0000000            	// #-1610612736
    26f0:	52b42000 	mov	w0, #0xa1000000            	// #-1593835520
    26f4:	1a811000 	csel	w0, w0, w1, ne
/home/pwnz/devel/optee/optee_os/lib/libutee/tee_api_operations.c:308
    26f8:	b9401ea1 	ldr	w1, [x21,#28]
/home/pwnz/devel/optee/optee_os/lib/libutee/tee_api_operations.c:301
    26fc:	12001e76 	and	w22, w19, #0xff
    2700:	2a160016 	orr	w22, w0, w22
/home/pwnz/devel/optee/optee_os/lib/libutee/tee_api_operations.c:309
    2704:	53017ee0 	lsr	w0, w23, #1
/home/pwnz/devel/optee/optee_os/lib/libutee/tee_api_operations.c:311
    2708:	910082a2 	add	x2, x21, #0x20
/home/pwnz/devel/optee/optee_os/lib/libutee/tee_api_operations.c:309
    270c:	f26d003f 	tst	x1, #0x80000
    2710:	1a971017 	csel	w23, w0, w23, ne
/home/pwnz/devel/optee/optee_os/lib/libutee/tee_api_operations.c:311
    2714:	2a1603e0 	mov	w0, w22
    2718:	2a1703e1 	mov	w1, w23
    271c:	97fffb9d 	bl	1590 <TEE_AllocateTransientObject>
    2720:	2a0003f4 	mov	w20, w0
/home/pwnz/devel/optee/optee_os/lib/libutee/tee_api_operations.c:312
    2724:	35000120 	cbnz	w0, 2748 <TEE_AllocateOperation+0x7cc>
/home/pwnz/devel/optee/optee_os/lib/libutee/tee_api_operations.c:315
    2728:	b9401ea0 	ldr	w0, [x21,#28]
    272c:	369ff7c0 	tbz	w0, #19, 2624 <TEE_AllocateOperation+0x6a8>
/home/pwnz/devel/optee/optee_os/lib/libutee/tee_api_operations.c:316
    2730:	9100a2a2 	add	x2, x21, #0x28
    2734:	2a1703e1 	mov	w1, w23
    2738:	2a1603e0 	mov	w0, w22
    273c:	97fffb95 	bl	1590 <TEE_AllocateTransientObject>
    2740:	2a0003f4 	mov	w20, w0
/home/pwnz/devel/optee/optee_os/lib/libutee/tee_api_operations.c:318
    2744:	34fff700 	cbz	w0, 2624 <TEE_AllocateOperation+0x6a8>
/home/pwnz/devel/optee/optee_os/lib/libutee/tee_api_operations.c:348
    2748:	529ffec0 	mov	w0, #0xfff6                	// #65526
    274c:	0b000280 	add	w0, w20, w0
/home/pwnz/devel/optee/optee_os/lib/libutee/tee_api_operations.c:347
    2750:	721e781f 	tst	w0, #0xfffffffd
    2754:	54000060 	b.eq	2760 <TEE_AllocateOperation+0x7e4>
/home/pwnz/devel/optee/optee_os/lib/libutee/tee_api_operations.c:349
    2758:	2a1403e0 	mov	w0, w20
    275c:	940006fa 	bl	4344 <TEE_Panic>
/home/pwnz/devel/optee/optee_os/lib/libutee/tee_api_operations.c:351
    2760:	b9405aa0 	ldr	w0, [x21,#88]
    2764:	34000080 	cbz	w0, 2774 <TEE_AllocateOperation+0x7f8>
/home/pwnz/devel/optee/optee_os/lib/libutee/tee_api_operations.c:352
    2768:	aa1503e0 	mov	x0, x21
    276c:	97fffdf3 	bl	1f38 <TEE_FreeOperation>
    2770:	17fffe82 	b	2178 <TEE_AllocateOperation+0x1fc>
/home/pwnz/devel/optee/optee_os/lib/libutee/tee_api_operations.c:354
    2774:	f9401ea0 	ldr	x0, [x21,#56]
    2778:	97fffabc 	bl	1268 <TEE_Free>
/home/pwnz/devel/optee/optee_os/lib/libutee/tee_api_operations.c:355
    277c:	f94012a0 	ldr	x0, [x21,#32]
    2780:	97fffb9d 	bl	15f4 <TEE_FreeTransientObject>
/home/pwnz/devel/optee/optee_os/lib/libutee/tee_api_operations.c:356
    2784:	f94016a0 	ldr	x0, [x21,#40]
    2788:	97fffb9b 	bl	15f4 <TEE_FreeTransientObject>
/home/pwnz/devel/optee/optee_os/lib/libutee/tee_api_operations.c:357
    278c:	aa1503e0 	mov	x0, x21
    2790:	97fffab6 	bl	1268 <TEE_Free>
    2794:	17fffe79 	b	2178 <TEE_AllocateOperation+0x1fc>
    2798:	2a0003f4 	mov	w20, w0
    279c:	17ffffeb 	b	2748 <TEE_AllocateOperation+0x7cc>

00000000000027a0 <TEE_GetOperationInfo>:
TEE_GetOperationInfo():
/home/pwnz/devel/optee/optee_os/lib/libutee/tee_api_operations.c:387
    27a0:	a9be7bfd 	stp	x29, x30, [sp,#-32]!
    27a4:	910003fd 	mov	x29, sp
    27a8:	a90153f3 	stp	x19, x20, [sp,#16]
    27ac:	aa0003f4 	mov	x20, x0
    27b0:	aa0103f3 	mov	x19, x1
/home/pwnz/devel/optee/optee_os/lib/libutee/tee_api_operations.c:388
    27b4:	b5000060 	cbnz	x0, 27c0 <TEE_GetOperationInfo+0x20>
/home/pwnz/devel/optee/optee_os/lib/libutee/tee_api_operations.c:389
    27b8:	52800000 	mov	w0, #0x0                   	// #0
    27bc:	940006e2 	bl	4344 <TEE_Panic>
/home/pwnz/devel/optee/optee_os/lib/libutee/tee_api_operations.c:391
    27c0:	b5000073 	cbnz	x19, 27cc <TEE_GetOperationInfo+0x2c>
/home/pwnz/devel/optee/optee_os/lib/libutee/tee_api_operations.c:392
    27c4:	52800000 	mov	w0, #0x0                   	// #0
    27c8:	940006df 	bl	4344 <TEE_Panic>
/home/pwnz/devel/optee/optee_os/lib/libutee/tee_api_operations.c:394
    27cc:	aa1403e1 	mov	x1, x20
    27d0:	d2800402 	mov	x2, #0x20                  	// #32
    27d4:	aa1303e0 	mov	x0, x19
    27d8:	9400104b 	bl	6904 <memcpy>
/home/pwnz/devel/optee/optee_os/lib/libutee/tee_api_operations.c:395
    27dc:	a94153f3 	ldp	x19, x20, [sp,#16]
    27e0:	a8c27bfd 	ldp	x29, x30, [sp],#32
    27e4:	d65f03c0 	ret

00000000000027e8 <TEE_GetOperationInfoMultiple>:
TEE_GetOperationInfoMultiple():
/home/pwnz/devel/optee/optee_os/lib/libutee/tee_api_operations.c:400
    27e8:	a9b97bfd 	stp	x29, x30, [sp,#-112]!
/home/pwnz/devel/optee/optee_os/lib/libutee/tee_api_operations.c:417
    27ec:	f100005f 	cmp	x2, #0x0
    27f0:	fa401824 	ccmp	x1, #0x0, #0x4, ne
/home/pwnz/devel/optee/optee_os/lib/libutee/tee_api_operations.c:400
    27f4:	910003fd 	mov	x29, sp
    27f8:	a9025bf5 	stp	x21, x22, [sp,#32]
/home/pwnz/devel/optee/optee_os/lib/libutee/tee_api_operations.c:417
    27fc:	fa401804 	ccmp	x0, #0x0, #0x4, ne
/home/pwnz/devel/optee/optee_os/lib/libutee/tee_api_operations.c:400
    2800:	a90153f3 	stp	x19, x20, [sp,#16]
/home/pwnz/devel/optee/optee_os/lib/libutee/tee_api_operations.c:418
    2804:	129fff35 	mov	w21, #0xffff0006            	// #-65530
/home/pwnz/devel/optee/optee_os/lib/libutee/tee_api_operations.c:417
    2808:	540004a0 	b.eq	289c <TEE_GetOperationInfoMultiple+0xb4>
/home/pwnz/devel/optee/optee_os/lib/libutee/tee_api_operations.c:422
    280c:	b9400056 	ldr	w22, [x2]
    2810:	d10082d6 	sub	x22, x22, #0x20
    2814:	d343fed6 	lsr	x22, x22, #3
/home/pwnz/devel/optee/optee_os/lib/libutee/tee_api_operations.c:425
    2818:	71000adf 	cmp	w22, #0x2
    281c:	54000408 	b.hi	289c <TEE_GetOperationInfoMultiple+0xb4>
    2820:	aa0003f4 	mov	x20, x0
/home/pwnz/devel/optee/optee_os/lib/libutee/tee_api_operations.c:431
    2824:	b9401c00 	ldr	w0, [x0,#28]
/home/pwnz/devel/optee/optee_os/lib/libutee/tee_api_operations.c:434
    2828:	129ffdf5 	mov	w21, #0xffff0010            	// #-65520
/home/pwnz/devel/optee/optee_os/lib/libutee/tee_api_operations.c:432
    282c:	f26d001f 	tst	x0, #0x80000
    2830:	7a421ac4 	ccmp	w22, #0x2, #0x4, ne
    2834:	54000341 	b.ne	289c <TEE_GetOperationInfoMultiple+0xb4>
/home/pwnz/devel/optee/optee_os/lib/libutee/tee_api_operations.c:439
    2838:	92407ec2 	and	x2, x22, #0xffffffff
    283c:	aa0103f3 	mov	x19, x1
    2840:	91008020 	add	x0, x1, #0x20
/home/pwnz/devel/optee/optee_os/lib/libutee/tee_api_operations.c:432
    2844:	d2800001 	mov	x1, #0x0                   	// #0
/home/pwnz/devel/optee/optee_os/lib/libutee/tee_api_operations.c:439 (discriminator 1)
    2848:	eb02003f 	cmp	x1, x2
    284c:	540003e3 	b.cc	28c8 <TEE_GetOperationInfoMultiple+0xe0>
/home/pwnz/devel/optee/optee_os/lib/libutee/tee_api_operations.c:444
    2850:	71000adf 	cmp	w22, #0x2
    2854:	54000421 	b.ne	28d8 <TEE_GetOperationInfoMultiple+0xf0>
/home/pwnz/devel/optee/optee_os/lib/libutee/tee_api_operations.c:445
    2858:	f9401680 	ldr	x0, [x20,#40]
    285c:	910143a1 	add	x1, x29, #0x50
    2860:	97fffaae 	bl	1318 <TEE_GetObjectInfo1>
    2864:	2a0003f5 	mov	w21, w0
/home/pwnz/devel/optee/optee_os/lib/libutee/tee_api_operations.c:447
    2868:	350001a0 	cbnz	w0, 289c <TEE_GetOperationInfoMultiple+0xb4>
/home/pwnz/devel/optee/optee_os/lib/libutee/tee_api_operations.c:450
    286c:	b94057a0 	ldr	w0, [x29,#84]
    2870:	b9002a60 	str	w0, [x19,#40]
/home/pwnz/devel/optee/optee_os/lib/libutee/tee_api_operations.c:452
    2874:	b9401a80 	ldr	w0, [x20,#24]
    2878:	b9002e60 	str	w0, [x19,#44]
/home/pwnz/devel/optee/optee_os/lib/libutee/tee_api_operations.c:457
    287c:	f9401280 	ldr	x0, [x20,#32]
    2880:	9100c3a1 	add	x1, x29, #0x30
    2884:	97fffaa5 	bl	1318 <TEE_GetObjectInfo1>
    2888:	2a0003f5 	mov	w21, w0
/home/pwnz/devel/optee/optee_os/lib/libutee/tee_api_operations.c:459
    288c:	34000480 	cbz	w0, 291c <TEE_GetOperationInfoMultiple+0x134>
/home/pwnz/devel/optee/optee_os/lib/libutee/tee_api_operations.c:460
    2890:	71000adf 	cmp	w22, #0x2
    2894:	54000041 	b.ne	289c <TEE_GetOperationInfoMultiple+0xb4>
/home/pwnz/devel/optee/optee_os/lib/libutee/tee_api_operations.c:464
    2898:	29057e7f 	stp	wzr, wzr, [x19,#40]
/home/pwnz/devel/optee/optee_os/lib/libutee/tee_api_operations.c:486
    289c:	710002bf 	cmp	w21, #0x0
    28a0:	129ffde0 	mov	w0, #0xffff0010            	// #-65520
    28a4:	7a4012a4 	ccmp	w21, w0, #0x4, ne
    28a8:	54000060 	b.eq	28b4 <TEE_GetOperationInfoMultiple+0xcc>
/home/pwnz/devel/optee/optee_os/lib/libutee/tee_api_operations.c:488
    28ac:	2a1503e0 	mov	w0, w21
    28b0:	940006a5 	bl	4344 <TEE_Panic>
/home/pwnz/devel/optee/optee_os/lib/libutee/tee_api_operations.c:491
    28b4:	2a1503e0 	mov	w0, w21
    28b8:	a94153f3 	ldp	x19, x20, [sp,#16]
    28bc:	a9425bf5 	ldp	x21, x22, [sp,#32]
    28c0:	a8c77bfd 	ldp	x29, x30, [sp],#112
    28c4:	d65f03c0 	ret
/home/pwnz/devel/optee/optee_os/lib/libutee/tee_api_operations.c:441 (discriminator 3)
    28c8:	29007c1f 	stp	wzr, wzr, [x0]
/home/pwnz/devel/optee/optee_os/lib/libutee/tee_api_operations.c:439 (discriminator 3)
    28cc:	91000421 	add	x1, x1, #0x1
    28d0:	91002000 	add	x0, x0, #0x8
    28d4:	17ffffdd 	b	2848 <TEE_GetOperationInfoMultiple+0x60>
/home/pwnz/devel/optee/optee_os/lib/libutee/tee_api_operations.c:456
    28d8:	35fffd36 	cbnz	w22, 287c <TEE_GetOperationInfoMultiple+0x94>
/home/pwnz/devel/optee/optee_os/lib/libutee/tee_api_operations.c:476
    28dc:	b9400280 	ldr	w0, [x20]
/home/pwnz/devel/optee/optee_os/lib/libutee/tee_api_operations.c:483
    28e0:	52800015 	mov	w21, #0x0                   	// #0
/home/pwnz/devel/optee/optee_os/lib/libutee/tee_api_operations.c:476
    28e4:	b9000260 	str	w0, [x19]
/home/pwnz/devel/optee/optee_os/lib/libutee/tee_api_operations.c:477
    28e8:	b9400680 	ldr	w0, [x20,#4]
    28ec:	b9000660 	str	w0, [x19,#4]
/home/pwnz/devel/optee/optee_os/lib/libutee/tee_api_operations.c:478
    28f0:	b9400a80 	ldr	w0, [x20,#8]
    28f4:	b9000a60 	str	w0, [x19,#8]
/home/pwnz/devel/optee/optee_os/lib/libutee/tee_api_operations.c:479
    28f8:	b9400e80 	ldr	w0, [x20,#12]
    28fc:	b9000e60 	str	w0, [x19,#12]
/home/pwnz/devel/optee/optee_os/lib/libutee/tee_api_operations.c:480
    2900:	b9401280 	ldr	w0, [x20,#16]
    2904:	b9001260 	str	w0, [x19,#16]
/home/pwnz/devel/optee/optee_os/lib/libutee/tee_api_operations.c:481
    2908:	b9401e80 	ldr	w0, [x20,#28]
    290c:	b9001660 	str	w0, [x19,#20]
/home/pwnz/devel/optee/optee_os/lib/libutee/tee_api_operations.c:482
    2910:	b9403280 	ldr	w0, [x20,#48]
/home/pwnz/devel/optee/optee_os/lib/libutee/tee_api_operations.c:483
    2914:	29035a60 	stp	w0, w22, [x19,#24]
    2918:	17ffffe1 	b	289c <TEE_GetOperationInfoMultiple+0xb4>
/home/pwnz/devel/optee/optee_os/lib/libutee/tee_api_operations.c:469
    291c:	b94037a0 	ldr	w0, [x29,#52]
    2920:	b9002260 	str	w0, [x19,#32]
/home/pwnz/devel/optee/optee_os/lib/libutee/tee_api_operations.c:471
    2924:	b9401a80 	ldr	w0, [x20,#24]
    2928:	b9002660 	str	w0, [x19,#36]
    292c:	17ffffec 	b	28dc <TEE_GetOperationInfoMultiple+0xf4>

0000000000002930 <TEE_ResetOperation>:
TEE_ResetOperation():
/home/pwnz/devel/optee/optee_os/lib/libutee/tee_api_operations.c:494
    2930:	a9be7bfd 	stp	x29, x30, [sp,#-32]!
    2934:	910003fd 	mov	x29, sp
    2938:	f9000bf3 	str	x19, [sp,#16]
    293c:	aa0003f3 	mov	x19, x0
/home/pwnz/devel/optee/optee_os/lib/libutee/tee_api_operations.c:497
    2940:	b5000060 	cbnz	x0, 294c <TEE_ResetOperation+0x1c>
/home/pwnz/devel/optee/optee_os/lib/libutee/tee_api_operations.c:498
    2944:	52800000 	mov	w0, #0x0                   	// #0
    2948:	9400067f 	bl	4344 <TEE_Panic>
/home/pwnz/devel/optee/optee_os/lib/libutee/tee_api_operations.c:500
    294c:	b9401e60 	ldr	w0, [x19,#28]
    2950:	37900060 	tbnz	w0, #18, 295c <TEE_ResetOperation+0x2c>
/home/pwnz/devel/optee/optee_os/lib/libutee/tee_api_operations.c:501
    2954:	52800000 	mov	w0, #0x0                   	// #0
    2958:	9400067b 	bl	4344 <TEE_Panic>
/home/pwnz/devel/optee/optee_os/lib/libutee/tee_api_operations.c:505
    295c:	b9400660 	ldr	w0, [x19,#4]
/home/pwnz/devel/optee/optee_os/lib/libutee/tee_api_operations.c:503
    2960:	b900327f 	str	wzr, [x19,#48]
/home/pwnz/devel/optee/optee_os/lib/libutee/tee_api_operations.c:505
    2964:	7100141f 	cmp	w0, #0x5
    2968:	540001a1 	b.ne	299c <TEE_ResetOperation+0x6c>
/home/pwnz/devel/optee/optee_os/lib/libutee/tee_api_operations.c:506
    296c:	b9405a60 	ldr	w0, [x19,#88]
    2970:	d2800002 	mov	x2, #0x0                   	// #0
    2974:	d2800001 	mov	x1, #0x0                   	// #0
    2978:	9400075e 	bl	46f0 <utee_hash_init>
/home/pwnz/devel/optee/optee_os/lib/libutee/tee_api_operations.c:507
    297c:	34000040 	cbz	w0, 2984 <TEE_ResetOperation+0x54>
/home/pwnz/devel/optee/optee_os/lib/libutee/tee_api_operations.c:508
    2980:	94000671 	bl	4344 <TEE_Panic>
/home/pwnz/devel/optee/optee_os/lib/libutee/tee_api_operations.c:509
    2984:	b9401e60 	ldr	w0, [x19,#28]
    2988:	320f0000 	orr	w0, w0, #0x20000
/home/pwnz/devel/optee/optee_os/lib/libutee/tee_api_operations.c:511
    298c:	b9001e60 	str	w0, [x19,#28]
/home/pwnz/devel/optee/optee_os/lib/libutee/tee_api_operations.c:513
    2990:	f9400bf3 	ldr	x19, [sp,#16]
    2994:	a8c27bfd 	ldp	x29, x30, [sp],#32
    2998:	d65f03c0 	ret
/home/pwnz/devel/optee/optee_os/lib/libutee/tee_api_operations.c:511
    299c:	b9401e60 	ldr	w0, [x19,#28]
    29a0:	120e7800 	and	w0, w0, #0xfffdffff
    29a4:	17fffffa 	b	298c <TEE_ResetOperation+0x5c>

00000000000029a8 <TEE_SetOperationKey>:
TEE_SetOperationKey():
/home/pwnz/devel/optee/optee_os/lib/libutee/tee_api_operations.c:517
    29a8:	a9bb7bfd 	stp	x29, x30, [sp,#-80]!
    29ac:	910003fd 	mov	x29, sp
    29b0:	a90153f3 	stp	x19, x20, [sp,#16]
    29b4:	a9025bf5 	stp	x21, x22, [sp,#32]
/home/pwnz/devel/optee/optee_os/lib/libutee/tee_api_operations.c:522
    29b8:	b50001e0 	cbnz	x0, 29f4 <TEE_SetOperationKey+0x4c>
/home/pwnz/devel/optee/optee_os/lib/libutee/tee_api_operations.c:535
    29bc:	129fff34 	mov	w20, #0xffff0006            	// #-65530
/home/pwnz/devel/optee/optee_os/lib/libutee/tee_api_operations.c:584
    29c0:	121e7a80 	and	w0, w20, #0xfffffffd
    29c4:	7100029f 	cmp	w20, #0x0
    29c8:	52800021 	mov	w1, #0x1                   	// #1
    29cc:	72be0201 	movk	w1, #0xf010, lsl #16
    29d0:	7a411004 	ccmp	w0, w1, #0x4, ne
    29d4:	54000060 	b.eq	29e0 <TEE_SetOperationKey+0x38>
/home/pwnz/devel/optee/optee_os/lib/libutee/tee_api_operations.c:586
    29d8:	2a1403e0 	mov	w0, w20
    29dc:	9400065a 	bl	4344 <TEE_Panic>
/home/pwnz/devel/optee/optee_os/lib/libutee/tee_api_operations.c:589
    29e0:	2a1403e0 	mov	w0, w20
    29e4:	a94153f3 	ldp	x19, x20, [sp,#16]
    29e8:	a9425bf5 	ldp	x21, x22, [sp,#32]
    29ec:	a8c57bfd 	ldp	x29, x30, [sp],#80
    29f0:	d65f03c0 	ret
    29f4:	aa0003f3 	mov	x19, x0
/home/pwnz/devel/optee/optee_os/lib/libutee/tee_api_operations.c:527
    29f8:	b9403000 	ldr	w0, [x0,#48]
    29fc:	35fffe00 	cbnz	w0, 29bc <TEE_SetOperationKey+0x14>
    2a00:	aa0103f5 	mov	x21, x1
/home/pwnz/devel/optee/optee_os/lib/libutee/tee_api_operations.c:532
    2a04:	b5000081 	cbnz	x1, 2a14 <TEE_SetOperationKey+0x6c>
/home/pwnz/devel/optee/optee_os/lib/libutee/tee_api_operations.c:534
    2a08:	f9401260 	ldr	x0, [x19,#32]
    2a0c:	97fffb0f 	bl	1648 <TEE_ResetTransientObject>
    2a10:	17ffffeb 	b	29bc <TEE_SetOperationKey+0x14>
/home/pwnz/devel/optee/optee_os/lib/libutee/tee_api_operations.c:540
    2a14:	b9400660 	ldr	w0, [x19,#4]
    2a18:	7100141f 	cmp	w0, #0x5
    2a1c:	54fffd00 	b.eq	29bc <TEE_SetOperationKey+0x14>
/home/pwnz/devel/optee/optee_os/lib/libutee/tee_api_operations.c:546
    2a20:	b9401e60 	ldr	w0, [x19,#28]
    2a24:	379ffcc0 	tbnz	w0, #19, 29bc <TEE_SetOperationKey+0x14>
/home/pwnz/devel/optee/optee_os/lib/libutee/tee_api_operations.c:552
    2a28:	9100c3a1 	add	x1, x29, #0x30
    2a2c:	aa1503e0 	mov	x0, x21
    2a30:	97fffa3a 	bl	1318 <TEE_GetObjectInfo1>
    2a34:	2a0003f4 	mov	w20, w0
/home/pwnz/devel/optee/optee_os/lib/libutee/tee_api_operations.c:554
    2a38:	35fffc40 	cbnz	w0, 29c0 <TEE_SetOperationKey+0x18>
/home/pwnz/devel/optee/optee_os/lib/libutee/tee_api_operations.c:558
    2a3c:	b9401a60 	ldr	w0, [x19,#24]
    2a40:	b9403fa1 	ldr	w1, [x29,#60]
    2a44:	6a21001f 	bics	wzr, w0, w1
    2a48:	54fffba1 	b.ne	29bc <TEE_SetOperationKey+0x14>
/home/pwnz/devel/optee/optee_os/lib/libutee/tee_api_operations.c:564
    2a4c:	b9401260 	ldr	w0, [x19,#16]
    2a50:	b94037b6 	ldr	w22, [x29,#52]
    2a54:	6b16001f 	cmp	w0, w22
    2a58:	54fffb23 	b.cc	29bc <TEE_SetOperationKey+0x14>
/home/pwnz/devel/optee/optee_os/lib/libutee/tee_api_operations.c:571
    2a5c:	f9401260 	ldr	x0, [x19,#32]
    2a60:	97fffafa 	bl	1648 <TEE_ResetTransientObject>
/home/pwnz/devel/optee/optee_os/lib/libutee/tee_api_operations.c:572
    2a64:	b9401e60 	ldr	w0, [x19,#28]
/home/pwnz/devel/optee/optee_os/lib/libutee/tee_api_operations.c:574
    2a68:	aa1503e1 	mov	x1, x21
/home/pwnz/devel/optee/optee_os/lib/libutee/tee_api_operations.c:572
    2a6c:	120d7800 	and	w0, w0, #0xfffbffff
    2a70:	b9001e60 	str	w0, [x19,#28]
/home/pwnz/devel/optee/optee_os/lib/libutee/tee_api_operations.c:574
    2a74:	f9401260 	ldr	x0, [x19,#32]
    2a78:	97fffb62 	bl	1800 <TEE_CopyObjectAttributes1>
    2a7c:	2a0003f4 	mov	w20, w0
/home/pwnz/devel/optee/optee_os/lib/libutee/tee_api_operations.c:575
    2a80:	35fffa00 	cbnz	w0, 29c0 <TEE_SetOperationKey+0x18>
/home/pwnz/devel/optee/optee_os/lib/libutee/tee_api_operations.c:578
    2a84:	b9401e60 	ldr	w0, [x19,#28]
/home/pwnz/devel/optee/optee_os/lib/libutee/tee_api_operations.c:580
    2a88:	b9001676 	str	w22, [x19,#20]
/home/pwnz/devel/optee/optee_os/lib/libutee/tee_api_operations.c:578
    2a8c:	320e0000 	orr	w0, w0, #0x40000
    2a90:	b9001e60 	str	w0, [x19,#28]
    2a94:	17ffffcb 	b	29c0 <TEE_SetOperationKey+0x18>

0000000000002a98 <TEE_SetOperationKey2>:
TEE_SetOperationKey2():
/home/pwnz/devel/optee/optee_os/lib/libutee/tee_api_operations.c:593
    2a98:	a9b87bfd 	stp	x29, x30, [sp,#-128]!
    2a9c:	910003fd 	mov	x29, sp
    2aa0:	a90153f3 	stp	x19, x20, [sp,#16]
    2aa4:	a9025bf5 	stp	x21, x22, [sp,#32]
    2aa8:	f9001bf7 	str	x23, [sp,#48]
/home/pwnz/devel/optee/optee_os/lib/libutee/tee_api_operations.c:599
    2aac:	b50001e0 	cbnz	x0, 2ae8 <TEE_SetOperationKey2+0x50>
/home/pwnz/devel/optee/optee_os/lib/libutee/tee_api_operations.c:620
    2ab0:	129fff34 	mov	w20, #0xffff0006            	// #-65530
/home/pwnz/devel/optee/optee_os/lib/libutee/tee_api_operations.c:707
    2ab4:	12be0200 	mov	w0, #0xfefffff             	// #267386879
/home/pwnz/devel/optee/optee_os/lib/libutee/tee_api_operations.c:706
    2ab8:	7100029f 	cmp	w20, #0x0
/home/pwnz/devel/optee/optee_os/lib/libutee/tee_api_operations.c:707
    2abc:	0b000280 	add	w0, w20, w0
/home/pwnz/devel/optee/optee_os/lib/libutee/tee_api_operations.c:706
    2ac0:	7a431800 	ccmp	w0, #0x3, #0x0, ne
    2ac4:	54000069 	b.ls	2ad0 <TEE_SetOperationKey2+0x38>
/home/pwnz/devel/optee/optee_os/lib/libutee/tee_api_operations.c:711
    2ac8:	2a1403e0 	mov	w0, w20
    2acc:	9400061e 	bl	4344 <TEE_Panic>
/home/pwnz/devel/optee/optee_os/lib/libutee/tee_api_operations.c:714
    2ad0:	2a1403e0 	mov	w0, w20
    2ad4:	f9401bf7 	ldr	x23, [sp,#48]
    2ad8:	a94153f3 	ldp	x19, x20, [sp,#16]
    2adc:	a9425bf5 	ldp	x21, x22, [sp,#32]
    2ae0:	a8c87bfd 	ldp	x29, x30, [sp],#128
    2ae4:	d65f03c0 	ret
    2ae8:	aa0003f3 	mov	x19, x0
/home/pwnz/devel/optee/optee_os/lib/libutee/tee_api_operations.c:604
    2aec:	b9403000 	ldr	w0, [x0,#48]
    2af0:	35fffe00 	cbnz	w0, 2ab0 <TEE_SetOperationKey2+0x18>
/home/pwnz/devel/optee/optee_os/lib/libutee/tee_api_operations.c:613
    2af4:	f100003f 	cmp	x1, #0x0
    2af8:	aa0103f6 	mov	x22, x1
    2afc:	aa0203f5 	mov	x21, x2
    2b00:	fa401844 	ccmp	x2, #0x0, #0x4, ne
    2b04:	54000121 	b.ne	2b28 <TEE_SetOperationKey2+0x90>
/home/pwnz/devel/optee/optee_os/lib/libutee/tee_api_operations.c:615
    2b08:	b4000081 	cbz	x1, 2b18 <TEE_SetOperationKey2+0x80>
/home/pwnz/devel/optee/optee_os/lib/libutee/tee_api_operations.c:619
    2b0c:	f9401660 	ldr	x0, [x19,#40]
    2b10:	97ffface 	bl	1648 <TEE_ResetTransientObject>
    2b14:	17ffffe7 	b	2ab0 <TEE_SetOperationKey2+0x18>
/home/pwnz/devel/optee/optee_os/lib/libutee/tee_api_operations.c:616
    2b18:	f9401260 	ldr	x0, [x19,#32]
    2b1c:	97fffacb 	bl	1648 <TEE_ResetTransientObject>
/home/pwnz/devel/optee/optee_os/lib/libutee/tee_api_operations.c:618
    2b20:	b5fffc95 	cbnz	x21, 2ab0 <TEE_SetOperationKey2+0x18>
    2b24:	17fffffa 	b	2b0c <TEE_SetOperationKey2+0x74>
/home/pwnz/devel/optee/optee_os/lib/libutee/tee_api_operations.c:625
    2b28:	b9400660 	ldr	w0, [x19,#4]
    2b2c:	7100141f 	cmp	w0, #0x5
    2b30:	54fffc00 	b.eq	2ab0 <TEE_SetOperationKey2+0x18>
/home/pwnz/devel/optee/optee_os/lib/libutee/tee_api_operations.c:631
    2b34:	b9401e60 	ldr	w0, [x19,#28]
    2b38:	369ffbc0 	tbz	w0, #19, 2ab0 <TEE_SetOperationKey2+0x18>
/home/pwnz/devel/optee/optee_os/lib/libutee/tee_api_operations.c:637
    2b3c:	910103a1 	add	x1, x29, #0x40
    2b40:	aa1603e0 	mov	x0, x22
    2b44:	97fff9f5 	bl	1318 <TEE_GetObjectInfo1>
    2b48:	2a0003f4 	mov	w20, w0
/home/pwnz/devel/optee/optee_os/lib/libutee/tee_api_operations.c:639
    2b4c:	35fffb40 	cbnz	w0, 2ab4 <TEE_SetOperationKey2+0x1c>
/home/pwnz/devel/optee/optee_os/lib/libutee/tee_api_operations.c:643
    2b50:	b9401a60 	ldr	w0, [x19,#24]
    2b54:	b9404fa1 	ldr	w1, [x29,#76]
    2b58:	6a21001f 	bics	wzr, w0, w1
    2b5c:	54fffaa1 	b.ne	2ab0 <TEE_SetOperationKey2+0x18>
/home/pwnz/devel/optee/optee_os/lib/libutee/tee_api_operations.c:649
    2b60:	910183a1 	add	x1, x29, #0x60
    2b64:	aa1503e0 	mov	x0, x21
    2b68:	97fff9ec 	bl	1318 <TEE_GetObjectInfo1>
    2b6c:	2a0003f4 	mov	w20, w0
/home/pwnz/devel/optee/optee_os/lib/libutee/tee_api_operations.c:651
    2b70:	34000100 	cbz	w0, 2b90 <TEE_SetOperationKey2+0xf8>
/home/pwnz/devel/optee/optee_os/lib/libutee/tee_api_operations.c:652
    2b74:	52800020 	mov	w0, #0x1                   	// #1
    2b78:	72be0200 	movk	w0, #0xf010, lsl #16
    2b7c:	6b00029f 	cmp	w20, w0
    2b80:	54fff9a1 	b.ne	2ab4 <TEE_SetOperationKey2+0x1c>
/home/pwnz/devel/optee/optee_os/lib/libutee/tee_api_operations.c:653
    2b84:	52800054 	mov	w20, #0x2                   	// #2
    2b88:	72be0214 	movk	w20, #0xf010, lsl #16
    2b8c:	17ffffca 	b	2ab4 <TEE_SetOperationKey2+0x1c>
/home/pwnz/devel/optee/optee_os/lib/libutee/tee_api_operations.c:658
    2b90:	b9401a60 	ldr	w0, [x19,#24]
    2b94:	b9406fa1 	ldr	w1, [x29,#108]
    2b98:	6a21001f 	bics	wzr, w0, w1
    2b9c:	54fff8a1 	b.ne	2ab0 <TEE_SetOperationKey2+0x18>
/home/pwnz/devel/optee/optee_os/lib/libutee/tee_api_operations.c:668
    2ba0:	b9400261 	ldr	w1, [x19]
    2ba4:	52808200 	mov	w0, #0x410                 	// #1040
    2ba8:	72a20000 	movk	w0, #0x1000, lsl #16
    2bac:	b94047b7 	ldr	w23, [x29,#68]
    2bb0:	6b00003f 	cmp	w1, w0
    2bb4:	54000081 	b.ne	2bc4 <TEE_SetOperationKey2+0x12c>
/home/pwnz/devel/optee/optee_os/lib/libutee/tee_api_operations.c:668 (discriminator 1)
    2bb8:	b94067a0 	ldr	w0, [x29,#100]
    2bbc:	6b0002ff 	cmp	w23, w0
    2bc0:	54fff781 	b.ne	2ab0 <TEE_SetOperationKey2+0x18>
/home/pwnz/devel/optee/optee_os/lib/libutee/tee_api_operations.c:675
    2bc4:	b9401260 	ldr	w0, [x19,#16]
    2bc8:	6b17001f 	cmp	w0, w23
    2bcc:	54fff723 	b.cc	2ab0 <TEE_SetOperationKey2+0x18>
/home/pwnz/devel/optee/optee_os/lib/libutee/tee_api_operations.c:686
    2bd0:	f9401260 	ldr	x0, [x19,#32]
    2bd4:	97fffa9d 	bl	1648 <TEE_ResetTransientObject>
/home/pwnz/devel/optee/optee_os/lib/libutee/tee_api_operations.c:687
    2bd8:	f9401660 	ldr	x0, [x19,#40]
    2bdc:	97fffa9b 	bl	1648 <TEE_ResetTransientObject>
/home/pwnz/devel/optee/optee_os/lib/libutee/tee_api_operations.c:688
    2be0:	b9401e60 	ldr	w0, [x19,#28]
/home/pwnz/devel/optee/optee_os/lib/libutee/tee_api_operations.c:690
    2be4:	aa1603e1 	mov	x1, x22
/home/pwnz/devel/optee/optee_os/lib/libutee/tee_api_operations.c:688
    2be8:	120d7800 	and	w0, w0, #0xfffbffff
    2bec:	b9001e60 	str	w0, [x19,#28]
/home/pwnz/devel/optee/optee_os/lib/libutee/tee_api_operations.c:690
    2bf0:	f9401260 	ldr	x0, [x19,#32]
    2bf4:	97fffb03 	bl	1800 <TEE_CopyObjectAttributes1>
    2bf8:	2a0003f4 	mov	w20, w0
/home/pwnz/devel/optee/optee_os/lib/libutee/tee_api_operations.c:691
    2bfc:	35fff5c0 	cbnz	w0, 2ab4 <TEE_SetOperationKey2+0x1c>
/home/pwnz/devel/optee/optee_os/lib/libutee/tee_api_operations.c:694
    2c00:	f9401660 	ldr	x0, [x19,#40]
    2c04:	aa1503e1 	mov	x1, x21
    2c08:	97fffafe 	bl	1800 <TEE_CopyObjectAttributes1>
    2c0c:	2a0003f4 	mov	w20, w0
/home/pwnz/devel/optee/optee_os/lib/libutee/tee_api_operations.c:695
    2c10:	35fffb20 	cbnz	w0, 2b74 <TEE_SetOperationKey2+0xdc>
/home/pwnz/devel/optee/optee_os/lib/libutee/tee_api_operations.c:701
    2c14:	b9401e60 	ldr	w0, [x19,#28]
/home/pwnz/devel/optee/optee_os/lib/libutee/tee_api_operations.c:703
    2c18:	b9001677 	str	w23, [x19,#20]
/home/pwnz/devel/optee/optee_os/lib/libutee/tee_api_operations.c:701
    2c1c:	320e0000 	orr	w0, w0, #0x40000
    2c20:	b9001e60 	str	w0, [x19,#28]
    2c24:	17ffffa4 	b	2ab4 <TEE_SetOperationKey2+0x1c>

0000000000002c28 <TEE_CopyOperation>:
TEE_CopyOperation():
/home/pwnz/devel/optee/optee_os/lib/libutee/tee_api_operations.c:717
    2c28:	a9be7bfd 	stp	x29, x30, [sp,#-32]!
/home/pwnz/devel/optee/optee_os/lib/libutee/tee_api_operations.c:720
    2c2c:	f100001f 	cmp	x0, #0x0
    2c30:	fa401824 	ccmp	x1, #0x0, #0x4, ne
/home/pwnz/devel/optee/optee_os/lib/libutee/tee_api_operations.c:717
    2c34:	910003fd 	mov	x29, sp
    2c38:	a90153f3 	stp	x19, x20, [sp,#16]
    2c3c:	aa0003f4 	mov	x20, x0
    2c40:	aa0103f3 	mov	x19, x1
/home/pwnz/devel/optee/optee_os/lib/libutee/tee_api_operations.c:720
    2c44:	54000061 	b.ne	2c50 <TEE_CopyOperation+0x28>
/home/pwnz/devel/optee/optee_os/lib/libutee/tee_api_operations.c:721
    2c48:	52800000 	mov	w0, #0x0                   	// #0
    2c4c:	940005be 	bl	4344 <TEE_Panic>
/home/pwnz/devel/optee/optee_os/lib/libutee/tee_api_operations.c:722
    2c50:	b9400260 	ldr	w0, [x19]
    2c54:	b9400281 	ldr	w1, [x20]
    2c58:	6b00003f 	cmp	w1, w0
    2c5c:	54000060 	b.eq	2c68 <TEE_CopyOperation+0x40>
/home/pwnz/devel/optee/optee_os/lib/libutee/tee_api_operations.c:723
    2c60:	52800000 	mov	w0, #0x0                   	// #0
    2c64:	940005b8 	bl	4344 <TEE_Panic>
/home/pwnz/devel/optee/optee_os/lib/libutee/tee_api_operations.c:724
    2c68:	b9400660 	ldr	w0, [x19,#4]
    2c6c:	7100141f 	cmp	w0, #0x5
    2c70:	540000e0 	b.eq	2c8c <TEE_CopyOperation+0x64>
/home/pwnz/devel/optee/optee_os/lib/libutee/tee_api_operations.c:728
    2c74:	b9401e60 	ldr	w0, [x19,#28]
    2c78:	369004e0 	tbz	w0, #18, 2d14 <TEE_CopyOperation+0xec>
/home/pwnz/devel/optee/optee_os/lib/libutee/tee_api_operations.c:730
    2c7c:	a9420a61 	ldp	x1, x2, [x19,#32]
/home/pwnz/devel/optee/optee_os/lib/libutee/tee_api_operations.c:733
    2c80:	37980500 	tbnz	w0, #19, 2d20 <TEE_CopyOperation+0xf8>
/home/pwnz/devel/optee/optee_os/lib/libutee/tee_api_operations.c:735
    2c84:	aa1403e0 	mov	x0, x20
    2c88:	97ffff48 	bl	29a8 <TEE_SetOperationKey>
/home/pwnz/devel/optee/optee_os/lib/libutee/tee_api_operations.c:740
    2c8c:	b9401e60 	ldr	w0, [x19,#28]
    2c90:	b9001e80 	str	w0, [x20,#28]
/home/pwnz/devel/optee/optee_os/lib/libutee/tee_api_operations.c:741
    2c94:	b9401660 	ldr	w0, [x19,#20]
    2c98:	b9001680 	str	w0, [x20,#20]
/home/pwnz/devel/optee/optee_os/lib/libutee/tee_api_operations.c:742
    2c9c:	b9403260 	ldr	w0, [x19,#48]
/home/pwnz/devel/optee/optee_os/lib/libutee/tee_api_operations.c:744
    2ca0:	39410281 	ldrb	w1, [x20,#64]
/home/pwnz/devel/optee/optee_os/lib/libutee/tee_api_operations.c:742
    2ca4:	b9003280 	str	w0, [x20,#48]
/home/pwnz/devel/optee/optee_os/lib/libutee/tee_api_operations.c:744
    2ca8:	39410260 	ldrb	w0, [x19,#64]
    2cac:	6b00003f 	cmp	w1, w0
    2cb0:	540000a1 	b.ne	2cc4 <TEE_CopyOperation+0x9c>
/home/pwnz/devel/optee/optee_os/lib/libutee/tee_api_operations.c:744 (discriminator 1)
    2cb4:	f9402660 	ldr	x0, [x19,#72]
    2cb8:	f9402681 	ldr	x1, [x20,#72]
    2cbc:	eb00003f 	cmp	x1, x0
    2cc0:	54000060 	b.eq	2ccc <TEE_CopyOperation+0xa4>
/home/pwnz/devel/optee/optee_os/lib/libutee/tee_api_operations.c:746
    2cc4:	52800000 	mov	w0, #0x0                   	// #0
    2cc8:	9400059f 	bl	4344 <TEE_Panic>
/home/pwnz/devel/optee/optee_os/lib/libutee/tee_api_operations.c:748
    2ccc:	f9401e81 	ldr	x1, [x20,#56]
    2cd0:	f9401e60 	ldr	x0, [x19,#56]
    2cd4:	b40002c1 	cbz	x1, 2d2c <TEE_CopyOperation+0x104>
/home/pwnz/devel/optee/optee_os/lib/libutee/tee_api_operations.c:749
    2cd8:	b5000040 	cbnz	x0, 2ce0 <TEE_CopyOperation+0xb8>
/home/pwnz/devel/optee/optee_os/lib/libutee/tee_api_operations.c:750
    2cdc:	9400059a 	bl	4344 <TEE_Panic>
/home/pwnz/devel/optee/optee_os/lib/libutee/tee_api_operations.c:752
    2ce0:	f9401e61 	ldr	x1, [x19,#56]
    2ce4:	f9402a62 	ldr	x2, [x19,#80]
    2ce8:	f9401e80 	ldr	x0, [x20,#56]
    2cec:	94000f06 	bl	6904 <memcpy>
/home/pwnz/devel/optee/optee_os/lib/libutee/tee_api_operations.c:753
    2cf0:	f9402a60 	ldr	x0, [x19,#80]
    2cf4:	f9002a80 	str	x0, [x20,#80]
/home/pwnz/devel/optee/optee_os/lib/libutee/tee_api_operations.c:758
    2cf8:	b9405a61 	ldr	w1, [x19,#88]
    2cfc:	b9405a80 	ldr	w0, [x20,#88]
    2d00:	94000676 	bl	46d8 <utee_cryp_state_copy>
/home/pwnz/devel/optee/optee_os/lib/libutee/tee_api_operations.c:759
    2d04:	340001c0 	cbz	w0, 2d3c <TEE_CopyOperation+0x114>
/home/pwnz/devel/optee/optee_os/lib/libutee/tee_api_operations.c:761
    2d08:	a94153f3 	ldp	x19, x20, [sp,#16]
    2d0c:	a8c27bfd 	ldp	x29, x30, [sp],#32
/home/pwnz/devel/optee/optee_os/lib/libutee/tee_api_operations.c:760
    2d10:	1400058d 	b	4344 <TEE_Panic>
/home/pwnz/devel/optee/optee_os/lib/libutee/tee_api_operations.c:726
    2d14:	d2800002 	mov	x2, #0x0                   	// #0
/home/pwnz/devel/optee/optee_os/lib/libutee/tee_api_operations.c:725
    2d18:	d2800001 	mov	x1, #0x0                   	// #0
    2d1c:	17ffffd9 	b	2c80 <TEE_CopyOperation+0x58>
/home/pwnz/devel/optee/optee_os/lib/libutee/tee_api_operations.c:737
    2d20:	aa1403e0 	mov	x0, x20
    2d24:	97ffff5d 	bl	2a98 <TEE_SetOperationKey2>
    2d28:	17ffffd9 	b	2c8c <TEE_CopyOperation+0x64>
/home/pwnz/devel/optee/optee_os/lib/libutee/tee_api_operations.c:754
    2d2c:	b4fffe60 	cbz	x0, 2cf8 <TEE_CopyOperation+0xd0>
/home/pwnz/devel/optee/optee_os/lib/libutee/tee_api_operations.c:755
    2d30:	52800000 	mov	w0, #0x0                   	// #0
    2d34:	94000584 	bl	4344 <TEE_Panic>
    2d38:	17fffff0 	b	2cf8 <TEE_CopyOperation+0xd0>
/home/pwnz/devel/optee/optee_os/lib/libutee/tee_api_operations.c:761
    2d3c:	a94153f3 	ldp	x19, x20, [sp,#16]
    2d40:	a8c27bfd 	ldp	x29, x30, [sp],#32
    2d44:	d65f03c0 	ret

0000000000002d48 <TEE_DigestUpdate>:
TEE_DigestUpdate():
/home/pwnz/devel/optee/optee_os/lib/libutee/tee_api_operations.c:783
    2d48:	a9bd7bfd 	stp	x29, x30, [sp,#-48]!
    2d4c:	910003fd 	mov	x29, sp
    2d50:	a90153f3 	stp	x19, x20, [sp,#16]
    2d54:	aa0003f3 	mov	x19, x0
    2d58:	f90013f5 	str	x21, [sp,#32]
    2d5c:	aa0103f4 	mov	x20, x1
    2d60:	2a0203f5 	mov	w21, w2
/home/pwnz/devel/optee/optee_os/lib/libutee/tee_api_operations.c:786
    2d64:	b4000080 	cbz	x0, 2d74 <TEE_DigestUpdate+0x2c>
/home/pwnz/devel/optee/optee_os/lib/libutee/tee_api_operations.c:786 (discriminator 1)
    2d68:	b9400400 	ldr	w0, [x0,#4]
    2d6c:	7100141f 	cmp	w0, #0x5
    2d70:	54000060 	b.eq	2d7c <TEE_DigestUpdate+0x34>
/home/pwnz/devel/optee/optee_os/lib/libutee/tee_api_operations.c:788
    2d74:	52800000 	mov	w0, #0x0                   	// #0
    2d78:	94000573 	bl	4344 <TEE_Panic>
/home/pwnz/devel/optee/optee_os/lib/libutee/tee_api_operations.c:790
    2d7c:	52800020 	mov	w0, #0x1                   	// #1
    2d80:	b9003260 	str	w0, [x19,#48]
/home/pwnz/devel/optee/optee_os/lib/libutee/tee_api_operations.c:792
    2d84:	b9405a60 	ldr	w0, [x19,#88]
    2d88:	2a1503e2 	mov	w2, w21
    2d8c:	aa1403e1 	mov	x1, x20
    2d90:	9400065b 	bl	46fc <utee_hash_update>
/home/pwnz/devel/optee/optee_os/lib/libutee/tee_api_operations.c:793
    2d94:	340000a0 	cbz	w0, 2da8 <TEE_DigestUpdate+0x60>
/home/pwnz/devel/optee/optee_os/lib/libutee/tee_api_operations.c:795
    2d98:	a94153f3 	ldp	x19, x20, [sp,#16]
    2d9c:	f94013f5 	ldr	x21, [sp,#32]
    2da0:	a8c37bfd 	ldp	x29, x30, [sp],#48
/home/pwnz/devel/optee/optee_os/lib/libutee/tee_api_operations.c:794
    2da4:	14000568 	b	4344 <TEE_Panic>
/home/pwnz/devel/optee/optee_os/lib/libutee/tee_api_operations.c:795
    2da8:	a94153f3 	ldp	x19, x20, [sp,#16]
    2dac:	f94013f5 	ldr	x21, [sp,#32]
    2db0:	a8c37bfd 	ldp	x29, x30, [sp],#48
    2db4:	d65f03c0 	ret

0000000000002db8 <TEE_DigestDoFinal>:
TEE_DigestDoFinal():
/home/pwnz/devel/optee/optee_os/lib/libutee/tee_api_operations.c:799
    2db8:	a9bc7bfd 	stp	x29, x30, [sp,#-64]!
    2dbc:	910003fd 	mov	x29, sp
    2dc0:	a90153f3 	stp	x19, x20, [sp,#16]
    2dc4:	aa0003f3 	mov	x19, x0
    2dc8:	f90013f5 	str	x21, [sp,#32]
/home/pwnz/devel/optee/optee_os/lib/libutee/tee_api_operations.c:808
    2dcc:	129fff34 	mov	w20, #0xffff0006            	// #-65530
/home/pwnz/devel/optee/optee_os/lib/libutee/tee_api_operations.c:803
    2dd0:	b4000400 	cbz	x0, 2e50 <TEE_DigestDoFinal+0x98>
/home/pwnz/devel/optee/optee_os/lib/libutee/tee_api_operations.c:804 (discriminator 1)
    2dd4:	f100003f 	cmp	x1, #0x0
/home/pwnz/devel/optee/optee_os/lib/libutee/tee_api_operations.c:803 (discriminator 1)
    2dd8:	7a400844 	ccmp	w2, #0x0, #0x4, eq
    2ddc:	540003a1 	b.ne	2e50 <TEE_DigestDoFinal+0x98>
/home/pwnz/devel/optee/optee_os/lib/libutee/tee_api_operations.c:805
    2de0:	f100007f 	cmp	x3, #0x0
    2de4:	aa0403f5 	mov	x21, x4
    2de8:	fa401884 	ccmp	x4, #0x0, #0x4, ne
    2dec:	54000320 	b.eq	2e50 <TEE_DigestDoFinal+0x98>
/home/pwnz/devel/optee/optee_os/lib/libutee/tee_api_operations.c:806
    2df0:	b9400660 	ldr	w0, [x19,#4]
    2df4:	7100141f 	cmp	w0, #0x5
    2df8:	540002c1 	b.ne	2e50 <TEE_DigestDoFinal+0x98>
/home/pwnz/devel/optee/optee_os/lib/libutee/tee_api_operations.c:812
    2dfc:	910103a4 	add	x4, x29, #0x40
    2e00:	b94002a0 	ldr	w0, [x21]
/home/pwnz/devel/optee/optee_os/lib/libutee/tee_api_operations.c:813
    2e04:	2a0203e2 	mov	w2, w2
/home/pwnz/devel/optee/optee_os/lib/libutee/tee_api_operations.c:812
    2e08:	f81f8c80 	str	x0, [x4,#-8]!
/home/pwnz/devel/optee/optee_os/lib/libutee/tee_api_operations.c:813
    2e0c:	b9405a60 	ldr	w0, [x19,#88]
    2e10:	9400063e 	bl	4708 <utee_hash_final>
    2e14:	2a0003f4 	mov	w20, w0
/home/pwnz/devel/optee/optee_os/lib/libutee/tee_api_operations.c:814
    2e18:	f9401fa0 	ldr	x0, [x29,#56]
    2e1c:	b90002a0 	str	w0, [x21]
/home/pwnz/devel/optee/optee_os/lib/libutee/tee_api_operations.c:815
    2e20:	35000194 	cbnz	w20, 2e50 <TEE_DigestDoFinal+0x98>
init_hash_operation():
/home/pwnz/devel/optee/optee_os/lib/libutee/tee_api_operations.c:774
    2e24:	b9405a60 	ldr	w0, [x19,#88]
    2e28:	d2800002 	mov	x2, #0x0                   	// #0
    2e2c:	d2800001 	mov	x1, #0x0                   	// #0
    2e30:	94000630 	bl	46f0 <utee_hash_init>
/home/pwnz/devel/optee/optee_os/lib/libutee/tee_api_operations.c:775
    2e34:	34000040 	cbz	w0, 2e3c <TEE_DigestDoFinal+0x84>
/home/pwnz/devel/optee/optee_os/lib/libutee/tee_api_operations.c:776
    2e38:	94000543 	bl	4344 <TEE_Panic>
/home/pwnz/devel/optee/optee_os/lib/libutee/tee_api_operations.c:778
    2e3c:	b9401e60 	ldr	w0, [x19,#28]
TEE_DigestDoFinal():
/home/pwnz/devel/optee/optee_os/lib/libutee/tee_api_operations.c:821
    2e40:	b900327f 	str	wzr, [x19,#48]
init_hash_operation():
/home/pwnz/devel/optee/optee_os/lib/libutee/tee_api_operations.c:778
    2e44:	320f0000 	orr	w0, w0, #0x20000
/home/pwnz/devel/optee/optee_os/lib/libutee/tee_api_operations.c:777
    2e48:	f9002a7f 	str	xzr, [x19,#80]
/home/pwnz/devel/optee/optee_os/lib/libutee/tee_api_operations.c:778
    2e4c:	b9001e60 	str	w0, [x19,#28]
TEE_DigestDoFinal():
/home/pwnz/devel/optee/optee_os/lib/libutee/tee_api_operations.c:824
    2e50:	7100029f 	cmp	w20, #0x0
    2e54:	129ffde0 	mov	w0, #0xffff0010            	// #-65520
    2e58:	7a401284 	ccmp	w20, w0, #0x4, ne
    2e5c:	54000060 	b.eq	2e68 <TEE_DigestDoFinal+0xb0>
/home/pwnz/devel/optee/optee_os/lib/libutee/tee_api_operations.c:826
    2e60:	2a1403e0 	mov	w0, w20
    2e64:	94000538 	bl	4344 <TEE_Panic>
/home/pwnz/devel/optee/optee_os/lib/libutee/tee_api_operations.c:829
    2e68:	2a1403e0 	mov	w0, w20
    2e6c:	f94013f5 	ldr	x21, [sp,#32]
    2e70:	a94153f3 	ldp	x19, x20, [sp,#16]
    2e74:	a8c47bfd 	ldp	x29, x30, [sp],#64
    2e78:	d65f03c0 	ret

0000000000002e7c <TEE_CipherInit>:
TEE_CipherInit():
/home/pwnz/devel/optee/optee_os/lib/libutee/tee_api_operations.c:835
    2e7c:	a9bd7bfd 	stp	x29, x30, [sp,#-48]!
    2e80:	910003fd 	mov	x29, sp
    2e84:	a90153f3 	stp	x19, x20, [sp,#16]
    2e88:	aa0003f3 	mov	x19, x0
    2e8c:	f90013f5 	str	x21, [sp,#32]
    2e90:	aa0103f4 	mov	x20, x1
    2e94:	2a0203f5 	mov	w21, w2
/home/pwnz/devel/optee/optee_os/lib/libutee/tee_api_operations.c:838
    2e98:	b5000060 	cbnz	x0, 2ea4 <TEE_CipherInit+0x28>
/home/pwnz/devel/optee/optee_os/lib/libutee/tee_api_operations.c:839
    2e9c:	52800000 	mov	w0, #0x0                   	// #0
    2ea0:	94000529 	bl	4344 <TEE_Panic>
/home/pwnz/devel/optee/optee_os/lib/libutee/tee_api_operations.c:841
    2ea4:	b9400660 	ldr	w0, [x19,#4]
    2ea8:	7100041f 	cmp	w0, #0x1
    2eac:	54000060 	b.eq	2eb8 <TEE_CipherInit+0x3c>
/home/pwnz/devel/optee/optee_os/lib/libutee/tee_api_operations.c:842
    2eb0:	52800000 	mov	w0, #0x0                   	// #0
    2eb4:	94000524 	bl	4344 <TEE_Panic>
/home/pwnz/devel/optee/optee_os/lib/libutee/tee_api_operations.c:844
    2eb8:	b9401e60 	ldr	w0, [x19,#28]
    2ebc:	36900060 	tbz	w0, #18, 2ec8 <TEE_CipherInit+0x4c>
/home/pwnz/devel/optee/optee_os/lib/libutee/tee_api_operations.c:844 (discriminator 1)
    2ec0:	f9401260 	ldr	x0, [x19,#32]
    2ec4:	b5000060 	cbnz	x0, 2ed0 <TEE_CipherInit+0x54>
/home/pwnz/devel/optee/optee_os/lib/libutee/tee_api_operations.c:846
    2ec8:	52800000 	mov	w0, #0x0                   	// #0
    2ecc:	9400051e 	bl	4344 <TEE_Panic>
/home/pwnz/devel/optee/optee_os/lib/libutee/tee_api_operations.c:848
    2ed0:	b9403260 	ldr	w0, [x19,#48]
    2ed4:	34000060 	cbz	w0, 2ee0 <TEE_CipherInit+0x64>
/home/pwnz/devel/optee/optee_os/lib/libutee/tee_api_operations.c:849
    2ed8:	aa1303e0 	mov	x0, x19
    2edc:	97fffe95 	bl	2930 <TEE_ResetOperation>
/home/pwnz/devel/optee/optee_os/lib/libutee/tee_api_operations.c:851
    2ee0:	52800020 	mov	w0, #0x1                   	// #1
    2ee4:	b9003260 	str	w0, [x19,#48]
/home/pwnz/devel/optee/optee_os/lib/libutee/tee_api_operations.c:853
    2ee8:	b9405a60 	ldr	w0, [x19,#88]
    2eec:	2a1503e2 	mov	w2, w21
    2ef0:	aa1403e1 	mov	x1, x20
    2ef4:	94000608 	bl	4714 <utee_cipher_init>
/home/pwnz/devel/optee/optee_os/lib/libutee/tee_api_operations.c:854
    2ef8:	34000040 	cbz	w0, 2f00 <TEE_CipherInit+0x84>
/home/pwnz/devel/optee/optee_os/lib/libutee/tee_api_operations.c:855
    2efc:	94000512 	bl	4344 <TEE_Panic>
/home/pwnz/devel/optee/optee_os/lib/libutee/tee_api_operations.c:858
    2f00:	b9401e60 	ldr	w0, [x19,#28]
/home/pwnz/devel/optee/optee_os/lib/libutee/tee_api_operations.c:859
    2f04:	f94013f5 	ldr	x21, [sp,#32]
/home/pwnz/devel/optee/optee_os/lib/libutee/tee_api_operations.c:858
    2f08:	320f0000 	orr	w0, w0, #0x20000
/home/pwnz/devel/optee/optee_os/lib/libutee/tee_api_operations.c:857
    2f0c:	f9002a7f 	str	xzr, [x19,#80]
/home/pwnz/devel/optee/optee_os/lib/libutee/tee_api_operations.c:858
    2f10:	b9001e60 	str	w0, [x19,#28]
/home/pwnz/devel/optee/optee_os/lib/libutee/tee_api_operations.c:859
    2f14:	a94153f3 	ldp	x19, x20, [sp,#16]
    2f18:	a8c37bfd 	ldp	x29, x30, [sp],#48
    2f1c:	d65f03c0 	ret

0000000000002f20 <TEE_CipherUpdate>:
TEE_CipherUpdate():
/home/pwnz/devel/optee/optee_os/lib/libutee/tee_api_operations.c:961
    2f20:	a9bd7bfd 	stp	x29, x30, [sp,#-48]!
    2f24:	910003fd 	mov	x29, sp
    2f28:	a90153f3 	stp	x19, x20, [sp,#16]
/home/pwnz/devel/optee/optee_os/lib/libutee/tee_api_operations.c:970
    2f2c:	129fff33 	mov	w19, #0xffff0006            	// #-65530
/home/pwnz/devel/optee/optee_os/lib/libutee/tee_api_operations.c:966
    2f30:	b40003c0 	cbz	x0, 2fa8 <TEE_CipherUpdate+0x88>
/home/pwnz/devel/optee/optee_os/lib/libutee/tee_api_operations.c:967 (discriminator 1)
    2f34:	f100003f 	cmp	x1, #0x0
    2f38:	aa0403f4 	mov	x20, x4
    2f3c:	1a9f17e5 	cset	w5, eq
    2f40:	7100005f 	cmp	w2, #0x0
    2f44:	2a0203e6 	mov	w6, w2
    2f48:	1a9f07e2 	cset	w2, ne
    2f4c:	f100029f 	cmp	x20, #0x0
    2f50:	0a0200a4 	and	w4, w5, w2
    2f54:	1a9f17e2 	cset	w2, eq
    2f58:	2a040042 	orr	w2, w2, w4
    2f5c:	35000262 	cbnz	w2, 2fa8 <TEE_CipherUpdate+0x88>
/home/pwnz/devel/optee/optee_os/lib/libutee/tee_api_operations.c:968
    2f60:	b5000063 	cbnz	x3, 2f6c <TEE_CipherUpdate+0x4c>
/home/pwnz/devel/optee/optee_os/lib/libutee/tee_api_operations.c:969
    2f64:	b9400282 	ldr	w2, [x20]
    2f68:	35000202 	cbnz	w2, 2fa8 <TEE_CipherUpdate+0x88>
/home/pwnz/devel/optee/optee_os/lib/libutee/tee_api_operations.c:974
    2f6c:	b9400402 	ldr	w2, [x0,#4]
/home/pwnz/devel/optee/optee_os/lib/libutee/tee_api_operations.c:970
    2f70:	129fff33 	mov	w19, #0xffff0006            	// #-65530
/home/pwnz/devel/optee/optee_os/lib/libutee/tee_api_operations.c:974
    2f74:	7100045f 	cmp	w2, #0x1
    2f78:	54000181 	b.ne	2fa8 <TEE_CipherUpdate+0x88>
/home/pwnz/devel/optee/optee_os/lib/libutee/tee_api_operations.c:979
    2f7c:	b9401c02 	ldr	w2, [x0,#28]
    2f80:	36880142 	tbz	w2, #17, 2fa8 <TEE_CipherUpdate+0x88>
/home/pwnz/devel/optee/optee_os/lib/libutee/tee_api_operations.c:984
    2f84:	b9403002 	ldr	w2, [x0,#48]
    2f88:	7100045f 	cmp	w2, #0x1
    2f8c:	540000e1 	b.ne	2fa8 <TEE_CipherUpdate+0x88>
/home/pwnz/devel/optee/optee_os/lib/libutee/tee_api_operations.c:989
    2f90:	710000df 	cmp	w6, #0x0
    2f94:	1a9f17e2 	cset	w2, eq
    2f98:	6a0200bf 	tst	w5, w2
    2f9c:	540001a0 	b.eq	2fd0 <TEE_CipherUpdate+0xb0>
/home/pwnz/devel/optee/optee_os/lib/libutee/tee_api_operations.c:991
    2fa0:	52800013 	mov	w19, #0x0                   	// #0
/home/pwnz/devel/optee/optee_os/lib/libutee/tee_api_operations.c:990
    2fa4:	b900029f 	str	wzr, [x20]
/home/pwnz/devel/optee/optee_os/lib/libutee/tee_api_operations.c:1035
    2fa8:	7100027f 	cmp	w19, #0x0
    2fac:	129ffde0 	mov	w0, #0xffff0010            	// #-65520
    2fb0:	7a401264 	ccmp	w19, w0, #0x4, ne
    2fb4:	54000060 	b.eq	2fc0 <TEE_CipherUpdate+0xa0>
/home/pwnz/devel/optee/optee_os/lib/libutee/tee_api_operations.c:1037
    2fb8:	2a1303e0 	mov	w0, w19
    2fbc:	940004e2 	bl	4344 <TEE_Panic>
/home/pwnz/devel/optee/optee_os/lib/libutee/tee_api_operations.c:1040
    2fc0:	2a1303e0 	mov	w0, w19
    2fc4:	a94153f3 	ldp	x19, x20, [sp,#16]
    2fc8:	a8c37bfd 	ldp	x29, x30, [sp],#48
    2fcc:	d65f03c0 	ret
/home/pwnz/devel/optee/optee_os/lib/libutee/tee_api_operations.c:996
    2fd0:	f9402405 	ldr	x5, [x0,#72]
    2fd4:	2a0603e2 	mov	w2, w6
/home/pwnz/devel/optee/optee_os/lib/libutee/tee_api_operations.c:1000
    2fd8:	aa0203e4 	mov	x4, x2
/home/pwnz/devel/optee/optee_os/lib/libutee/tee_api_operations.c:996
    2fdc:	f10004bf 	cmp	x5, #0x1
    2fe0:	540000a9 	b.ls	2ff4 <TEE_CipherUpdate+0xd4>
/home/pwnz/devel/optee/optee_os/lib/libutee/tee_api_operations.c:997
    2fe4:	f9402804 	ldr	x4, [x0,#80]
    2fe8:	8b040044 	add	x4, x2, x4
    2fec:	9ac50884 	udiv	x4, x4, x5
    2ff0:	9b057c84 	mul	x4, x4, x5
/home/pwnz/devel/optee/optee_os/lib/libutee/tee_api_operations.c:1002
    2ff4:	39410007 	ldrb	w7, [x0,#64]
    2ff8:	340000a7 	cbz	w7, 300c <TEE_CipherUpdate+0xec>
/home/pwnz/devel/optee/optee_os/lib/libutee/tee_api_operations.c:1003
    2ffc:	d37ff8a7 	lsl	x7, x5, #1
/home/pwnz/devel/optee/optee_os/lib/libutee/tee_api_operations.c:1004
    3000:	cb070088 	sub	x8, x4, x7
    3004:	eb07009f 	cmp	x4, x7
    3008:	9a9f8104 	csel	x4, x8, xzr, hi
/home/pwnz/devel/optee/optee_os/lib/libutee/tee_api_operations.c:1013
    300c:	b9400287 	ldr	w7, [x20]
    3010:	eb07009f 	cmp	x4, x7
    3014:	54000089 	b.ls	3024 <TEE_CipherUpdate+0x104>
/home/pwnz/devel/optee/optee_os/lib/libutee/tee_api_operations.c:1015
    3018:	129ffdf3 	mov	w19, #0xffff0010            	// #-65520
/home/pwnz/devel/optee/optee_os/lib/libutee/tee_api_operations.c:1014
    301c:	b9000284 	str	w4, [x20]
/home/pwnz/devel/optee/optee_os/lib/libutee/tee_api_operations.c:1016
    3020:	17ffffe2 	b	2fa8 <TEE_CipherUpdate+0x88>
/home/pwnz/devel/optee/optee_os/lib/libutee/tee_api_operations.c:1019
    3024:	f90017a7 	str	x7, [x29,#40]
/home/pwnz/devel/optee/optee_os/lib/libutee/tee_api_operations.c:1020
    3028:	f10004bf 	cmp	x5, #0x1
    302c:	54000189 	b.ls	305c <TEE_CipherUpdate+0x13c>
/home/pwnz/devel/optee/optee_os/lib/libutee/tee_api_operations.c:1021
    3030:	aa0303e4 	mov	x4, x3
    3034:	aa0203e3 	mov	x3, x2
    3038:	aa0103e2 	mov	x2, x1
    303c:	d0000041 	adrp	x1, d000 <__func__.3637+0xa28>
    3040:	9100a3a5 	add	x5, x29, #0x28
    3044:	f9432021 	ldr	x1, [x1,#1600]
    3048:	94000438 	bl	4128 <tee_buffer_update>
/home/pwnz/devel/optee/optee_os/lib/libutee/tee_api_operations.c:1025
    304c:	2a0003f3 	mov	w19, w0
/home/pwnz/devel/optee/optee_os/lib/libutee/tee_api_operations.c:1032
    3050:	f94017a0 	ldr	x0, [x29,#40]
    3054:	b9000280 	str	w0, [x20]
    3058:	17ffffd4 	b	2fa8 <TEE_CipherUpdate+0x88>
/home/pwnz/devel/optee/optee_os/lib/libutee/tee_api_operations.c:1024
    305c:	340000a6 	cbz	w6, 3070 <TEE_CipherUpdate+0x150>
/home/pwnz/devel/optee/optee_os/lib/libutee/tee_api_operations.c:1025
    3060:	b9405800 	ldr	w0, [x0,#88]
    3064:	9100a3a4 	add	x4, x29, #0x28
    3068:	940005ae 	bl	4720 <utee_cipher_update>
    306c:	17fffff8 	b	304c <TEE_CipherUpdate+0x12c>
/home/pwnz/devel/optee/optee_os/lib/libutee/tee_api_operations.c:1028
    3070:	52800013 	mov	w19, #0x0                   	// #0
/home/pwnz/devel/optee/optee_os/lib/libutee/tee_api_operations.c:1029
    3074:	f90017bf 	str	xzr, [x29,#40]
    3078:	17fffff6 	b	3050 <TEE_CipherUpdate+0x130>

000000000000307c <TEE_CipherDoFinal>:
TEE_CipherDoFinal():
/home/pwnz/devel/optee/optee_os/lib/libutee/tee_api_operations.c:1045
    307c:	a9bb7bfd 	stp	x29, x30, [sp,#-80]!
    3080:	910003fd 	mov	x29, sp
    3084:	a90153f3 	stp	x19, x20, [sp,#16]
/home/pwnz/devel/optee/optee_os/lib/libutee/tee_api_operations.c:1056
    3088:	129fff34 	mov	w20, #0xffff0006            	// #-65530
/home/pwnz/devel/optee/optee_os/lib/libutee/tee_api_operations.c:1045
    308c:	a9025bf5 	stp	x21, x22, [sp,#32]
    3090:	a90363f7 	stp	x23, x24, [sp,#48]
/home/pwnz/devel/optee/optee_os/lib/libutee/tee_api_operations.c:1052
    3094:	b40005e0 	cbz	x0, 3150 <TEE_CipherDoFinal+0xd4>
/home/pwnz/devel/optee/optee_os/lib/libutee/tee_api_operations.c:1053 (discriminator 1)
    3098:	f100003f 	cmp	x1, #0x0
    309c:	aa0403f5 	mov	x21, x4
    30a0:	7a400844 	ccmp	w2, #0x0, #0x4, eq
    30a4:	fa400884 	ccmp	x4, #0x0, #0x4, eq
    30a8:	54000540 	b.eq	3150 <TEE_CipherDoFinal+0xd4>
    30ac:	aa0003f3 	mov	x19, x0
    30b0:	aa0303f8 	mov	x24, x3
/home/pwnz/devel/optee/optee_os/lib/libutee/tee_api_operations.c:1054
    30b4:	b5000063 	cbnz	x3, 30c0 <TEE_CipherDoFinal+0x44>
/home/pwnz/devel/optee/optee_os/lib/libutee/tee_api_operations.c:1055
    30b8:	b9400080 	ldr	w0, [x4]
    30bc:	350004a0 	cbnz	w0, 3150 <TEE_CipherDoFinal+0xd4>
/home/pwnz/devel/optee/optee_os/lib/libutee/tee_api_operations.c:1060
    30c0:	b9400660 	ldr	w0, [x19,#4]
/home/pwnz/devel/optee/optee_os/lib/libutee/tee_api_operations.c:1056
    30c4:	129fff34 	mov	w20, #0xffff0006            	// #-65530
/home/pwnz/devel/optee/optee_os/lib/libutee/tee_api_operations.c:1060
    30c8:	7100041f 	cmp	w0, #0x1
    30cc:	54000421 	b.ne	3150 <TEE_CipherDoFinal+0xd4>
/home/pwnz/devel/optee/optee_os/lib/libutee/tee_api_operations.c:1065
    30d0:	b9401e60 	ldr	w0, [x19,#28]
    30d4:	368803e0 	tbz	w0, #17, 3150 <TEE_CipherDoFinal+0xd4>
/home/pwnz/devel/optee/optee_os/lib/libutee/tee_api_operations.c:1070
    30d8:	b9403260 	ldr	w0, [x19,#48]
    30dc:	7100041f 	cmp	w0, #0x1
    30e0:	54000381 	b.ne	3150 <TEE_CipherDoFinal+0xd4>
/home/pwnz/devel/optee/optee_os/lib/libutee/tee_api_operations.c:1079
    30e4:	b9400260 	ldr	w0, [x19]
    30e8:	529ffe03 	mov	w3, #0xfff0                	// #65520
    30ec:	72bdffe3 	movk	w3, #0xefff, lsl #16
    30f0:	2a0203e2 	mov	w2, w2
    30f4:	12177800 	and	w0, w0, #0xfffffeff
    30f8:	0b030003 	add	w3, w0, w3
/home/pwnz/devel/optee/optee_os/lib/libutee/tee_api_operations.c:1083
    30fc:	7100047f 	cmp	w3, #0x1
    3100:	52800263 	mov	w3, #0x13                  	// #19
    3104:	72a20003 	movk	w3, #0x1000, lsl #16
    3108:	7a438004 	ccmp	w0, w3, #0x4, hi
    310c:	f9402663 	ldr	x3, [x19,#72]
    3110:	540000c1 	b.ne	3128 <TEE_CipherDoFinal+0xac>
/home/pwnz/devel/optee/optee_os/lib/libutee/tee_api_operations.c:1085
    3114:	f9402a60 	ldr	x0, [x19,#80]
    3118:	8b000040 	add	x0, x2, x0
    311c:	9ac30804 	udiv	x4, x0, x3
    3120:	9b038080 	msub	x0, x4, x3, x0
    3124:	b5000160 	cbnz	x0, 3150 <TEE_CipherDoFinal+0xd4>
/home/pwnz/devel/optee/optee_os/lib/libutee/tee_api_operations.c:1100
    3128:	aa0203e0 	mov	x0, x2
/home/pwnz/devel/optee/optee_os/lib/libutee/tee_api_operations.c:1097
    312c:	f100047f 	cmp	x3, #0x1
    3130:	54000069 	b.ls	313c <TEE_CipherDoFinal+0xc0>
/home/pwnz/devel/optee/optee_os/lib/libutee/tee_api_operations.c:1098
    3134:	f9402a60 	ldr	x0, [x19,#80]
    3138:	8b000040 	add	x0, x2, x0
/home/pwnz/devel/optee/optee_os/lib/libutee/tee_api_operations.c:1102
    313c:	b94002a4 	ldr	w4, [x21]
    3140:	eb04001f 	cmp	x0, x4
    3144:	540001e9 	b.ls	3180 <TEE_CipherDoFinal+0x104>
/home/pwnz/devel/optee/optee_os/lib/libutee/tee_api_operations.c:1104
    3148:	129ffdf4 	mov	w20, #0xffff0010            	// #-65520
/home/pwnz/devel/optee/optee_os/lib/libutee/tee_api_operations.c:1103
    314c:	b90002a0 	str	w0, [x21]
/home/pwnz/devel/optee/optee_os/lib/libutee/tee_api_operations.c:1136
    3150:	7100029f 	cmp	w20, #0x0
    3154:	129ffde0 	mov	w0, #0xffff0010            	// #-65520
    3158:	7a401284 	ccmp	w20, w0, #0x4, ne
    315c:	54000060 	b.eq	3168 <TEE_CipherDoFinal+0xec>
/home/pwnz/devel/optee/optee_os/lib/libutee/tee_api_operations.c:1138
    3160:	2a1403e0 	mov	w0, w20
    3164:	94000478 	bl	4344 <TEE_Panic>
/home/pwnz/devel/optee/optee_os/lib/libutee/tee_api_operations.c:1141
    3168:	2a1403e0 	mov	w0, w20
    316c:	a94153f3 	ldp	x19, x20, [sp,#16]
    3170:	a9425bf5 	ldp	x21, x22, [sp,#32]
    3174:	a94363f7 	ldp	x23, x24, [sp,#48]
    3178:	a8c57bfd 	ldp	x29, x30, [sp],#80
    317c:	d65f03c0 	ret
/home/pwnz/devel/optee/optee_os/lib/libutee/tee_api_operations.c:1108
    3180:	910143b7 	add	x23, x29, #0x50
/home/pwnz/devel/optee/optee_os/lib/libutee/tee_api_operations.c:1109
    3184:	f100047f 	cmp	x3, #0x1
/home/pwnz/devel/optee/optee_os/lib/libutee/tee_api_operations.c:1108
    3188:	f81f8ee4 	str	x4, [x23,#-8]!
/home/pwnz/devel/optee/optee_os/lib/libutee/tee_api_operations.c:1109
    318c:	540003e9 	b.ls	3208 <TEE_CipherDoFinal+0x18c>
/home/pwnz/devel/optee/optee_os/lib/libutee/tee_api_operations.c:1110
    3190:	aa0203e3 	mov	x3, x2
    3194:	aa0103e2 	mov	x2, x1
    3198:	d0000041 	adrp	x1, d000 <__func__.3637+0xa28>
    319c:	aa1703e5 	mov	x5, x23
    31a0:	aa1803e4 	mov	x4, x24
    31a4:	aa1303e0 	mov	x0, x19
    31a8:	f9432021 	ldr	x1, [x1,#1600]
    31ac:	940003df 	bl	4128 <tee_buffer_update>
    31b0:	2a0003f4 	mov	w20, w0
/home/pwnz/devel/optee/optee_os/lib/libutee/tee_api_operations.c:1112
    31b4:	35fffce0 	cbnz	w0, 3150 <TEE_CipherDoFinal+0xd4>
/home/pwnz/devel/optee/optee_os/lib/libutee/tee_api_operations.c:1115
    31b8:	f94027b6 	ldr	x22, [x29,#72]
/home/pwnz/devel/optee/optee_os/lib/libutee/tee_api_operations.c:1119
    31bc:	aa1703e4 	mov	x4, x23
/home/pwnz/devel/optee/optee_os/lib/libutee/tee_api_operations.c:1118
    31c0:	b94002a0 	ldr	w0, [x21]
/home/pwnz/devel/optee/optee_os/lib/libutee/tee_api_operations.c:1119
    31c4:	f9401e61 	ldr	x1, [x19,#56]
    31c8:	8b160303 	add	x3, x24, x22
/home/pwnz/devel/optee/optee_os/lib/libutee/tee_api_operations.c:1118
    31cc:	cb160000 	sub	x0, x0, x22
/home/pwnz/devel/optee/optee_os/lib/libutee/tee_api_operations.c:1119
    31d0:	f9402a62 	ldr	x2, [x19,#80]
/home/pwnz/devel/optee/optee_os/lib/libutee/tee_api_operations.c:1118
    31d4:	f90027a0 	str	x0, [x29,#72]
/home/pwnz/devel/optee/optee_os/lib/libutee/tee_api_operations.c:1119
    31d8:	b9405a60 	ldr	w0, [x19,#88]
    31dc:	94000554 	bl	472c <utee_cipher_final>
    31e0:	2a0003f4 	mov	w20, w0
/home/pwnz/devel/optee/optee_os/lib/libutee/tee_api_operations.c:1125
    31e4:	35fffb74 	cbnz	w20, 3150 <TEE_CipherDoFinal+0xd4>
/home/pwnz/devel/optee/optee_os/lib/libutee/tee_api_operations.c:1128
    31e8:	f94027a0 	ldr	x0, [x29,#72]
    31ec:	8b0002d6 	add	x22, x22, x0
/home/pwnz/devel/optee/optee_os/lib/libutee/tee_api_operations.c:1129
    31f0:	b90002b6 	str	w22, [x21]
/home/pwnz/devel/optee/optee_os/lib/libutee/tee_api_operations.c:1133
    31f4:	b900327f 	str	wzr, [x19,#48]
/home/pwnz/devel/optee/optee_os/lib/libutee/tee_api_operations.c:1131
    31f8:	b9401e60 	ldr	w0, [x19,#28]
    31fc:	120e7800 	and	w0, w0, #0xfffdffff
    3200:	b9001e60 	str	w0, [x19,#28]
    3204:	17ffffd3 	b	3150 <TEE_CipherDoFinal+0xd4>
/home/pwnz/devel/optee/optee_os/lib/libutee/tee_api_operations.c:1122
    3208:	b9405a60 	ldr	w0, [x19,#88]
    320c:	aa1703e4 	mov	x4, x23
    3210:	aa1803e3 	mov	x3, x24
/home/pwnz/devel/optee/optee_os/lib/libutee/tee_api_operations.c:1048
    3214:	d2800016 	mov	x22, #0x0                   	// #0
/home/pwnz/devel/optee/optee_os/lib/libutee/tee_api_operations.c:1122
    3218:	94000545 	bl	472c <utee_cipher_final>
    321c:	2a0003f4 	mov	w20, w0
    3220:	17fffff1 	b	31e4 <TEE_CipherDoFinal+0x168>

0000000000003224 <TEE_MACInit>:
TEE_MACInit():
/home/pwnz/devel/optee/optee_os/lib/libutee/tee_api_operations.c:1146
    3224:	a9bd7bfd 	stp	x29, x30, [sp,#-48]!
    3228:	910003fd 	mov	x29, sp
    322c:	a90153f3 	stp	x19, x20, [sp,#16]
    3230:	aa0003f3 	mov	x19, x0
    3234:	f90013f5 	str	x21, [sp,#32]
    3238:	aa0103f4 	mov	x20, x1
    323c:	2a0203f5 	mov	w21, w2
/home/pwnz/devel/optee/optee_os/lib/libutee/tee_api_operations.c:1147
    3240:	b5000060 	cbnz	x0, 324c <TEE_MACInit+0x28>
/home/pwnz/devel/optee/optee_os/lib/libutee/tee_api_operations.c:1148
    3244:	52800000 	mov	w0, #0x0                   	// #0
    3248:	9400043f 	bl	4344 <TEE_Panic>
/home/pwnz/devel/optee/optee_os/lib/libutee/tee_api_operations.c:1150
    324c:	b9400660 	ldr	w0, [x19,#4]
    3250:	71000c1f 	cmp	w0, #0x3
    3254:	54000060 	b.eq	3260 <TEE_MACInit+0x3c>
/home/pwnz/devel/optee/optee_os/lib/libutee/tee_api_operations.c:1151
    3258:	52800000 	mov	w0, #0x0                   	// #0
    325c:	9400043a 	bl	4344 <TEE_Panic>
/home/pwnz/devel/optee/optee_os/lib/libutee/tee_api_operations.c:1153
    3260:	b9401e60 	ldr	w0, [x19,#28]
    3264:	36900060 	tbz	w0, #18, 3270 <TEE_MACInit+0x4c>
/home/pwnz/devel/optee/optee_os/lib/libutee/tee_api_operations.c:1153 (discriminator 1)
    3268:	f9401260 	ldr	x0, [x19,#32]
    326c:	b5000060 	cbnz	x0, 3278 <TEE_MACInit+0x54>
/home/pwnz/devel/optee/optee_os/lib/libutee/tee_api_operations.c:1155
    3270:	52800000 	mov	w0, #0x0                   	// #0
    3274:	94000434 	bl	4344 <TEE_Panic>
/home/pwnz/devel/optee/optee_os/lib/libutee/tee_api_operations.c:1157
    3278:	b9403260 	ldr	w0, [x19,#48]
    327c:	34000060 	cbz	w0, 3288 <TEE_MACInit+0x64>
/home/pwnz/devel/optee/optee_os/lib/libutee/tee_api_operations.c:1158
    3280:	aa1303e0 	mov	x0, x19
    3284:	97fffdab 	bl	2930 <TEE_ResetOperation>
/home/pwnz/devel/optee/optee_os/lib/libutee/tee_api_operations.c:1160
    3288:	52800020 	mov	w0, #0x1                   	// #1
    328c:	b9003260 	str	w0, [x19,#48]
init_hash_operation():
/home/pwnz/devel/optee/optee_os/lib/libutee/tee_api_operations.c:774
    3290:	b9405a60 	ldr	w0, [x19,#88]
    3294:	2a1503e2 	mov	w2, w21
    3298:	aa1403e1 	mov	x1, x20
    329c:	94000515 	bl	46f0 <utee_hash_init>
/home/pwnz/devel/optee/optee_os/lib/libutee/tee_api_operations.c:775
    32a0:	34000040 	cbz	w0, 32a8 <TEE_MACInit+0x84>
/home/pwnz/devel/optee/optee_os/lib/libutee/tee_api_operations.c:776
    32a4:	94000428 	bl	4344 <TEE_Panic>
/home/pwnz/devel/optee/optee_os/lib/libutee/tee_api_operations.c:778
    32a8:	b9401e60 	ldr	w0, [x19,#28]
TEE_MACInit():
/home/pwnz/devel/optee/optee_os/lib/libutee/tee_api_operations.c:1163
    32ac:	f94013f5 	ldr	x21, [sp,#32]
init_hash_operation():
/home/pwnz/devel/optee/optee_os/lib/libutee/tee_api_operations.c:778
    32b0:	320f0000 	orr	w0, w0, #0x20000
/home/pwnz/devel/optee/optee_os/lib/libutee/tee_api_operations.c:777
    32b4:	f9002a7f 	str	xzr, [x19,#80]
/home/pwnz/devel/optee/optee_os/lib/libutee/tee_api_operations.c:778
    32b8:	b9001e60 	str	w0, [x19,#28]
TEE_MACInit():
/home/pwnz/devel/optee/optee_os/lib/libutee/tee_api_operations.c:1163
    32bc:	a94153f3 	ldp	x19, x20, [sp,#16]
    32c0:	a8c37bfd 	ldp	x29, x30, [sp],#48
    32c4:	d65f03c0 	ret

00000000000032c8 <TEE_MACUpdate>:
TEE_MACUpdate():
/home/pwnz/devel/optee/optee_os/lib/libutee/tee_api_operations.c:1167
    32c8:	a9bd7bfd 	stp	x29, x30, [sp,#-48]!
    32cc:	910003fd 	mov	x29, sp
    32d0:	a90153f3 	stp	x19, x20, [sp,#16]
    32d4:	aa0003f3 	mov	x19, x0
    32d8:	f90013f5 	str	x21, [sp,#32]
    32dc:	aa0103f4 	mov	x20, x1
    32e0:	2a0203f5 	mov	w21, w2
/home/pwnz/devel/optee/optee_os/lib/libutee/tee_api_operations.c:1170
    32e4:	b4000080 	cbz	x0, 32f4 <TEE_MACUpdate+0x2c>
/home/pwnz/devel/optee/optee_os/lib/libutee/tee_api_operations.c:1170 (discriminator 1)
    32e8:	f100003f 	cmp	x1, #0x0
    32ec:	7a400844 	ccmp	w2, #0x0, #0x4, eq
    32f0:	54000060 	b.eq	32fc <TEE_MACUpdate+0x34>
/home/pwnz/devel/optee/optee_os/lib/libutee/tee_api_operations.c:1171
    32f4:	52800000 	mov	w0, #0x0                   	// #0
    32f8:	94000413 	bl	4344 <TEE_Panic>
/home/pwnz/devel/optee/optee_os/lib/libutee/tee_api_operations.c:1173
    32fc:	b9400660 	ldr	w0, [x19,#4]
    3300:	71000c1f 	cmp	w0, #0x3
    3304:	54000060 	b.eq	3310 <TEE_MACUpdate+0x48>
/home/pwnz/devel/optee/optee_os/lib/libutee/tee_api_operations.c:1174
    3308:	52800000 	mov	w0, #0x0                   	// #0
    330c:	9400040e 	bl	4344 <TEE_Panic>
/home/pwnz/devel/optee/optee_os/lib/libutee/tee_api_operations.c:1176
    3310:	b9401e60 	ldr	w0, [x19,#28]
    3314:	37880060 	tbnz	w0, #17, 3320 <TEE_MACUpdate+0x58>
/home/pwnz/devel/optee/optee_os/lib/libutee/tee_api_operations.c:1177
    3318:	52800000 	mov	w0, #0x0                   	// #0
    331c:	9400040a 	bl	4344 <TEE_Panic>
/home/pwnz/devel/optee/optee_os/lib/libutee/tee_api_operations.c:1179
    3320:	b9403260 	ldr	w0, [x19,#48]
    3324:	7100041f 	cmp	w0, #0x1
    3328:	54000060 	b.eq	3334 <TEE_MACUpdate+0x6c>
/home/pwnz/devel/optee/optee_os/lib/libutee/tee_api_operations.c:1180
    332c:	52800000 	mov	w0, #0x0                   	// #0
    3330:	94000405 	bl	4344 <TEE_Panic>
/home/pwnz/devel/optee/optee_os/lib/libutee/tee_api_operations.c:1182
    3334:	b9405a60 	ldr	w0, [x19,#88]
    3338:	2a1503e2 	mov	w2, w21
    333c:	aa1403e1 	mov	x1, x20
    3340:	940004ef 	bl	46fc <utee_hash_update>
/home/pwnz/devel/optee/optee_os/lib/libutee/tee_api_operations.c:1183
    3344:	340000a0 	cbz	w0, 3358 <TEE_MACUpdate+0x90>
/home/pwnz/devel/optee/optee_os/lib/libutee/tee_api_operations.c:1185
    3348:	a94153f3 	ldp	x19, x20, [sp,#16]
    334c:	f94013f5 	ldr	x21, [sp,#32]
    3350:	a8c37bfd 	ldp	x29, x30, [sp],#48
/home/pwnz/devel/optee/optee_os/lib/libutee/tee_api_operations.c:1184
    3354:	140003fc 	b	4344 <TEE_Panic>
/home/pwnz/devel/optee/optee_os/lib/libutee/tee_api_operations.c:1185
    3358:	a94153f3 	ldp	x19, x20, [sp,#16]
    335c:	f94013f5 	ldr	x21, [sp,#32]
    3360:	a8c37bfd 	ldp	x29, x30, [sp],#48
    3364:	d65f03c0 	ret

0000000000003368 <TEE_MACComputeFinal>:
TEE_MACComputeFinal():
/home/pwnz/devel/optee/optee_os/lib/libutee/tee_api_operations.c:1190
    3368:	a9bc7bfd 	stp	x29, x30, [sp,#-64]!
    336c:	910003fd 	mov	x29, sp
    3370:	a90153f3 	stp	x19, x20, [sp,#16]
    3374:	aa0003f3 	mov	x19, x0
    3378:	f90013f5 	str	x21, [sp,#32]
/home/pwnz/devel/optee/optee_os/lib/libutee/tee_api_operations.c:1198
    337c:	129fff34 	mov	w20, #0xffff0006            	// #-65530
/home/pwnz/devel/optee/optee_os/lib/libutee/tee_api_operations.c:1194
    3380:	b40003c0 	cbz	x0, 33f8 <TEE_MACComputeFinal+0x90>
/home/pwnz/devel/optee/optee_os/lib/libutee/tee_api_operations.c:1195 (discriminator 1)
    3384:	f100003f 	cmp	x1, #0x0
/home/pwnz/devel/optee/optee_os/lib/libutee/tee_api_operations.c:1194 (discriminator 1)
    3388:	7a400844 	ccmp	w2, #0x0, #0x4, eq
    338c:	54000361 	b.ne	33f8 <TEE_MACComputeFinal+0x90>
/home/pwnz/devel/optee/optee_os/lib/libutee/tee_api_operations.c:1196
    3390:	f100007f 	cmp	x3, #0x0
    3394:	aa0403f5 	mov	x21, x4
    3398:	fa401884 	ccmp	x4, #0x0, #0x4, ne
    339c:	540002e0 	b.eq	33f8 <TEE_MACComputeFinal+0x90>
/home/pwnz/devel/optee/optee_os/lib/libutee/tee_api_operations.c:1202
    33a0:	b9400660 	ldr	w0, [x19,#4]
    33a4:	71000c1f 	cmp	w0, #0x3
    33a8:	54000281 	b.ne	33f8 <TEE_MACComputeFinal+0x90>
/home/pwnz/devel/optee/optee_os/lib/libutee/tee_api_operations.c:1207
    33ac:	b9401e60 	ldr	w0, [x19,#28]
    33b0:	36880240 	tbz	w0, #17, 33f8 <TEE_MACComputeFinal+0x90>
/home/pwnz/devel/optee/optee_os/lib/libutee/tee_api_operations.c:1212
    33b4:	b9403260 	ldr	w0, [x19,#48]
    33b8:	7100041f 	cmp	w0, #0x1
    33bc:	540001e1 	b.ne	33f8 <TEE_MACComputeFinal+0x90>
/home/pwnz/devel/optee/optee_os/lib/libutee/tee_api_operations.c:1217
    33c0:	910103a4 	add	x4, x29, #0x40
    33c4:	b94002a0 	ldr	w0, [x21]
/home/pwnz/devel/optee/optee_os/lib/libutee/tee_api_operations.c:1218
    33c8:	2a0203e2 	mov	w2, w2
/home/pwnz/devel/optee/optee_os/lib/libutee/tee_api_operations.c:1217
    33cc:	f81f8c80 	str	x0, [x4,#-8]!
/home/pwnz/devel/optee/optee_os/lib/libutee/tee_api_operations.c:1218
    33d0:	b9405a60 	ldr	w0, [x19,#88]
    33d4:	940004cd 	bl	4708 <utee_hash_final>
    33d8:	2a0003f4 	mov	w20, w0
/home/pwnz/devel/optee/optee_os/lib/libutee/tee_api_operations.c:1219
    33dc:	f9401fa0 	ldr	x0, [x29,#56]
    33e0:	b90002a0 	str	w0, [x21]
/home/pwnz/devel/optee/optee_os/lib/libutee/tee_api_operations.c:1220
    33e4:	350000b4 	cbnz	w20, 33f8 <TEE_MACComputeFinal+0x90>
/home/pwnz/devel/optee/optee_os/lib/libutee/tee_api_operations.c:1223
    33e8:	b9401e60 	ldr	w0, [x19,#28]
/home/pwnz/devel/optee/optee_os/lib/libutee/tee_api_operations.c:1225
    33ec:	b900327f 	str	wzr, [x19,#48]
/home/pwnz/devel/optee/optee_os/lib/libutee/tee_api_operations.c:1223
    33f0:	120e7800 	and	w0, w0, #0xfffdffff
    33f4:	b9001e60 	str	w0, [x19,#28]
/home/pwnz/devel/optee/optee_os/lib/libutee/tee_api_operations.c:1228
    33f8:	7100029f 	cmp	w20, #0x0
    33fc:	129ffde0 	mov	w0, #0xffff0010            	// #-65520
    3400:	7a401284 	ccmp	w20, w0, #0x4, ne
    3404:	54000060 	b.eq	3410 <TEE_MACComputeFinal+0xa8>
/home/pwnz/devel/optee/optee_os/lib/libutee/tee_api_operations.c:1230
    3408:	2a1403e0 	mov	w0, w20
    340c:	940003ce 	bl	4344 <TEE_Panic>
/home/pwnz/devel/optee/optee_os/lib/libutee/tee_api_operations.c:1233
    3410:	2a1403e0 	mov	w0, w20
    3414:	f94013f5 	ldr	x21, [sp,#32]
    3418:	a94153f3 	ldp	x19, x20, [sp,#16]
    341c:	a8c47bfd 	ldp	x29, x30, [sp],#64
    3420:	d65f03c0 	ret

0000000000003424 <TEE_MACCompareFinal>:
TEE_MACCompareFinal():
/home/pwnz/devel/optee/optee_os/lib/libutee/tee_api_operations.c:1238
    3424:	a9b77bfd 	stp	x29, x30, [sp,#-144]!
    3428:	910003fd 	mov	x29, sp
    342c:	a9025bf5 	stp	x21, x22, [sp,#32]
    3430:	aa0303f6 	mov	x22, x3
/home/pwnz/devel/optee/optee_os/lib/libutee/tee_api_operations.c:1241
    3434:	52800803 	mov	w3, #0x40                  	// #64
/home/pwnz/devel/optee/optee_os/lib/libutee/tee_api_operations.c:1238
    3438:	a90153f3 	stp	x19, x20, [sp,#16]
/home/pwnz/devel/optee/optee_os/lib/libutee/tee_api_operations.c:1241
    343c:	b9004fa3 	str	w3, [x29,#76]
/home/pwnz/devel/optee/optee_os/lib/libutee/tee_api_operations.c:1244
    3440:	129fff33 	mov	w19, #0xffff0006            	// #-65530
/home/pwnz/devel/optee/optee_os/lib/libutee/tee_api_operations.c:1243
    3444:	b9400403 	ldr	w3, [x0,#4]
/home/pwnz/devel/optee/optee_os/lib/libutee/tee_api_operations.c:1238
    3448:	f9001bf7 	str	x23, [sp,#48]
/home/pwnz/devel/optee/optee_os/lib/libutee/tee_api_operations.c:1243
    344c:	71000c7f 	cmp	w3, #0x3
    3450:	54000241 	b.ne	3498 <TEE_MACCompareFinal+0x74>
/home/pwnz/devel/optee/optee_os/lib/libutee/tee_api_operations.c:1248
    3454:	b9401c03 	ldr	w3, [x0,#28]
    3458:	aa0003f4 	mov	x20, x0
    345c:	368801e3 	tbz	w3, #17, 3498 <TEE_MACCompareFinal+0x74>
/home/pwnz/devel/optee/optee_os/lib/libutee/tee_api_operations.c:1253
    3460:	b9403003 	ldr	w3, [x0,#48]
    3464:	7100047f 	cmp	w3, #0x1
    3468:	54000181 	b.ne	3498 <TEE_MACCompareFinal+0x74>
/home/pwnz/devel/optee/optee_os/lib/libutee/tee_api_operations.c:1258
    346c:	910143b5 	add	x21, x29, #0x50
    3470:	2a0403f7 	mov	w23, w4
    3474:	aa1503e3 	mov	x3, x21
    3478:	910133a4 	add	x4, x29, #0x4c
    347c:	97ffffbb 	bl	3368 <TEE_MACComputeFinal>
    3480:	2a0003f3 	mov	w19, w0
/home/pwnz/devel/optee/optee_os/lib/libutee/tee_api_operations.c:1260
    3484:	350000a0 	cbnz	w0, 3498 <TEE_MACCompareFinal+0x74>
/home/pwnz/devel/optee/optee_os/lib/libutee/tee_api_operations.c:1263
    3488:	b9404fa2 	ldr	w2, [x29,#76]
    348c:	6b17005f 	cmp	w2, w23
    3490:	540001c0 	b.eq	34c8 <TEE_MACCompareFinal+0xa4>
/home/pwnz/devel/optee/optee_os/lib/libutee/tee_api_operations.c:1264
    3494:	1299f1d3 	mov	w19, #0xffff3071            	// #-53135
/home/pwnz/devel/optee/optee_os/lib/libutee/tee_api_operations.c:1276
    3498:	7100027f 	cmp	w19, #0x0
    349c:	1299f1c0 	mov	w0, #0xffff3071            	// #-53135
    34a0:	7a401264 	ccmp	w19, w0, #0x4, ne
    34a4:	54000060 	b.eq	34b0 <TEE_MACCompareFinal+0x8c>
/home/pwnz/devel/optee/optee_os/lib/libutee/tee_api_operations.c:1278
    34a8:	2a1303e0 	mov	w0, w19
    34ac:	940003a6 	bl	4344 <TEE_Panic>
/home/pwnz/devel/optee/optee_os/lib/libutee/tee_api_operations.c:1281
    34b0:	2a1303e0 	mov	w0, w19
    34b4:	f9401bf7 	ldr	x23, [sp,#48]
    34b8:	a94153f3 	ldp	x19, x20, [sp,#16]
    34bc:	a9425bf5 	ldp	x21, x22, [sp,#32]
    34c0:	a8c97bfd 	ldp	x29, x30, [sp],#144
    34c4:	d65f03c0 	ret
/home/pwnz/devel/optee/optee_os/lib/libutee/tee_api_operations.c:1268
    34c8:	2a0203e2 	mov	w2, w2
    34cc:	aa1503e1 	mov	x1, x21
    34d0:	aa1603e0 	mov	x0, x22
    34d4:	94001051 	bl	7618 <buf_compare_ct>
    34d8:	35fffde0 	cbnz	w0, 3494 <TEE_MACCompareFinal+0x70>
/home/pwnz/devel/optee/optee_os/lib/libutee/tee_api_operations.c:1273
    34dc:	b900329f 	str	wzr, [x20,#48]
    34e0:	17ffffee 	b	3498 <TEE_MACCompareFinal+0x74>

00000000000034e4 <TEE_AEInit>:
TEE_AEInit():
/home/pwnz/devel/optee/optee_os/lib/libutee/tee_api_operations.c:1288
    34e4:	a9bd7bfd 	stp	x29, x30, [sp,#-48]!
/home/pwnz/devel/optee/optee_os/lib/libutee/tee_api_operations.c:1291
    34e8:	f100001f 	cmp	x0, #0x0
    34ec:	fa401824 	ccmp	x1, #0x0, #0x4, ne
/home/pwnz/devel/optee/optee_os/lib/libutee/tee_api_operations.c:1288
    34f0:	910003fd 	mov	x29, sp
    34f4:	a90153f3 	stp	x19, x20, [sp,#16]
/home/pwnz/devel/optee/optee_os/lib/libutee/tee_api_operations.c:1292
    34f8:	129fff34 	mov	w20, #0xffff0006            	// #-65530
/home/pwnz/devel/optee/optee_os/lib/libutee/tee_api_operations.c:1288
    34fc:	f90013f5 	str	x21, [sp,#32]
/home/pwnz/devel/optee/optee_os/lib/libutee/tee_api_operations.c:1291
    3500:	540003e0 	b.eq	357c <TEE_AEInit+0x98>
    3504:	aa0003f3 	mov	x19, x0
/home/pwnz/devel/optee/optee_os/lib/libutee/tee_api_operations.c:1296
    3508:	b9400400 	ldr	w0, [x0,#4]
    350c:	7100101f 	cmp	w0, #0x4
    3510:	54000361 	b.ne	357c <TEE_AEInit+0x98>
/home/pwnz/devel/optee/optee_os/lib/libutee/tee_api_operations.c:1301
    3514:	b9403260 	ldr	w0, [x19,#48]
    3518:	35000320 	cbnz	w0, 357c <TEE_AEInit+0x98>
/home/pwnz/devel/optee/optee_os/lib/libutee/tee_api_operations.c:1312
    351c:	b9400266 	ldr	w6, [x19]
    3520:	52810200 	mov	w0, #0x810                 	// #2064
    3524:	72a80000 	movk	w0, #0x4000, lsl #16
    3528:	6b0000df 	cmp	w6, w0
    352c:	540000e1 	b.ne	3548 <TEE_AEInit+0x64>
/home/pwnz/devel/optee/optee_os/lib/libutee/tee_api_operations.c:1316
    3530:	51018060 	sub	w0, w3, #0x60
/home/pwnz/devel/optee/optee_os/lib/libutee/tee_api_operations.c:1317
    3534:	129ffeb4 	mov	w20, #0xffff000a            	// #-65526
/home/pwnz/devel/optee/optee_os/lib/libutee/tee_api_operations.c:1316
    3538:	7100801f 	cmp	w0, #0x20
    353c:	54000208 	b.hi	357c <TEE_AEInit+0x98>
/home/pwnz/devel/optee/optee_os/lib/libutee/tee_api_operations.c:1316 (discriminator 1)
    3540:	f240087f 	tst	x3, #0x7
    3544:	540001c1 	b.ne	357c <TEE_AEInit+0x98>
/home/pwnz/devel/optee/optee_os/lib/libutee/tee_api_operations.c:1322
    3548:	b9405a60 	ldr	w0, [x19,#88]
/home/pwnz/devel/optee/optee_os/lib/libutee/tee_api_operations.c:1323
    354c:	53037c75 	lsr	w21, w3, #3
/home/pwnz/devel/optee/optee_os/lib/libutee/tee_api_operations.c:1322
    3550:	2a0503e5 	mov	w5, w5
    3554:	2a0403e4 	mov	w4, w4
    3558:	924072a3 	and	x3, x21, #0x1fffffff
    355c:	2a0203e2 	mov	w2, w2
    3560:	94000494 	bl	47b0 <utee_authenc_init>
    3564:	2a0003f4 	mov	w20, w0
/home/pwnz/devel/optee/optee_os/lib/libutee/tee_api_operations.c:1324
    3568:	350000a0 	cbnz	w0, 357c <TEE_AEInit+0x98>
/home/pwnz/devel/optee/optee_os/lib/libutee/tee_api_operations.c:1328
    356c:	b9401e60 	ldr	w0, [x19,#28]
/home/pwnz/devel/optee/optee_os/lib/libutee/tee_api_operations.c:1327
    3570:	b9005e75 	str	w21, [x19,#92]
/home/pwnz/devel/optee/optee_os/lib/libutee/tee_api_operations.c:1328
    3574:	320f0000 	orr	w0, w0, #0x20000
    3578:	b9001e60 	str	w0, [x19,#28]
/home/pwnz/devel/optee/optee_os/lib/libutee/tee_api_operations.c:1331
    357c:	7100029f 	cmp	w20, #0x0
    3580:	129ffea0 	mov	w0, #0xffff000a            	// #-65526
    3584:	7a401284 	ccmp	w20, w0, #0x4, ne
    3588:	54000060 	b.eq	3594 <TEE_AEInit+0xb0>
/home/pwnz/devel/optee/optee_os/lib/libutee/tee_api_operations.c:1333
    358c:	2a1403e0 	mov	w0, w20
    3590:	9400036d 	bl	4344 <TEE_Panic>
/home/pwnz/devel/optee/optee_os/lib/libutee/tee_api_operations.c:1336
    3594:	2a1403e0 	mov	w0, w20
    3598:	f94013f5 	ldr	x21, [sp,#32]
    359c:	a94153f3 	ldp	x19, x20, [sp,#16]
    35a0:	a8c37bfd 	ldp	x29, x30, [sp],#48
    35a4:	d65f03c0 	ret

00000000000035a8 <TEE_AEUpdateAAD>:
TEE_AEUpdateAAD():
/home/pwnz/devel/optee/optee_os/lib/libutee/tee_api_operations.c:1340
    35a8:	a9bd7bfd 	stp	x29, x30, [sp,#-48]!
    35ac:	910003fd 	mov	x29, sp
    35b0:	a90153f3 	stp	x19, x20, [sp,#16]
    35b4:	aa0003f3 	mov	x19, x0
    35b8:	f90013f5 	str	x21, [sp,#32]
    35bc:	aa0103f4 	mov	x20, x1
    35c0:	2a0203f5 	mov	w21, w2
/home/pwnz/devel/optee/optee_os/lib/libutee/tee_api_operations.c:1343
    35c4:	b4000080 	cbz	x0, 35d4 <TEE_AEUpdateAAD+0x2c>
/home/pwnz/devel/optee/optee_os/lib/libutee/tee_api_operations.c:1344 (discriminator 1)
    35c8:	f100003f 	cmp	x1, #0x0
/home/pwnz/devel/optee/optee_os/lib/libutee/tee_api_operations.c:1343 (discriminator 1)
    35cc:	7a400844 	ccmp	w2, #0x0, #0x4, eq
    35d0:	54000060 	b.eq	35dc <TEE_AEUpdateAAD+0x34>
/home/pwnz/devel/optee/optee_os/lib/libutee/tee_api_operations.c:1345
    35d4:	52800000 	mov	w0, #0x0                   	// #0
    35d8:	9400035b 	bl	4344 <TEE_Panic>
/home/pwnz/devel/optee/optee_os/lib/libutee/tee_api_operations.c:1347
    35dc:	b9400660 	ldr	w0, [x19,#4]
    35e0:	7100101f 	cmp	w0, #0x4
    35e4:	54000060 	b.eq	35f0 <TEE_AEUpdateAAD+0x48>
/home/pwnz/devel/optee/optee_os/lib/libutee/tee_api_operations.c:1348
    35e8:	52800000 	mov	w0, #0x0                   	// #0
    35ec:	94000356 	bl	4344 <TEE_Panic>
/home/pwnz/devel/optee/optee_os/lib/libutee/tee_api_operations.c:1350
    35f0:	b9401e60 	ldr	w0, [x19,#28]
    35f4:	37880060 	tbnz	w0, #17, 3600 <TEE_AEUpdateAAD+0x58>
/home/pwnz/devel/optee/optee_os/lib/libutee/tee_api_operations.c:1351
    35f8:	52800000 	mov	w0, #0x0                   	// #0
    35fc:	94000352 	bl	4344 <TEE_Panic>
/home/pwnz/devel/optee/optee_os/lib/libutee/tee_api_operations.c:1353
    3600:	b9405a60 	ldr	w0, [x19,#88]
    3604:	aa1403e1 	mov	x1, x20
    3608:	2a1503e2 	mov	w2, w21
    360c:	9400046c 	bl	47bc <utee_authenc_update_aad>
/home/pwnz/devel/optee/optee_os/lib/libutee/tee_api_operations.c:1355
    3610:	52800021 	mov	w1, #0x1                   	// #1
    3614:	b9003261 	str	w1, [x19,#48]
/home/pwnz/devel/optee/optee_os/lib/libutee/tee_api_operations.c:1357
    3618:	340000a0 	cbz	w0, 362c <TEE_AEUpdateAAD+0x84>
/home/pwnz/devel/optee/optee_os/lib/libutee/tee_api_operations.c:1359
    361c:	a94153f3 	ldp	x19, x20, [sp,#16]
    3620:	f94013f5 	ldr	x21, [sp,#32]
    3624:	a8c37bfd 	ldp	x29, x30, [sp],#48
/home/pwnz/devel/optee/optee_os/lib/libutee/tee_api_operations.c:1358
    3628:	14000347 	b	4344 <TEE_Panic>
/home/pwnz/devel/optee/optee_os/lib/libutee/tee_api_operations.c:1359
    362c:	a94153f3 	ldp	x19, x20, [sp,#16]
    3630:	f94013f5 	ldr	x21, [sp,#32]
    3634:	a8c37bfd 	ldp	x29, x30, [sp],#48
    3638:	d65f03c0 	ret

000000000000363c <TEE_AEUpdate>:
TEE_AEUpdate():
/home/pwnz/devel/optee/optee_os/lib/libutee/tee_api_operations.c:1363
    363c:	a9bc7bfd 	stp	x29, x30, [sp,#-64]!
    3640:	910003fd 	mov	x29, sp
    3644:	a90153f3 	stp	x19, x20, [sp,#16]
/home/pwnz/devel/optee/optee_os/lib/libutee/tee_api_operations.c:1372
    3648:	129fff33 	mov	w19, #0xffff0006            	// #-65530
/home/pwnz/devel/optee/optee_os/lib/libutee/tee_api_operations.c:1363
    364c:	f90013f5 	str	x21, [sp,#32]
/home/pwnz/devel/optee/optee_os/lib/libutee/tee_api_operations.c:1368
    3650:	b4000560 	cbz	x0, 36fc <TEE_AEUpdate+0xc0>
/home/pwnz/devel/optee/optee_os/lib/libutee/tee_api_operations.c:1369 (discriminator 1)
    3654:	f100003f 	cmp	x1, #0x0
    3658:	aa0403f5 	mov	x21, x4
    365c:	1a9f17e4 	cset	w4, eq
    3660:	7100005f 	cmp	w2, #0x0
    3664:	aa0003f4 	mov	x20, x0
    3668:	1a9f07e0 	cset	w0, ne
    366c:	f10002bf 	cmp	x21, #0x0
    3670:	2a0203e5 	mov	w5, w2
    3674:	0a000082 	and	w2, w4, w0
    3678:	1a9f17e0 	cset	w0, eq
    367c:	2a020000 	orr	w0, w0, w2
    3680:	350003e0 	cbnz	w0, 36fc <TEE_AEUpdate+0xc0>
/home/pwnz/devel/optee/optee_os/lib/libutee/tee_api_operations.c:1370
    3684:	b5000063 	cbnz	x3, 3690 <TEE_AEUpdate+0x54>
/home/pwnz/devel/optee/optee_os/lib/libutee/tee_api_operations.c:1371
    3688:	b94002a0 	ldr	w0, [x21]
    368c:	35000380 	cbnz	w0, 36fc <TEE_AEUpdate+0xc0>
/home/pwnz/devel/optee/optee_os/lib/libutee/tee_api_operations.c:1376
    3690:	b9400680 	ldr	w0, [x20,#4]
/home/pwnz/devel/optee/optee_os/lib/libutee/tee_api_operations.c:1372
    3694:	129fff33 	mov	w19, #0xffff0006            	// #-65530
/home/pwnz/devel/optee/optee_os/lib/libutee/tee_api_operations.c:1376
    3698:	7100101f 	cmp	w0, #0x4
    369c:	54000301 	b.ne	36fc <TEE_AEUpdate+0xc0>
/home/pwnz/devel/optee/optee_os/lib/libutee/tee_api_operations.c:1381
    36a0:	b9401e80 	ldr	w0, [x20,#28]
    36a4:	368802c0 	tbz	w0, #17, 36fc <TEE_AEUpdate+0xc0>
/home/pwnz/devel/optee/optee_os/lib/libutee/tee_api_operations.c:1386
    36a8:	710000bf 	cmp	w5, #0x0
    36ac:	1a9f17e0 	cset	w0, eq
    36b0:	6a00009f 	tst	w4, w0
    36b4:	54000080 	b.eq	36c4 <TEE_AEUpdate+0x88>
/home/pwnz/devel/optee/optee_os/lib/libutee/tee_api_operations.c:1387
    36b8:	b90002bf 	str	wzr, [x21]
/home/pwnz/devel/optee/optee_os/lib/libutee/tee_api_operations.c:1429
    36bc:	52800013 	mov	w19, #0x0                   	// #0
    36c0:	1400000f 	b	36fc <TEE_AEUpdate+0xc0>
/home/pwnz/devel/optee/optee_os/lib/libutee/tee_api_operations.c:1397
    36c4:	f9402684 	ldr	x4, [x20,#72]
    36c8:	2a0503e2 	mov	w2, w5
/home/pwnz/devel/optee/optee_os/lib/libutee/tee_api_operations.c:1401
    36cc:	aa0203e0 	mov	x0, x2
/home/pwnz/devel/optee/optee_os/lib/libutee/tee_api_operations.c:1397
    36d0:	f100049f 	cmp	x4, #0x1
    36d4:	540000a9 	b.ls	36e8 <TEE_AEUpdate+0xac>
/home/pwnz/devel/optee/optee_os/lib/libutee/tee_api_operations.c:1398
    36d8:	f9402a80 	ldr	x0, [x20,#80]
    36dc:	cb0403e6 	neg	x6, x4
    36e0:	8b000040 	add	x0, x2, x0
    36e4:	8a060000 	and	x0, x0, x6
/home/pwnz/devel/optee/optee_os/lib/libutee/tee_api_operations.c:1404
    36e8:	b94002a6 	ldr	w6, [x21]
    36ec:	eb06001f 	cmp	x0, x6
    36f0:	540001c9 	b.ls	3728 <TEE_AEUpdate+0xec>
/home/pwnz/devel/optee/optee_os/lib/libutee/tee_api_operations.c:1406
    36f4:	129ffdf3 	mov	w19, #0xffff0010            	// #-65520
/home/pwnz/devel/optee/optee_os/lib/libutee/tee_api_operations.c:1405
    36f8:	b90002a0 	str	w0, [x21]
/home/pwnz/devel/optee/optee_os/lib/libutee/tee_api_operations.c:1432
    36fc:	7100027f 	cmp	w19, #0x0
    3700:	129ffde0 	mov	w0, #0xffff0010            	// #-65520
    3704:	7a401264 	ccmp	w19, w0, #0x4, ne
    3708:	54000060 	b.eq	3714 <TEE_AEUpdate+0xd8>
/home/pwnz/devel/optee/optee_os/lib/libutee/tee_api_operations.c:1434
    370c:	2a1303e0 	mov	w0, w19
    3710:	9400030d 	bl	4344 <TEE_Panic>
/home/pwnz/devel/optee/optee_os/lib/libutee/tee_api_operations.c:1437
    3714:	2a1303e0 	mov	w0, w19
    3718:	f94013f5 	ldr	x21, [sp,#32]
    371c:	a94153f3 	ldp	x19, x20, [sp,#16]
    3720:	a8c47bfd 	ldp	x29, x30, [sp],#64
    3724:	d65f03c0 	ret
/home/pwnz/devel/optee/optee_os/lib/libutee/tee_api_operations.c:1410
    3728:	f9001fa6 	str	x6, [x29,#56]
/home/pwnz/devel/optee/optee_os/lib/libutee/tee_api_operations.c:1411
    372c:	f100049f 	cmp	x4, #0x1
    3730:	54000209 	b.ls	3770 <TEE_AEUpdate+0x134>
/home/pwnz/devel/optee/optee_os/lib/libutee/tee_api_operations.c:1412
    3734:	aa0303e4 	mov	x4, x3
    3738:	aa0203e3 	mov	x3, x2
    373c:	aa0103e2 	mov	x2, x1
    3740:	d0000041 	adrp	x1, d000 <__func__.3637+0xa28>
    3744:	9100e3a5 	add	x5, x29, #0x38
    3748:	aa1403e0 	mov	x0, x20
    374c:	f9430c21 	ldr	x1, [x1,#1560]
    3750:	94000276 	bl	4128 <tee_buffer_update>
/home/pwnz/devel/optee/optee_os/lib/libutee/tee_api_operations.c:1416
    3754:	2a0003f3 	mov	w19, w0
/home/pwnz/devel/optee/optee_os/lib/libutee/tee_api_operations.c:1424
    3758:	35fffd20 	cbnz	w0, 36fc <TEE_AEUpdate+0xc0>
/home/pwnz/devel/optee/optee_os/lib/libutee/tee_api_operations.c:1427
    375c:	f9401fa0 	ldr	x0, [x29,#56]
    3760:	b90002a0 	str	w0, [x21]
/home/pwnz/devel/optee/optee_os/lib/libutee/tee_api_operations.c:1429
    3764:	52800020 	mov	w0, #0x1                   	// #1
    3768:	b9003280 	str	w0, [x20,#48]
    376c:	17ffffd4 	b	36bc <TEE_AEUpdate+0x80>
/home/pwnz/devel/optee/optee_os/lib/libutee/tee_api_operations.c:1415
    3770:	340000a5 	cbz	w5, 3784 <TEE_AEUpdate+0x148>
/home/pwnz/devel/optee/optee_os/lib/libutee/tee_api_operations.c:1416
    3774:	b9405a80 	ldr	w0, [x20,#88]
    3778:	9100e3a4 	add	x4, x29, #0x38
    377c:	94000413 	bl	47c8 <utee_authenc_update_payload>
    3780:	17fffff5 	b	3754 <TEE_AEUpdate+0x118>
/home/pwnz/devel/optee/optee_os/lib/libutee/tee_api_operations.c:1420
    3784:	f9001fbf 	str	xzr, [x29,#56]
    3788:	17fffff5 	b	375c <TEE_AEUpdate+0x120>

000000000000378c <TEE_AEEncryptFinal>:
TEE_AEEncryptFinal():
/home/pwnz/devel/optee/optee_os/lib/libutee/tee_api_operations.c:1443
    378c:	a9ba7bfd 	stp	x29, x30, [sp,#-96]!
    3790:	910003fd 	mov	x29, sp
    3794:	a90153f3 	stp	x19, x20, [sp,#16]
/home/pwnz/devel/optee/optee_os/lib/libutee/tee_api_operations.c:1456
    3798:	129fff33 	mov	w19, #0xffff0006            	// #-65530
/home/pwnz/devel/optee/optee_os/lib/libutee/tee_api_operations.c:1443
    379c:	a9025bf5 	stp	x21, x22, [sp,#32]
    37a0:	a90363f7 	stp	x23, x24, [sp,#48]
    37a4:	a9046bf9 	stp	x25, x26, [sp,#64]
/home/pwnz/devel/optee/optee_os/lib/libutee/tee_api_operations.c:1451
    37a8:	b40003c0 	cbz	x0, 3820 <TEE_AEEncryptFinal+0x94>
/home/pwnz/devel/optee/optee_os/lib/libutee/tee_api_operations.c:1452 (discriminator 1)
    37ac:	f100003f 	cmp	x1, #0x0
    37b0:	aa0403f5 	mov	x21, x4
    37b4:	7a400844 	ccmp	w2, #0x0, #0x4, eq
    37b8:	fa400884 	ccmp	x4, #0x0, #0x4, eq
    37bc:	54000320 	b.eq	3820 <TEE_AEEncryptFinal+0x94>
    37c0:	aa0003f4 	mov	x20, x0
    37c4:	aa0303f9 	mov	x25, x3
    37c8:	aa0503fa 	mov	x26, x5
    37cc:	aa0603f8 	mov	x24, x6
/home/pwnz/devel/optee/optee_os/lib/libutee/tee_api_operations.c:1453
    37d0:	b5000063 	cbnz	x3, 37dc <TEE_AEEncryptFinal+0x50>
/home/pwnz/devel/optee/optee_os/lib/libutee/tee_api_operations.c:1454
    37d4:	b9400080 	ldr	w0, [x4]
    37d8:	35000240 	cbnz	w0, 3820 <TEE_AEEncryptFinal+0x94>
/home/pwnz/devel/optee/optee_os/lib/libutee/tee_api_operations.c:1455
    37dc:	f100035f 	cmp	x26, #0x0
/home/pwnz/devel/optee/optee_os/lib/libutee/tee_api_operations.c:1456
    37e0:	129fff33 	mov	w19, #0xffff0006            	// #-65530
/home/pwnz/devel/optee/optee_os/lib/libutee/tee_api_operations.c:1455
    37e4:	fa401b04 	ccmp	x24, #0x0, #0x4, ne
    37e8:	540001c0 	b.eq	3820 <TEE_AEEncryptFinal+0x94>
/home/pwnz/devel/optee/optee_os/lib/libutee/tee_api_operations.c:1460
    37ec:	b9400680 	ldr	w0, [x20,#4]
    37f0:	7100101f 	cmp	w0, #0x4
    37f4:	54000161 	b.ne	3820 <TEE_AEEncryptFinal+0x94>
/home/pwnz/devel/optee/optee_os/lib/libutee/tee_api_operations.c:1465
    37f8:	b9401e80 	ldr	w0, [x20,#28]
    37fc:	36880120 	tbz	w0, #17, 3820 <TEE_AEEncryptFinal+0x94>
/home/pwnz/devel/optee/optee_os/lib/libutee/tee_api_operations.c:1475
    3800:	f9402a80 	ldr	x0, [x20,#80]
    3804:	2a0203e2 	mov	w2, w2
/home/pwnz/devel/optee/optee_os/lib/libutee/tee_api_operations.c:1476
    3808:	b94002a3 	ldr	w3, [x21]
/home/pwnz/devel/optee/optee_os/lib/libutee/tee_api_operations.c:1475
    380c:	8b000040 	add	x0, x2, x0
/home/pwnz/devel/optee/optee_os/lib/libutee/tee_api_operations.c:1476
    3810:	eb03001f 	cmp	x0, x3
    3814:	54000209 	b.ls	3854 <TEE_AEEncryptFinal+0xc8>
/home/pwnz/devel/optee/optee_os/lib/libutee/tee_api_operations.c:1477
    3818:	b90002a0 	str	w0, [x21]
/home/pwnz/devel/optee/optee_os/lib/libutee/tee_api_operations.c:1488
    381c:	129ffdf3 	mov	w19, #0xffff0010            	// #-65520
/home/pwnz/devel/optee/optee_os/lib/libutee/tee_api_operations.c:1525
    3820:	7100027f 	cmp	w19, #0x0
    3824:	129ffde0 	mov	w0, #0xffff0010            	// #-65520
    3828:	7a401264 	ccmp	w19, w0, #0x4, ne
    382c:	54000060 	b.eq	3838 <TEE_AEEncryptFinal+0xac>
/home/pwnz/devel/optee/optee_os/lib/libutee/tee_api_operations.c:1527
    3830:	2a1303e0 	mov	w0, w19
    3834:	940002c4 	bl	4344 <TEE_Panic>
/home/pwnz/devel/optee/optee_os/lib/libutee/tee_api_operations.c:1530
    3838:	2a1303e0 	mov	w0, w19
    383c:	a94153f3 	ldp	x19, x20, [sp,#16]
    3840:	a9425bf5 	ldp	x21, x22, [sp,#32]
    3844:	a94363f7 	ldp	x23, x24, [sp,#48]
    3848:	a9446bf9 	ldp	x25, x26, [sp,#64]
    384c:	a8c67bfd 	ldp	x29, x30, [sp],#96
    3850:	d65f03c0 	ret
/home/pwnz/devel/optee/optee_os/lib/libutee/tee_api_operations.c:1486
    3854:	b9405e84 	ldr	w4, [x20,#92]
    3858:	b9400300 	ldr	w0, [x24]
    385c:	6b04001f 	cmp	w0, w4
    3860:	54000062 	b.cs	386c <TEE_AEEncryptFinal+0xe0>
/home/pwnz/devel/optee/optee_os/lib/libutee/tee_api_operations.c:1487
    3864:	b9000304 	str	w4, [x24]
    3868:	17ffffed 	b	381c <TEE_AEEncryptFinal+0x90>
/home/pwnz/devel/optee/optee_os/lib/libutee/tee_api_operations.c:1493
    386c:	910183b7 	add	x23, x29, #0x60
/home/pwnz/devel/optee/optee_os/lib/libutee/tee_api_operations.c:1492
    3870:	2a0003e0 	mov	w0, w0
    3874:	f9002fa0 	str	x0, [x29,#88]
/home/pwnz/devel/optee/optee_os/lib/libutee/tee_api_operations.c:1494
    3878:	f9402680 	ldr	x0, [x20,#72]
/home/pwnz/devel/optee/optee_os/lib/libutee/tee_api_operations.c:1493
    387c:	f81f0ee3 	str	x3, [x23,#-16]!
/home/pwnz/devel/optee/optee_os/lib/libutee/tee_api_operations.c:1494
    3880:	f100041f 	cmp	x0, #0x1
    3884:	54000469 	b.ls	3910 <TEE_AEEncryptFinal+0x184>
/home/pwnz/devel/optee/optee_os/lib/libutee/tee_api_operations.c:1495
    3888:	aa0203e3 	mov	x3, x2
    388c:	aa0103e2 	mov	x2, x1
    3890:	d0000041 	adrp	x1, d000 <__func__.3637+0xa28>
    3894:	aa1703e5 	mov	x5, x23
    3898:	aa1903e4 	mov	x4, x25
    389c:	aa1403e0 	mov	x0, x20
    38a0:	f9430c21 	ldr	x1, [x1,#1560]
    38a4:	94000221 	bl	4128 <tee_buffer_update>
    38a8:	2a0003f3 	mov	w19, w0
/home/pwnz/devel/optee/optee_os/lib/libutee/tee_api_operations.c:1497
    38ac:	35fffba0 	cbnz	w0, 3820 <TEE_AEEncryptFinal+0x94>
/home/pwnz/devel/optee/optee_os/lib/libutee/tee_api_operations.c:1500
    38b0:	f9402bb6 	ldr	x22, [x29,#80]
/home/pwnz/devel/optee/optee_os/lib/libutee/tee_api_operations.c:1504
    38b4:	910163a6 	add	x6, x29, #0x58
/home/pwnz/devel/optee/optee_os/lib/libutee/tee_api_operations.c:1503
    38b8:	b94002a0 	ldr	w0, [x21]
/home/pwnz/devel/optee/optee_os/lib/libutee/tee_api_operations.c:1504
    38bc:	aa1a03e5 	mov	x5, x26
    38c0:	f9401e81 	ldr	x1, [x20,#56]
    38c4:	aa1703e4 	mov	x4, x23
/home/pwnz/devel/optee/optee_os/lib/libutee/tee_api_operations.c:1503
    38c8:	cb160000 	sub	x0, x0, x22
/home/pwnz/devel/optee/optee_os/lib/libutee/tee_api_operations.c:1504
    38cc:	f9402a82 	ldr	x2, [x20,#80]
/home/pwnz/devel/optee/optee_os/lib/libutee/tee_api_operations.c:1503
    38d0:	f9002ba0 	str	x0, [x29,#80]
/home/pwnz/devel/optee/optee_os/lib/libutee/tee_api_operations.c:1504
    38d4:	8b160323 	add	x3, x25, x22
    38d8:	b9405a80 	ldr	w0, [x20,#88]
    38dc:	940003be 	bl	47d4 <utee_authenc_enc_final>
    38e0:	2a0003f3 	mov	w19, w0
/home/pwnz/devel/optee/optee_os/lib/libutee/tee_api_operations.c:1513
    38e4:	f9402fa0 	ldr	x0, [x29,#88]
    38e8:	b9000300 	str	w0, [x24]
/home/pwnz/devel/optee/optee_os/lib/libutee/tee_api_operations.c:1514
    38ec:	35fff9b3 	cbnz	w19, 3820 <TEE_AEEncryptFinal+0x94>
/home/pwnz/devel/optee/optee_os/lib/libutee/tee_api_operations.c:1517
    38f0:	f9402ba0 	ldr	x0, [x29,#80]
    38f4:	8b0002d6 	add	x22, x22, x0
/home/pwnz/devel/optee/optee_os/lib/libutee/tee_api_operations.c:1518
    38f8:	b90002b6 	str	w22, [x21]
/home/pwnz/devel/optee/optee_os/lib/libutee/tee_api_operations.c:1522
    38fc:	b900329f 	str	wzr, [x20,#48]
/home/pwnz/devel/optee/optee_os/lib/libutee/tee_api_operations.c:1520
    3900:	b9401e80 	ldr	w0, [x20,#28]
    3904:	120e7800 	and	w0, w0, #0xfffdffff
    3908:	b9001e80 	str	w0, [x20,#28]
    390c:	17ffffc5 	b	3820 <TEE_AEEncryptFinal+0x94>
/home/pwnz/devel/optee/optee_os/lib/libutee/tee_api_operations.c:1509
    3910:	b9405a80 	ldr	w0, [x20,#88]
    3914:	910163a6 	add	x6, x29, #0x58
    3918:	aa1a03e5 	mov	x5, x26
    391c:	aa1703e4 	mov	x4, x23
    3920:	aa1903e3 	mov	x3, x25
/home/pwnz/devel/optee/optee_os/lib/libutee/tee_api_operations.c:1446
    3924:	d2800016 	mov	x22, #0x0                   	// #0
/home/pwnz/devel/optee/optee_os/lib/libutee/tee_api_operations.c:1509
    3928:	940003ab 	bl	47d4 <utee_authenc_enc_final>
    392c:	2a0003f3 	mov	w19, w0
    3930:	17ffffed 	b	38e4 <TEE_AEEncryptFinal+0x158>

0000000000003934 <TEE_AEDecryptFinal>:
TEE_AEDecryptFinal():
/home/pwnz/devel/optee/optee_os/lib/libutee/tee_api_operations.c:1536
    3934:	a9ba7bfd 	stp	x29, x30, [sp,#-96]!
    3938:	910003fd 	mov	x29, sp
    393c:	a90153f3 	stp	x19, x20, [sp,#16]
/home/pwnz/devel/optee/optee_os/lib/libutee/tee_api_operations.c:1548
    3940:	129fff33 	mov	w19, #0xffff0006            	// #-65530
/home/pwnz/devel/optee/optee_os/lib/libutee/tee_api_operations.c:1536
    3944:	a9025bf5 	stp	x21, x22, [sp,#32]
    3948:	a90363f7 	stp	x23, x24, [sp,#48]
    394c:	a9046bf9 	stp	x25, x26, [sp,#64]
/home/pwnz/devel/optee/optee_os/lib/libutee/tee_api_operations.c:1543
    3950:	b40003c0 	cbz	x0, 39c8 <TEE_AEDecryptFinal+0x94>
/home/pwnz/devel/optee/optee_os/lib/libutee/tee_api_operations.c:1544 (discriminator 1)
    3954:	f100003f 	cmp	x1, #0x0
    3958:	aa0403f5 	mov	x21, x4
    395c:	7a400844 	ccmp	w2, #0x0, #0x4, eq
    3960:	fa400884 	ccmp	x4, #0x0, #0x4, eq
    3964:	54000320 	b.eq	39c8 <TEE_AEDecryptFinal+0x94>
    3968:	aa0003f4 	mov	x20, x0
    396c:	aa0303f9 	mov	x25, x3
    3970:	aa0503fa 	mov	x26, x5
    3974:	2a0603f8 	mov	w24, w6
/home/pwnz/devel/optee/optee_os/lib/libutee/tee_api_operations.c:1545
    3978:	b5000063 	cbnz	x3, 3984 <TEE_AEDecryptFinal+0x50>
/home/pwnz/devel/optee/optee_os/lib/libutee/tee_api_operations.c:1546
    397c:	b9400080 	ldr	w0, [x4]
    3980:	35000240 	cbnz	w0, 39c8 <TEE_AEDecryptFinal+0x94>
/home/pwnz/devel/optee/optee_os/lib/libutee/tee_api_operations.c:1547 (discriminator 1)
    3984:	f100035f 	cmp	x26, #0x0
/home/pwnz/devel/optee/optee_os/lib/libutee/tee_api_operations.c:1548 (discriminator 1)
    3988:	129fff33 	mov	w19, #0xffff0006            	// #-65530
/home/pwnz/devel/optee/optee_os/lib/libutee/tee_api_operations.c:1546 (discriminator 1)
    398c:	7a400b04 	ccmp	w24, #0x0, #0x4, eq
    3990:	540001c1 	b.ne	39c8 <TEE_AEDecryptFinal+0x94>
/home/pwnz/devel/optee/optee_os/lib/libutee/tee_api_operations.c:1552
    3994:	b9400680 	ldr	w0, [x20,#4]
    3998:	7100101f 	cmp	w0, #0x4
    399c:	54000161 	b.ne	39c8 <TEE_AEDecryptFinal+0x94>
/home/pwnz/devel/optee/optee_os/lib/libutee/tee_api_operations.c:1557
    39a0:	b9401e80 	ldr	w0, [x20,#28]
    39a4:	36880120 	tbz	w0, #17, 39c8 <TEE_AEDecryptFinal+0x94>
/home/pwnz/devel/optee/optee_os/lib/libutee/tee_api_operations.c:1567
    39a8:	f9402a80 	ldr	x0, [x20,#80]
    39ac:	2a0203e2 	mov	w2, w2
/home/pwnz/devel/optee/optee_os/lib/libutee/tee_api_operations.c:1568
    39b0:	b94002a3 	ldr	w3, [x21]
/home/pwnz/devel/optee/optee_os/lib/libutee/tee_api_operations.c:1567
    39b4:	8b000040 	add	x0, x2, x0
/home/pwnz/devel/optee/optee_os/lib/libutee/tee_api_operations.c:1568
    39b8:	eb03001f 	cmp	x0, x3
    39bc:	54000249 	b.ls	3a04 <TEE_AEDecryptFinal+0xd0>
/home/pwnz/devel/optee/optee_os/lib/libutee/tee_api_operations.c:1570
    39c0:	129ffdf3 	mov	w19, #0xffff0010            	// #-65520
/home/pwnz/devel/optee/optee_os/lib/libutee/tee_api_operations.c:1569
    39c4:	b90002a0 	str	w0, [x21]
/home/pwnz/devel/optee/optee_os/lib/libutee/tee_api_operations.c:1610
    39c8:	7100027f 	cmp	w19, #0x0
    39cc:	129ffde0 	mov	w0, #0xffff0010            	// #-65520
    39d0:	7a401264 	ccmp	w19, w0, #0x4, ne
    39d4:	1299f1c0 	mov	w0, #0xffff3071            	// #-53135
    39d8:	7a401264 	ccmp	w19, w0, #0x4, ne
    39dc:	54000060 	b.eq	39e8 <TEE_AEDecryptFinal+0xb4>
/home/pwnz/devel/optee/optee_os/lib/libutee/tee_api_operations.c:1612
    39e0:	2a1303e0 	mov	w0, w19
    39e4:	94000258 	bl	4344 <TEE_Panic>
/home/pwnz/devel/optee/optee_os/lib/libutee/tee_api_operations.c:1615
    39e8:	2a1303e0 	mov	w0, w19
    39ec:	a94153f3 	ldp	x19, x20, [sp,#16]
    39f0:	a9425bf5 	ldp	x21, x22, [sp,#32]
    39f4:	a94363f7 	ldp	x23, x24, [sp,#48]
    39f8:	a9446bf9 	ldp	x25, x26, [sp,#64]
    39fc:	a8c67bfd 	ldp	x29, x30, [sp],#96
    3a00:	d65f03c0 	ret
/home/pwnz/devel/optee/optee_os/lib/libutee/tee_api_operations.c:1574
    3a04:	910183b7 	add	x23, x29, #0x60
/home/pwnz/devel/optee/optee_os/lib/libutee/tee_api_operations.c:1575
    3a08:	f9402680 	ldr	x0, [x20,#72]
    3a0c:	f100041f 	cmp	x0, #0x1
/home/pwnz/devel/optee/optee_os/lib/libutee/tee_api_operations.c:1574
    3a10:	f81f8ee3 	str	x3, [x23,#-8]!
/home/pwnz/devel/optee/optee_os/lib/libutee/tee_api_operations.c:1575
    3a14:	540004a9 	b.ls	3aa8 <TEE_AEDecryptFinal+0x174>
/home/pwnz/devel/optee/optee_os/lib/libutee/tee_api_operations.c:1576
    3a18:	aa0203e3 	mov	x3, x2
    3a1c:	aa0103e2 	mov	x2, x1
    3a20:	d0000041 	adrp	x1, d000 <__func__.3637+0xa28>
    3a24:	aa1703e5 	mov	x5, x23
    3a28:	aa1903e4 	mov	x4, x25
    3a2c:	aa1403e0 	mov	x0, x20
    3a30:	f9430c21 	ldr	x1, [x1,#1560]
    3a34:	940001bd 	bl	4128 <tee_buffer_update>
    3a38:	2a0003f3 	mov	w19, w0
/home/pwnz/devel/optee/optee_os/lib/libutee/tee_api_operations.c:1578
    3a3c:	35fffc60 	cbnz	w0, 39c8 <TEE_AEDecryptFinal+0x94>
/home/pwnz/devel/optee/optee_os/lib/libutee/tee_api_operations.c:1581
    3a40:	f9402fb6 	ldr	x22, [x29,#88]
/home/pwnz/devel/optee/optee_os/lib/libutee/tee_api_operations.c:1585
    3a44:	2a1803e6 	mov	w6, w24
/home/pwnz/devel/optee/optee_os/lib/libutee/tee_api_operations.c:1584
    3a48:	b94002a0 	ldr	w0, [x21]
/home/pwnz/devel/optee/optee_os/lib/libutee/tee_api_operations.c:1585
    3a4c:	aa1a03e5 	mov	x5, x26
    3a50:	f9401e81 	ldr	x1, [x20,#56]
    3a54:	aa1703e4 	mov	x4, x23
/home/pwnz/devel/optee/optee_os/lib/libutee/tee_api_operations.c:1584
    3a58:	cb160000 	sub	x0, x0, x22
/home/pwnz/devel/optee/optee_os/lib/libutee/tee_api_operations.c:1585
    3a5c:	f9402a82 	ldr	x2, [x20,#80]
/home/pwnz/devel/optee/optee_os/lib/libutee/tee_api_operations.c:1584
    3a60:	f9002fa0 	str	x0, [x29,#88]
/home/pwnz/devel/optee/optee_os/lib/libutee/tee_api_operations.c:1585
    3a64:	8b160323 	add	x3, x25, x22
    3a68:	b9405a80 	ldr	w0, [x20,#88]
    3a6c:	9400035d 	bl	47e0 <utee_authenc_dec_final>
    3a70:	2a0003f3 	mov	w19, w0
/home/pwnz/devel/optee/optee_os/lib/libutee/tee_api_operations.c:1594
    3a74:	35fffab3 	cbnz	w19, 39c8 <TEE_AEDecryptFinal+0x94>
/home/pwnz/devel/optee/optee_os/lib/libutee/tee_api_operations.c:1598
    3a78:	b9405e80 	ldr	w0, [x20,#92]
/home/pwnz/devel/optee/optee_os/lib/libutee/tee_api_operations.c:1599
    3a7c:	1299f1d3 	mov	w19, #0xffff3071            	// #-53135
    3a80:	6b00031f 	cmp	w24, w0
/home/pwnz/devel/optee/optee_os/lib/libutee/tee_api_operations.c:1601
    3a84:	f9402fa0 	ldr	x0, [x29,#88]
/home/pwnz/devel/optee/optee_os/lib/libutee/tee_api_operations.c:1599
    3a88:	1a9303f3 	csel	w19, wzr, w19, eq
/home/pwnz/devel/optee/optee_os/lib/libutee/tee_api_operations.c:1601
    3a8c:	8b0002d6 	add	x22, x22, x0
/home/pwnz/devel/optee/optee_os/lib/libutee/tee_api_operations.c:1602
    3a90:	b90002b6 	str	w22, [x21]
/home/pwnz/devel/optee/optee_os/lib/libutee/tee_api_operations.c:1606
    3a94:	b900329f 	str	wzr, [x20,#48]
/home/pwnz/devel/optee/optee_os/lib/libutee/tee_api_operations.c:1604
    3a98:	b9401e80 	ldr	w0, [x20,#28]
    3a9c:	120e7800 	and	w0, w0, #0xfffdffff
    3aa0:	b9001e80 	str	w0, [x20,#28]
    3aa4:	17ffffc9 	b	39c8 <TEE_AEDecryptFinal+0x94>
/home/pwnz/devel/optee/optee_os/lib/libutee/tee_api_operations.c:1590
    3aa8:	b9405a80 	ldr	w0, [x20,#88]
    3aac:	2a1803e6 	mov	w6, w24
    3ab0:	aa1a03e5 	mov	x5, x26
    3ab4:	aa1703e4 	mov	x4, x23
    3ab8:	aa1903e3 	mov	x3, x25
/home/pwnz/devel/optee/optee_os/lib/libutee/tee_api_operations.c:1539
    3abc:	d2800016 	mov	x22, #0x0                   	// #0
/home/pwnz/devel/optee/optee_os/lib/libutee/tee_api_operations.c:1590
    3ac0:	94000348 	bl	47e0 <utee_authenc_dec_final>
    3ac4:	2a0003f3 	mov	w19, w0
    3ac8:	17ffffeb 	b	3a74 <TEE_AEDecryptFinal+0x140>

0000000000003acc <TEE_AsymmetricEncrypt>:
TEE_AsymmetricEncrypt():
/home/pwnz/devel/optee/optee_os/lib/libutee/tee_api_operations.c:1624
    3acc:	a9b97bfd 	stp	x29, x30, [sp,#-112]!
    3ad0:	910003fd 	mov	x29, sp
    3ad4:	a9046bf9 	stp	x25, x26, [sp,#64]
    3ad8:	2a0203fa 	mov	w26, w2
    3adc:	a90153f3 	stp	x19, x20, [sp,#16]
    3ae0:	aa0003f3 	mov	x19, x0
/home/pwnz/devel/optee/optee_os/lib/libutee/tee_api_operations.c:1626
    3ae4:	52800300 	mov	w0, #0x18                  	// #24
/home/pwnz/devel/optee/optee_os/lib/libutee/tee_api_operations.c:1624
    3ae8:	a9025bf5 	stp	x21, x22, [sp,#32]
    3aec:	a90363f7 	stp	x23, x24, [sp,#48]
    3af0:	aa0103f9 	mov	x25, x1
/home/pwnz/devel/optee/optee_os/lib/libutee/tee_api_operations.c:1626
    3af4:	9ba07f40 	umull	x0, w26, w0
/home/pwnz/devel/optee/optee_os/lib/libutee/tee_api_operations.c:1624
    3af8:	f9002bfb 	str	x27, [sp,#80]
    3afc:	aa1a03f5 	mov	x21, x26
    3b00:	aa0303f6 	mov	x22, x3
/home/pwnz/devel/optee/optee_os/lib/libutee/tee_api_operations.c:1626
    3b04:	91005800 	add	x0, x0, #0x16
/home/pwnz/devel/optee/optee_os/lib/libutee/tee_api_operations.c:1624
    3b08:	2a0403f7 	mov	w23, w4
/home/pwnz/devel/optee/optee_os/lib/libutee/tee_api_operations.c:1626
    3b0c:	927c8400 	and	x0, x0, #0x3ffffffff0
/home/pwnz/devel/optee/optee_os/lib/libutee/tee_api_operations.c:1624
    3b10:	aa0503f8 	mov	x24, x5
/home/pwnz/devel/optee/optee_os/lib/libutee/tee_api_operations.c:1626
    3b14:	cb2063ff 	sub	sp, sp, x0
/home/pwnz/devel/optee/optee_os/lib/libutee/tee_api_operations.c:1624
    3b18:	aa0603f4 	mov	x20, x6
/home/pwnz/devel/optee/optee_os/lib/libutee/tee_api_operations.c:1626
    3b1c:	910003fb 	mov	x27, sp
/home/pwnz/devel/optee/optee_os/lib/libutee/tee_api_operations.c:1629
    3b20:	b4000113 	cbz	x19, 3b40 <TEE_AsymmetricEncrypt+0x74>
/home/pwnz/devel/optee/optee_os/lib/libutee/tee_api_operations.c:1629 (discriminator 1)
    3b24:	f100007f 	cmp	x3, #0x0
    3b28:	7a400884 	ccmp	w4, #0x0, #0x4, eq
    3b2c:	fa4008c4 	ccmp	x6, #0x0, #0x4, eq
    3b30:	54000080 	b.eq	3b40 <TEE_AsymmetricEncrypt+0x74>
/home/pwnz/devel/optee/optee_os/lib/libutee/tee_api_operations.c:1630
    3b34:	b50000a5 	cbnz	x5, 3b48 <TEE_AsymmetricEncrypt+0x7c>
/home/pwnz/devel/optee/optee_os/lib/libutee/tee_api_operations.c:1630 (discriminator 1)
    3b38:	b94000c0 	ldr	w0, [x6]
    3b3c:	34000060 	cbz	w0, 3b48 <TEE_AsymmetricEncrypt+0x7c>
/home/pwnz/devel/optee/optee_os/lib/libutee/tee_api_operations.c:1631
    3b40:	52800000 	mov	w0, #0x0                   	// #0
    3b44:	94000200 	bl	4344 <TEE_Panic>
/home/pwnz/devel/optee/optee_os/lib/libutee/tee_api_operations.c:1632
    3b48:	f100033f 	cmp	x25, #0x0
    3b4c:	7a400aa4 	ccmp	w21, #0x0, #0x4, eq
    3b50:	54000060 	b.eq	3b5c <TEE_AsymmetricEncrypt+0x90>
/home/pwnz/devel/optee/optee_os/lib/libutee/tee_api_operations.c:1633
    3b54:	52800000 	mov	w0, #0x0                   	// #0
    3b58:	940001fb 	bl	4344 <TEE_Panic>
/home/pwnz/devel/optee/optee_os/lib/libutee/tee_api_operations.c:1634
    3b5c:	f9401260 	ldr	x0, [x19,#32]
    3b60:	b5000040 	cbnz	x0, 3b68 <TEE_AsymmetricEncrypt+0x9c>
/home/pwnz/devel/optee/optee_os/lib/libutee/tee_api_operations.c:1635
    3b64:	940001f8 	bl	4344 <TEE_Panic>
/home/pwnz/devel/optee/optee_os/lib/libutee/tee_api_operations.c:1636
    3b68:	b9400660 	ldr	w0, [x19,#4]
    3b6c:	7100181f 	cmp	w0, #0x6
    3b70:	54000060 	b.eq	3b7c <TEE_AsymmetricEncrypt+0xb0>
/home/pwnz/devel/optee/optee_os/lib/libutee/tee_api_operations.c:1637
    3b74:	52800000 	mov	w0, #0x0                   	// #0
    3b78:	940001f3 	bl	4344 <TEE_Panic>
/home/pwnz/devel/optee/optee_os/lib/libutee/tee_api_operations.c:1638
    3b7c:	b9400a60 	ldr	w0, [x19,#8]
    3b80:	34000060 	cbz	w0, 3b8c <TEE_AsymmetricEncrypt+0xc0>
/home/pwnz/devel/optee/optee_os/lib/libutee/tee_api_operations.c:1639
    3b84:	52800000 	mov	w0, #0x0                   	// #0
    3b88:	940001ef 	bl	4344 <TEE_Panic>
/home/pwnz/devel/optee/optee_os/lib/libutee/tee_api_operations.c:1641
    3b8c:	2a1503e2 	mov	w2, w21
    3b90:	aa1903e1 	mov	x1, x25
    3b94:	aa1b03e0 	mov	x0, x27
    3b98:	97fff5bb 	bl	1284 <__utee_from_attr>
/home/pwnz/devel/optee/optee_os/lib/libutee/tee_api_operations.c:1642
    3b9c:	9101c3a6 	add	x6, x29, #0x70
    3ba0:	b9400280 	ldr	w0, [x20]
/home/pwnz/devel/optee/optee_os/lib/libutee/tee_api_operations.c:1643
    3ba4:	aa1b03e1 	mov	x1, x27
    3ba8:	aa1803e5 	mov	x5, x24
    3bac:	2a1703e4 	mov	w4, w23
    3bb0:	aa1603e3 	mov	x3, x22
/home/pwnz/devel/optee/optee_os/lib/libutee/tee_api_operations.c:1642
    3bb4:	f81f8cc0 	str	x0, [x6,#-8]!
/home/pwnz/devel/optee/optee_os/lib/libutee/tee_api_operations.c:1643
    3bb8:	aa1a03e2 	mov	x2, x26
    3bbc:	b9405a60 	ldr	w0, [x19,#88]
    3bc0:	9400030b 	bl	47ec <utee_asymm_operate>
/home/pwnz/devel/optee/optee_os/lib/libutee/tee_api_operations.c:1648
    3bc4:	7100001f 	cmp	w0, #0x0
/home/pwnz/devel/optee/optee_os/lib/libutee/tee_api_operations.c:1645
    3bc8:	f94037a1 	ldr	x1, [x29,#104]
/home/pwnz/devel/optee/optee_os/lib/libutee/tee_api_operations.c:1643
    3bcc:	2a0003f3 	mov	w19, w0
/home/pwnz/devel/optee/optee_os/lib/libutee/tee_api_operations.c:1645
    3bd0:	b9000281 	str	w1, [x20]
/home/pwnz/devel/optee/optee_os/lib/libutee/tee_api_operations.c:1648
    3bd4:	129ffde1 	mov	w1, #0xffff0010            	// #-65520
    3bd8:	7a411004 	ccmp	w0, w1, #0x4, ne
    3bdc:	129fff21 	mov	w1, #0xffff0006            	// #-65530
    3be0:	7a411004 	ccmp	w0, w1, #0x4, ne
    3be4:	54000040 	b.eq	3bec <TEE_AsymmetricEncrypt+0x120>
/home/pwnz/devel/optee/optee_os/lib/libutee/tee_api_operations.c:1650
    3be8:	940001d7 	bl	4344 <TEE_Panic>
/home/pwnz/devel/optee/optee_os/lib/libutee/tee_api_operations.c:1653
    3bec:	910003bf 	mov	sp, x29
    3bf0:	2a1303e0 	mov	w0, w19
    3bf4:	f9402bfb 	ldr	x27, [sp,#80]
    3bf8:	a94153f3 	ldp	x19, x20, [sp,#16]
    3bfc:	a9425bf5 	ldp	x21, x22, [sp,#32]
    3c00:	a94363f7 	ldp	x23, x24, [sp,#48]
    3c04:	a9446bf9 	ldp	x25, x26, [sp,#64]
    3c08:	a8c77bfd 	ldp	x29, x30, [sp],#112
    3c0c:	d65f03c0 	ret

0000000000003c10 <TEE_AsymmetricDecrypt>:
TEE_AsymmetricDecrypt():
/home/pwnz/devel/optee/optee_os/lib/libutee/tee_api_operations.c:1660
    3c10:	a9b97bfd 	stp	x29, x30, [sp,#-112]!
    3c14:	910003fd 	mov	x29, sp
    3c18:	a9046bf9 	stp	x25, x26, [sp,#64]
    3c1c:	2a0203fa 	mov	w26, w2
    3c20:	a90153f3 	stp	x19, x20, [sp,#16]
    3c24:	aa0003f3 	mov	x19, x0
/home/pwnz/devel/optee/optee_os/lib/libutee/tee_api_operations.c:1662
    3c28:	52800300 	mov	w0, #0x18                  	// #24
/home/pwnz/devel/optee/optee_os/lib/libutee/tee_api_operations.c:1660
    3c2c:	a9025bf5 	stp	x21, x22, [sp,#32]
    3c30:	a90363f7 	stp	x23, x24, [sp,#48]
    3c34:	aa0103f9 	mov	x25, x1
/home/pwnz/devel/optee/optee_os/lib/libutee/tee_api_operations.c:1662
    3c38:	9ba07f40 	umull	x0, w26, w0
/home/pwnz/devel/optee/optee_os/lib/libutee/tee_api_operations.c:1660
    3c3c:	f9002bfb 	str	x27, [sp,#80]
    3c40:	aa1a03f5 	mov	x21, x26
    3c44:	aa0303f6 	mov	x22, x3
/home/pwnz/devel/optee/optee_os/lib/libutee/tee_api_operations.c:1662
    3c48:	91005800 	add	x0, x0, #0x16
/home/pwnz/devel/optee/optee_os/lib/libutee/tee_api_operations.c:1660
    3c4c:	2a0403f7 	mov	w23, w4
/home/pwnz/devel/optee/optee_os/lib/libutee/tee_api_operations.c:1662
    3c50:	927c8400 	and	x0, x0, #0x3ffffffff0
/home/pwnz/devel/optee/optee_os/lib/libutee/tee_api_operations.c:1660
    3c54:	aa0503f8 	mov	x24, x5
/home/pwnz/devel/optee/optee_os/lib/libutee/tee_api_operations.c:1662
    3c58:	cb2063ff 	sub	sp, sp, x0
/home/pwnz/devel/optee/optee_os/lib/libutee/tee_api_operations.c:1660
    3c5c:	aa0603f4 	mov	x20, x6
/home/pwnz/devel/optee/optee_os/lib/libutee/tee_api_operations.c:1662
    3c60:	910003fb 	mov	x27, sp
/home/pwnz/devel/optee/optee_os/lib/libutee/tee_api_operations.c:1665
    3c64:	b4000113 	cbz	x19, 3c84 <TEE_AsymmetricDecrypt+0x74>
/home/pwnz/devel/optee/optee_os/lib/libutee/tee_api_operations.c:1665 (discriminator 1)
    3c68:	f100007f 	cmp	x3, #0x0
    3c6c:	7a400884 	ccmp	w4, #0x0, #0x4, eq
    3c70:	fa4008c4 	ccmp	x6, #0x0, #0x4, eq
    3c74:	54000080 	b.eq	3c84 <TEE_AsymmetricDecrypt+0x74>
/home/pwnz/devel/optee/optee_os/lib/libutee/tee_api_operations.c:1666
    3c78:	b50000a5 	cbnz	x5, 3c8c <TEE_AsymmetricDecrypt+0x7c>
/home/pwnz/devel/optee/optee_os/lib/libutee/tee_api_operations.c:1666 (discriminator 1)
    3c7c:	b94000c0 	ldr	w0, [x6]
    3c80:	34000060 	cbz	w0, 3c8c <TEE_AsymmetricDecrypt+0x7c>
/home/pwnz/devel/optee/optee_os/lib/libutee/tee_api_operations.c:1667
    3c84:	52800000 	mov	w0, #0x0                   	// #0
    3c88:	940001af 	bl	4344 <TEE_Panic>
/home/pwnz/devel/optee/optee_os/lib/libutee/tee_api_operations.c:1668
    3c8c:	f100033f 	cmp	x25, #0x0
    3c90:	7a400aa4 	ccmp	w21, #0x0, #0x4, eq
    3c94:	54000060 	b.eq	3ca0 <TEE_AsymmetricDecrypt+0x90>
/home/pwnz/devel/optee/optee_os/lib/libutee/tee_api_operations.c:1669
    3c98:	52800000 	mov	w0, #0x0                   	// #0
    3c9c:	940001aa 	bl	4344 <TEE_Panic>
/home/pwnz/devel/optee/optee_os/lib/libutee/tee_api_operations.c:1670
    3ca0:	f9401260 	ldr	x0, [x19,#32]
    3ca4:	b5000040 	cbnz	x0, 3cac <TEE_AsymmetricDecrypt+0x9c>
/home/pwnz/devel/optee/optee_os/lib/libutee/tee_api_operations.c:1671
    3ca8:	940001a7 	bl	4344 <TEE_Panic>
/home/pwnz/devel/optee/optee_os/lib/libutee/tee_api_operations.c:1672
    3cac:	b9400660 	ldr	w0, [x19,#4]
    3cb0:	7100181f 	cmp	w0, #0x6
    3cb4:	54000060 	b.eq	3cc0 <TEE_AsymmetricDecrypt+0xb0>
/home/pwnz/devel/optee/optee_os/lib/libutee/tee_api_operations.c:1673
    3cb8:	52800000 	mov	w0, #0x0                   	// #0
    3cbc:	940001a2 	bl	4344 <TEE_Panic>
/home/pwnz/devel/optee/optee_os/lib/libutee/tee_api_operations.c:1674
    3cc0:	b9400a60 	ldr	w0, [x19,#8]
    3cc4:	7100041f 	cmp	w0, #0x1
    3cc8:	54000060 	b.eq	3cd4 <TEE_AsymmetricDecrypt+0xc4>
/home/pwnz/devel/optee/optee_os/lib/libutee/tee_api_operations.c:1675
    3ccc:	52800000 	mov	w0, #0x0                   	// #0
    3cd0:	9400019d 	bl	4344 <TEE_Panic>
/home/pwnz/devel/optee/optee_os/lib/libutee/tee_api_operations.c:1677
    3cd4:	2a1503e2 	mov	w2, w21
    3cd8:	aa1903e1 	mov	x1, x25
    3cdc:	aa1b03e0 	mov	x0, x27
    3ce0:	97fff569 	bl	1284 <__utee_from_attr>
/home/pwnz/devel/optee/optee_os/lib/libutee/tee_api_operations.c:1678
    3ce4:	9101c3a6 	add	x6, x29, #0x70
    3ce8:	b9400280 	ldr	w0, [x20]
/home/pwnz/devel/optee/optee_os/lib/libutee/tee_api_operations.c:1679
    3cec:	aa1b03e1 	mov	x1, x27
    3cf0:	aa1803e5 	mov	x5, x24
    3cf4:	2a1703e4 	mov	w4, w23
    3cf8:	aa1603e3 	mov	x3, x22
/home/pwnz/devel/optee/optee_os/lib/libutee/tee_api_operations.c:1678
    3cfc:	f81f8cc0 	str	x0, [x6,#-8]!
/home/pwnz/devel/optee/optee_os/lib/libutee/tee_api_operations.c:1679
    3d00:	aa1a03e2 	mov	x2, x26
    3d04:	b9405a60 	ldr	w0, [x19,#88]
    3d08:	940002b9 	bl	47ec <utee_asymm_operate>
/home/pwnz/devel/optee/optee_os/lib/libutee/tee_api_operations.c:1684
    3d0c:	7100001f 	cmp	w0, #0x0
/home/pwnz/devel/optee/optee_os/lib/libutee/tee_api_operations.c:1681
    3d10:	f94037a1 	ldr	x1, [x29,#104]
/home/pwnz/devel/optee/optee_os/lib/libutee/tee_api_operations.c:1679
    3d14:	2a0003f3 	mov	w19, w0
/home/pwnz/devel/optee/optee_os/lib/libutee/tee_api_operations.c:1681
    3d18:	b9000281 	str	w1, [x20]
/home/pwnz/devel/optee/optee_os/lib/libutee/tee_api_operations.c:1684
    3d1c:	129ffde1 	mov	w1, #0xffff0010            	// #-65520
    3d20:	7a411004 	ccmp	w0, w1, #0x4, ne
    3d24:	129fff21 	mov	w1, #0xffff0006            	// #-65530
    3d28:	7a411004 	ccmp	w0, w1, #0x4, ne
    3d2c:	54000040 	b.eq	3d34 <TEE_AsymmetricDecrypt+0x124>
/home/pwnz/devel/optee/optee_os/lib/libutee/tee_api_operations.c:1686
    3d30:	94000185 	bl	4344 <TEE_Panic>
/home/pwnz/devel/optee/optee_os/lib/libutee/tee_api_operations.c:1689
    3d34:	910003bf 	mov	sp, x29
    3d38:	2a1303e0 	mov	w0, w19
    3d3c:	f9402bfb 	ldr	x27, [sp,#80]
    3d40:	a94153f3 	ldp	x19, x20, [sp,#16]
    3d44:	a9425bf5 	ldp	x21, x22, [sp,#32]
    3d48:	a94363f7 	ldp	x23, x24, [sp,#48]
    3d4c:	a9446bf9 	ldp	x25, x26, [sp,#64]
    3d50:	a8c77bfd 	ldp	x29, x30, [sp],#112
    3d54:	d65f03c0 	ret

0000000000003d58 <TEE_AsymmetricSignDigest>:
TEE_AsymmetricSignDigest():
/home/pwnz/devel/optee/optee_os/lib/libutee/tee_api_operations.c:1696
    3d58:	a9b97bfd 	stp	x29, x30, [sp,#-112]!
    3d5c:	910003fd 	mov	x29, sp
    3d60:	a9046bf9 	stp	x25, x26, [sp,#64]
    3d64:	2a0203fa 	mov	w26, w2
    3d68:	a90153f3 	stp	x19, x20, [sp,#16]
    3d6c:	aa0003f3 	mov	x19, x0
/home/pwnz/devel/optee/optee_os/lib/libutee/tee_api_operations.c:1698
    3d70:	52800300 	mov	w0, #0x18                  	// #24
/home/pwnz/devel/optee/optee_os/lib/libutee/tee_api_operations.c:1696
    3d74:	a9025bf5 	stp	x21, x22, [sp,#32]
    3d78:	a90363f7 	stp	x23, x24, [sp,#48]
    3d7c:	aa0103f9 	mov	x25, x1
/home/pwnz/devel/optee/optee_os/lib/libutee/tee_api_operations.c:1698
    3d80:	9ba07f40 	umull	x0, w26, w0
/home/pwnz/devel/optee/optee_os/lib/libutee/tee_api_operations.c:1696
    3d84:	f9002bfb 	str	x27, [sp,#80]
    3d88:	aa1a03f4 	mov	x20, x26
    3d8c:	aa0303f6 	mov	x22, x3
/home/pwnz/devel/optee/optee_os/lib/libutee/tee_api_operations.c:1698
    3d90:	91005800 	add	x0, x0, #0x16
/home/pwnz/devel/optee/optee_os/lib/libutee/tee_api_operations.c:1696
    3d94:	2a0403f7 	mov	w23, w4
/home/pwnz/devel/optee/optee_os/lib/libutee/tee_api_operations.c:1698
    3d98:	927c8400 	and	x0, x0, #0x3ffffffff0
/home/pwnz/devel/optee/optee_os/lib/libutee/tee_api_operations.c:1696
    3d9c:	aa0503f8 	mov	x24, x5
/home/pwnz/devel/optee/optee_os/lib/libutee/tee_api_operations.c:1698
    3da0:	cb2063ff 	sub	sp, sp, x0
/home/pwnz/devel/optee/optee_os/lib/libutee/tee_api_operations.c:1696
    3da4:	aa0603f5 	mov	x21, x6
/home/pwnz/devel/optee/optee_os/lib/libutee/tee_api_operations.c:1698
    3da8:	910003fb 	mov	x27, sp
/home/pwnz/devel/optee/optee_os/lib/libutee/tee_api_operations.c:1701
    3dac:	b40000f3 	cbz	x19, 3dc8 <TEE_AsymmetricSignDigest+0x70>
/home/pwnz/devel/optee/optee_os/lib/libutee/tee_api_operations.c:1702 (discriminator 1)
    3db0:	f100007f 	cmp	x3, #0x0
/home/pwnz/devel/optee/optee_os/lib/libutee/tee_api_operations.c:1701 (discriminator 1)
    3db4:	7a400884 	ccmp	w4, #0x0, #0x4, eq
    3db8:	54000081 	b.ne	3dc8 <TEE_AsymmetricSignDigest+0x70>
/home/pwnz/devel/optee/optee_os/lib/libutee/tee_api_operations.c:1703
    3dbc:	f10000bf 	cmp	x5, #0x0
    3dc0:	fa4018c4 	ccmp	x6, #0x0, #0x4, ne
    3dc4:	54000061 	b.ne	3dd0 <TEE_AsymmetricSignDigest+0x78>
/home/pwnz/devel/optee/optee_os/lib/libutee/tee_api_operations.c:1704
    3dc8:	52800000 	mov	w0, #0x0                   	// #0
    3dcc:	9400015e 	bl	4344 <TEE_Panic>
/home/pwnz/devel/optee/optee_os/lib/libutee/tee_api_operations.c:1705
    3dd0:	f100033f 	cmp	x25, #0x0
    3dd4:	7a400a84 	ccmp	w20, #0x0, #0x4, eq
    3dd8:	54000060 	b.eq	3de4 <TEE_AsymmetricSignDigest+0x8c>
/home/pwnz/devel/optee/optee_os/lib/libutee/tee_api_operations.c:1706
    3ddc:	52800000 	mov	w0, #0x0                   	// #0
    3de0:	94000159 	bl	4344 <TEE_Panic>
/home/pwnz/devel/optee/optee_os/lib/libutee/tee_api_operations.c:1707
    3de4:	f9401260 	ldr	x0, [x19,#32]
    3de8:	b5000040 	cbnz	x0, 3df0 <TEE_AsymmetricSignDigest+0x98>
/home/pwnz/devel/optee/optee_os/lib/libutee/tee_api_operations.c:1708
    3dec:	94000156 	bl	4344 <TEE_Panic>
/home/pwnz/devel/optee/optee_os/lib/libutee/tee_api_operations.c:1709
    3df0:	b9400660 	ldr	w0, [x19,#4]
    3df4:	71001c1f 	cmp	w0, #0x7
    3df8:	54000060 	b.eq	3e04 <TEE_AsymmetricSignDigest+0xac>
/home/pwnz/devel/optee/optee_os/lib/libutee/tee_api_operations.c:1711
    3dfc:	52800000 	mov	w0, #0x0                   	// #0
    3e00:	94000151 	bl	4344 <TEE_Panic>
/home/pwnz/devel/optee/optee_os/lib/libutee/tee_api_operations.c:1712
    3e04:	b9400a60 	ldr	w0, [x19,#8]
    3e08:	7100081f 	cmp	w0, #0x2
    3e0c:	54000060 	b.eq	3e18 <TEE_AsymmetricSignDigest+0xc0>
/home/pwnz/devel/optee/optee_os/lib/libutee/tee_api_operations.c:1713
    3e10:	52800000 	mov	w0, #0x0                   	// #0
    3e14:	9400014c 	bl	4344 <TEE_Panic>
/home/pwnz/devel/optee/optee_os/lib/libutee/tee_api_operations.c:1715
    3e18:	2a1403e2 	mov	w2, w20
    3e1c:	aa1903e1 	mov	x1, x25
    3e20:	aa1b03e0 	mov	x0, x27
    3e24:	97fff518 	bl	1284 <__utee_from_attr>
/home/pwnz/devel/optee/optee_os/lib/libutee/tee_api_operations.c:1716
    3e28:	9101c3a6 	add	x6, x29, #0x70
    3e2c:	b94002a0 	ldr	w0, [x21]
/home/pwnz/devel/optee/optee_os/lib/libutee/tee_api_operations.c:1717
    3e30:	aa1b03e1 	mov	x1, x27
    3e34:	aa1803e5 	mov	x5, x24
    3e38:	2a1703e4 	mov	w4, w23
    3e3c:	aa1603e3 	mov	x3, x22
/home/pwnz/devel/optee/optee_os/lib/libutee/tee_api_operations.c:1716
    3e40:	f81f8cc0 	str	x0, [x6,#-8]!
/home/pwnz/devel/optee/optee_os/lib/libutee/tee_api_operations.c:1717
    3e44:	aa1a03e2 	mov	x2, x26
    3e48:	b9405a60 	ldr	w0, [x19,#88]
    3e4c:	94000268 	bl	47ec <utee_asymm_operate>
/home/pwnz/devel/optee/optee_os/lib/libutee/tee_api_operations.c:1721
    3e50:	7100001f 	cmp	w0, #0x0
/home/pwnz/devel/optee/optee_os/lib/libutee/tee_api_operations.c:1719
    3e54:	f94037a1 	ldr	x1, [x29,#104]
/home/pwnz/devel/optee/optee_os/lib/libutee/tee_api_operations.c:1717
    3e58:	2a0003f3 	mov	w19, w0
/home/pwnz/devel/optee/optee_os/lib/libutee/tee_api_operations.c:1719
    3e5c:	b90002a1 	str	w1, [x21]
/home/pwnz/devel/optee/optee_os/lib/libutee/tee_api_operations.c:1721
    3e60:	129ffde1 	mov	w1, #0xffff0010            	// #-65520
    3e64:	7a411004 	ccmp	w0, w1, #0x4, ne
    3e68:	54000040 	b.eq	3e70 <TEE_AsymmetricSignDigest+0x118>
/home/pwnz/devel/optee/optee_os/lib/libutee/tee_api_operations.c:1722
    3e6c:	94000136 	bl	4344 <TEE_Panic>
/home/pwnz/devel/optee/optee_os/lib/libutee/tee_api_operations.c:1725
    3e70:	910003bf 	mov	sp, x29
    3e74:	2a1303e0 	mov	w0, w19
    3e78:	f9402bfb 	ldr	x27, [sp,#80]
    3e7c:	a94153f3 	ldp	x19, x20, [sp,#16]
    3e80:	a9425bf5 	ldp	x21, x22, [sp,#32]
    3e84:	a94363f7 	ldp	x23, x24, [sp,#48]
    3e88:	a9446bf9 	ldp	x25, x26, [sp,#64]
    3e8c:	a8c77bfd 	ldp	x29, x30, [sp],#112
    3e90:	d65f03c0 	ret

0000000000003e94 <TEE_AsymmetricVerifyDigest>:
TEE_AsymmetricVerifyDigest():
/home/pwnz/devel/optee/optee_os/lib/libutee/tee_api_operations.c:1733
    3e94:	a9ba7bfd 	stp	x29, x30, [sp,#-96]!
    3e98:	910003fd 	mov	x29, sp
    3e9c:	a9046bf9 	stp	x25, x26, [sp,#64]
    3ea0:	2a0203fa 	mov	w26, w2
    3ea4:	a90153f3 	stp	x19, x20, [sp,#16]
    3ea8:	aa0003f3 	mov	x19, x0
/home/pwnz/devel/optee/optee_os/lib/libutee/tee_api_operations.c:1735
    3eac:	52800300 	mov	w0, #0x18                  	// #24
/home/pwnz/devel/optee/optee_os/lib/libutee/tee_api_operations.c:1733
    3eb0:	a9025bf5 	stp	x21, x22, [sp,#32]
    3eb4:	a90363f7 	stp	x23, x24, [sp,#48]
    3eb8:	aa0103f9 	mov	x25, x1
/home/pwnz/devel/optee/optee_os/lib/libutee/tee_api_operations.c:1735
    3ebc:	9ba07f40 	umull	x0, w26, w0
/home/pwnz/devel/optee/optee_os/lib/libutee/tee_api_operations.c:1733
    3ec0:	f9002bfb 	str	x27, [sp,#80]
    3ec4:	aa1a03f4 	mov	x20, x26
    3ec8:	aa0303f5 	mov	x21, x3
/home/pwnz/devel/optee/optee_os/lib/libutee/tee_api_operations.c:1735
    3ecc:	91005800 	add	x0, x0, #0x16
/home/pwnz/devel/optee/optee_os/lib/libutee/tee_api_operations.c:1733
    3ed0:	2a0403f6 	mov	w22, w4
/home/pwnz/devel/optee/optee_os/lib/libutee/tee_api_operations.c:1735
    3ed4:	927c8400 	and	x0, x0, #0x3ffffffff0
/home/pwnz/devel/optee/optee_os/lib/libutee/tee_api_operations.c:1733
    3ed8:	aa0503f7 	mov	x23, x5
/home/pwnz/devel/optee/optee_os/lib/libutee/tee_api_operations.c:1735
    3edc:	cb2063ff 	sub	sp, sp, x0
/home/pwnz/devel/optee/optee_os/lib/libutee/tee_api_operations.c:1733
    3ee0:	2a0603f8 	mov	w24, w6
/home/pwnz/devel/optee/optee_os/lib/libutee/tee_api_operations.c:1735
    3ee4:	910003fb 	mov	x27, sp
/home/pwnz/devel/optee/optee_os/lib/libutee/tee_api_operations.c:1737
    3ee8:	b40000f3 	cbz	x19, 3f04 <TEE_AsymmetricVerifyDigest+0x70>
/home/pwnz/devel/optee/optee_os/lib/libutee/tee_api_operations.c:1738 (discriminator 1)
    3eec:	f100007f 	cmp	x3, #0x0
/home/pwnz/devel/optee/optee_os/lib/libutee/tee_api_operations.c:1737 (discriminator 1)
    3ef0:	7a400884 	ccmp	w4, #0x0, #0x4, eq
    3ef4:	54000081 	b.ne	3f04 <TEE_AsymmetricVerifyDigest+0x70>
/home/pwnz/devel/optee/optee_os/lib/libutee/tee_api_operations.c:1739
    3ef8:	f10000bf 	cmp	x5, #0x0
/home/pwnz/devel/optee/optee_os/lib/libutee/tee_api_operations.c:1738
    3efc:	7a4008c4 	ccmp	w6, #0x0, #0x4, eq
    3f00:	54000060 	b.eq	3f0c <TEE_AsymmetricVerifyDigest+0x78>
/home/pwnz/devel/optee/optee_os/lib/libutee/tee_api_operations.c:1740
    3f04:	52800000 	mov	w0, #0x0                   	// #0
    3f08:	9400010f 	bl	4344 <TEE_Panic>
/home/pwnz/devel/optee/optee_os/lib/libutee/tee_api_operations.c:1741
    3f0c:	f100033f 	cmp	x25, #0x0
    3f10:	7a400a84 	ccmp	w20, #0x0, #0x4, eq
    3f14:	54000060 	b.eq	3f20 <TEE_AsymmetricVerifyDigest+0x8c>
/home/pwnz/devel/optee/optee_os/lib/libutee/tee_api_operations.c:1742
    3f18:	52800000 	mov	w0, #0x0                   	// #0
    3f1c:	9400010a 	bl	4344 <TEE_Panic>
/home/pwnz/devel/optee/optee_os/lib/libutee/tee_api_operations.c:1743
    3f20:	f9401260 	ldr	x0, [x19,#32]
    3f24:	b5000040 	cbnz	x0, 3f2c <TEE_AsymmetricVerifyDigest+0x98>
/home/pwnz/devel/optee/optee_os/lib/libutee/tee_api_operations.c:1744
    3f28:	94000107 	bl	4344 <TEE_Panic>
/home/pwnz/devel/optee/optee_os/lib/libutee/tee_api_operations.c:1745
    3f2c:	b9400660 	ldr	w0, [x19,#4]
    3f30:	71001c1f 	cmp	w0, #0x7
    3f34:	54000060 	b.eq	3f40 <TEE_AsymmetricVerifyDigest+0xac>
/home/pwnz/devel/optee/optee_os/lib/libutee/tee_api_operations.c:1747
    3f38:	52800000 	mov	w0, #0x0                   	// #0
    3f3c:	94000102 	bl	4344 <TEE_Panic>
/home/pwnz/devel/optee/optee_os/lib/libutee/tee_api_operations.c:1748
    3f40:	b9400a60 	ldr	w0, [x19,#8]
    3f44:	71000c1f 	cmp	w0, #0x3
    3f48:	54000060 	b.eq	3f54 <TEE_AsymmetricVerifyDigest+0xc0>
/home/pwnz/devel/optee/optee_os/lib/libutee/tee_api_operations.c:1749
    3f4c:	52800000 	mov	w0, #0x0                   	// #0
    3f50:	940000fd 	bl	4344 <TEE_Panic>
/home/pwnz/devel/optee/optee_os/lib/libutee/tee_api_operations.c:1751
    3f54:	2a1403e2 	mov	w2, w20
    3f58:	aa1903e1 	mov	x1, x25
    3f5c:	aa1b03e0 	mov	x0, x27
    3f60:	97fff4c9 	bl	1284 <__utee_from_attr>
/home/pwnz/devel/optee/optee_os/lib/libutee/tee_api_operations.c:1752
    3f64:	b9405a60 	ldr	w0, [x19,#88]
    3f68:	aa1b03e1 	mov	x1, x27
    3f6c:	2a1803e6 	mov	w6, w24
    3f70:	aa1703e5 	mov	x5, x23
    3f74:	2a1603e4 	mov	w4, w22
    3f78:	aa1503e3 	mov	x3, x21
    3f7c:	aa1a03e2 	mov	x2, x26
    3f80:	9400021e 	bl	47f8 <utee_asymm_verify>
/home/pwnz/devel/optee/optee_os/lib/libutee/tee_api_operations.c:1755
    3f84:	7100001f 	cmp	w0, #0x0
    3f88:	1299f1a1 	mov	w1, #0xffff3072            	// #-53134
/home/pwnz/devel/optee/optee_os/lib/libutee/tee_api_operations.c:1752
    3f8c:	2a0003f3 	mov	w19, w0
/home/pwnz/devel/optee/optee_os/lib/libutee/tee_api_operations.c:1755
    3f90:	7a411004 	ccmp	w0, w1, #0x4, ne
    3f94:	54000040 	b.eq	3f9c <TEE_AsymmetricVerifyDigest+0x108>
/home/pwnz/devel/optee/optee_os/lib/libutee/tee_api_operations.c:1756
    3f98:	940000eb 	bl	4344 <TEE_Panic>
/home/pwnz/devel/optee/optee_os/lib/libutee/tee_api_operations.c:1759
    3f9c:	910003bf 	mov	sp, x29
    3fa0:	2a1303e0 	mov	w0, w19
    3fa4:	f9402bfb 	ldr	x27, [sp,#80]
    3fa8:	a94153f3 	ldp	x19, x20, [sp,#16]
    3fac:	a9425bf5 	ldp	x21, x22, [sp,#32]
    3fb0:	a94363f7 	ldp	x23, x24, [sp,#48]
    3fb4:	a9446bf9 	ldp	x25, x26, [sp,#64]
    3fb8:	a8c67bfd 	ldp	x29, x30, [sp],#96
    3fbc:	d65f03c0 	ret

0000000000003fc0 <TEE_DeriveKey>:
TEE_DeriveKey():
/home/pwnz/devel/optee/optee_os/lib/libutee/tee_api_operations.c:1766
    3fc0:	a9ba7bfd 	stp	x29, x30, [sp,#-96]!
    3fc4:	910003fd 	mov	x29, sp
    3fc8:	a90363f7 	stp	x23, x24, [sp,#48]
    3fcc:	2a0203f7 	mov	w23, w2
    3fd0:	a90153f3 	stp	x19, x20, [sp,#16]
    3fd4:	aa0003f3 	mov	x19, x0
/home/pwnz/devel/optee/optee_os/lib/libutee/tee_api_operations.c:1769
    3fd8:	52800300 	mov	w0, #0x18                  	// #24
/home/pwnz/devel/optee/optee_os/lib/libutee/tee_api_operations.c:1766
    3fdc:	a9025bf5 	stp	x21, x22, [sp,#32]
/home/pwnz/devel/optee/optee_os/lib/libutee/tee_api_operations.c:1771
    3fe0:	f100027f 	cmp	x19, #0x0
/home/pwnz/devel/optee/optee_os/lib/libutee/tee_api_operations.c:1766
    3fe4:	aa0103f6 	mov	x22, x1
/home/pwnz/devel/optee/optee_os/lib/libutee/tee_api_operations.c:1769
    3fe8:	9ba07ee0 	umull	x0, w23, w0
/home/pwnz/devel/optee/optee_os/lib/libutee/tee_api_operations.c:1766
    3fec:	aa1703f4 	mov	x20, x23
    3ff0:	aa0303f5 	mov	x21, x3
/home/pwnz/devel/optee/optee_os/lib/libutee/tee_api_operations.c:1771
    3ff4:	fa401864 	ccmp	x3, #0x0, #0x4, ne
/home/pwnz/devel/optee/optee_os/lib/libutee/tee_api_operations.c:1769
    3ff8:	91005800 	add	x0, x0, #0x16
    3ffc:	927c8400 	and	x0, x0, #0x3ffffffff0
    4000:	cb2063ff 	sub	sp, sp, x0
    4004:	910003f8 	mov	x24, sp
/home/pwnz/devel/optee/optee_os/lib/libutee/tee_api_operations.c:1771
    4008:	54000061 	b.ne	4014 <TEE_DeriveKey+0x54>
/home/pwnz/devel/optee/optee_os/lib/libutee/tee_api_operations.c:1772
    400c:	52800000 	mov	w0, #0x0                   	// #0
    4010:	940000cd 	bl	4344 <TEE_Panic>
/home/pwnz/devel/optee/optee_os/lib/libutee/tee_api_operations.c:1773
    4014:	f10002df 	cmp	x22, #0x0
    4018:	7a400a84 	ccmp	w20, #0x0, #0x4, eq
    401c:	54000060 	b.eq	4028 <TEE_DeriveKey+0x68>
/home/pwnz/devel/optee/optee_os/lib/libutee/tee_api_operations.c:1774
    4020:	52800000 	mov	w0, #0x0                   	// #0
    4024:	940000c8 	bl	4344 <TEE_Panic>
/home/pwnz/devel/optee/optee_os/lib/libutee/tee_api_operations.c:1775
    4028:	b9400260 	ldr	w0, [x19]
    402c:	531c7c00 	lsr	w0, w0, #28
    4030:	7100201f 	cmp	w0, #0x8
    4034:	54000060 	b.eq	4040 <TEE_DeriveKey+0x80>
/home/pwnz/devel/optee/optee_os/lib/libutee/tee_api_operations.c:1777
    4038:	52800000 	mov	w0, #0x0                   	// #0
    403c:	940000c2 	bl	4344 <TEE_Panic>
/home/pwnz/devel/optee/optee_os/lib/libutee/tee_api_operations.c:1779
    4040:	b9400660 	ldr	w0, [x19,#4]
    4044:	7100201f 	cmp	w0, #0x8
    4048:	54000060 	b.eq	4054 <TEE_DeriveKey+0x94>
/home/pwnz/devel/optee/optee_os/lib/libutee/tee_api_operations.c:1780
    404c:	52800000 	mov	w0, #0x0                   	// #0
    4050:	940000bd 	bl	4344 <TEE_Panic>
/home/pwnz/devel/optee/optee_os/lib/libutee/tee_api_operations.c:1781
    4054:	f9401260 	ldr	x0, [x19,#32]
    4058:	b5000040 	cbnz	x0, 4060 <TEE_DeriveKey+0xa0>
/home/pwnz/devel/optee/optee_os/lib/libutee/tee_api_operations.c:1782
    405c:	940000ba 	bl	4344 <TEE_Panic>
/home/pwnz/devel/optee/optee_os/lib/libutee/tee_api_operations.c:1783
    4060:	b9400a60 	ldr	w0, [x19,#8]
    4064:	7100181f 	cmp	w0, #0x6
    4068:	54000060 	b.eq	4074 <TEE_DeriveKey+0xb4>
/home/pwnz/devel/optee/optee_os/lib/libutee/tee_api_operations.c:1784
    406c:	52800000 	mov	w0, #0x0                   	// #0
    4070:	940000b5 	bl	4344 <TEE_Panic>
/home/pwnz/devel/optee/optee_os/lib/libutee/tee_api_operations.c:1785
    4074:	b9401e60 	ldr	w0, [x19,#28]
    4078:	37900060 	tbnz	w0, #18, 4084 <TEE_DeriveKey+0xc4>
/home/pwnz/devel/optee/optee_os/lib/libutee/tee_api_operations.c:1786
    407c:	52800000 	mov	w0, #0x0                   	// #0
    4080:	940000b1 	bl	4344 <TEE_Panic>
/home/pwnz/devel/optee/optee_os/lib/libutee/tee_api_operations.c:1788
    4084:	910103a1 	add	x1, x29, #0x40
    4088:	aa1503e0 	mov	x0, x21
    408c:	940001ab 	bl	4738 <utee_cryp_obj_get_info>
/home/pwnz/devel/optee/optee_os/lib/libutee/tee_api_operations.c:1789
    4090:	34000040 	cbz	w0, 4098 <TEE_DeriveKey+0xd8>
/home/pwnz/devel/optee/optee_os/lib/libutee/tee_api_operations.c:1790
    4094:	940000ac 	bl	4344 <TEE_Panic>
/home/pwnz/devel/optee/optee_os/lib/libutee/tee_api_operations.c:1792
    4098:	b94043a1 	ldr	w1, [x29,#64]
    409c:	52b40000 	mov	w0, #0xa0000000            	// #-1610612736
    40a0:	6b00003f 	cmp	w1, w0
    40a4:	54000060 	b.eq	40b0 <TEE_DeriveKey+0xf0>
/home/pwnz/devel/optee/optee_os/lib/libutee/tee_api_operations.c:1793
    40a8:	52800000 	mov	w0, #0x0                   	// #0
    40ac:	940000a6 	bl	4344 <TEE_Panic>
/home/pwnz/devel/optee/optee_os/lib/libutee/tee_api_operations.c:1794
    40b0:	b9405ba0 	ldr	w0, [x29,#88]
    40b4:	36880060 	tbz	w0, #17, 40c0 <TEE_DeriveKey+0x100>
/home/pwnz/devel/optee/optee_os/lib/libutee/tee_api_operations.c:1795
    40b8:	52800000 	mov	w0, #0x0                   	// #0
    40bc:	940000a2 	bl	4344 <TEE_Panic>
/home/pwnz/devel/optee/optee_os/lib/libutee/tee_api_operations.c:1797
    40c0:	2a1403e2 	mov	w2, w20
    40c4:	aa1603e1 	mov	x1, x22
    40c8:	aa1803e0 	mov	x0, x24
    40cc:	97fff46e 	bl	1284 <__utee_from_attr>
/home/pwnz/devel/optee/optee_os/lib/libutee/tee_api_operations.c:1798
    40d0:	b9405a60 	ldr	w0, [x19,#88]
    40d4:	aa1503e3 	mov	x3, x21
    40d8:	aa1703e2 	mov	x2, x23
    40dc:	aa1803e1 	mov	x1, x24
    40e0:	940001ae 	bl	4798 <utee_cryp_derive_key>
/home/pwnz/devel/optee/optee_os/lib/libutee/tee_api_operations.c:1800
    40e4:	34000040 	cbz	w0, 40ec <TEE_DeriveKey+0x12c>
/home/pwnz/devel/optee/optee_os/lib/libutee/tee_api_operations.c:1801
    40e8:	94000097 	bl	4344 <TEE_Panic>
/home/pwnz/devel/optee/optee_os/lib/libutee/tee_api_operations.c:1802
    40ec:	910003bf 	mov	sp, x29
    40f0:	a94153f3 	ldp	x19, x20, [sp,#16]
    40f4:	a9425bf5 	ldp	x21, x22, [sp,#32]
    40f8:	a94363f7 	ldp	x23, x24, [sp,#48]
    40fc:	a8c67bfd 	ldp	x29, x30, [sp],#96
    4100:	d65f03c0 	ret

0000000000004104 <TEE_GenerateRandom>:
TEE_GenerateRandom():
/home/pwnz/devel/optee/optee_os/lib/libutee/tee_api_operations.c:1807
    4104:	a9bf7bfd 	stp	x29, x30, [sp,#-16]!
/home/pwnz/devel/optee/optee_os/lib/libutee/tee_api_operations.c:1810
    4108:	2a0103e1 	mov	w1, w1
/home/pwnz/devel/optee/optee_os/lib/libutee/tee_api_operations.c:1807
    410c:	910003fd 	mov	x29, sp
/home/pwnz/devel/optee/optee_os/lib/libutee/tee_api_operations.c:1810
    4110:	940001a5 	bl	47a4 <utee_cryp_random_number_generate>
/home/pwnz/devel/optee/optee_os/lib/libutee/tee_api_operations.c:1811
    4114:	34000060 	cbz	w0, 4120 <TEE_GenerateRandom+0x1c>
/home/pwnz/devel/optee/optee_os/lib/libutee/tee_api_operations.c:1813
    4118:	a8c17bfd 	ldp	x29, x30, [sp],#16
/home/pwnz/devel/optee/optee_os/lib/libutee/tee_api_operations.c:1812
    411c:	1400008a 	b	4344 <TEE_Panic>
/home/pwnz/devel/optee/optee_os/lib/libutee/tee_api_operations.c:1813
    4120:	a8c17bfd 	ldp	x29, x30, [sp],#16
    4124:	d65f03c0 	ret

0000000000004128 <tee_buffer_update>:
tee_buffer_update():
/home/pwnz/devel/optee/optee_os/lib/libutee/tee_api_operations.c:867
    4128:	a9b87bfd 	stp	x29, x30, [sp,#-128]!
    412c:	910003fd 	mov	x29, sp
    4130:	a90153f3 	stp	x19, x20, [sp,#16]
    4134:	aa0003f3 	mov	x19, x0
    4138:	a9025bf5 	stp	x21, x22, [sp,#32]
    413c:	a9046bf9 	stp	x25, x26, [sp,#64]
    4140:	aa0303f9 	mov	x25, x3
    4144:	a90363f7 	stp	x23, x24, [sp,#48]
    4148:	a90573fb 	stp	x27, x28, [sp,#80]
    414c:	f90037a5 	str	x5, [x29,#104]
/home/pwnz/devel/optee/optee_os/lib/libutee/tee_api_operations.c:872
    4150:	f94000b6 	ldr	x22, [x5]
/home/pwnz/devel/optee/optee_os/lib/libutee/tee_api_operations.c:879
    4154:	b5000202 	cbnz	x2, 4194 <tee_buffer_update+0x6c>
/home/pwnz/devel/optee/optee_os/lib/libutee/tee_api_operations.c:880
    4158:	b5000183 	cbnz	x3, 4188 <tee_buffer_update+0x60>
/home/pwnz/devel/optee/optee_os/lib/libutee/tee_api_operations.c:873
    415c:	d2800017 	mov	x23, #0x0                   	// #0
/home/pwnz/devel/optee/optee_os/lib/libutee/tee_api_operations.c:955
    4160:	f94037a0 	ldr	x0, [x29,#104]
/home/pwnz/devel/optee/optee_os/lib/libutee/tee_api_operations.c:957
    4164:	a94153f3 	ldp	x19, x20, [sp,#16]
    4168:	a9425bf5 	ldp	x21, x22, [sp,#32]
    416c:	a9446bf9 	ldp	x25, x26, [sp,#64]
    4170:	a94573fb 	ldp	x27, x28, [sp,#80]
/home/pwnz/devel/optee/optee_os/lib/libutee/tee_api_operations.c:955
    4174:	f9000017 	str	x23, [x0]
/home/pwnz/devel/optee/optee_os/lib/libutee/tee_api_operations.c:957
    4178:	a94363f7 	ldp	x23, x24, [sp,#48]
    417c:	52800000 	mov	w0, #0x0                   	// #0
    4180:	a8c87bfd 	ldp	x29, x30, [sp],#128
    4184:	d65f03c0 	ret
/home/pwnz/devel/optee/optee_os/lib/libutee/tee_api_operations.c:881
    4188:	52800000 	mov	w0, #0x0                   	// #0
    418c:	9400006e 	bl	4344 <TEE_Panic>
    4190:	17fffff3 	b	415c <tee_buffer_update+0x34>
/home/pwnz/devel/optee/optee_os/lib/libutee/tee_api_operations.c:885
    4194:	39410000 	ldrb	w0, [x0,#64]
    4198:	aa0103f8 	mov	x24, x1
    419c:	aa0203f5 	mov	x21, x2
    41a0:	aa0403fb 	mov	x27, x4
    41a4:	f940267a 	ldr	x26, [x19,#72]
    41a8:	34000860 	cbz	w0, 42b4 <tee_buffer_update+0x18c>
/home/pwnz/devel/optee/optee_os/lib/libutee/tee_api_operations.c:886
    41ac:	d37ffb54 	lsl	x20, x26, #1
/home/pwnz/devel/optee/optee_os/lib/libutee/tee_api_operations.c:887
    41b0:	d280003c 	mov	x28, #0x1                   	// #1
/home/pwnz/devel/optee/optee_os/lib/libutee/tee_api_operations.c:893
    41b4:	f9402a60 	ldr	x0, [x19,#80]
    41b8:	b4000260 	cbz	x0, 4204 <tee_buffer_update+0xdc>
/home/pwnz/devel/optee/optee_os/lib/libutee/tee_api_operations.c:895
    41bc:	eb1a001f 	cmp	x0, x26
    41c0:	54000802 	b.cs	42c0 <tee_buffer_update+0x198>
/home/pwnz/devel/optee/optee_os/lib/libutee/tee_api_operations.c:896
    41c4:	cb00035a 	sub	x26, x26, x0
/home/pwnz/devel/optee/optee_os/lib/libutee/tee_api_operations.c:899
    41c8:	f9401e63 	ldr	x3, [x19,#56]
/home/pwnz/devel/optee/optee_os/lib/libutee/tee_api_operations.c:898
    41cc:	eb19035f 	cmp	x26, x25
    41d0:	9a99935a 	csel	x26, x26, x25, ls
/home/pwnz/devel/optee/optee_os/lib/libutee/tee_api_operations.c:899
    41d4:	aa1503e1 	mov	x1, x21
    41d8:	aa1a03e2 	mov	x2, x26
    41dc:	8b000060 	add	x0, x3, x0
    41e0:	940009c9 	bl	6904 <memcpy>
/home/pwnz/devel/optee/optee_os/lib/libutee/tee_api_operations.c:900
    41e4:	a9448262 	ldp	x2, x0, [x19,#72]
    41e8:	8b000340 	add	x0, x26, x0
    41ec:	f9002a60 	str	x0, [x19,#80]
/home/pwnz/devel/optee/optee_os/lib/libutee/tee_api_operations.c:903
    41f0:	9ac20801 	udiv	x1, x0, x2
    41f4:	9b028020 	msub	x0, x1, x2, x0
    41f8:	b5fffb20 	cbnz	x0, 415c <tee_buffer_update+0x34>
/home/pwnz/devel/optee/optee_os/lib/libutee/tee_api_operations.c:901
    41fc:	8b1a02b5 	add	x21, x21, x26
/home/pwnz/devel/optee/optee_os/lib/libutee/tee_api_operations.c:902
    4200:	cb1a0339 	sub	x25, x25, x26
/home/pwnz/devel/optee/optee_os/lib/libutee/tee_api_operations.c:908
    4204:	f9402a77 	ldr	x23, [x19,#80]
    4208:	8b1c029c 	add	x28, x20, x28
    420c:	b4000617 	cbz	x23, 42cc <tee_buffer_update+0x1a4>
/home/pwnz/devel/optee/optee_os/lib/libutee/tee_api_operations.c:909 (discriminator 1)
    4210:	8b170320 	add	x0, x25, x23
/home/pwnz/devel/optee/optee_os/lib/libutee/tee_api_operations.c:908 (discriminator 1)
    4214:	eb1c001f 	cmp	x0, x28
    4218:	54000583 	b.cc	42c8 <tee_buffer_update+0x1a0>
/home/pwnz/devel/optee/optee_os/lib/libutee/tee_api_operations.c:910
    421c:	f9402661 	ldr	x1, [x19,#72]
    4220:	cb14001a 	sub	x26, x0, x20
/home/pwnz/devel/optee/optee_os/lib/libutee/tee_api_operations.c:913
    4224:	910203a4 	add	x4, x29, #0x80
/home/pwnz/devel/optee/optee_os/lib/libutee/tee_api_operations.c:914
    4228:	aa1b03e3 	mov	x3, x27
/home/pwnz/devel/optee/optee_os/lib/libutee/tee_api_operations.c:910
    422c:	d1000420 	sub	x0, x1, #0x1
    4230:	cb0103e1 	neg	x1, x1
    4234:	8b00035a 	add	x26, x26, x0
/home/pwnz/devel/optee/optee_os/lib/libutee/tee_api_operations.c:914
    4238:	b9405a60 	ldr	w0, [x19,#88]
/home/pwnz/devel/optee/optee_os/lib/libutee/tee_api_operations.c:910
    423c:	8a01035a 	and	x26, x26, x1
/home/pwnz/devel/optee/optee_os/lib/libutee/tee_api_operations.c:914
    4240:	f9401e61 	ldr	x1, [x19,#56]
/home/pwnz/devel/optee/optee_os/lib/libutee/tee_api_operations.c:912
    4244:	eb17035f 	cmp	x26, x23
/home/pwnz/devel/optee/optee_os/lib/libutee/tee_api_operations.c:913
    4248:	f81f8c96 	str	x22, [x4,#-8]!
/home/pwnz/devel/optee/optee_os/lib/libutee/tee_api_operations.c:912
    424c:	9a97935a 	csel	x26, x26, x23, ls
/home/pwnz/devel/optee/optee_os/lib/libutee/tee_api_operations.c:914
    4250:	aa1a03e2 	mov	x2, x26
    4254:	d63f0300 	blr	x24
/home/pwnz/devel/optee/optee_os/lib/libutee/tee_api_operations.c:915
    4258:	34000040 	cbz	w0, 4260 <tee_buffer_update+0x138>
/home/pwnz/devel/optee/optee_os/lib/libutee/tee_api_operations.c:916
    425c:	9400003a 	bl	4344 <TEE_Panic>
/home/pwnz/devel/optee/optee_os/lib/libutee/tee_api_operations.c:920
    4260:	f9402a60 	ldr	x0, [x19,#80]
/home/pwnz/devel/optee/optee_os/lib/libutee/tee_api_operations.c:917
    4264:	f9403fb7 	ldr	x23, [x29,#120]
/home/pwnz/devel/optee/optee_os/lib/libutee/tee_api_operations.c:920
    4268:	cb1a0000 	sub	x0, x0, x26
    426c:	f9002a60 	str	x0, [x19,#80]
/home/pwnz/devel/optee/optee_os/lib/libutee/tee_api_operations.c:917
    4270:	8b17037b 	add	x27, x27, x23
/home/pwnz/devel/optee/optee_os/lib/libutee/tee_api_operations.c:918
    4274:	cb1702d6 	sub	x22, x22, x23
/home/pwnz/devel/optee/optee_os/lib/libutee/tee_api_operations.c:921
    4278:	b40002a0 	cbz	x0, 42cc <tee_buffer_update+0x1a4>
/home/pwnz/devel/optee/optee_os/lib/libutee/tee_api_operations.c:925
    427c:	f9401e60 	ldr	x0, [x19,#56]
    4280:	cb1a0282 	sub	x2, x20, x26
    4284:	8b1a0001 	add	x1, x0, x26
    4288:	9400099f 	bl	6904 <memcpy>
/home/pwnz/devel/optee/optee_os/lib/libutee/tee_api_operations.c:951
    428c:	f9401e63 	ldr	x3, [x19,#56]
    4290:	aa1903e2 	mov	x2, x25
    4294:	f9402a60 	ldr	x0, [x19,#80]
    4298:	aa1503e1 	mov	x1, x21
    429c:	8b000060 	add	x0, x3, x0
    42a0:	94000999 	bl	6904 <memcpy>
/home/pwnz/devel/optee/optee_os/lib/libutee/tee_api_operations.c:952
    42a4:	f9402a60 	ldr	x0, [x19,#80]
    42a8:	8b190019 	add	x25, x0, x25
    42ac:	f9002a79 	str	x25, [x19,#80]
    42b0:	17ffffac 	b	4160 <tee_buffer_update+0x38>
/home/pwnz/devel/optee/optee_os/lib/libutee/tee_api_operations.c:889
    42b4:	aa1a03f4 	mov	x20, x26
/home/pwnz/devel/optee/optee_os/lib/libutee/tee_api_operations.c:890
    42b8:	d280001c 	mov	x28, #0x0                   	// #0
    42bc:	17ffffbe 	b	41b4 <tee_buffer_update+0x8c>
/home/pwnz/devel/optee/optee_os/lib/libutee/tee_api_operations.c:898
    42c0:	cb00029a 	sub	x26, x20, x0
    42c4:	17ffffc1 	b	41c8 <tee_buffer_update+0xa0>
/home/pwnz/devel/optee/optee_os/lib/libutee/tee_api_operations.c:873
    42c8:	d2800017 	mov	x23, #0x0                   	// #0
/home/pwnz/devel/optee/optee_os/lib/libutee/tee_api_operations.c:932
    42cc:	eb1c033f 	cmp	x25, x28
    42d0:	54fffde3 	b.cc	428c <tee_buffer_update+0x164>
/home/pwnz/devel/optee/optee_os/lib/libutee/tee_api_operations.c:934
    42d4:	52806200 	mov	w0, #0x310                 	// #784
    42d8:	b9400261 	ldr	w1, [x19]
    42dc:	72a20000 	movk	w0, #0x1000, lsl #16
    42e0:	6b00003f 	cmp	w1, w0
    42e4:	f9402660 	ldr	x0, [x19,#72]
    42e8:	54000281 	b.ne	4338 <tee_buffer_update+0x210>
/home/pwnz/devel/optee/optee_os/lib/libutee/tee_api_operations.c:935
    42ec:	cb140334 	sub	x20, x25, x20
    42f0:	d1000401 	sub	x1, x0, #0x1
    42f4:	8b010294 	add	x20, x20, x1
/home/pwnz/devel/optee/optee_os/lib/libutee/tee_api_operations.c:937
    42f8:	cb0003e0 	neg	x0, x0
/home/pwnz/devel/optee/optee_os/lib/libutee/tee_api_operations.c:939
    42fc:	910203a4 	add	x4, x29, #0x80
/home/pwnz/devel/optee/optee_os/lib/libutee/tee_api_operations.c:937
    4300:	8a000294 	and	x20, x20, x0
/home/pwnz/devel/optee/optee_os/lib/libutee/tee_api_operations.c:940
    4304:	b9405a60 	ldr	w0, [x19,#88]
    4308:	aa1b03e3 	mov	x3, x27
    430c:	aa1403e2 	mov	x2, x20
/home/pwnz/devel/optee/optee_os/lib/libutee/tee_api_operations.c:939
    4310:	f81f8c96 	str	x22, [x4,#-8]!
/home/pwnz/devel/optee/optee_os/lib/libutee/tee_api_operations.c:940
    4314:	aa1503e1 	mov	x1, x21
    4318:	d63f0300 	blr	x24
/home/pwnz/devel/optee/optee_os/lib/libutee/tee_api_operations.c:941
    431c:	34000040 	cbz	w0, 4324 <tee_buffer_update+0x1fc>
/home/pwnz/devel/optee/optee_os/lib/libutee/tee_api_operations.c:942
    4320:	94000009 	bl	4344 <TEE_Panic>
/home/pwnz/devel/optee/optee_os/lib/libutee/tee_api_operations.c:947
    4324:	f9403fa0 	ldr	x0, [x29,#120]
/home/pwnz/devel/optee/optee_os/lib/libutee/tee_api_operations.c:943
    4328:	8b1402b5 	add	x21, x21, x20
/home/pwnz/devel/optee/optee_os/lib/libutee/tee_api_operations.c:944
    432c:	cb140339 	sub	x25, x25, x20
/home/pwnz/devel/optee/optee_os/lib/libutee/tee_api_operations.c:947
    4330:	8b0002f7 	add	x23, x23, x0
    4334:	17ffffd6 	b	428c <tee_buffer_update+0x164>
/home/pwnz/devel/optee/optee_os/lib/libutee/tee_api_operations.c:937
    4338:	cb140014 	sub	x20, x0, x20
    433c:	8b190294 	add	x20, x20, x25
    4340:	17ffffee 	b	42f8 <tee_buffer_update+0x1d0>

0000000000004344 <TEE_Panic>:
TEE_Panic():
/home/pwnz/devel/optee/optee_os/lib/libutee/tee_api_panic.c:34
    4344:	2a0003e0 	mov	w0, w0
    4348:	140000b1 	b	460c <utee_panic>

000000000000434c <ta_header_get_session>:
ta_header_get_session():
/home/pwnz/devel/optee/optee_os/lib/libutee/arch/arm/user_ta_entry.c:85
    434c:	2a0003e1 	mov	w1, w0
/home/pwnz/devel/optee/optee_os/lib/libutee/arch/arm/user_ta_entry.c:88
    4350:	d0000040 	adrp	x0, e000 <ta_props>
    4354:	f9407000 	ldr	x0, [x0,#224]
/home/pwnz/devel/optee/optee_os/lib/libutee/arch/arm/user_ta_entry.c:88 (discriminator 1)
    4358:	b5000040 	cbnz	x0, 4360 <ta_header_get_session+0x14>
/home/pwnz/devel/optee/optee_os/lib/libutee/arch/arm/user_ta_entry.c:93
    435c:	d65f03c0 	ret
/home/pwnz/devel/optee/optee_os/lib/libutee/arch/arm/user_ta_entry.c:89
    4360:	b9400002 	ldr	w2, [x0]
    4364:	6b01005f 	cmp	w2, w1
    4368:	54ffffa0 	b.eq	435c <ta_header_get_session+0x10>
/home/pwnz/devel/optee/optee_os/lib/libutee/arch/arm/user_ta_entry.c:88 (discriminator 2)
    436c:	f9400800 	ldr	x0, [x0,#16]
    4370:	17fffffa 	b	4358 <ta_header_get_session+0xc>

0000000000004374 <ta_header_remove_session>:
ta_header_remove_session():
/home/pwnz/devel/optee/optee_os/lib/libutee/arch/arm/user_ta_entry.c:135
    4374:	d0000041 	adrp	x1, e000 <ta_props>
/home/pwnz/devel/optee/optee_os/lib/libutee/arch/arm/user_ta_entry.c:132
    4378:	2a0003e3 	mov	w3, w0
/home/pwnz/devel/optee/optee_os/lib/libutee/arch/arm/user_ta_entry.c:135
    437c:	f9407020 	ldr	x0, [x1,#224]
/home/pwnz/devel/optee/optee_os/lib/libutee/arch/arm/user_ta_entry.c:135 (discriminator 1)
    4380:	b5000040 	cbnz	x0, 4388 <ta_header_remove_session+0x14>
    4384:	d65f03c0 	ret
/home/pwnz/devel/optee/optee_os/lib/libutee/arch/arm/user_ta_entry.c:136
    4388:	b9400002 	ldr	w2, [x0]
    438c:	6b03005f 	cmp	w2, w3
    4390:	f9400802 	ldr	x2, [x0,#16]
    4394:	54000261 	b.ne	43e0 <ta_header_remove_session+0x6c>
/home/pwnz/devel/optee/optee_os/lib/libutee/arch/arm/user_ta_entry.c:132
    4398:	a9bf7bfd 	stp	x29, x30, [sp,#-16]!
    439c:	910003fd 	mov	x29, sp
    43a0:	f9400c03 	ldr	x3, [x0,#24]
/home/pwnz/devel/optee/optee_os/lib/libutee/arch/arm/user_ta_entry.c:137
    43a4:	b4000182 	cbz	x2, 43d4 <ta_header_remove_session+0x60>
/home/pwnz/devel/optee/optee_os/lib/libutee/arch/arm/user_ta_entry.c:137 (discriminator 1)
    43a8:	f9000c43 	str	x3, [x2,#24]
/home/pwnz/devel/optee/optee_os/lib/libutee/arch/arm/user_ta_entry.c:137 (discriminator 4)
    43ac:	f9400c01 	ldr	x1, [x0,#24]
    43b0:	f9000022 	str	x2, [x1]
/home/pwnz/devel/optee/optee_os/lib/libutee/arch/arm/user_ta_entry.c:138 (discriminator 4)
    43b4:	97fff3ad 	bl	1268 <TEE_Free>
/home/pwnz/devel/optee/optee_os/lib/libutee/arch/arm/user_ta_entry.c:140 (discriminator 4)
    43b8:	b00000a1 	adrp	x1, 19000 <buf.3609+0xe68>
    43bc:	b9419c20 	ldr	w0, [x1,#412]
    43c0:	51000400 	sub	w0, w0, #0x1
    43c4:	b9019c20 	str	w0, [x1,#412]
/home/pwnz/devel/optee/optee_os/lib/libutee/arch/arm/user_ta_entry.c:141 (discriminator 4)
    43c8:	35000100 	cbnz	w0, 43e8 <ta_header_remove_session+0x74>
/home/pwnz/devel/optee/optee_os/lib/libutee/arch/arm/user_ta_entry.c:149
    43cc:	a8c17bfd 	ldp	x29, x30, [sp],#16
/home/pwnz/devel/optee/optee_os/lib/libutee/arch/arm/user_ta_entry.c:143
    43d0:	17ffef7e 	b	1c8 <TA_DestroyEntryPoint>
/home/pwnz/devel/optee/optee_os/lib/libutee/arch/arm/user_ta_entry.c:137 (discriminator 2)
    43d4:	91038021 	add	x1, x1, #0xe0
    43d8:	f9000423 	str	x3, [x1,#8]
    43dc:	17fffff4 	b	43ac <ta_header_remove_session+0x38>
/home/pwnz/devel/optee/optee_os/lib/libutee/arch/arm/user_ta_entry.c:135 (discriminator 2)
    43e0:	aa0203e0 	mov	x0, x2
    43e4:	17ffffe7 	b	4380 <ta_header_remove_session+0xc>
/home/pwnz/devel/optee/optee_os/lib/libutee/arch/arm/user_ta_entry.c:149
    43e8:	a8c17bfd 	ldp	x29, x30, [sp],#16
    43ec:	d65f03c0 	ret

00000000000043f0 <__utee_entry>:
__utee_entry():
/home/pwnz/devel/optee/optee_os/lib/libutee/arch/arm/user_ta_entry.c:216
    43f0:	a9b77bfd 	stp	x29, x30, [sp,#-144]!
/home/pwnz/devel/optee/optee_os/lib/libutee/arch/arm/user_ta_entry.c:227
    43f4:	f100041f 	cmp	x0, #0x1
/home/pwnz/devel/optee/optee_os/lib/libutee/arch/arm/user_ta_entry.c:216
    43f8:	910003fd 	mov	x29, sp
    43fc:	a90153f3 	stp	x19, x20, [sp,#16]
    4400:	aa0103f4 	mov	x20, x1
    4404:	a9025bf5 	stp	x21, x22, [sp,#32]
    4408:	f9001bf7 	str	x23, [sp,#48]
/home/pwnz/devel/optee/optee_os/lib/libutee/arch/arm/user_ta_entry.c:227
    440c:	54000b00 	b.eq	456c <__utee_entry+0x17c>
    4410:	aa0203f6 	mov	x22, x2
    4414:	b40000e0 	cbz	x0, 4430 <__utee_entry+0x40>
    4418:	f100081f 	cmp	x0, #0x2
    441c:	54000bc0 	b.eq	4594 <__utee_entry+0x1a4>
/home/pwnz/devel/optee/optee_os/lib/libutee/arch/arm/user_ta_entry.c:239
    4420:	52800000 	mov	w0, #0x0                   	// #0
/home/pwnz/devel/optee/optee_os/lib/libutee/arch/arm/user_ta_entry.c:238
    4424:	12800013 	mov	w19, #0xffffffff            	// #-1
/home/pwnz/devel/optee/optee_os/lib/libutee/arch/arm/user_ta_entry.c:239
    4428:	97ffffc7 	bl	4344 <TEE_Panic>
/home/pwnz/devel/optee/optee_os/lib/libutee/arch/arm/user_ta_entry.c:240
    442c:	14000010 	b	446c <__utee_entry+0x7c>
ta_header_add_session():
/home/pwnz/devel/optee/optee_os/lib/libutee/arch/arm/user_ta_entry.c:97
    4430:	2a0103e0 	mov	w0, w1
    4434:	97ffffc6 	bl	434c <ta_header_get_session>
/home/pwnz/devel/optee/optee_os/lib/libutee/arch/arm/user_ta_entry.c:99
    4438:	b50005c0 	cbnz	x0, 44f0 <__utee_entry+0x100>
/home/pwnz/devel/optee/optee_os/lib/libutee/arch/arm/user_ta_entry.c:102
    443c:	b00000a0 	adrp	x0, 19000 <buf.3609+0xe68>
    4440:	91067015 	add	x21, x0, #0x19c
    4444:	b9419c13 	ldr	w19, [x0,#412]
    4448:	11000673 	add	w19, w19, #0x1
    444c:	b9019c13 	str	w19, [x0,#412]
/home/pwnz/devel/optee/optee_os/lib/libutee/arch/arm/user_ta_entry.c:104
    4450:	7100067f 	cmp	w19, #0x1
    4454:	540001e0 	b.eq	4490 <__utee_entry+0xa0>
/home/pwnz/devel/optee/optee_os/lib/libutee/arch/arm/user_ta_entry.c:120
    4458:	52b00001 	mov	w1, #0x80000000            	// #-2147483648
    445c:	52800400 	mov	w0, #0x20                  	// #32
/home/pwnz/devel/optee/optee_os/lib/libutee/arch/arm/user_ta_entry.c:123
    4460:	129ffe73 	mov	w19, #0xffff000c            	// #-65524
/home/pwnz/devel/optee/optee_os/lib/libutee/arch/arm/user_ta_entry.c:120
    4464:	97fff37d 	bl	1258 <TEE_Malloc>
/home/pwnz/devel/optee/optee_os/lib/libutee/arch/arm/user_ta_entry.c:122
    4468:	b5000320 	cbnz	x0, 44cc <__utee_entry+0xdc>
ta_header_save_params():
/home/pwnz/devel/optee/optee_os/lib/libutee/arch/arm/user_ta_entry.c:76
    446c:	b0000040 	adrp	x0, d000 <__func__.3637+0xa28>
/home/pwnz/devel/optee/optee_os/lib/libutee/arch/arm/user_ta_entry.c:81
    4470:	d2800802 	mov	x2, #0x40                  	// #64
/home/pwnz/devel/optee/optee_os/lib/libutee/arch/arm/user_ta_entry.c:76
    4474:	f9431801 	ldr	x1, [x0,#1584]
/home/pwnz/devel/optee/optee_os/lib/libutee/arch/arm/user_ta_entry.c:81
    4478:	f9433000 	ldr	x0, [x0,#1632]
/home/pwnz/devel/optee/optee_os/lib/libutee/arch/arm/user_ta_entry.c:76
    447c:	b900003f 	str	wzr, [x1]
/home/pwnz/devel/optee/optee_os/lib/libutee/arch/arm/user_ta_entry.c:81
    4480:	52800001 	mov	w1, #0x0                   	// #0
    4484:	9400093b 	bl	6970 <memset>
__utee_entry():
/home/pwnz/devel/optee/optee_os/lib/libutee/arch/arm/user_ta_entry.c:243
    4488:	2a1303e0 	mov	w0, w19
    448c:	94000063 	bl	4618 <utee_return>
ta_header_add_session():
/home/pwnz/devel/optee/optee_os/lib/libutee/arch/arm/user_ta_entry.c:107
    4490:	394012a0 	ldrb	w0, [x21,#4]
    4494:	35000140 	cbnz	w0, 44bc <__utee_entry+0xcc>
/home/pwnz/devel/optee/optee_os/lib/libutee/arch/arm/user_ta_entry.c:108
    4498:	97fff255 	bl	dec <tahead_get_trace_level>
    449c:	94000c6f 	bl	7658 <trace_set_level>
/home/pwnz/devel/optee/optee_os/lib/libutee/arch/arm/user_ta_entry.c:110
    44a0:	b0000040 	adrp	x0, d000 <__func__.3637+0xa28>
    44a4:	f942fc01 	ldr	x1, [x0,#1528]
    44a8:	f9431400 	ldr	x0, [x0,#1576]
    44ac:	f9400021 	ldr	x1, [x1]
    44b0:	9400081c 	bl	6520 <malloc_add_pool>
/home/pwnz/devel/optee/optee_os/lib/libutee/arch/arm/user_ta_entry.c:111
    44b4:	940002b7 	bl	4f90 <_TEE_MathAPI_Init>
/home/pwnz/devel/optee/optee_os/lib/libutee/arch/arm/user_ta_entry.c:112
    44b8:	390012b3 	strb	w19, [x21,#4]
/home/pwnz/devel/optee/optee_os/lib/libutee/arch/arm/user_ta_entry.c:115
    44bc:	97ffef35 	bl	190 <TA_CreateEntryPoint>
    44c0:	2a0003f3 	mov	w19, w0
/home/pwnz/devel/optee/optee_os/lib/libutee/arch/arm/user_ta_entry.c:116
    44c4:	34fffca0 	cbz	w0, 4458 <__utee_entry+0x68>
    44c8:	17ffffe9 	b	446c <__utee_entry+0x7c>
/home/pwnz/devel/optee/optee_os/lib/libutee/arch/arm/user_ta_entry.c:126
    44cc:	d0000041 	adrp	x1, e000 <ta_props>
    44d0:	91038021 	add	x1, x1, #0xe0
    44d4:	f9400422 	ldr	x2, [x1,#8]
    44d8:	f9000c02 	str	x2, [x0,#24]
/home/pwnz/devel/optee/optee_os/lib/libutee/arch/arm/user_ta_entry.c:124
    44dc:	b9000014 	str	w20, [x0]
/home/pwnz/devel/optee/optee_os/lib/libutee/arch/arm/user_ta_entry.c:126
    44e0:	a900fc1f 	stp	xzr, xzr, [x0,#8]
    44e4:	f9000040 	str	x0, [x2]
    44e8:	91004000 	add	x0, x0, #0x10
    44ec:	f9000420 	str	x0, [x1,#8]
entry_open_session():
/home/pwnz/devel/optee/optee_os/lib/libutee/arch/arm/user_ta_entry.c:163
    44f0:	2a1403e0 	mov	w0, w20
/home/pwnz/devel/optee/optee_os/lib/libutee/arch/arm/user_ta_entry.c:165
    44f4:	129fff13 	mov	w19, #0xffff0007            	// #-65529
/home/pwnz/devel/optee/optee_os/lib/libutee/arch/arm/user_ta_entry.c:163
    44f8:	97ffff95 	bl	434c <ta_header_get_session>
    44fc:	aa0003f7 	mov	x23, x0
/home/pwnz/devel/optee/optee_os/lib/libutee/arch/arm/user_ta_entry.c:164
    4500:	b4fffb60 	cbz	x0, 446c <__utee_entry+0x7c>
/home/pwnz/devel/optee/optee_os/lib/libutee/arch/arm/user_ta_entry.c:167
    4504:	910143b5 	add	x21, x29, #0x50
    4508:	aa1603e2 	mov	x2, x22
    450c:	910133a1 	add	x1, x29, #0x4c
    4510:	aa1503e0 	mov	x0, x21
    4514:	97fff256 	bl	e6c <__utee_to_param>
/home/pwnz/devel/optee/optee_os/lib/libutee/arch/arm/user_ta_entry.c:168
    4518:	b9404fb3 	ldr	w19, [x29,#76]
ta_header_save_params():
/home/pwnz/devel/optee/optee_os/lib/libutee/arch/arm/user_ta_entry.c:76
    451c:	b0000040 	adrp	x0, d000 <__func__.3637+0xa28>
/home/pwnz/devel/optee/optee_os/lib/libutee/arch/arm/user_ta_entry.c:79
    4520:	d2800802 	mov	x2, #0x40                  	// #64
/home/pwnz/devel/optee/optee_os/lib/libutee/arch/arm/user_ta_entry.c:76
    4524:	f9431801 	ldr	x1, [x0,#1584]
/home/pwnz/devel/optee/optee_os/lib/libutee/arch/arm/user_ta_entry.c:79
    4528:	f9433000 	ldr	x0, [x0,#1632]
/home/pwnz/devel/optee/optee_os/lib/libutee/arch/arm/user_ta_entry.c:76
    452c:	b9000033 	str	w19, [x1]
/home/pwnz/devel/optee/optee_os/lib/libutee/arch/arm/user_ta_entry.c:79
    4530:	aa1503e1 	mov	x1, x21
    4534:	940008f4 	bl	6904 <memcpy>
entry_open_session():
/home/pwnz/devel/optee/optee_os/lib/libutee/arch/arm/user_ta_entry.c:170
    4538:	910022e2 	add	x2, x23, #0x8
    453c:	aa1503e1 	mov	x1, x21
    4540:	2a1303e0 	mov	w0, w19
    4544:	97ffef2a 	bl	1ec <TA_OpenSessionEntryPoint>
/home/pwnz/devel/optee/optee_os/lib/libutee/arch/arm/user_ta_entry.c:173
    4548:	b9404fa1 	ldr	w1, [x29,#76]
/home/pwnz/devel/optee/optee_os/lib/libutee/arch/arm/user_ta_entry.c:170
    454c:	2a0003f3 	mov	w19, w0
/home/pwnz/devel/optee/optee_os/lib/libutee/arch/arm/user_ta_entry.c:173
    4550:	aa1503e2 	mov	x2, x21
    4554:	aa1603e0 	mov	x0, x22
    4558:	97fff227 	bl	df4 <__utee_from_param>
/home/pwnz/devel/optee/optee_os/lib/libutee/arch/arm/user_ta_entry.c:175
    455c:	34fff893 	cbz	w19, 446c <__utee_entry+0x7c>
/home/pwnz/devel/optee/optee_os/lib/libutee/arch/arm/user_ta_entry.c:176
    4560:	2a1403e0 	mov	w0, w20
    4564:	97ffff84 	bl	4374 <ta_header_remove_session>
    4568:	17ffffc1 	b	446c <__utee_entry+0x7c>
entry_close_session():
/home/pwnz/devel/optee/optee_os/lib/libutee/arch/arm/user_ta_entry.c:182
    456c:	2a0103e0 	mov	w0, w1
/home/pwnz/devel/optee/optee_os/lib/libutee/arch/arm/user_ta_entry.c:185
    4570:	129fff13 	mov	w19, #0xffff0007            	// #-65529
/home/pwnz/devel/optee/optee_os/lib/libutee/arch/arm/user_ta_entry.c:182
    4574:	97ffff76 	bl	434c <ta_header_get_session>
/home/pwnz/devel/optee/optee_os/lib/libutee/arch/arm/user_ta_entry.c:184
    4578:	b4fff7a0 	cbz	x0, 446c <__utee_entry+0x7c>
/home/pwnz/devel/optee/optee_os/lib/libutee/arch/arm/user_ta_entry.c:187
    457c:	f9400400 	ldr	x0, [x0,#8]
/home/pwnz/devel/optee/optee_os/lib/libutee/arch/arm/user_ta_entry.c:190
    4580:	52800013 	mov	w19, #0x0                   	// #0
/home/pwnz/devel/optee/optee_os/lib/libutee/arch/arm/user_ta_entry.c:187
    4584:	97ffef2d 	bl	238 <TA_CloseSessionEntryPoint>
/home/pwnz/devel/optee/optee_os/lib/libutee/arch/arm/user_ta_entry.c:189
    4588:	2a1403e0 	mov	w0, w20
    458c:	97ffff7a 	bl	4374 <ta_header_remove_session>
    4590:	17ffffb7 	b	446c <__utee_entry+0x7c>
entry_invoke_command():
/home/pwnz/devel/optee/optee_os/lib/libutee/arch/arm/user_ta_entry.c:199
    4594:	2a0103e0 	mov	w0, w1
/home/pwnz/devel/optee/optee_os/lib/libutee/arch/arm/user_ta_entry.c:202
    4598:	129fff13 	mov	w19, #0xffff0007            	// #-65529
/home/pwnz/devel/optee/optee_os/lib/libutee/arch/arm/user_ta_entry.c:199
    459c:	97ffff6c 	bl	434c <ta_header_get_session>
    45a0:	aa0003f5 	mov	x21, x0
/home/pwnz/devel/optee/optee_os/lib/libutee/arch/arm/user_ta_entry.c:201
    45a4:	b4fff640 	cbz	x0, 446c <__utee_entry+0x7c>
/home/pwnz/devel/optee/optee_os/lib/libutee/arch/arm/user_ta_entry.c:204
    45a8:	910143b4 	add	x20, x29, #0x50
    45ac:	aa0303f7 	mov	x23, x3
    45b0:	aa1603e2 	mov	x2, x22
    45b4:	910133a1 	add	x1, x29, #0x4c
    45b8:	aa1403e0 	mov	x0, x20
    45bc:	97fff22c 	bl	e6c <__utee_to_param>
ta_header_save_params():
/home/pwnz/devel/optee/optee_os/lib/libutee/arch/arm/user_ta_entry.c:76
    45c0:	b0000040 	adrp	x0, d000 <__func__.3637+0xa28>
entry_invoke_command():
/home/pwnz/devel/optee/optee_os/lib/libutee/arch/arm/user_ta_entry.c:205
    45c4:	b9404fb3 	ldr	w19, [x29,#76]
ta_header_save_params():
/home/pwnz/devel/optee/optee_os/lib/libutee/arch/arm/user_ta_entry.c:79
    45c8:	d2800802 	mov	x2, #0x40                  	// #64
/home/pwnz/devel/optee/optee_os/lib/libutee/arch/arm/user_ta_entry.c:76
    45cc:	f9431801 	ldr	x1, [x0,#1584]
/home/pwnz/devel/optee/optee_os/lib/libutee/arch/arm/user_ta_entry.c:79
    45d0:	f9433000 	ldr	x0, [x0,#1632]
/home/pwnz/devel/optee/optee_os/lib/libutee/arch/arm/user_ta_entry.c:76
    45d4:	b9000033 	str	w19, [x1]
/home/pwnz/devel/optee/optee_os/lib/libutee/arch/arm/user_ta_entry.c:79
    45d8:	aa1403e1 	mov	x1, x20
    45dc:	940008ca 	bl	6904 <memcpy>
entry_invoke_command():
/home/pwnz/devel/optee/optee_os/lib/libutee/arch/arm/user_ta_entry.c:207
    45e0:	f94006a0 	ldr	x0, [x21,#8]
    45e4:	2a1303e2 	mov	w2, w19
    45e8:	2a1703e1 	mov	w1, w23
    45ec:	aa1403e3 	mov	x3, x20
    45f0:	97ffef1b 	bl	25c <TA_InvokeCommandEntryPoint>
    45f4:	2a0003f3 	mov	w19, w0
/home/pwnz/devel/optee/optee_os/lib/libutee/arch/arm/user_ta_entry.c:210
    45f8:	b9404fa1 	ldr	w1, [x29,#76]
    45fc:	aa1403e2 	mov	x2, x20
    4600:	aa1603e0 	mov	x0, x22
    4604:	97fff1fc 	bl	df4 <__utee_from_param>
    4608:	17ffff99 	b	446c <__utee_entry+0x7c>

000000000000460c <utee_panic>:
utee_panic():
/home/pwnz/devel/optee/optee_os/lib/libutee/arch/arm/utee_syscalls_a64.S:46
    460c:	a9bf7bfd 	stp	x29, x30, [sp,#-16]!
/home/pwnz/devel/optee/optee_os/lib/libutee/arch/arm/utee_syscalls_a64.S:47
    4610:	910003e1 	mov	x1, sp
/home/pwnz/devel/optee/optee_os/lib/libutee/arch/arm/utee_syscalls_a64.S:48
    4614:	94000007 	bl	4630 <__utee_panic>

0000000000004618 <utee_return>:
utee_return():
/home/pwnz/devel/optee/optee_os/lib/libutee/arch/arm/utee_syscalls_asm.S:30
    4618:	d2800008 	mov	x8, #0x0                   	// #0
    461c:	d4000001 	svc	#0x0
    4620:	d65f03c0 	ret

0000000000004624 <utee_log>:
utee_log():
/home/pwnz/devel/optee/optee_os/lib/libutee/arch/arm/utee_syscalls_asm.S:32
    4624:	d2800028 	mov	x8, #0x1                   	// #1
    4628:	d4000001 	svc	#0x0
    462c:	d65f03c0 	ret

0000000000004630 <__utee_panic>:
__utee_panic():
/home/pwnz/devel/optee/optee_os/lib/libutee/arch/arm/utee_syscalls_asm.S:34
    4630:	d2800048 	mov	x8, #0x2                   	// #2
    4634:	d4000001 	svc	#0x0
    4638:	d65f03c0 	ret

000000000000463c <utee_get_property>:
utee_get_property():
/home/pwnz/devel/optee/optee_os/lib/libutee/arch/arm/utee_syscalls_asm.S:36
    463c:	d2800068 	mov	x8, #0x3                   	// #3
    4640:	d4000001 	svc	#0x0
    4644:	d65f03c0 	ret

0000000000004648 <utee_get_property_name_to_index>:
utee_get_property_name_to_index():
/home/pwnz/devel/optee/optee_os/lib/libutee/arch/arm/utee_syscalls_asm.S:38
    4648:	d2800088 	mov	x8, #0x4                   	// #4
    464c:	d4000001 	svc	#0x0
    4650:	d65f03c0 	ret

0000000000004654 <utee_open_ta_session>:
utee_open_ta_session():
/home/pwnz/devel/optee/optee_os/lib/libutee/arch/arm/utee_syscalls_asm.S:41
    4654:	d28000a8 	mov	x8, #0x5                   	// #5
    4658:	d4000001 	svc	#0x0
    465c:	d65f03c0 	ret

0000000000004660 <utee_close_ta_session>:
utee_close_ta_session():
/home/pwnz/devel/optee/optee_os/lib/libutee/arch/arm/utee_syscalls_asm.S:43
    4660:	d28000c8 	mov	x8, #0x6                   	// #6
    4664:	d4000001 	svc	#0x0
    4668:	d65f03c0 	ret

000000000000466c <utee_invoke_ta_command>:
utee_invoke_ta_command():
/home/pwnz/devel/optee/optee_os/lib/libutee/arch/arm/utee_syscalls_asm.S:45
    466c:	d28000e8 	mov	x8, #0x7                   	// #7
    4670:	d4000001 	svc	#0x0
    4674:	d65f03c0 	ret

0000000000004678 <utee_get_cancellation_flag>:
utee_get_cancellation_flag():
/home/pwnz/devel/optee/optee_os/lib/libutee/arch/arm/utee_syscalls_asm.S:47
    4678:	d2800128 	mov	x8, #0x9                   	// #9
    467c:	d4000001 	svc	#0x0
    4680:	d65f03c0 	ret

0000000000004684 <utee_check_access_rights>:
utee_check_access_rights():
/home/pwnz/devel/optee/optee_os/lib/libutee/arch/arm/utee_syscalls_asm.S:50
    4684:	d2800108 	mov	x8, #0x8                   	// #8
    4688:	d4000001 	svc	#0x0
    468c:	d65f03c0 	ret

0000000000004690 <utee_unmask_cancellation>:
utee_unmask_cancellation():
/home/pwnz/devel/optee/optee_os/lib/libutee/arch/arm/utee_syscalls_asm.S:52
    4690:	d2800148 	mov	x8, #0xa                   	// #10
    4694:	d4000001 	svc	#0x0
    4698:	d65f03c0 	ret

000000000000469c <utee_mask_cancellation>:
utee_mask_cancellation():
/home/pwnz/devel/optee/optee_os/lib/libutee/arch/arm/utee_syscalls_asm.S:54
    469c:	d2800168 	mov	x8, #0xb                   	// #11
    46a0:	d4000001 	svc	#0x0
    46a4:	d65f03c0 	ret

00000000000046a8 <utee_wait>:
utee_wait():
/home/pwnz/devel/optee/optee_os/lib/libutee/arch/arm/utee_syscalls_asm.S:56
    46a8:	d2800188 	mov	x8, #0xc                   	// #12
    46ac:	d4000001 	svc	#0x0
    46b0:	d65f03c0 	ret

00000000000046b4 <utee_get_time>:
utee_get_time():
/home/pwnz/devel/optee/optee_os/lib/libutee/arch/arm/utee_syscalls_asm.S:58
    46b4:	d28001a8 	mov	x8, #0xd                   	// #13
    46b8:	d4000001 	svc	#0x0
    46bc:	d65f03c0 	ret

00000000000046c0 <utee_set_ta_time>:
utee_set_ta_time():
/home/pwnz/devel/optee/optee_os/lib/libutee/arch/arm/utee_syscalls_asm.S:60
    46c0:	d28001c8 	mov	x8, #0xe                   	// #14
    46c4:	d4000001 	svc	#0x0
    46c8:	d65f03c0 	ret

00000000000046cc <utee_cryp_state_alloc>:
utee_cryp_state_alloc():
/home/pwnz/devel/optee/optee_os/lib/libutee/arch/arm/utee_syscalls_asm.S:62
    46cc:	d28001e8 	mov	x8, #0xf                   	// #15
    46d0:	d4000001 	svc	#0x0
    46d4:	d65f03c0 	ret

00000000000046d8 <utee_cryp_state_copy>:
utee_cryp_state_copy():
/home/pwnz/devel/optee/optee_os/lib/libutee/arch/arm/utee_syscalls_asm.S:64
    46d8:	d2800208 	mov	x8, #0x10                  	// #16
    46dc:	d4000001 	svc	#0x0
    46e0:	d65f03c0 	ret

00000000000046e4 <utee_cryp_state_free>:
utee_cryp_state_free():
/home/pwnz/devel/optee/optee_os/lib/libutee/arch/arm/utee_syscalls_asm.S:66
    46e4:	d2800228 	mov	x8, #0x11                  	// #17
    46e8:	d4000001 	svc	#0x0
    46ec:	d65f03c0 	ret

00000000000046f0 <utee_hash_init>:
utee_hash_init():
/home/pwnz/devel/optee/optee_os/lib/libutee/arch/arm/utee_syscalls_asm.S:68
    46f0:	d2800248 	mov	x8, #0x12                  	// #18
    46f4:	d4000001 	svc	#0x0
    46f8:	d65f03c0 	ret

00000000000046fc <utee_hash_update>:
utee_hash_update():
/home/pwnz/devel/optee/optee_os/lib/libutee/arch/arm/utee_syscalls_asm.S:70
    46fc:	d2800268 	mov	x8, #0x13                  	// #19
    4700:	d4000001 	svc	#0x0
    4704:	d65f03c0 	ret

0000000000004708 <utee_hash_final>:
utee_hash_final():
/home/pwnz/devel/optee/optee_os/lib/libutee/arch/arm/utee_syscalls_asm.S:72
    4708:	d2800288 	mov	x8, #0x14                  	// #20
    470c:	d4000001 	svc	#0x0
    4710:	d65f03c0 	ret

0000000000004714 <utee_cipher_init>:
utee_cipher_init():
/home/pwnz/devel/optee/optee_os/lib/libutee/arch/arm/utee_syscalls_asm.S:74
    4714:	d28002a8 	mov	x8, #0x15                  	// #21
    4718:	d4000001 	svc	#0x0
    471c:	d65f03c0 	ret

0000000000004720 <utee_cipher_update>:
utee_cipher_update():
/home/pwnz/devel/optee/optee_os/lib/libutee/arch/arm/utee_syscalls_asm.S:76
    4720:	d28002c8 	mov	x8, #0x16                  	// #22
    4724:	d4000001 	svc	#0x0
    4728:	d65f03c0 	ret

000000000000472c <utee_cipher_final>:
utee_cipher_final():
/home/pwnz/devel/optee/optee_os/lib/libutee/arch/arm/utee_syscalls_asm.S:78
    472c:	d28002e8 	mov	x8, #0x17                  	// #23
    4730:	d4000001 	svc	#0x0
    4734:	d65f03c0 	ret

0000000000004738 <utee_cryp_obj_get_info>:
utee_cryp_obj_get_info():
/home/pwnz/devel/optee/optee_os/lib/libutee/arch/arm/utee_syscalls_asm.S:80
    4738:	d2800308 	mov	x8, #0x18                  	// #24
    473c:	d4000001 	svc	#0x0
    4740:	d65f03c0 	ret

0000000000004744 <utee_cryp_obj_restrict_usage>:
utee_cryp_obj_restrict_usage():
/home/pwnz/devel/optee/optee_os/lib/libutee/arch/arm/utee_syscalls_asm.S:82
    4744:	d2800328 	mov	x8, #0x19                  	// #25
    4748:	d4000001 	svc	#0x0
    474c:	d65f03c0 	ret

0000000000004750 <utee_cryp_obj_get_attr>:
utee_cryp_obj_get_attr():
/home/pwnz/devel/optee/optee_os/lib/libutee/arch/arm/utee_syscalls_asm.S:85
    4750:	d2800348 	mov	x8, #0x1a                  	// #26
    4754:	d4000001 	svc	#0x0
    4758:	d65f03c0 	ret

000000000000475c <utee_cryp_obj_alloc>:
utee_cryp_obj_alloc():
/home/pwnz/devel/optee/optee_os/lib/libutee/arch/arm/utee_syscalls_asm.S:87
    475c:	d2800368 	mov	x8, #0x1b                  	// #27
    4760:	d4000001 	svc	#0x0
    4764:	d65f03c0 	ret

0000000000004768 <utee_cryp_obj_close>:
utee_cryp_obj_close():
/home/pwnz/devel/optee/optee_os/lib/libutee/arch/arm/utee_syscalls_asm.S:89
    4768:	d2800388 	mov	x8, #0x1c                  	// #28
    476c:	d4000001 	svc	#0x0
    4770:	d65f03c0 	ret

0000000000004774 <utee_cryp_obj_reset>:
utee_cryp_obj_reset():
/home/pwnz/devel/optee/optee_os/lib/libutee/arch/arm/utee_syscalls_asm.S:91
    4774:	d28003a8 	mov	x8, #0x1d                  	// #29
    4778:	d4000001 	svc	#0x0
    477c:	d65f03c0 	ret

0000000000004780 <utee_cryp_obj_populate>:
utee_cryp_obj_populate():
/home/pwnz/devel/optee/optee_os/lib/libutee/arch/arm/utee_syscalls_asm.S:93
    4780:	d28003c8 	mov	x8, #0x1e                  	// #30
    4784:	d4000001 	svc	#0x0
    4788:	d65f03c0 	ret

000000000000478c <utee_cryp_obj_copy>:
utee_cryp_obj_copy():
/home/pwnz/devel/optee/optee_os/lib/libutee/arch/arm/utee_syscalls_asm.S:95
    478c:	d28003e8 	mov	x8, #0x1f                  	// #31
    4790:	d4000001 	svc	#0x0
    4794:	d65f03c0 	ret

0000000000004798 <utee_cryp_derive_key>:
utee_cryp_derive_key():
/home/pwnz/devel/optee/optee_os/lib/libutee/arch/arm/utee_syscalls_asm.S:97
    4798:	d2800408 	mov	x8, #0x20                  	// #32
    479c:	d4000001 	svc	#0x0
    47a0:	d65f03c0 	ret

00000000000047a4 <utee_cryp_random_number_generate>:
utee_cryp_random_number_generate():
/home/pwnz/devel/optee/optee_os/lib/libutee/arch/arm/utee_syscalls_asm.S:99
    47a4:	d2800428 	mov	x8, #0x21                  	// #33
    47a8:	d4000001 	svc	#0x0
    47ac:	d65f03c0 	ret

00000000000047b0 <utee_authenc_init>:
utee_authenc_init():
/home/pwnz/devel/optee/optee_os/lib/libutee/arch/arm/utee_syscalls_asm.S:102
    47b0:	d2800448 	mov	x8, #0x22                  	// #34
    47b4:	d4000001 	svc	#0x0
    47b8:	d65f03c0 	ret

00000000000047bc <utee_authenc_update_aad>:
utee_authenc_update_aad():
/home/pwnz/devel/optee/optee_os/lib/libutee/arch/arm/utee_syscalls_asm.S:104
    47bc:	d2800468 	mov	x8, #0x23                  	// #35
    47c0:	d4000001 	svc	#0x0
    47c4:	d65f03c0 	ret

00000000000047c8 <utee_authenc_update_payload>:
utee_authenc_update_payload():
/home/pwnz/devel/optee/optee_os/lib/libutee/arch/arm/utee_syscalls_asm.S:106
    47c8:	d2800488 	mov	x8, #0x24                  	// #36
    47cc:	d4000001 	svc	#0x0
    47d0:	d65f03c0 	ret

00000000000047d4 <utee_authenc_enc_final>:
utee_authenc_enc_final():
/home/pwnz/devel/optee/optee_os/lib/libutee/arch/arm/utee_syscalls_asm.S:109
    47d4:	d28004a8 	mov	x8, #0x25                  	// #37
    47d8:	d4000001 	svc	#0x0
    47dc:	d65f03c0 	ret

00000000000047e0 <utee_authenc_dec_final>:
utee_authenc_dec_final():
/home/pwnz/devel/optee/optee_os/lib/libutee/arch/arm/utee_syscalls_asm.S:111
    47e0:	d28004c8 	mov	x8, #0x26                  	// #38
    47e4:	d4000001 	svc	#0x0
    47e8:	d65f03c0 	ret

00000000000047ec <utee_asymm_operate>:
utee_asymm_operate():
/home/pwnz/devel/optee/optee_os/lib/libutee/arch/arm/utee_syscalls_asm.S:113
    47ec:	d28004e8 	mov	x8, #0x27                  	// #39
    47f0:	d4000001 	svc	#0x0
    47f4:	d65f03c0 	ret

00000000000047f8 <utee_asymm_verify>:
utee_asymm_verify():
/home/pwnz/devel/optee/optee_os/lib/libutee/arch/arm/utee_syscalls_asm.S:115
    47f8:	d2800508 	mov	x8, #0x28                  	// #40
    47fc:	d4000001 	svc	#0x0
    4800:	d65f03c0 	ret

0000000000004804 <utee_storage_obj_open>:
utee_storage_obj_open():
/home/pwnz/devel/optee/optee_os/lib/libutee/arch/arm/utee_syscalls_asm.S:117
    4804:	d2800528 	mov	x8, #0x29                  	// #41
    4808:	d4000001 	svc	#0x0
    480c:	d65f03c0 	ret

0000000000004810 <utee_storage_obj_create>:
utee_storage_obj_create():
/home/pwnz/devel/optee/optee_os/lib/libutee/arch/arm/utee_syscalls_asm.S:119
    4810:	d2800548 	mov	x8, #0x2a                  	// #42
    4814:	d4000001 	svc	#0x0
    4818:	d65f03c0 	ret

000000000000481c <utee_storage_obj_del>:
utee_storage_obj_del():
/home/pwnz/devel/optee/optee_os/lib/libutee/arch/arm/utee_syscalls_asm.S:121
    481c:	d2800568 	mov	x8, #0x2b                  	// #43
    4820:	d4000001 	svc	#0x0
    4824:	d65f03c0 	ret

0000000000004828 <utee_storage_obj_rename>:
utee_storage_obj_rename():
/home/pwnz/devel/optee/optee_os/lib/libutee/arch/arm/utee_syscalls_asm.S:123
    4828:	d2800588 	mov	x8, #0x2c                  	// #44
    482c:	d4000001 	svc	#0x0
    4830:	d65f03c0 	ret

0000000000004834 <utee_storage_alloc_enum>:
utee_storage_alloc_enum():
/home/pwnz/devel/optee/optee_os/lib/libutee/arch/arm/utee_syscalls_asm.S:125
    4834:	d28005a8 	mov	x8, #0x2d                  	// #45
    4838:	d4000001 	svc	#0x0
    483c:	d65f03c0 	ret

0000000000004840 <utee_storage_free_enum>:
utee_storage_free_enum():
/home/pwnz/devel/optee/optee_os/lib/libutee/arch/arm/utee_syscalls_asm.S:127
    4840:	d28005c8 	mov	x8, #0x2e                  	// #46
    4844:	d4000001 	svc	#0x0
    4848:	d65f03c0 	ret

000000000000484c <utee_storage_reset_enum>:
utee_storage_reset_enum():
/home/pwnz/devel/optee/optee_os/lib/libutee/arch/arm/utee_syscalls_asm.S:129
    484c:	d28005e8 	mov	x8, #0x2f                  	// #47
    4850:	d4000001 	svc	#0x0
    4854:	d65f03c0 	ret

0000000000004858 <utee_storage_start_enum>:
utee_storage_start_enum():
/home/pwnz/devel/optee/optee_os/lib/libutee/arch/arm/utee_syscalls_asm.S:131
    4858:	d2800608 	mov	x8, #0x30                  	// #48
    485c:	d4000001 	svc	#0x0
    4860:	d65f03c0 	ret

0000000000004864 <utee_storage_next_enum>:
utee_storage_next_enum():
/home/pwnz/devel/optee/optee_os/lib/libutee/arch/arm/utee_syscalls_asm.S:133
    4864:	d2800628 	mov	x8, #0x31                  	// #49
    4868:	d4000001 	svc	#0x0
    486c:	d65f03c0 	ret

0000000000004870 <utee_storage_obj_read>:
utee_storage_obj_read():
/home/pwnz/devel/optee/optee_os/lib/libutee/arch/arm/utee_syscalls_asm.S:135
    4870:	d2800648 	mov	x8, #0x32                  	// #50
    4874:	d4000001 	svc	#0x0
    4878:	d65f03c0 	ret

000000000000487c <utee_storage_obj_write>:
utee_storage_obj_write():
/home/pwnz/devel/optee/optee_os/lib/libutee/arch/arm/utee_syscalls_asm.S:137
    487c:	d2800668 	mov	x8, #0x33                  	// #51
    4880:	d4000001 	svc	#0x0
    4884:	d65f03c0 	ret

0000000000004888 <utee_storage_obj_trunc>:
utee_storage_obj_trunc():
/home/pwnz/devel/optee/optee_os/lib/libutee/arch/arm/utee_syscalls_asm.S:139
    4888:	d2800688 	mov	x8, #0x34                  	// #52
    488c:	d4000001 	svc	#0x0
    4890:	d65f03c0 	ret

0000000000004894 <utee_storage_obj_seek>:
utee_storage_obj_seek():
/home/pwnz/devel/optee/optee_os/lib/libutee/arch/arm/utee_syscalls_asm.S:141
    4894:	d28006a8 	mov	x8, #0x35                  	// #53
    4898:	d4000001 	svc	#0x0
    489c:	d65f03c0 	ret

00000000000048a0 <utee_cryp_obj_generate_key>:
utee_cryp_obj_generate_key():
/home/pwnz/devel/optee/optee_os/lib/libutee/arch/arm/utee_syscalls_asm.S:143
    48a0:	d28006c8 	mov	x8, #0x36                  	// #54
    48a4:	d4000001 	svc	#0x0
    48a8:	d65f03c0 	ret

00000000000048ac <utee_se_service_open>:
utee_se_service_open():
/home/pwnz/devel/optee/optee_os/lib/libutee/arch/arm/utee_syscalls_asm.S:146
    48ac:	d28006e8 	mov	x8, #0x37                  	// #55
    48b0:	d4000001 	svc	#0x0
    48b4:	d65f03c0 	ret

00000000000048b8 <utee_se_service_close>:
utee_se_service_close():
/home/pwnz/devel/optee/optee_os/lib/libutee/arch/arm/utee_syscalls_asm.S:148
    48b8:	d2800708 	mov	x8, #0x38                  	// #56
    48bc:	d4000001 	svc	#0x0
    48c0:	d65f03c0 	ret

00000000000048c4 <utee_se_service_get_readers>:
utee_se_service_get_readers():
/home/pwnz/devel/optee/optee_os/lib/libutee/arch/arm/utee_syscalls_asm.S:150
    48c4:	d2800728 	mov	x8, #0x39                  	// #57
    48c8:	d4000001 	svc	#0x0
    48cc:	d65f03c0 	ret

00000000000048d0 <utee_se_reader_get_prop>:
utee_se_reader_get_prop():
/home/pwnz/devel/optee/optee_os/lib/libutee/arch/arm/utee_syscalls_asm.S:153
    48d0:	d2800748 	mov	x8, #0x3a                  	// #58
    48d4:	d4000001 	svc	#0x0
    48d8:	d65f03c0 	ret

00000000000048dc <utee_se_reader_get_name>:
utee_se_reader_get_name():
/home/pwnz/devel/optee/optee_os/lib/libutee/arch/arm/utee_syscalls_asm.S:156
    48dc:	d2800768 	mov	x8, #0x3b                  	// #59
    48e0:	d4000001 	svc	#0x0
    48e4:	d65f03c0 	ret

00000000000048e8 <utee_se_reader_open_session>:
utee_se_reader_open_session():
/home/pwnz/devel/optee/optee_os/lib/libutee/arch/arm/utee_syscalls_asm.S:159
    48e8:	d2800788 	mov	x8, #0x3c                  	// #60
    48ec:	d4000001 	svc	#0x0
    48f0:	d65f03c0 	ret

00000000000048f4 <utee_se_reader_close_sessions>:
utee_se_reader_close_sessions():
/home/pwnz/devel/optee/optee_os/lib/libutee/arch/arm/utee_syscalls_asm.S:162
    48f4:	d28007a8 	mov	x8, #0x3d                  	// #61
    48f8:	d4000001 	svc	#0x0
    48fc:	d65f03c0 	ret

0000000000004900 <utee_se_session_is_closed>:
utee_se_session_is_closed():
/home/pwnz/devel/optee/optee_os/lib/libutee/arch/arm/utee_syscalls_asm.S:165
    4900:	d28007c8 	mov	x8, #0x3e                  	// #62
    4904:	d4000001 	svc	#0x0
    4908:	d65f03c0 	ret

000000000000490c <utee_se_session_get_atr>:
utee_se_session_get_atr():
/home/pwnz/devel/optee/optee_os/lib/libutee/arch/arm/utee_syscalls_asm.S:168
    490c:	d28007e8 	mov	x8, #0x3f                  	// #63
    4910:	d4000001 	svc	#0x0
    4914:	d65f03c0 	ret

0000000000004918 <utee_se_session_open_channel>:
utee_se_session_open_channel():
/home/pwnz/devel/optee/optee_os/lib/libutee/arch/arm/utee_syscalls_asm.S:171
    4918:	d2800808 	mov	x8, #0x40                  	// #64
    491c:	d4000001 	svc	#0x0
    4920:	d65f03c0 	ret

0000000000004924 <utee_se_session_close>:
utee_se_session_close():
/home/pwnz/devel/optee/optee_os/lib/libutee/arch/arm/utee_syscalls_asm.S:174
    4924:	d2800828 	mov	x8, #0x41                  	// #65
    4928:	d4000001 	svc	#0x0
    492c:	d65f03c0 	ret

0000000000004930 <utee_se_channel_select_next>:
utee_se_channel_select_next():
/home/pwnz/devel/optee/optee_os/lib/libutee/arch/arm/utee_syscalls_asm.S:177
    4930:	d2800848 	mov	x8, #0x42                  	// #66
    4934:	d4000001 	svc	#0x0
    4938:	d65f03c0 	ret

000000000000493c <utee_se_channel_get_select_resp>:
utee_se_channel_get_select_resp():
/home/pwnz/devel/optee/optee_os/lib/libutee/arch/arm/utee_syscalls_asm.S:180
    493c:	d2800868 	mov	x8, #0x43                  	// #67
    4940:	d4000001 	svc	#0x0
    4944:	d65f03c0 	ret

0000000000004948 <utee_se_channel_transmit>:
utee_se_channel_transmit():
/home/pwnz/devel/optee/optee_os/lib/libutee/arch/arm/utee_syscalls_asm.S:183
    4948:	d2800888 	mov	x8, #0x44                  	// #68
    494c:	d4000001 	svc	#0x0
    4950:	d65f03c0 	ret

0000000000004954 <utee_se_channel_close>:
utee_se_channel_close():
/home/pwnz/devel/optee/optee_os/lib/libutee/arch/arm/utee_syscalls_asm.S:186
    4954:	d28008a8 	mov	x8, #0x45                  	// #69
    4958:	d4000001 	svc	#0x0
    495c:	d65f03c0 	ret

0000000000004960 <utee_cache_operation>:
utee_cache_operation():
/home/pwnz/devel/optee/optee_os/lib/libutee/arch/arm/utee_syscalls_asm.S:189
    4960:	d28008c8 	mov	x8, #0x46                  	// #70
    4964:	d4000001 	svc	#0x0
    4968:	d65f03c0 	ret

000000000000496c <__utee_mcount>:
__utee_mcount():
/home/pwnz/devel/optee/optee_os/lib/libutee/arch/arm/gprof/gprof_a64.S:74
    496c:	d65f03c0 	ret

0000000000004970 <print_buf>:
print_buf():
/home/pwnz/devel/optee/optee_os/lib/libutee/tee_user_mem.c:165
    4970:	d100c3ff 	sub	sp, sp, #0x30
/home/pwnz/devel/optee/optee_os/lib/libutee/tee_user_mem.c:166
    4974:	aa0303e7 	mov	x7, x3
    4978:	2a0203e6 	mov	w6, w2
    497c:	52800023 	mov	w3, #0x1                   	// #1
    4980:	2a0003e2 	mov	w2, w0
    4984:	d2800000 	mov	x0, #0x0                   	// #0
/home/pwnz/devel/optee/optee_os/lib/libutee/tee_user_mem.c:165
    4988:	a9027bfd 	stp	x29, x30, [sp,#32]
    498c:	910083fd 	add	x29, sp, #0x20
buf_size():
/home/pwnz/devel/optee/optee_os/lib/libutee/tee_user_mem.c:136
    4990:	f9400885 	ldr	x5, [x4,#16]
print_buf():
/home/pwnz/devel/optee/optee_os/lib/libutee/tee_user_mem.c:166
    4994:	f90003e4 	str	x4, [sp]
buf_size():
/home/pwnz/devel/optee/optee_os/lib/libutee/tee_user_mem.c:136
    4998:	d10084a5 	sub	x5, x5, #0x21
print_buf():
/home/pwnz/devel/optee/optee_os/lib/libutee/tee_user_mem.c:166
    499c:	f9000be5 	str	x5, [sp,#16]
buf_addr():
/home/pwnz/devel/optee/optee_os/lib/libutee/tee_user_mem.c:131
    49a0:	91008085 	add	x5, x4, #0x20
print_buf():
/home/pwnz/devel/optee/optee_os/lib/libutee/tee_user_mem.c:166
    49a4:	f90007e5 	str	x5, [sp,#8]
    49a8:	90000044 	adrp	x4, c000 <PRIME_TABLE+0x770>
    49ac:	aa0103e5 	mov	x5, x1
    49b0:	9136d484 	add	x4, x4, #0xdb5
    49b4:	52800001 	mov	w1, #0x0                   	// #0
    49b8:	94000b35 	bl	768c <trace_printf>
/home/pwnz/devel/optee/optee_os/lib/libutee/tee_user_mem.c:169
    49bc:	a9427bfd 	ldp	x29, x30, [sp,#32]
    49c0:	9100c3ff 	add	sp, sp, #0x30
    49c4:	d65f03c0 	ret

00000000000049c8 <check_elem>:
check_elem():
/home/pwnz/devel/optee/optee_os/lib/libutee/tee_user_mem.c:240
    49c8:	b40007e0 	cbz	x0, 4ac4 <check_elem+0xfc>
/home/pwnz/devel/optee/optee_os/lib/libutee/tee_user_mem.c:236
    49cc:	a9be7bfd 	stp	x29, x30, [sp,#-32]!
/home/pwnz/devel/optee/optee_os/lib/libutee/tee_user_mem.c:243
    49d0:	f240041f 	tst	x0, #0x3
/home/pwnz/devel/optee/optee_os/lib/libutee/tee_user_mem.c:236
    49d4:	910003fd 	mov	x29, sp
    49d8:	f9000bf3 	str	x19, [sp,#16]
    49dc:	aa0003f3 	mov	x19, x0
/home/pwnz/devel/optee/optee_os/lib/libutee/tee_user_mem.c:243
    49e0:	54000160 	b.eq	4a0c <check_elem+0x44>
/home/pwnz/devel/optee/optee_os/lib/libutee/tee_user_mem.c:244
    49e4:	90000044 	adrp	x4, c000 <PRIME_TABLE+0x770>
    49e8:	91375c84 	add	x4, x4, #0xdd7
    49ec:	52800023 	mov	w3, #0x1                   	// #1
    49f0:	52800022 	mov	w2, #0x1                   	// #1
    49f4:	52801e81 	mov	w1, #0xf4                  	// #244
    49f8:	f0000020 	adrp	x0, b000 <mpa_get_str+0x20>
    49fc:	911b0000 	add	x0, x0, #0x6c0
    4a00:	94000b23 	bl	768c <trace_printf>
/home/pwnz/devel/optee/optee_os/lib/libutee/tee_user_mem.c:245
    4a04:	52800000 	mov	w0, #0x0                   	// #0
    4a08:	97fffe4f 	bl	4344 <TEE_Panic>
/home/pwnz/devel/optee/optee_os/lib/libutee/tee_user_mem.c:248
    4a0c:	f9400264 	ldr	x4, [x19]
/home/pwnz/devel/optee/optee_os/lib/libutee/tee_user_mem.c:249
    4a10:	b4000224 	cbz	x4, 4a54 <check_elem+0x8c>
/home/pwnz/devel/optee/optee_os/lib/libutee/tee_user_mem.c:249 (discriminator 1)
    4a14:	f9400480 	ldr	x0, [x4,#8]
    4a18:	f9400400 	ldr	x0, [x0,#8]
    4a1c:	f9400000 	ldr	x0, [x0]
    4a20:	eb00027f 	cmp	x19, x0
    4a24:	54000180 	b.eq	4a54 <check_elem+0x8c>
/home/pwnz/devel/optee/optee_os/lib/libutee/tee_user_mem.c:250
    4a28:	90000043 	adrp	x3, c000 <PRIME_TABLE+0x770>
    4a2c:	9137b463 	add	x3, x3, #0xded
    4a30:	52801f42 	mov	w2, #0xfa                  	// #250
/home/pwnz/devel/optee/optee_os/lib/libutee/tee_user_mem.c:256
    4a34:	f0000021 	adrp	x1, b000 <mpa_get_str+0x20>
    4a38:	911b0021 	add	x1, x1, #0x6c0
    4a3c:	52800020 	mov	w0, #0x1                   	// #1
check_elem_end():
/home/pwnz/devel/optee/optee_os/lib/libutee/tee_user_mem.c:228
    4a40:	97ffffcc 	bl	4970 <print_buf>
/home/pwnz/devel/optee/optee_os/lib/libutee/tee_user_mem.c:229
    4a44:	52800000 	mov	w0, #0x0                   	// #0
check_elem():
/home/pwnz/devel/optee/optee_os/lib/libutee/tee_user_mem.c:261
    4a48:	f9400bf3 	ldr	x19, [sp,#16]
    4a4c:	a8c27bfd 	ldp	x29, x30, [sp],#32
    4a50:	d65f03c0 	ret
/home/pwnz/devel/optee/optee_os/lib/libutee/tee_user_mem.c:254
    4a54:	f9400660 	ldr	x0, [x19,#8]
    4a58:	f9400400 	ldr	x0, [x0,#8]
    4a5c:	f9400004 	ldr	x4, [x0]
/home/pwnz/devel/optee/optee_os/lib/libutee/tee_user_mem.c:255
    4a60:	b4000104 	cbz	x4, 4a80 <check_elem+0xb8>
    4a64:	f9400080 	ldr	x0, [x4]
    4a68:	eb00027f 	cmp	x19, x0
    4a6c:	540000a0 	b.eq	4a80 <check_elem+0xb8>
/home/pwnz/devel/optee/optee_os/lib/libutee/tee_user_mem.c:256
    4a70:	90000043 	adrp	x3, c000 <PRIME_TABLE+0x770>
    4a74:	52802002 	mov	w2, #0x100                 	// #256
    4a78:	9137b463 	add	x3, x3, #0xded
    4a7c:	17ffffee 	b	4a34 <check_elem+0x6c>
check_elem_end():
/home/pwnz/devel/optee/optee_os/lib/libutee/tee_user_mem.c:226
    4a80:	f9400a60 	ldr	x0, [x19,#16]
/home/pwnz/devel/optee/optee_os/lib/libutee/tee_user_mem.c:227
    4a84:	92401e61 	and	x1, x19, #0xff
/home/pwnz/devel/optee/optee_os/lib/libutee/tee_user_mem.c:226
    4a88:	8b000260 	add	x0, x19, x0
    4a8c:	385ff002 	ldurb	w2, [x0,#-1]
/home/pwnz/devel/optee/optee_os/lib/libutee/tee_user_mem.c:227
    4a90:	d28018a0 	mov	x0, #0xc5                  	// #197
    4a94:	ca000021 	eor	x1, x1, x0
/home/pwnz/devel/optee/optee_os/lib/libutee/tee_user_mem.c:232
    4a98:	52800020 	mov	w0, #0x1                   	// #1
/home/pwnz/devel/optee/optee_os/lib/libutee/tee_user_mem.c:226
    4a9c:	eb01005f 	cmp	x2, x1
    4aa0:	54fffd40 	b.eq	4a48 <check_elem+0x80>
/home/pwnz/devel/optee/optee_os/lib/libutee/tee_user_mem.c:228
    4aa4:	f0000021 	adrp	x1, b000 <mpa_get_str+0x20>
    4aa8:	911b0021 	add	x1, x1, #0x6c0
    4aac:	90000043 	adrp	x3, c000 <PRIME_TABLE+0x770>
    4ab0:	aa1303e4 	mov	x4, x19
    4ab4:	9137e063 	add	x3, x3, #0xdf8
    4ab8:	52801c82 	mov	w2, #0xe4                  	// #228
    4abc:	91004021 	add	x1, x1, #0x10
    4ac0:	17ffffe0 	b	4a40 <check_elem+0x78>
check_elem():
/home/pwnz/devel/optee/optee_os/lib/libutee/tee_user_mem.c:241
    4ac4:	52800000 	mov	w0, #0x0                   	// #0
    4ac8:	d65f03c0 	ret

0000000000004acc <tee_user_mem_alloc>:
tee_user_mem_alloc():
/home/pwnz/devel/optee/optee_os/lib/libutee/tee_user_mem.c:297
    4acc:	a9bd7bfd 	stp	x29, x30, [sp,#-48]!
    4ad0:	910003fd 	mov	x29, sp
    4ad4:	a90153f3 	stp	x19, x20, [sp,#16]
    4ad8:	a9025bf5 	stp	x21, x22, [sp,#32]
/home/pwnz/devel/optee/optee_os/lib/libutee/tee_user_mem.c:306
    4adc:	36f800e0 	tbz	w0, #31, 4af8 <tee_user_mem_alloc+0x2c>
/home/pwnz/devel/optee/optee_os/lib/libutee/tee_user_mem.c:324
    4ae0:	d2800013 	mov	x19, #0x0                   	// #0
/home/pwnz/devel/optee/optee_os/lib/libutee/tee_user_mem.c:358
    4ae4:	aa1303e0 	mov	x0, x19
    4ae8:	a94153f3 	ldp	x19, x20, [sp,#16]
    4aec:	a9425bf5 	ldp	x21, x22, [sp,#32]
    4af0:	a8c37bfd 	ldp	x29, x30, [sp],#48
    4af4:	d65f03c0 	ret
/home/pwnz/devel/optee/optee_os/lib/libutee/tee_user_mem.c:313
    4af8:	d2800213 	mov	x19, #0x10                  	// #16
/home/pwnz/devel/optee/optee_os/lib/libutee/tee_user_mem.c:311
    4afc:	b4ffff40 	cbz	x0, 4ae4 <tee_user_mem_alloc+0x18>
    4b00:	2a0103f6 	mov	w22, w1
    4b04:	aa0003f4 	mov	x20, x0
/home/pwnz/devel/optee/optee_os/lib/libutee/tee_user_mem.c:317
    4b08:	340001e1 	cbz	w1, 4b44 <tee_user_mem_alloc+0x78>
    4b0c:	52b00000 	mov	w0, #0x80000000            	// #-2147483648
    4b10:	6b00003f 	cmp	w1, w0
    4b14:	54000180 	b.eq	4b44 <tee_user_mem_alloc+0x78>
/home/pwnz/devel/optee/optee_os/lib/libutee/tee_user_mem.c:322
    4b18:	f0000020 	adrp	x0, b000 <mpa_get_str+0x20>
    4b1c:	911b0000 	add	x0, x0, #0x6c0
    4b20:	2a0103e5 	mov	w5, w1
    4b24:	90000044 	adrp	x4, c000 <PRIME_TABLE+0x770>
    4b28:	52800023 	mov	w3, #0x1                   	// #1
    4b2c:	91381084 	add	x4, x4, #0xe04
    4b30:	52800022 	mov	w2, #0x1                   	// #1
    4b34:	52802841 	mov	w1, #0x142                 	// #322
    4b38:	91008000 	add	x0, x0, #0x20
    4b3c:	94000ad4 	bl	768c <trace_printf>
    4b40:	17ffffe8 	b	4ae0 <tee_user_mem_alloc+0x14>
/home/pwnz/devel/optee/optee_os/lib/libutee/tee_user_mem.c:300
    4b44:	91008695 	add	x21, x20, #0x21
/home/pwnz/devel/optee/optee_os/lib/libutee/tee_user_mem.c:327
    4b48:	aa1503e0 	mov	x0, x21
    4b4c:	940002c2 	bl	5654 <utee_malloc>
    4b50:	aa0003f3 	mov	x19, x0
/home/pwnz/devel/optee/optee_os/lib/libutee/tee_user_mem.c:328
    4b54:	b4fffc60 	cbz	x0, 4ae0 <tee_user_mem_alloc+0x14>
heap_inc():
/home/pwnz/devel/optee/optee_os/lib/libutee/tee_user_mem.c:197
    4b58:	d0000082 	adrp	x2, 16000 <ta_heap+0x7a78>
    4b5c:	91176040 	add	x0, x2, #0x5d8
/home/pwnz/devel/optee/optee_os/lib/libutee/tee_user_mem.c:199
    4b60:	91002001 	add	x1, x0, #0x8
tee_user_mem_alloc():
/home/pwnz/devel/optee/optee_os/lib/libutee/tee_user_mem.c:330
    4b64:	f9000a75 	str	x21, [x19,#16]
heap_inc():
/home/pwnz/devel/optee/optee_os/lib/libutee/tee_user_mem.c:197
    4b68:	f942ec43 	ldr	x3, [x2,#1496]
tee_user_mem_alloc():
/home/pwnz/devel/optee/optee_os/lib/libutee/tee_user_mem.c:343
    4b6c:	aa1303e4 	mov	x4, x19
/home/pwnz/devel/optee/optee_os/lib/libutee/tee_user_mem.c:331
    4b70:	b9001a76 	str	w22, [x19,#24]
heap_inc():
/home/pwnz/devel/optee/optee_os/lib/libutee/tee_user_mem.c:197
    4b74:	8b150063 	add	x3, x3, x21
    4b78:	f902ec43 	str	x3, [x2,#1496]
/home/pwnz/devel/optee/optee_os/lib/libutee/tee_user_mem.c:199
    4b7c:	b9400802 	ldr	w2, [x0,#8]
tee_user_mem_alloc():
/home/pwnz/devel/optee/optee_os/lib/libutee/tee_user_mem.c:343
    4b80:	90000043 	adrp	x3, c000 <PRIME_TABLE+0x770>
    4b84:	91387863 	add	x3, x3, #0xe1e
heap_inc():
/home/pwnz/devel/optee/optee_os/lib/libutee/tee_user_mem.c:199
    4b88:	11000442 	add	w2, w2, #0x1
    4b8c:	b9000802 	str	w2, [x0,#8]
/home/pwnz/devel/optee/optee_os/lib/libutee/tee_user_mem.c:200
    4b90:	f9400800 	ldr	x0, [x0,#16]
tee_user_mem_alloc():
/home/pwnz/devel/optee/optee_os/lib/libutee/tee_user_mem.c:343
    4b94:	52802ae2 	mov	w2, #0x157                 	// #343
heap_inc():
/home/pwnz/devel/optee/optee_os/lib/libutee/tee_user_mem.c:200
    4b98:	8b150015 	add	x21, x0, x21
tee_user_mem_alloc():
/home/pwnz/devel/optee/optee_os/lib/libutee/tee_user_mem.c:335
    4b9c:	d0000040 	adrp	x0, e000 <ta_props>
    4ba0:	9103c000 	add	x0, x0, #0xf0
heap_inc():
/home/pwnz/devel/optee/optee_os/lib/libutee/tee_user_mem.c:200
    4ba4:	f9000435 	str	x21, [x1,#8]
tee_user_mem_alloc():
/home/pwnz/devel/optee/optee_os/lib/libutee/tee_user_mem.c:335
    4ba8:	f9400401 	ldr	x1, [x0,#8]
    4bac:	a900067f 	stp	xzr, x1, [x19]
    4bb0:	f9000033 	str	x19, [x1]
/home/pwnz/devel/optee/optee_os/lib/libutee/tee_user_mem.c:339
    4bb4:	8b140261 	add	x1, x19, x20
/home/pwnz/devel/optee/optee_os/lib/libutee/tee_user_mem.c:335
    4bb8:	f9000413 	str	x19, [x0,#8]
/home/pwnz/devel/optee/optee_os/lib/libutee/tee_user_mem.c:340
    4bbc:	12800740 	mov	w0, #0xffffffc5            	// #-59
    4bc0:	4a130000 	eor	w0, w0, w19
buf_addr():
/home/pwnz/devel/optee/optee_os/lib/libutee/tee_user_mem.c:131
    4bc4:	91008273 	add	x19, x19, #0x20
tee_user_mem_alloc():
/home/pwnz/devel/optee/optee_os/lib/libutee/tee_user_mem.c:339
    4bc8:	39008020 	strb	w0, [x1,#32]
/home/pwnz/devel/optee/optee_os/lib/libutee/tee_user_mem.c:343
    4bcc:	f0000020 	adrp	x0, b000 <mpa_get_str+0x20>
    4bd0:	911b0000 	add	x0, x0, #0x6c0
    4bd4:	91008001 	add	x1, x0, #0x20
    4bd8:	52800080 	mov	w0, #0x4                   	// #4
    4bdc:	97ffff65 	bl	4970 <print_buf>
/home/pwnz/devel/optee/optee_os/lib/libutee/tee_user_mem.c:347
    4be0:	350000d6 	cbnz	w22, 4bf8 <tee_user_mem_alloc+0x12c>
/home/pwnz/devel/optee/optee_os/lib/libutee/tee_user_mem.c:348
    4be4:	aa1403e2 	mov	x2, x20
    4be8:	52800001 	mov	w1, #0x0                   	// #0
    4bec:	aa1303e0 	mov	x0, x19
    4bf0:	94000760 	bl	6970 <memset>
    4bf4:	17ffffbc 	b	4ae4 <tee_user_mem_alloc+0x18>
/home/pwnz/devel/optee/optee_os/lib/libutee/tee_user_mem.c:350
    4bf8:	52b00000 	mov	w0, #0x80000000            	// #-2147483648
    4bfc:	6b0002df 	cmp	w22, w0
    4c00:	54fff721 	b.ne	4ae4 <tee_user_mem_alloc+0x18>
/home/pwnz/devel/optee/optee_os/lib/libutee/tee_user_mem.c:352
    4c04:	aa1403e2 	mov	x2, x20
    4c08:	52801761 	mov	w1, #0xbb                  	// #187
    4c0c:	aa1303e0 	mov	x0, x19
    4c10:	94000758 	bl	6970 <memset>
    4c14:	17ffffb4 	b	4ae4 <tee_user_mem_alloc+0x18>

0000000000004c18 <tee_user_mem_free>:
tee_user_mem_free():
/home/pwnz/devel/optee/optee_os/lib/libutee/tee_user_mem.c:430
    4c18:	f100001f 	cmp	x0, #0x0
    4c1c:	fa501804 	ccmp	x0, #0x10, #0x4, ne
    4c20:	540009c0 	b.eq	4d58 <tee_user_mem_free+0x140>
/home/pwnz/devel/optee/optee_os/lib/libutee/tee_user_mem.c:423
    4c24:	a9bd7bfd 	stp	x29, x30, [sp,#-48]!
is_buffer_valid():
/home/pwnz/devel/optee/optee_os/lib/libutee/tee_user_mem.c:151
    4c28:	d0000041 	adrp	x1, e000 <ta_props>
tee_user_mem_free():
/home/pwnz/devel/optee/optee_os/lib/libutee/tee_user_mem.c:423
    4c2c:	910003fd 	mov	x29, sp
    4c30:	a90153f3 	stp	x19, x20, [sp,#16]
is_buffer_valid():
/home/pwnz/devel/optee/optee_os/lib/libutee/tee_user_mem.c:151
    4c34:	f9407834 	ldr	x20, [x1,#240]
tee_user_mem_free():
/home/pwnz/devel/optee/optee_os/lib/libutee/tee_user_mem.c:423
    4c38:	a9025bf5 	stp	x21, x22, [sp,#32]
    4c3c:	aa0103f6 	mov	x22, x1
is_buffer_valid():
/home/pwnz/devel/optee/optee_os/lib/libutee/tee_user_mem.c:151
    4c40:	b50001d4 	cbnz	x20, 4c78 <tee_user_mem_free+0x60>
tee_user_mem_free():
/home/pwnz/devel/optee/optee_os/lib/libutee/tee_user_mem.c:468
    4c44:	a94153f3 	ldp	x19, x20, [sp,#16]
/home/pwnz/devel/optee/optee_os/lib/libutee/tee_user_mem.c:435
    4c48:	aa0003e5 	mov	x5, x0
/home/pwnz/devel/optee/optee_os/lib/libutee/tee_user_mem.c:468
    4c4c:	a9425bf5 	ldp	x21, x22, [sp,#32]
/home/pwnz/devel/optee/optee_os/lib/libutee/tee_user_mem.c:435
    4c50:	f0000020 	adrp	x0, b000 <mpa_get_str+0x20>
/home/pwnz/devel/optee/optee_os/lib/libutee/tee_user_mem.c:468
    4c54:	a8c37bfd 	ldp	x29, x30, [sp],#48
/home/pwnz/devel/optee/optee_os/lib/libutee/tee_user_mem.c:435
    4c58:	911b0000 	add	x0, x0, #0x6c0
    4c5c:	90000044 	adrp	x4, c000 <PRIME_TABLE+0x770>
    4c60:	52800023 	mov	w3, #0x1                   	// #1
    4c64:	9138f884 	add	x4, x4, #0xe3e
    4c68:	52800022 	mov	w2, #0x1                   	// #1
    4c6c:	52803661 	mov	w1, #0x1b3                 	// #435
    4c70:	9100e000 	add	x0, x0, #0x38
    4c74:	14000a86 	b	768c <trace_printf>
buf_addr():
/home/pwnz/devel/optee/optee_os/lib/libutee/tee_user_mem.c:131
    4c78:	91008281 	add	x1, x20, #0x20
is_buffer_valid():
/home/pwnz/devel/optee/optee_os/lib/libutee/tee_user_mem.c:152
    4c7c:	eb01001f 	cmp	x0, x1
    4c80:	540000c0 	b.eq	4c98 <tee_user_mem_free+0x80>
/home/pwnz/devel/optee/optee_os/lib/libutee/tee_user_mem.c:151
    4c84:	f9400294 	ldr	x20, [x20]
    4c88:	17ffffee 	b	4c40 <tee_user_mem_free+0x28>
tee_user_mem_free():
/home/pwnz/devel/optee/optee_os/lib/libutee/tee_user_mem.c:451
    4c8c:	9103c2d6 	add	x22, x22, #0xf0
    4c90:	f90006c1 	str	x1, [x22,#8]
    4c94:	1400001b 	b	4d00 <tee_user_mem_free+0xe8>
/home/pwnz/devel/optee/optee_os/lib/libutee/tee_user_mem.c:442
    4c98:	f0000035 	adrp	x21, b000 <mpa_get_str+0x20>
    4c9c:	911b02b5 	add	x21, x21, #0x6c0
    4ca0:	9100e2b5 	add	x21, x21, #0x38
    4ca4:	aa1403e4 	mov	x4, x20
    4ca8:	90000043 	adrp	x3, c000 <PRIME_TABLE+0x770>
    4cac:	aa1503e1 	mov	x1, x21
    4cb0:	91396063 	add	x3, x3, #0xe58
    4cb4:	52803742 	mov	w2, #0x1ba                 	// #442
    4cb8:	aa0003f3 	mov	x19, x0
    4cbc:	52800080 	mov	w0, #0x4                   	// #4
    4cc0:	97ffff2c 	bl	4970 <print_buf>
/home/pwnz/devel/optee/optee_os/lib/libutee/tee_user_mem.c:445
    4cc4:	aa1403e0 	mov	x0, x20
    4cc8:	97ffff40 	bl	49c8 <check_elem>
    4ccc:	35000140 	cbnz	w0, 4cf4 <tee_user_mem_free+0xdc>
/home/pwnz/devel/optee/optee_os/lib/libutee/tee_user_mem.c:446
    4cd0:	90000044 	adrp	x4, c000 <PRIME_TABLE+0x770>
    4cd4:	9138a484 	add	x4, x4, #0xe29
    4cd8:	52800023 	mov	w3, #0x1                   	// #1
    4cdc:	52800022 	mov	w2, #0x1                   	// #1
    4ce0:	528037c1 	mov	w1, #0x1be                 	// #446
    4ce4:	aa1503e0 	mov	x0, x21
    4ce8:	94000a69 	bl	768c <trace_printf>
/home/pwnz/devel/optee/optee_os/lib/libutee/tee_user_mem.c:447
    4cec:	52800000 	mov	w0, #0x0                   	// #0
    4cf0:	97fffd95 	bl	4344 <TEE_Panic>
    4cf4:	a97e0660 	ldp	x0, x1, [x19,#-32]
/home/pwnz/devel/optee/optee_os/lib/libutee/tee_user_mem.c:451
    4cf8:	b4fffca0 	cbz	x0, 4c8c <tee_user_mem_free+0x74>
    4cfc:	f9000401 	str	x1, [x0,#8]
/home/pwnz/devel/optee/optee_os/lib/libutee/tee_user_mem.c:453
    4d00:	a97e8a61 	ldp	x1, x2, [x19,#-24]
/home/pwnz/devel/optee/optee_os/lib/libutee/tee_user_mem.c:451
    4d04:	f9000020 	str	x0, [x1]
heap_dec():
/home/pwnz/devel/optee/optee_os/lib/libutee/tee_user_mem.c:207
    4d08:	d0000081 	adrp	x1, 16000 <ta_heap+0x7a78>
    4d0c:	91176020 	add	x0, x1, #0x5d8
    4d10:	f942ec23 	ldr	x3, [x1,#1496]
    4d14:	cb020063 	sub	x3, x3, x2
    4d18:	f902ec23 	str	x3, [x1,#1496]
/home/pwnz/devel/optee/optee_os/lib/libutee/tee_user_mem.c:209
    4d1c:	b9400801 	ldr	w1, [x0,#8]
    4d20:	91002003 	add	x3, x0, #0x8
    4d24:	51000421 	sub	w1, w1, #0x1
    4d28:	b9000801 	str	w1, [x0,#8]
/home/pwnz/devel/optee/optee_os/lib/libutee/tee_user_mem.c:210
    4d2c:	f9400800 	ldr	x0, [x0,#16]
tee_user_mem_free():
/home/pwnz/devel/optee/optee_os/lib/libutee/tee_user_mem.c:462
    4d30:	52801541 	mov	w1, #0xaa                  	// #170
heap_dec():
/home/pwnz/devel/optee/optee_os/lib/libutee/tee_user_mem.c:210
    4d34:	cb020000 	sub	x0, x0, x2
    4d38:	f9000460 	str	x0, [x3,#8]
tee_user_mem_free():
/home/pwnz/devel/optee/optee_os/lib/libutee/tee_user_mem.c:462
    4d3c:	aa1403e0 	mov	x0, x20
    4d40:	9400070c 	bl	6970 <memset>
/home/pwnz/devel/optee/optee_os/lib/libutee/tee_user_mem.c:465
    4d44:	aa1403e0 	mov	x0, x20
/home/pwnz/devel/optee/optee_os/lib/libutee/tee_user_mem.c:468
    4d48:	a9425bf5 	ldp	x21, x22, [sp,#32]
    4d4c:	a94153f3 	ldp	x19, x20, [sp,#16]
    4d50:	a8c37bfd 	ldp	x29, x30, [sp],#48
/home/pwnz/devel/optee/optee_os/lib/libutee/tee_user_mem.c:465
    4d54:	14000246 	b	566c <utee_free>
    4d58:	d65f03c0 	ret

0000000000004d5c <tee_user_mem_realloc>:
tee_user_mem_realloc():
/home/pwnz/devel/optee/optee_os/lib/libutee/tee_user_mem.c:367
    4d5c:	a9bd7bfd 	stp	x29, x30, [sp,#-48]!
    4d60:	910003fd 	mov	x29, sp
    4d64:	a90153f3 	stp	x19, x20, [sp,#16]
    4d68:	a9025bf5 	stp	x21, x22, [sp,#32]
/home/pwnz/devel/optee/optee_os/lib/libutee/tee_user_mem.c:374
    4d6c:	37f80261 	tbnz	w1, #31, 4db8 <tee_user_mem_realloc+0x5c>
/home/pwnz/devel/optee/optee_os/lib/libutee/tee_user_mem.c:384 (discriminator 1)
    4d70:	f100001f 	cmp	x0, #0x0
    4d74:	aa0103f4 	mov	x20, x1
    4d78:	fa501804 	ccmp	x0, #0x10, #0x4, ne
    4d7c:	54000080 	b.eq	4d8c <tee_user_mem_realloc+0x30>
is_buffer_valid():
/home/pwnz/devel/optee/optee_os/lib/libutee/tee_user_mem.c:151
    4d80:	d0000041 	adrp	x1, e000 <ta_props>
    4d84:	f9407821 	ldr	x1, [x1,#240]
    4d88:	b50000e1 	cbnz	x1, 4da4 <tee_user_mem_realloc+0x48>
tee_user_mem_realloc():
/home/pwnz/devel/optee/optee_os/lib/libutee/tee_user_mem.c:385
    4d8c:	aa1403e0 	mov	x0, x20
    4d90:	52800001 	mov	w1, #0x0                   	// #0
/home/pwnz/devel/optee/optee_os/lib/libutee/tee_user_mem.c:416
    4d94:	a94153f3 	ldp	x19, x20, [sp,#16]
    4d98:	a9425bf5 	ldp	x21, x22, [sp,#32]
    4d9c:	a8c37bfd 	ldp	x29, x30, [sp],#48
/home/pwnz/devel/optee/optee_os/lib/libutee/tee_user_mem.c:385
    4da0:	17ffff4b 	b	4acc <tee_user_mem_alloc>
buf_addr():
/home/pwnz/devel/optee/optee_os/lib/libutee/tee_user_mem.c:131
    4da4:	91008023 	add	x3, x1, #0x20
is_buffer_valid():
/home/pwnz/devel/optee/optee_os/lib/libutee/tee_user_mem.c:152
    4da8:	eb03001f 	cmp	x0, x3
    4dac:	540000a0 	b.eq	4dc0 <tee_user_mem_realloc+0x64>
/home/pwnz/devel/optee/optee_os/lib/libutee/tee_user_mem.c:151
    4db0:	f9400021 	ldr	x1, [x1]
    4db4:	17fffff5 	b	4d88 <tee_user_mem_realloc+0x2c>
tee_user_mem_realloc():
/home/pwnz/devel/optee/optee_os/lib/libutee/tee_user_mem.c:376
    4db8:	d2800016 	mov	x22, #0x0                   	// #0
    4dbc:	14000012 	b	4e04 <tee_user_mem_realloc+0xa8>
buf_size():
/home/pwnz/devel/optee/optee_os/lib/libutee/tee_user_mem.c:136
    4dc0:	f85f0015 	ldur	x21, [x0,#-16]
tee_user_mem_realloc():
    4dc4:	aa0003f6 	mov	x22, x0
buf_size():
    4dc8:	d10086b5 	sub	x21, x21, #0x21
tee_user_mem_realloc():
/home/pwnz/devel/optee/optee_os/lib/libutee/tee_user_mem.c:396
    4dcc:	eb15029f 	cmp	x20, x21
    4dd0:	540001a0 	b.eq	4e04 <tee_user_mem_realloc+0xa8>
/home/pwnz/devel/optee/optee_os/lib/libutee/tee_user_mem.c:406
    4dd4:	b9401821 	ldr	w1, [x1,#24]
    4dd8:	aa0003f3 	mov	x19, x0
    4ddc:	aa1403e0 	mov	x0, x20
    4de0:	97ffff3b 	bl	4acc <tee_user_mem_alloc>
    4de4:	aa0003f6 	mov	x22, x0
/home/pwnz/devel/optee/optee_os/lib/libutee/tee_user_mem.c:407
    4de8:	b40000e0 	cbz	x0, 4e04 <tee_user_mem_realloc+0xa8>
/home/pwnz/devel/optee/optee_os/lib/libutee/tee_user_mem.c:408
    4dec:	eb15029f 	cmp	x20, x21
    4df0:	aa1303e1 	mov	x1, x19
    4df4:	9a959282 	csel	x2, x20, x21, ls
    4df8:	940006c3 	bl	6904 <memcpy>
/home/pwnz/devel/optee/optee_os/lib/libutee/tee_user_mem.c:411
    4dfc:	aa1303e0 	mov	x0, x19
    4e00:	97ffff86 	bl	4c18 <tee_user_mem_free>
/home/pwnz/devel/optee/optee_os/lib/libutee/tee_user_mem.c:416
    4e04:	aa1603e0 	mov	x0, x22
    4e08:	a94153f3 	ldp	x19, x20, [sp,#16]
    4e0c:	a9425bf5 	ldp	x21, x22, [sp,#32]
    4e10:	a8c37bfd 	ldp	x29, x30, [sp],#48
    4e14:	d65f03c0 	ret

0000000000004e18 <tee_user_mem_mark_heap>:
tee_user_mem_mark_heap():
/home/pwnz/devel/optee/optee_os/lib/libutee/tee_user_mem.c:478
    4e18:	d0000080 	adrp	x0, 16000 <ta_heap+0x7a78>
    4e1c:	f902ec1f 	str	xzr, [x0,#1496]
    4e20:	d65f03c0 	ret

0000000000004e24 <tee_user_mem_check_heap>:
tee_user_mem_check_heap():
/home/pwnz/devel/optee/optee_os/lib/libutee/tee_user_mem.c:488
    4e24:	a9be7bfd 	stp	x29, x30, [sp,#-32]!
    4e28:	910003fd 	mov	x29, sp
    4e2c:	a90153f3 	stp	x19, x20, [sp,#16]
/home/pwnz/devel/optee/optee_os/lib/libutee/tee_user_mem.c:492
    4e30:	d0000094 	adrp	x20, 16000 <ta_heap+0x7a78>
    4e34:	f942ee93 	ldr	x19, [x20,#1496]
    4e38:	b4000213 	cbz	x19, 4e78 <tee_user_mem_check_heap+0x54>
/home/pwnz/devel/optee/optee_os/lib/libutee/tee_user_mem.c:493
    4e3c:	f0000020 	adrp	x0, b000 <mpa_get_str+0x20>
    4e40:	911b0000 	add	x0, x0, #0x6c0
    4e44:	aa1303e5 	mov	x5, x19
    4e48:	90000044 	adrp	x4, c000 <PRIME_TABLE+0x770>
    4e4c:	52800023 	mov	w3, #0x1                   	// #1
    4e50:	91397c84 	add	x4, x4, #0xe5f
    4e54:	52800022 	mov	w2, #0x1                   	// #1
    4e58:	52803da1 	mov	w1, #0x1ed                 	// #493
    4e5c:	91014000 	add	x0, x0, #0x50
    4e60:	94000a0b 	bl	768c <trace_printf>
/home/pwnz/devel/optee/optee_os/lib/libutee/tee_user_mem.c:495
    4e64:	f942ee93 	ldr	x19, [x20,#1496]
/home/pwnz/devel/optee/optee_os/lib/libutee/tee_user_mem.c:502
    4e68:	aa1303e0 	mov	x0, x19
    4e6c:	a94153f3 	ldp	x19, x20, [sp,#16]
    4e70:	a8c27bfd 	ldp	x29, x30, [sp],#32
    4e74:	d65f03c0 	ret
is_mem_coherent():
/home/pwnz/devel/optee/optee_os/lib/libutee/tee_user_mem.c:268
    4e78:	d0000040 	adrp	x0, e000 <ta_props>
    4e7c:	f9407814 	ldr	x20, [x0,#240]
    4e80:	b4ffff54 	cbz	x20, 4e68 <tee_user_mem_check_heap+0x44>
/home/pwnz/devel/optee/optee_os/lib/libutee/tee_user_mem.c:269
    4e84:	aa1403e0 	mov	x0, x20
    4e88:	97fffed0 	bl	49c8 <check_elem>
    4e8c:	35000160 	cbnz	w0, 4eb8 <tee_user_mem_check_heap+0x94>
/home/pwnz/devel/optee/optee_os/lib/libutee/tee_user_mem.c:270
    4e90:	f0000023 	adrp	x3, b000 <mpa_get_str+0x20>
    4e94:	911b0063 	add	x3, x3, #0x6c0
    4e98:	9101a063 	add	x3, x3, #0x68
    4e9c:	90000041 	adrp	x1, c000 <PRIME_TABLE+0x770>
    4ea0:	b0000040 	adrp	x0, d000 <__func__.3637+0xa28>
    4ea4:	9139f021 	add	x1, x1, #0xe7c
    4ea8:	9101d800 	add	x0, x0, #0x76
    4eac:	528021c2 	mov	w2, #0x10e                 	// #270
    4eb0:	94000022 	bl	4f38 <_assert_log>
    4eb4:	94000032 	bl	4f7c <_assert_break>
/home/pwnz/devel/optee/optee_os/lib/libutee/tee_user_mem.c:268
    4eb8:	f9400294 	ldr	x20, [x20]
    4ebc:	17fffff1 	b	4e80 <tee_user_mem_check_heap+0x5c>

0000000000004ec0 <tee_user_mem_garbage>:
tee_user_mem_garbage():
/home/pwnz/devel/optee/optee_os/lib/libutee/tee_user_mem.c:537
    4ec0:	a9bd7bfd 	stp	x29, x30, [sp,#-48]!
tee_user_mem_status():
/home/pwnz/devel/optee/optee_os/lib/libutee/tee_user_mem.c:518
    4ec4:	d0000040 	adrp	x0, e000 <ta_props>
tee_user_mem_garbage():
/home/pwnz/devel/optee/optee_os/lib/libutee/tee_user_mem.c:537
    4ec8:	910003fd 	mov	x29, sp
    4ecc:	a90153f3 	stp	x19, x20, [sp,#16]
tee_user_mem_status():
/home/pwnz/devel/optee/optee_os/lib/libutee/tee_user_mem.c:519
    4ed0:	f0000033 	adrp	x19, b000 <mpa_get_str+0x20>
tee_user_mem_garbage():
/home/pwnz/devel/optee/optee_os/lib/libutee/tee_user_mem.c:537
    4ed4:	a9025bf5 	stp	x21, x22, [sp,#32]
tee_user_mem_status():
/home/pwnz/devel/optee/optee_os/lib/libutee/tee_user_mem.c:519
    4ed8:	911b0273 	add	x19, x19, #0x6c0
/home/pwnz/devel/optee/optee_os/lib/libutee/tee_user_mem.c:518
    4edc:	f9407815 	ldr	x21, [x0,#240]
/home/pwnz/devel/optee/optee_os/lib/libutee/tee_user_mem.c:519
    4ee0:	90000056 	adrp	x22, c000 <PRIME_TABLE+0x770>
    4ee4:	aa0003f4 	mov	x20, x0
    4ee8:	9121b2d6 	add	x22, x22, #0x86c
    4eec:	9101e273 	add	x19, x19, #0x78
/home/pwnz/devel/optee/optee_os/lib/libutee/tee_user_mem.c:518
    4ef0:	b50000f5 	cbnz	x21, 4f0c <tee_user_mem_garbage+0x4c>
tee_user_mem_garbage():
/home/pwnz/devel/optee/optee_os/lib/libutee/tee_user_mem.c:542
    4ef4:	f9407a80 	ldr	x0, [x20,#240]
    4ef8:	b50001a0 	cbnz	x0, 4f2c <tee_user_mem_garbage+0x6c>
/home/pwnz/devel/optee/optee_os/lib/libutee/tee_user_mem.c:544
    4efc:	a94153f3 	ldp	x19, x20, [sp,#16]
    4f00:	a9425bf5 	ldp	x21, x22, [sp,#32]
    4f04:	a8c37bfd 	ldp	x29, x30, [sp],#48
    4f08:	d65f03c0 	ret
tee_user_mem_status():
/home/pwnz/devel/optee/optee_os/lib/libutee/tee_user_mem.c:519
    4f0c:	aa1503e4 	mov	x4, x21
    4f10:	aa1603e3 	mov	x3, x22
    4f14:	528040e2 	mov	w2, #0x207                 	// #519
    4f18:	aa1303e1 	mov	x1, x19
    4f1c:	52800020 	mov	w0, #0x1                   	// #1
    4f20:	97fffe94 	bl	4970 <print_buf>
/home/pwnz/devel/optee/optee_os/lib/libutee/tee_user_mem.c:518
    4f24:	f94002b5 	ldr	x21, [x21]
    4f28:	17fffff2 	b	4ef0 <tee_user_mem_garbage+0x30>
tee_user_mem_garbage():
/home/pwnz/devel/optee/optee_os/lib/libutee/tee_user_mem.c:543
    4f2c:	91008000 	add	x0, x0, #0x20
    4f30:	97ffff3a 	bl	4c18 <tee_user_mem_free>
    4f34:	17fffff0 	b	4ef4 <tee_user_mem_garbage+0x34>

0000000000004f38 <_assert_log>:
_assert_log():
/home/pwnz/devel/optee/optee_os/lib/libutee/assert.c:39
    4f38:	d10083ff 	sub	sp, sp, #0x20
/home/pwnz/devel/optee/optee_os/lib/libutee/assert.c:40
    4f3c:	2a0203e7 	mov	w7, w2
    4f40:	aa0103e6 	mov	x6, x1
    4f44:	aa0003e5 	mov	x5, x0
    4f48:	52800022 	mov	w2, #0x1                   	// #1
    4f4c:	52800001 	mov	w1, #0x0                   	// #0
/home/pwnz/devel/optee/optee_os/lib/libutee/assert.c:39
    4f50:	a9017bfd 	stp	x29, x30, [sp,#16]
    4f54:	910043fd 	add	x29, sp, #0x10
/home/pwnz/devel/optee/optee_os/lib/libutee/assert.c:40
    4f58:	d2800000 	mov	x0, #0x0                   	// #0
    4f5c:	90000044 	adrp	x4, c000 <PRIME_TABLE+0x770>
    4f60:	913a5c84 	add	x4, x4, #0xe97
    4f64:	f90003e3 	str	x3, [sp]
    4f68:	52800023 	mov	w3, #0x1                   	// #1
    4f6c:	940009c8 	bl	768c <trace_printf>
/home/pwnz/devel/optee/optee_os/lib/libutee/assert.c:42
    4f70:	a9417bfd 	ldp	x29, x30, [sp,#16]
    4f74:	910083ff 	add	sp, sp, #0x20
    4f78:	d65f03c0 	ret

0000000000004f7c <_assert_break>:
_assert_break():
/home/pwnz/devel/optee/optee_os/lib/libutee/assert.c:45
    4f7c:	a9bf7bfd 	stp	x29, x30, [sp,#-16]!
/home/pwnz/devel/optee/optee_os/lib/libutee/assert.c:46
    4f80:	d2bfffe0 	mov	x0, #0xffff0000            	// #4294901760
/home/pwnz/devel/optee/optee_os/lib/libutee/assert.c:45
    4f84:	910003fd 	mov	x29, sp
/home/pwnz/devel/optee/optee_os/lib/libutee/assert.c:46
    4f88:	97fffda1 	bl	460c <utee_panic>
    4f8c:	14000000 	b	4f8c <_assert_break+0x10>

0000000000004f90 <_TEE_MathAPI_Init>:
_TEE_MathAPI_Init():
/home/pwnz/devel/optee/optee_os/lib/libutee/tee_api_arith.c:78
    4f90:	a9bf7bfd 	stp	x29, x30, [sp,#-16]!
/home/pwnz/devel/optee/optee_os/lib/libutee/tee_api_arith.c:79
    4f94:	52810002 	mov	w2, #0x800                 	// #2048
    4f98:	d2836801 	mov	x1, #0x1b40                	// #6976
    4f9c:	d0000080 	adrp	x0, 16000 <ta_heap+0x7a78>
/home/pwnz/devel/optee/optee_os/lib/libutee/tee_api_arith.c:78
    4fa0:	910003fd 	mov	x29, sp
/home/pwnz/devel/optee/optee_os/lib/libutee/tee_api_arith.c:79
    4fa4:	9117c000 	add	x0, x0, #0x5f0
    4fa8:	94001137 	bl	9484 <mpa_init_scratch_mem>
/home/pwnz/devel/optee/optee_os/lib/libutee/tee_api_arith.c:81
    4fac:	b0000040 	adrp	x0, d000 <__func__.3637+0xa28>
/home/pwnz/devel/optee/optee_os/lib/libutee/tee_api_arith.c:82
    4fb0:	a8c17bfd 	ldp	x29, x30, [sp],#16
/home/pwnz/devel/optee/optee_os/lib/libutee/tee_api_arith.c:81
    4fb4:	f9430400 	ldr	x0, [x0,#1544]
    4fb8:	14001265 	b	994c <mpa_set_random_generator>

0000000000004fbc <TEE_BigIntInit>:
TEE_BigIntInit():
/home/pwnz/devel/optee/optee_os/lib/libutee/tee_api_arith.c:89
    4fbc:	140016db 	b	ab28 <mpa_init_static>

0000000000004fc0 <TEE_BigIntInitFMM>:
TEE_BigIntInitFMM():
/home/pwnz/devel/optee/optee_os/lib/libutee/tee_api_arith.c:99
    4fc0:	531e7421 	lsl	w1, w1, #2
    4fc4:	51002021 	sub	w1, w1, #0x8
    4fc8:	d3427c21 	ubfx	x1, x1, #2, #30
/home/pwnz/devel/optee/optee_os/lib/libutee/tee_api_arith.c:100
    4fcc:	29007c01 	stp	w1, wzr, [x0]
    4fd0:	d65f03c0 	ret

0000000000004fd4 <TEE_BigIntInitFMMContext>:
TEE_BigIntInitFMMContext():
/home/pwnz/devel/optee/optee_os/lib/libutee/tee_api_arith.c:108
    4fd4:	a9be7bfd 	stp	x29, x30, [sp,#-32]!
    4fd8:	910003fd 	mov	x29, sp
    4fdc:	a90153f3 	stp	x19, x20, [sp,#16]
    4fe0:	aa0003f3 	mov	x19, x0
    4fe4:	aa0203f4 	mov	x20, x2
/home/pwnz/devel/optee/optee_os/lib/libutee/tee_api_arith.c:112
    4fe8:	940016d7 	bl	ab44 <mpa_init_static_fmm_context>
/home/pwnz/devel/optee/optee_os/lib/libutee/tee_api_arith.c:113
    4fec:	91004263 	add	x3, x19, #0x10
    4ff0:	aa1403e0 	mov	x0, x20
    4ff4:	a9400a61 	ldp	x1, x2, [x19]
    4ff8:	d0000084 	adrp	x4, 16000 <ta_heap+0x7a78>
/home/pwnz/devel/optee/optee_os/lib/libutee/tee_api_arith.c:116
    4ffc:	a94153f3 	ldp	x19, x20, [sp,#16]
/home/pwnz/devel/optee/optee_os/lib/libutee/tee_api_arith.c:113
    5000:	9117c084 	add	x4, x4, #0x5f0
/home/pwnz/devel/optee/optee_os/lib/libutee/tee_api_arith.c:116
    5004:	a8c27bfd 	ldp	x29, x30, [sp],#32
/home/pwnz/devel/optee/optee_os/lib/libutee/tee_api_arith.c:113
    5008:	14000b28 	b	7ca8 <mpa_compute_fmm_context>

000000000000500c <TEE_BigIntFMMSizeInU32>:
TEE_BigIntFMMSizeInU32():
/home/pwnz/devel/optee/optee_os/lib/libutee/tee_api_arith.c:127
    500c:	11007c00 	add	w0, w0, #0x1f
    5010:	53057c00 	lsr	w0, w0, #5
/home/pwnz/devel/optee/optee_os/lib/libutee/tee_api_arith.c:128
    5014:	11000c00 	add	w0, w0, #0x3
    5018:	d65f03c0 	ret

000000000000501c <TEE_BigIntFMMContextSizeInU32>:
TEE_BigIntFMMContextSizeInU32():
/home/pwnz/devel/optee/optee_os/lib/libutee/tee_api_arith.c:135
    501c:	11007c00 	add	w0, w0, #0x1f
    5020:	53057c00 	lsr	w0, w0, #5
    5024:	11001c00 	add	w0, w0, #0x7
/home/pwnz/devel/optee/optee_os/lib/libutee/tee_api_arith.c:136
    5028:	531f7800 	lsl	w0, w0, #1
    502c:	d65f03c0 	ret

0000000000005030 <TEE_BigIntConvertFromOctetString>:
TEE_BigIntConvertFromOctetString():
/home/pwnz/devel/optee/optee_os/lib/libutee/tee_api_arith.c:149
    5030:	a9bf7bfd 	stp	x29, x30, [sp,#-16]!
/home/pwnz/devel/optee/optee_os/lib/libutee/tee_api_arith.c:154
    5034:	531f7c63 	lsr	w3, w3, #31
    5038:	2a0203e2 	mov	w2, w2
/home/pwnz/devel/optee/optee_os/lib/libutee/tee_api_arith.c:149
    503c:	910003fd 	mov	x29, sp
/home/pwnz/devel/optee/optee_os/lib/libutee/tee_api_arith.c:154
    5040:	94001809 	bl	b064 <mpa_set_oct_str>
/home/pwnz/devel/optee/optee_os/lib/libutee/tee_api_arith.c:155
    5044:	7100001f 	cmp	w0, #0x0
/home/pwnz/devel/optee/optee_os/lib/libutee/tee_api_arith.c:164
    5048:	a8c17bfd 	ldp	x29, x30, [sp],#16
    504c:	1299fe00 	mov	w0, #0xffff300f            	// #-53233
    5050:	1a9f1000 	csel	w0, w0, wzr, ne
    5054:	d65f03c0 	ret

0000000000005058 <TEE_BigIntConvertToOctetString>:
TEE_BigIntConvertToOctetString():
/home/pwnz/devel/optee/optee_os/lib/libutee/tee_api_arith.c:172
    5058:	a9bd7bfd 	stp	x29, x30, [sp,#-48]!
    505c:	910003fd 	mov	x29, sp
    5060:	f9000bf3 	str	x19, [sp,#16]
    5064:	aa0103f3 	mov	x19, x1
/home/pwnz/devel/optee/optee_os/lib/libutee/tee_api_arith.c:174
    5068:	9100c3a1 	add	x1, x29, #0x30
    506c:	b9400263 	ldr	w3, [x19]
    5070:	f81f8c23 	str	x3, [x1,#-8]!
/home/pwnz/devel/optee/optee_os/lib/libutee/tee_api_arith.c:177
    5074:	94001840 	bl	b174 <mpa_get_oct_str>
/home/pwnz/devel/optee/optee_os/lib/libutee/tee_api_arith.c:178
    5078:	7100001f 	cmp	w0, #0x0
/home/pwnz/devel/optee/optee_os/lib/libutee/tee_api_arith.c:182
    507c:	f94017a0 	ldr	x0, [x29,#40]
    5080:	b9000260 	str	w0, [x19]
/home/pwnz/devel/optee/optee_os/lib/libutee/tee_api_arith.c:189
    5084:	f9400bf3 	ldr	x19, [sp,#16]
    5088:	129ffde0 	mov	w0, #0xffff0010            	// #-65520
    508c:	1a9f1000 	csel	w0, w0, wzr, ne
    5090:	a8c37bfd 	ldp	x29, x30, [sp],#48
    5094:	d65f03c0 	ret

0000000000005098 <TEE_BigIntConvertFromS32>:
TEE_BigIntConvertFromS32():
/home/pwnz/devel/optee/optee_os/lib/libutee/tee_api_arith.c:199
    5098:	14000c60 	b	8218 <mpa_set_S32>

000000000000509c <TEE_BigIntConvertToS32>:
TEE_BigIntConvertToS32():
/home/pwnz/devel/optee/optee_os/lib/libutee/tee_api_arith.c:209
    509c:	a9bf7bfd 	stp	x29, x30, [sp,#-16]!
    50a0:	910003fd 	mov	x29, sp
/home/pwnz/devel/optee/optee_os/lib/libutee/tee_api_arith.c:213
    50a4:	94000c68 	bl	8244 <mpa_get_S32>
/home/pwnz/devel/optee/optee_os/lib/libutee/tee_api_arith.c:214
    50a8:	7100001f 	cmp	w0, #0x0
/home/pwnz/devel/optee/optee_os/lib/libutee/tee_api_arith.c:223
    50ac:	a8c17bfd 	ldp	x29, x30, [sp],#16
    50b0:	1299fe00 	mov	w0, #0xffff300f            	// #-53233
    50b4:	1a9f1000 	csel	w0, w0, wzr, ne
    50b8:	d65f03c0 	ret

00000000000050bc <TEE_BigIntCmp>:
TEE_BigIntCmp():
/home/pwnz/devel/optee/optee_os/lib/libutee/tee_api_arith.c:237
    50bc:	140015f1 	b	a880 <mpa_cmp>

00000000000050c0 <TEE_BigIntCmpS32>:
TEE_BigIntCmpS32():
/home/pwnz/devel/optee/optee_os/lib/libutee/tee_api_arith.c:247
    50c0:	1400160a 	b	a8e8 <mpa_cmp_short>

00000000000050c4 <TEE_BigIntShiftRight>:
TEE_BigIntShiftRight():
/home/pwnz/devel/optee/optee_os/lib/libutee/tee_api_arith.c:259
    50c4:	14001328 	b	9d64 <mpa_shift_right>

00000000000050c8 <TEE_BigIntGetBit>:
TEE_BigIntGetBit():
/home/pwnz/devel/optee/optee_os/lib/libutee/tee_api_arith.c:266
    50c8:	a9bf7bfd 	stp	x29, x30, [sp,#-16]!
    50cc:	910003fd 	mov	x29, sp
/home/pwnz/devel/optee/optee_os/lib/libutee/tee_api_arith.c:269
    50d0:	94000a4d 	bl	7a04 <mpa_get_bit>
    50d4:	7100001f 	cmp	w0, #0x0
/home/pwnz/devel/optee/optee_os/lib/libutee/tee_api_arith.c:270
    50d8:	1a9f07e0 	cset	w0, ne
    50dc:	a8c17bfd 	ldp	x29, x30, [sp],#16
    50e0:	d65f03c0 	ret

00000000000050e4 <TEE_BigIntGetBitCount>:
TEE_BigIntGetBitCount():
/home/pwnz/devel/optee/optee_os/lib/libutee/tee_api_arith.c:276
    50e4:	a9bf7bfd 	stp	x29, x30, [sp,#-16]!
    50e8:	910003fd 	mov	x29, sp
/home/pwnz/devel/optee/optee_os/lib/libutee/tee_api_arith.c:279
    50ec:	94000a35 	bl	79c0 <mpa_highest_bit_index>
/home/pwnz/devel/optee/optee_os/lib/libutee/tee_api_arith.c:280
    50f0:	11000400 	add	w0, w0, #0x1
    50f4:	a8c17bfd 	ldp	x29, x30, [sp],#16
    50f8:	d65f03c0 	ret

00000000000050fc <TEE_BigIntAdd>:
TEE_BigIntAdd():
/home/pwnz/devel/optee/optee_os/lib/libutee/tee_api_arith.c:296
    50fc:	b0000083 	adrp	x3, 16000 <ta_heap+0x7a78>
    5100:	9117c063 	add	x3, x3, #0x5f0
    5104:	14001432 	b	a1cc <mpa_add>

0000000000005108 <TEE_BigIntSub>:
TEE_BigIntSub():
/home/pwnz/devel/optee/optee_os/lib/libutee/tee_api_arith.c:309
    5108:	b0000083 	adrp	x3, 16000 <ta_heap+0x7a78>
    510c:	9117c063 	add	x3, x3, #0x5f0
    5110:	14001494 	b	a360 <mpa_sub>

0000000000005114 <TEE_BigIntNeg>:
TEE_BigIntNeg():
/home/pwnz/devel/optee/optee_os/lib/libutee/tee_api_arith.c:320
    5114:	140014fa 	b	a4fc <mpa_neg>

0000000000005118 <TEE_BigIntMul>:
TEE_BigIntMul():
/home/pwnz/devel/optee/optee_os/lib/libutee/tee_api_arith.c:333
    5118:	b0000083 	adrp	x3, 16000 <ta_heap+0x7a78>
    511c:	9117c063 	add	x3, x3, #0x5f0
    5120:	140011a1 	b	97a4 <mpa_mul>

0000000000005124 <TEE_BigIntSquare>:
TEE_BigIntSquare():
/home/pwnz/devel/optee/optee_os/lib/libutee/tee_api_arith.c:344
    5124:	b0000083 	adrp	x3, 16000 <ta_heap+0x7a78>
    5128:	aa0103e2 	mov	x2, x1
    512c:	9117c063 	add	x3, x3, #0x5f0
    5130:	1400119d 	b	97a4 <mpa_mul>

0000000000005134 <TEE_BigIntDiv>:
TEE_BigIntDiv():
/home/pwnz/devel/optee/optee_os/lib/libutee/tee_api_arith.c:352
    5134:	a9bd7bfd 	stp	x29, x30, [sp,#-48]!
    5138:	910003fd 	mov	x29, sp
    513c:	a90153f3 	stp	x19, x20, [sp,#16]
    5140:	aa0003f4 	mov	x20, x0
    5144:	a9025bf5 	stp	x21, x22, [sp,#32]
    5148:	aa0303f3 	mov	x19, x3
    514c:	aa0103f5 	mov	x21, x1
    5150:	aa0203f6 	mov	x22, x2
TEE_BigIntCmpS32():
/home/pwnz/devel/optee/optee_os/lib/libutee/tee_api_arith.c:247
    5154:	52800001 	mov	w1, #0x0                   	// #0
    5158:	aa0303e0 	mov	x0, x3
    515c:	940015e3 	bl	a8e8 <mpa_cmp_short>
TEE_BigIntDiv():
/home/pwnz/devel/optee/optee_os/lib/libutee/tee_api_arith.c:358
    5160:	35000080 	cbnz	w0, 5170 <TEE_BigIntDiv+0x3c>
/home/pwnz/devel/optee/optee_os/lib/libutee/tee_api_arith.c:359
    5164:	f0000020 	adrp	x0, c000 <PRIME_TABLE+0x770>
    5168:	913b2400 	add	x0, x0, #0xec9
    516c:	9400012e 	bl	5624 <TEE_BigInt_Panic>
/home/pwnz/devel/optee/optee_os/lib/libutee/tee_api_arith.c:361
    5170:	aa1303e3 	mov	x3, x19
    5174:	aa1603e2 	mov	x2, x22
    5178:	aa1503e1 	mov	x1, x21
    517c:	aa1403e0 	mov	x0, x20
/home/pwnz/devel/optee/optee_os/lib/libutee/tee_api_arith.c:362
    5180:	a9425bf5 	ldp	x21, x22, [sp,#32]
/home/pwnz/devel/optee/optee_os/lib/libutee/tee_api_arith.c:361
    5184:	b0000084 	adrp	x4, 16000 <ta_heap+0x7a78>
/home/pwnz/devel/optee/optee_os/lib/libutee/tee_api_arith.c:362
    5188:	a94153f3 	ldp	x19, x20, [sp,#16]
/home/pwnz/devel/optee/optee_os/lib/libutee/tee_api_arith.c:361
    518c:	9117c084 	add	x4, x4, #0x5f0
/home/pwnz/devel/optee/optee_os/lib/libutee/tee_api_arith.c:362
    5190:	a8c37bfd 	ldp	x29, x30, [sp],#48
/home/pwnz/devel/optee/optee_os/lib/libutee/tee_api_arith.c:361
    5194:	14000e5c 	b	8b04 <mpa_div>

0000000000005198 <TEE_BigIntMod>:
TEE_BigIntMod():
/home/pwnz/devel/optee/optee_os/lib/libutee/tee_api_arith.c:373
    5198:	a9bd7bfd 	stp	x29, x30, [sp,#-48]!
    519c:	910003fd 	mov	x29, sp
    51a0:	a9025bf5 	stp	x21, x22, [sp,#32]
    51a4:	aa0103f6 	mov	x22, x1
    51a8:	a90153f3 	stp	x19, x20, [sp,#16]
    51ac:	aa0203f5 	mov	x21, x2
    51b0:	aa0003f4 	mov	x20, x0
TEE_BigIntCmpS32():
/home/pwnz/devel/optee/optee_os/lib/libutee/tee_api_arith.c:247
    51b4:	52800041 	mov	w1, #0x2                   	// #2
    51b8:	aa0203e0 	mov	x0, x2
    51bc:	940015cb 	bl	a8e8 <mpa_cmp_short>
TEE_BigIntMod():
/home/pwnz/devel/optee/optee_os/lib/libutee/tee_api_arith.c:378
    51c0:	36f80080 	tbz	w0, #31, 51d0 <TEE_BigIntMod+0x38>
/home/pwnz/devel/optee/optee_os/lib/libutee/tee_api_arith.c:379
    51c4:	f0000020 	adrp	x0, c000 <PRIME_TABLE+0x770>
    51c8:	913b6400 	add	x0, x0, #0xed9
    51cc:	94000116 	bl	5624 <TEE_BigInt_Panic>
/home/pwnz/devel/optee/optee_os/lib/libutee/tee_api_arith.c:381
    51d0:	b0000093 	adrp	x19, 16000 <ta_heap+0x7a78>
    51d4:	9117c273 	add	x19, x19, #0x5f0
    51d8:	aa1303e3 	mov	x3, x19
    51dc:	aa1503e2 	mov	x2, x21
    51e0:	aa1603e1 	mov	x1, x22
    51e4:	aa1403e0 	mov	x0, x20
    51e8:	94001840 	bl	b2e8 <mpa_mod>
/home/pwnz/devel/optee/optee_os/lib/libutee/tee_api_arith.c:383
    51ec:	52800001 	mov	w1, #0x0                   	// #0
    51f0:	aa1403e0 	mov	x0, x20
    51f4:	940015bd 	bl	a8e8 <mpa_cmp_short>
    51f8:	36f80120 	tbz	w0, #31, 521c <TEE_BigIntMod+0x84>
/home/pwnz/devel/optee/optee_os/lib/libutee/tee_api_arith.c:384
    51fc:	aa1303e3 	mov	x3, x19
    5200:	aa1503e2 	mov	x2, x21
    5204:	aa1403e1 	mov	x1, x20
    5208:	aa1403e0 	mov	x0, x20
/home/pwnz/devel/optee/optee_os/lib/libutee/tee_api_arith.c:385
    520c:	a9425bf5 	ldp	x21, x22, [sp,#32]
    5210:	a94153f3 	ldp	x19, x20, [sp,#16]
    5214:	a8c37bfd 	ldp	x29, x30, [sp],#48
/home/pwnz/devel/optee/optee_os/lib/libutee/tee_api_arith.c:384
    5218:	140013ed 	b	a1cc <mpa_add>
/home/pwnz/devel/optee/optee_os/lib/libutee/tee_api_arith.c:385
    521c:	a94153f3 	ldp	x19, x20, [sp,#16]
    5220:	a9425bf5 	ldp	x21, x22, [sp,#32]
    5224:	a8c37bfd 	ldp	x29, x30, [sp],#48
    5228:	d65f03c0 	ret

000000000000522c <TEE_BigIntAddMod>:
TEE_BigIntAddMod():
/home/pwnz/devel/optee/optee_os/lib/libutee/tee_api_arith.c:392
    522c:	a9bc7bfd 	stp	x29, x30, [sp,#-64]!
    5230:	910003fd 	mov	x29, sp
    5234:	a9025bf5 	stp	x21, x22, [sp,#32]
    5238:	aa0103f6 	mov	x22, x1
    523c:	a90153f3 	stp	x19, x20, [sp,#16]
    5240:	aa0303f5 	mov	x21, x3
    5244:	f9001bf7 	str	x23, [sp,#48]
    5248:	aa0003f4 	mov	x20, x0
TEE_BigIntCmpS32():
/home/pwnz/devel/optee/optee_os/lib/libutee/tee_api_arith.c:247
    524c:	52800041 	mov	w1, #0x2                   	// #2
    5250:	aa0303e0 	mov	x0, x3
TEE_BigIntAddMod():
/home/pwnz/devel/optee/optee_os/lib/libutee/tee_api_arith.c:392
    5254:	aa0203f7 	mov	x23, x2
TEE_BigIntCmpS32():
/home/pwnz/devel/optee/optee_os/lib/libutee/tee_api_arith.c:247
    5258:	940015a4 	bl	a8e8 <mpa_cmp_short>
TEE_BigIntAddMod():
/home/pwnz/devel/optee/optee_os/lib/libutee/tee_api_arith.c:398
    525c:	36f80080 	tbz	w0, #31, 526c <TEE_BigIntAddMod+0x40>
/home/pwnz/devel/optee/optee_os/lib/libutee/tee_api_arith.c:399
    5260:	f0000020 	adrp	x0, c000 <PRIME_TABLE+0x770>
    5264:	913b6400 	add	x0, x0, #0xed9
    5268:	940000ef 	bl	5624 <TEE_BigInt_Panic>
/home/pwnz/devel/optee/optee_os/lib/libutee/tee_api_arith.c:401
    526c:	b0000093 	adrp	x19, 16000 <ta_heap+0x7a78>
    5270:	9117c273 	add	x19, x19, #0x5f0
    5274:	aa1303e4 	mov	x4, x19
    5278:	aa1503e3 	mov	x3, x21
    527c:	aa1703e2 	mov	x2, x23
    5280:	aa1603e1 	mov	x1, x22
    5284:	aa1403e0 	mov	x0, x20
    5288:	9400181e 	bl	b300 <mpa_add_mod>
/home/pwnz/devel/optee/optee_os/lib/libutee/tee_api_arith.c:402
    528c:	52800001 	mov	w1, #0x0                   	// #0
    5290:	aa1403e0 	mov	x0, x20
    5294:	94001595 	bl	a8e8 <mpa_cmp_short>
    5298:	36f80140 	tbz	w0, #31, 52c0 <TEE_BigIntAddMod+0x94>
/home/pwnz/devel/optee/optee_os/lib/libutee/tee_api_arith.c:403
    529c:	aa1303e3 	mov	x3, x19
    52a0:	aa1503e2 	mov	x2, x21
    52a4:	aa1403e1 	mov	x1, x20
    52a8:	aa1403e0 	mov	x0, x20
/home/pwnz/devel/optee/optee_os/lib/libutee/tee_api_arith.c:404
    52ac:	a9425bf5 	ldp	x21, x22, [sp,#32]
    52b0:	a94153f3 	ldp	x19, x20, [sp,#16]
    52b4:	f9401bf7 	ldr	x23, [sp,#48]
    52b8:	a8c47bfd 	ldp	x29, x30, [sp],#64
/home/pwnz/devel/optee/optee_os/lib/libutee/tee_api_arith.c:403
    52bc:	140013c4 	b	a1cc <mpa_add>
/home/pwnz/devel/optee/optee_os/lib/libutee/tee_api_arith.c:404
    52c0:	a94153f3 	ldp	x19, x20, [sp,#16]
    52c4:	a9425bf5 	ldp	x21, x22, [sp,#32]
    52c8:	f9401bf7 	ldr	x23, [sp,#48]
    52cc:	a8c47bfd 	ldp	x29, x30, [sp],#64
    52d0:	d65f03c0 	ret

00000000000052d4 <TEE_BigIntSubMod>:
TEE_BigIntSubMod():
/home/pwnz/devel/optee/optee_os/lib/libutee/tee_api_arith.c:411
    52d4:	a9bc7bfd 	stp	x29, x30, [sp,#-64]!
    52d8:	910003fd 	mov	x29, sp
    52dc:	a9025bf5 	stp	x21, x22, [sp,#32]
    52e0:	aa0103f6 	mov	x22, x1
    52e4:	a90153f3 	stp	x19, x20, [sp,#16]
    52e8:	aa0303f5 	mov	x21, x3
    52ec:	f9001bf7 	str	x23, [sp,#48]
    52f0:	aa0003f4 	mov	x20, x0
TEE_BigIntCmpS32():
/home/pwnz/devel/optee/optee_os/lib/libutee/tee_api_arith.c:247
    52f4:	52800041 	mov	w1, #0x2                   	// #2
    52f8:	aa0303e0 	mov	x0, x3
TEE_BigIntSubMod():
/home/pwnz/devel/optee/optee_os/lib/libutee/tee_api_arith.c:411
    52fc:	aa0203f7 	mov	x23, x2
TEE_BigIntCmpS32():
/home/pwnz/devel/optee/optee_os/lib/libutee/tee_api_arith.c:247
    5300:	9400157a 	bl	a8e8 <mpa_cmp_short>
TEE_BigIntSubMod():
/home/pwnz/devel/optee/optee_os/lib/libutee/tee_api_arith.c:417
    5304:	36f80080 	tbz	w0, #31, 5314 <TEE_BigIntSubMod+0x40>
/home/pwnz/devel/optee/optee_os/lib/libutee/tee_api_arith.c:418
    5308:	f0000020 	adrp	x0, c000 <PRIME_TABLE+0x770>
    530c:	913b6400 	add	x0, x0, #0xed9
    5310:	940000c5 	bl	5624 <TEE_BigInt_Panic>
/home/pwnz/devel/optee/optee_os/lib/libutee/tee_api_arith.c:420
    5314:	b0000093 	adrp	x19, 16000 <ta_heap+0x7a78>
    5318:	9117c273 	add	x19, x19, #0x5f0
    531c:	aa1303e4 	mov	x4, x19
    5320:	aa1503e3 	mov	x3, x21
    5324:	aa1703e2 	mov	x2, x23
    5328:	aa1603e1 	mov	x1, x22
    532c:	aa1403e0 	mov	x0, x20
    5330:	94001815 	bl	b384 <mpa_sub_mod>
/home/pwnz/devel/optee/optee_os/lib/libutee/tee_api_arith.c:421
    5334:	52800001 	mov	w1, #0x0                   	// #0
    5338:	aa1403e0 	mov	x0, x20
    533c:	9400156b 	bl	a8e8 <mpa_cmp_short>
    5340:	36f80140 	tbz	w0, #31, 5368 <TEE_BigIntSubMod+0x94>
/home/pwnz/devel/optee/optee_os/lib/libutee/tee_api_arith.c:422
    5344:	aa1303e3 	mov	x3, x19
    5348:	aa1503e2 	mov	x2, x21
    534c:	aa1403e1 	mov	x1, x20
    5350:	aa1403e0 	mov	x0, x20
/home/pwnz/devel/optee/optee_os/lib/libutee/tee_api_arith.c:423
    5354:	a9425bf5 	ldp	x21, x22, [sp,#32]
    5358:	a94153f3 	ldp	x19, x20, [sp,#16]
    535c:	f9401bf7 	ldr	x23, [sp,#48]
    5360:	a8c47bfd 	ldp	x29, x30, [sp],#64
/home/pwnz/devel/optee/optee_os/lib/libutee/tee_api_arith.c:422
    5364:	1400139a 	b	a1cc <mpa_add>
/home/pwnz/devel/optee/optee_os/lib/libutee/tee_api_arith.c:423
    5368:	a94153f3 	ldp	x19, x20, [sp,#16]
    536c:	a9425bf5 	ldp	x21, x22, [sp,#32]
    5370:	f9401bf7 	ldr	x23, [sp,#48]
    5374:	a8c47bfd 	ldp	x29, x30, [sp],#64
    5378:	d65f03c0 	ret

000000000000537c <TEE_BigIntMulMod>:
TEE_BigIntMulMod():
/home/pwnz/devel/optee/optee_os/lib/libutee/tee_api_arith.c:430
    537c:	a9ba7bfd 	stp	x29, x30, [sp,#-96]!
    5380:	910003fd 	mov	x29, sp
    5384:	a90363f7 	stp	x23, x24, [sp,#48]
    5388:	aa0003f7 	mov	x23, x0
    538c:	a90153f3 	stp	x19, x20, [sp,#16]
    5390:	aa0103f8 	mov	x24, x1
    5394:	f90023f9 	str	x25, [sp,#64]
    5398:	aa0303f4 	mov	x20, x3
    539c:	a9025bf5 	stp	x21, x22, [sp,#32]
TEE_BigIntCmpS32():
/home/pwnz/devel/optee/optee_os/lib/libutee/tee_api_arith.c:247
    53a0:	52800041 	mov	w1, #0x2                   	// #2
    53a4:	aa0303e0 	mov	x0, x3
TEE_BigIntMulMod():
/home/pwnz/devel/optee/optee_os/lib/libutee/tee_api_arith.c:430
    53a8:	aa0203f9 	mov	x25, x2
TEE_BigIntCmpS32():
/home/pwnz/devel/optee/optee_os/lib/libutee/tee_api_arith.c:247
    53ac:	9400154f 	bl	a8e8 <mpa_cmp_short>
TEE_BigIntMulMod():
/home/pwnz/devel/optee/optee_os/lib/libutee/tee_api_arith.c:437
    53b0:	36f80080 	tbz	w0, #31, 53c0 <TEE_BigIntMulMod+0x44>
/home/pwnz/devel/optee/optee_os/lib/libutee/tee_api_arith.c:438
    53b4:	f0000020 	adrp	x0, c000 <PRIME_TABLE+0x770>
    53b8:	913b6400 	add	x0, x0, #0xed9
    53bc:	9400009a 	bl	5624 <TEE_BigInt_Panic>
/home/pwnz/devel/optee/optee_os/lib/libutee/tee_api_arith.c:448
    53c0:	b0000093 	adrp	x19, 16000 <ta_heap+0x7a78>
    53c4:	910163b6 	add	x22, x29, #0x58
    53c8:	9117c275 	add	x21, x19, #0x5f0
    53cc:	aa1603e0 	mov	x0, x22
    53d0:	aa1503e1 	mov	x1, x21
    53d4:	9400106c 	bl	9584 <mpa_alloc_static_temp_var>
/home/pwnz/devel/optee/optee_os/lib/libutee/tee_api_arith.c:449
    53d8:	f9402fa0 	ldr	x0, [x29,#88]
    53dc:	aa1803e1 	mov	x1, x24
    53e0:	aa1503e4 	mov	x4, x21
    53e4:	aa1403e3 	mov	x3, x20
    53e8:	aa1903e2 	mov	x2, x25
    53ec:	94001807 	bl	b408 <mpa_mul_mod>
/home/pwnz/devel/optee/optee_os/lib/libutee/tee_api_arith.c:450
    53f0:	f9402fa0 	ldr	x0, [x29,#88]
    53f4:	52800001 	mov	w1, #0x0                   	// #0
    53f8:	9400153c 	bl	a8e8 <mpa_cmp_short>
    53fc:	36f800c0 	tbz	w0, #31, 5414 <TEE_BigIntMulMod+0x98>
/home/pwnz/devel/optee/optee_os/lib/libutee/tee_api_arith.c:451
    5400:	f9402fa1 	ldr	x1, [x29,#88]
    5404:	aa1503e3 	mov	x3, x21
    5408:	aa1403e2 	mov	x2, x20
    540c:	aa0103e0 	mov	x0, x1
    5410:	9400136f 	bl	a1cc <mpa_add>
/home/pwnz/devel/optee/optee_os/lib/libutee/tee_api_arith.c:452
    5414:	f9402fa1 	ldr	x1, [x29,#88]
    5418:	aa1703e0 	mov	x0, x23
    541c:	94000948 	bl	793c <mpa_copy>
/home/pwnz/devel/optee/optee_os/lib/libutee/tee_api_arith.c:453
    5420:	9117c261 	add	x1, x19, #0x5f0
    5424:	aa1603e0 	mov	x0, x22
    5428:	9400105b 	bl	9594 <mpa_free_static_temp_var>
/home/pwnz/devel/optee/optee_os/lib/libutee/tee_api_arith.c:454
    542c:	f94023f9 	ldr	x25, [sp,#64]
    5430:	a94153f3 	ldp	x19, x20, [sp,#16]
    5434:	a9425bf5 	ldp	x21, x22, [sp,#32]
    5438:	a94363f7 	ldp	x23, x24, [sp,#48]
    543c:	a8c67bfd 	ldp	x29, x30, [sp],#96
    5440:	d65f03c0 	ret

0000000000005444 <TEE_BigIntSquareMod>:
TEE_BigIntSquareMod():
/home/pwnz/devel/optee/optee_os/lib/libutee/tee_api_arith.c:462
    5444:	aa0203e3 	mov	x3, x2
    5448:	aa0103e2 	mov	x2, x1
    544c:	17ffffcc 	b	537c <TEE_BigIntMulMod>

0000000000005450 <TEE_BigIntInvMod>:
TEE_BigIntInvMod():
/home/pwnz/devel/optee/optee_os/lib/libutee/tee_api_arith.c:470
    5450:	a9bd7bfd 	stp	x29, x30, [sp,#-48]!
    5454:	910003fd 	mov	x29, sp
    5458:	a90153f3 	stp	x19, x20, [sp,#16]
    545c:	aa0103f3 	mov	x19, x1
    5460:	f90013f5 	str	x21, [sp,#32]
    5464:	aa0203f4 	mov	x20, x2
    5468:	aa0003f5 	mov	x21, x0
TEE_BigIntCmpS32():
/home/pwnz/devel/optee/optee_os/lib/libutee/tee_api_arith.c:247
    546c:	52800041 	mov	w1, #0x2                   	// #2
    5470:	aa0203e0 	mov	x0, x2
    5474:	9400151d 	bl	a8e8 <mpa_cmp_short>
TEE_BigIntInvMod():
/home/pwnz/devel/optee/optee_os/lib/libutee/tee_api_arith.c:475
    5478:	36f80080 	tbz	w0, #31, 5488 <TEE_BigIntInvMod+0x38>
/home/pwnz/devel/optee/optee_os/lib/libutee/tee_api_arith.c:476
    547c:	f0000020 	adrp	x0, c000 <PRIME_TABLE+0x770>
    5480:	913bb800 	add	x0, x0, #0xeee
    5484:	94000068 	bl	5624 <TEE_BigInt_Panic>
TEE_BigIntCmpS32():
/home/pwnz/devel/optee/optee_os/lib/libutee/tee_api_arith.c:247
    5488:	52800001 	mov	w1, #0x0                   	// #0
    548c:	aa1303e0 	mov	x0, x19
    5490:	94001516 	bl	a8e8 <mpa_cmp_short>
TEE_BigIntInvMod():
/home/pwnz/devel/optee/optee_os/lib/libutee/tee_api_arith.c:475
    5494:	34ffff40 	cbz	w0, 547c <TEE_BigIntInvMod+0x2c>
/home/pwnz/devel/optee/optee_os/lib/libutee/tee_api_arith.c:478
    5498:	aa1403e2 	mov	x2, x20
    549c:	aa1303e1 	mov	x1, x19
    54a0:	aa1503e0 	mov	x0, x21
/home/pwnz/devel/optee/optee_os/lib/libutee/tee_api_arith.c:479
    54a4:	f94013f5 	ldr	x21, [sp,#32]
    54a8:	a94153f3 	ldp	x19, x20, [sp,#16]
/home/pwnz/devel/optee/optee_os/lib/libutee/tee_api_arith.c:478
    54ac:	b0000083 	adrp	x3, 16000 <ta_heap+0x7a78>
/home/pwnz/devel/optee/optee_os/lib/libutee/tee_api_arith.c:479
    54b0:	a8c37bfd 	ldp	x29, x30, [sp],#48
/home/pwnz/devel/optee/optee_os/lib/libutee/tee_api_arith.c:478
    54b4:	9117c063 	add	x3, x3, #0x5f0
    54b8:	140017f5 	b	b48c <mpa_inv_mod>

00000000000054bc <TEE_BigIntRelativePrime>:
TEE_BigIntRelativePrime():
/home/pwnz/devel/optee/optee_os/lib/libutee/tee_api_arith.c:489
    54bc:	a9bc7bfd 	stp	x29, x30, [sp,#-64]!
    54c0:	910003fd 	mov	x29, sp
    54c4:	a90153f3 	stp	x19, x20, [sp,#16]
/home/pwnz/devel/optee/optee_os/lib/libutee/tee_api_arith.c:495
    54c8:	9100e3b4 	add	x20, x29, #0x38
    54cc:	b0000093 	adrp	x19, 16000 <ta_heap+0x7a78>
    54d0:	9117c273 	add	x19, x19, #0x5f0
/home/pwnz/devel/optee/optee_os/lib/libutee/tee_api_arith.c:489
    54d4:	a9025bf5 	stp	x21, x22, [sp,#32]
    54d8:	aa0003f5 	mov	x21, x0
    54dc:	aa0103f6 	mov	x22, x1
/home/pwnz/devel/optee/optee_os/lib/libutee/tee_api_arith.c:495
    54e0:	aa1403e0 	mov	x0, x20
    54e4:	aa1303e1 	mov	x1, x19
    54e8:	94001027 	bl	9584 <mpa_alloc_static_temp_var>
/home/pwnz/devel/optee/optee_os/lib/libutee/tee_api_arith.c:497
    54ec:	f9401fa0 	ldr	x0, [x29,#56]
    54f0:	aa1303e3 	mov	x3, x19
    54f4:	aa1603e2 	mov	x2, x22
    54f8:	aa1503e1 	mov	x1, x21
    54fc:	94000f19 	bl	9160 <mpa_gcd>
/home/pwnz/devel/optee/optee_os/lib/libutee/tee_api_arith.c:498
    5500:	f9401fa0 	ldr	x0, [x29,#56]
    5504:	52800021 	mov	w1, #0x1                   	// #1
    5508:	940014f8 	bl	a8e8 <mpa_cmp_short>
    550c:	2a0003f5 	mov	w21, w0
/home/pwnz/devel/optee/optee_os/lib/libutee/tee_api_arith.c:500
    5510:	aa1303e1 	mov	x1, x19
    5514:	aa1403e0 	mov	x0, x20
    5518:	9400101f 	bl	9594 <mpa_free_static_temp_var>
/home/pwnz/devel/optee/optee_os/lib/libutee/tee_api_arith.c:502
    551c:	710002bf 	cmp	w21, #0x0
/home/pwnz/devel/optee/optee_os/lib/libutee/tee_api_arith.c:503
    5520:	a94153f3 	ldp	x19, x20, [sp,#16]
    5524:	1a9f17e0 	cset	w0, eq
    5528:	a9425bf5 	ldp	x21, x22, [sp,#32]
    552c:	a8c47bfd 	ldp	x29, x30, [sp],#64
    5530:	d65f03c0 	ret

0000000000005534 <TEE_BigIntComputeExtendedGcd>:
TEE_BigIntComputeExtendedGcd():
/home/pwnz/devel/optee/optee_os/lib/libutee/tee_api_arith.c:518
    5534:	b0000085 	adrp	x5, 16000 <ta_heap+0x7a78>
    5538:	9117c0a5 	add	x5, x5, #0x5f0
    553c:	14000f51 	b	9280 <mpa_extended_gcd>

0000000000005540 <TEE_BigIntIsProbablePrime>:
TEE_BigIntIsProbablePrime():
/home/pwnz/devel/optee/optee_os/lib/libutee/tee_api_arith.c:526
    5540:	7104003f 	cmp	w1, #0x100
    5544:	52802002 	mov	w2, #0x100                 	// #256
    5548:	1a829021 	csel	w1, w1, w2, ls
/home/pwnz/devel/optee/optee_os/lib/libutee/tee_api_arith.c:535
    554c:	52800a03 	mov	w3, #0x50                  	// #80
    5550:	7101403f 	cmp	w1, #0x50
    5554:	b0000082 	adrp	x2, 16000 <ta_heap+0x7a78>
    5558:	1a832021 	csel	w1, w1, w3, cs
    555c:	9117c042 	add	x2, x2, #0x5f0
    5560:	14000a43 	b	7e6c <mpa_is_prob_prime>

0000000000005564 <TEE_BigIntConvertToFMM>:
TEE_BigIntConvertToFMM():
/home/pwnz/devel/optee/optee_os/lib/libutee/tee_api_arith.c:549
    5564:	aa0303e6 	mov	x6, x3
/home/pwnz/devel/optee/optee_os/lib/libutee/tee_api_arith.c:556
    5568:	aa0203e3 	mov	x3, x2
    556c:	b0000085 	adrp	x5, 16000 <ta_heap+0x7a78>
    5570:	9117c0a5 	add	x5, x5, #0x5f0
    5574:	b94010c4 	ldr	w4, [x6,#16]
    5578:	f94004c2 	ldr	x2, [x6,#8]
    557c:	14000a1a 	b	7de4 <mpa_montgomery_mul>

0000000000005580 <TEE_BigIntConvertFromFMM>:
TEE_BigIntConvertFromFMM():
/home/pwnz/devel/optee/optee_os/lib/libutee/tee_api_arith.c:567
    5580:	a9ba7bfd 	stp	x29, x30, [sp,#-96]!
    5584:	910003fd 	mov	x29, sp
    5588:	a90153f3 	stp	x19, x20, [sp,#16]
/home/pwnz/devel/optee/optee_os/lib/libutee/tee_api_arith.c:579
    558c:	b0000093 	adrp	x19, 16000 <ta_heap+0x7a78>
    5590:	9117c273 	add	x19, x19, #0x5f0
/home/pwnz/devel/optee/optee_os/lib/libutee/tee_api_arith.c:567
    5594:	a90363f7 	stp	x23, x24, [sp,#48]
    5598:	aa0103f7 	mov	x23, x1
/home/pwnz/devel/optee/optee_os/lib/libutee/tee_api_arith.c:579
    559c:	aa1303e1 	mov	x1, x19
    55a0:	910163b4 	add	x20, x29, #0x58
/home/pwnz/devel/optee/optee_os/lib/libutee/tee_api_arith.c:567
    55a4:	f90023f9 	str	x25, [sp,#64]
    55a8:	aa0303f9 	mov	x25, x3
    55ac:	a9025bf5 	stp	x21, x22, [sp,#32]
    55b0:	aa0203f8 	mov	x24, x2
    55b4:	aa0003f5 	mov	x21, x0
/home/pwnz/devel/optee/optee_os/lib/libutee/tee_api_arith.c:579
    55b8:	aa1403e0 	mov	x0, x20
    55bc:	94000ff2 	bl	9584 <mpa_alloc_static_temp_var>
/home/pwnz/devel/optee/optee_os/lib/libutee/tee_api_arith.c:582
    55c0:	f9402fb6 	ldr	x22, [x29,#88]
    55c4:	9400092b 	bl	7a70 <mpa_constant_one>
    55c8:	b9401324 	ldr	w4, [x25,#16]
    55cc:	aa1303e5 	mov	x5, x19
    55d0:	aa1803e3 	mov	x3, x24
    55d4:	aa1703e2 	mov	x2, x23
    55d8:	aa0003e1 	mov	x1, x0
    55dc:	aa1603e0 	mov	x0, x22
    55e0:	94000a01 	bl	7de4 <mpa_montgomery_mul>
/home/pwnz/devel/optee/optee_os/lib/libutee/tee_api_arith.c:585
    55e4:	f9402fa1 	ldr	x1, [x29,#88]
    55e8:	aa1503e0 	mov	x0, x21
    55ec:	940008d4 	bl	793c <mpa_copy>
/home/pwnz/devel/optee/optee_os/lib/libutee/tee_api_arith.c:586
    55f0:	aa1303e1 	mov	x1, x19
    55f4:	aa1403e0 	mov	x0, x20
    55f8:	94000fe7 	bl	9594 <mpa_free_static_temp_var>
/home/pwnz/devel/optee/optee_os/lib/libutee/tee_api_arith.c:587
    55fc:	f94023f9 	ldr	x25, [sp,#64]
    5600:	a94153f3 	ldp	x19, x20, [sp,#16]
    5604:	a9425bf5 	ldp	x21, x22, [sp,#32]
    5608:	a94363f7 	ldp	x23, x24, [sp,#48]
    560c:	a8c67bfd 	ldp	x29, x30, [sp],#96
    5610:	d65f03c0 	ret

0000000000005614 <TEE_BigIntComputeFMM>:
TEE_BigIntComputeFMM():
/home/pwnz/devel/optee/optee_os/lib/libutee/tee_api_arith.c:604
    5614:	b9401084 	ldr	w4, [x4,#16]
    5618:	b0000085 	adrp	x5, 16000 <ta_heap+0x7a78>
    561c:	9117c0a5 	add	x5, x5, #0x5f0
    5620:	140009f1 	b	7de4 <mpa_montgomery_mul>

0000000000005624 <TEE_BigInt_Panic>:
TEE_BigInt_Panic():
/home/pwnz/devel/optee/optee_os/lib/libutee/tee_api_arith.c:63
    5624:	a9bf7bfd 	stp	x29, x30, [sp,#-16]!
/home/pwnz/devel/optee/optee_os/lib/libutee/tee_api_arith.c:64
    5628:	aa0003e1 	mov	x1, x0
    562c:	f0000020 	adrp	x0, c000 <PRIME_TABLE+0x770>
    5630:	913af800 	add	x0, x0, #0xebe
/home/pwnz/devel/optee/optee_os/lib/libutee/tee_api_arith.c:63
    5634:	910003fd 	mov	x29, sp
/home/pwnz/devel/optee/optee_os/lib/libutee/tee_api_arith.c:64
    5638:	9400001b 	bl	56a4 <printf>
/home/pwnz/devel/optee/optee_os/lib/libutee/tee_api_arith.c:65
    563c:	528c24e0 	mov	w0, #0x6127                	// #24871
    5640:	72a01620 	movk	w0, #0xb1, lsl #16
    5644:	97fffb40 	bl	4344 <TEE_Panic>
    5648:	14000000 	b	5648 <TEE_BigInt_Panic+0x24>

000000000000564c <utee_get_ta_exec_id>:
utee_get_ta_exec_id():
/home/pwnz/devel/optee/optee_os/lib/libutee/arch/arm/utee_misc.c:39
    564c:	52800000 	mov	w0, #0x0                   	// #0
    5650:	d65f03c0 	ret

0000000000005654 <utee_malloc>:
utee_malloc():
/home/pwnz/devel/optee/optee_os/lib/libutee/arch/arm/utee_misc.c:44
    5654:	1400029d 	b	60c8 <malloc>

0000000000005658 <utee_realloc>:
utee_realloc():
/home/pwnz/devel/optee/optee_os/lib/libutee/arch/arm/utee_misc.c:49
    5658:	140002c0 	b	6158 <realloc>

000000000000565c <utee_calloc>:
utee_calloc():
/home/pwnz/devel/optee/optee_os/lib/libutee/arch/arm/utee_misc.c:53
    565c:	aa0103e2 	mov	x2, x1
/home/pwnz/devel/optee/optee_os/lib/libutee/arch/arm/utee_misc.c:54
    5660:	aa0003e1 	mov	x1, x0
    5664:	aa0203e0 	mov	x0, x2
    5668:	140002a9 	b	610c <calloc>

000000000000566c <utee_free>:
utee_free():
/home/pwnz/devel/optee/optee_os/lib/libutee/arch/arm/utee_misc.c:59
    566c:	140002a5 	b	6100 <free>

0000000000005670 <get_rng_array>:
get_rng_array():
/home/pwnz/devel/optee/optee_os/lib/libutee/arch/arm/utee_misc.c:71
    5670:	17fffc4d 	b	47a4 <utee_cryp_random_number_generate>

0000000000005674 <trace_ext_puts>:
trace_ext_puts():
/home/pwnz/devel/optee/optee_os/lib/libutee/trace_ext.c:39
    5674:	a9be7bfd 	stp	x29, x30, [sp,#-32]!
    5678:	910003fd 	mov	x29, sp
    567c:	f9000bf3 	str	x19, [sp,#16]
    5680:	aa0003f3 	mov	x19, x0
/home/pwnz/devel/optee/optee_os/lib/libutee/trace_ext.c:40
    5684:	940004c2 	bl	698c <strlen>
    5688:	aa0003e1 	mov	x1, x0
    568c:	aa1303e0 	mov	x0, x19
/home/pwnz/devel/optee/optee_os/lib/libutee/trace_ext.c:41
    5690:	f9400bf3 	ldr	x19, [sp,#16]
    5694:	a8c27bfd 	ldp	x29, x30, [sp],#32
/home/pwnz/devel/optee/optee_os/lib/libutee/trace_ext.c:40
    5698:	17fffbe3 	b	4624 <utee_log>

000000000000569c <trace_ext_get_thread_id>:
trace_ext_get_thread_id():
/home/pwnz/devel/optee/optee_os/lib/libutee/trace_ext.c:46
    569c:	12800000 	mov	w0, #0xffffffff            	// #-1
    56a0:	d65f03c0 	ret

00000000000056a4 <printf>:
printf():
/home/pwnz/devel/optee/optee_os/lib/libutee/trace_ext.c:54
    56a4:	d10883ff 	sub	sp, sp, #0x220
    56a8:	a9007bfd 	stp	x29, x30, [sp]
    56ac:	910003fd 	mov	x29, sp
    56b0:	a90153f3 	stp	x19, x20, [sp,#16]
    56b4:	aa0003f3 	mov	x19, x0
    56b8:	910403a0 	add	x0, x29, #0x100
    56bc:	a91e8ba1 	stp	x1, x2, [x29,#488]
    56c0:	a91f93a3 	stp	x3, x4, [x29,#504]
    56c4:	f90107a5 	str	x5, [x29,#520]
    56c8:	f9010ba6 	str	x6, [x29,#528]
    56cc:	f9010fa7 	str	x7, [x29,#536]
    56d0:	3d801800 	str	q0, [x0,#96]
    56d4:	3d801c01 	str	q1, [x0,#112]
    56d8:	3d802002 	str	q2, [x0,#128]
    56dc:	3d802403 	str	q3, [x0,#144]
    56e0:	3d802804 	str	q4, [x0,#160]
    56e4:	3d802c05 	str	q5, [x0,#176]
    56e8:	3d803006 	str	q6, [x0,#192]
    56ec:	3d803407 	str	q7, [x0,#208]
/home/pwnz/devel/optee/optee_os/lib/libutee/trace_ext.c:59
    56f0:	940007e3 	bl	767c <trace_get_level>
    56f4:	7100001f 	cmp	w0, #0x0
    56f8:	5400038d 	b.le	5768 <printf+0xc4>
/home/pwnz/devel/optee/optee_os/lib/libutee/trace_ext.c:62
    56fc:	910883a0 	add	x0, x29, #0x220
    5700:	a90403a0 	stp	x0, x0, [x29,#64]
    5704:	910783a0 	add	x0, x29, #0x1e0
    5708:	f9002ba0 	str	x0, [x29,#80]
    570c:	128006e0 	mov	w0, #0xffffffc8            	// #-56
    5710:	b9005ba0 	str	w0, [x29,#88]
    5714:	12800fe0 	mov	w0, #0xffffff80            	// #-128
    5718:	b9005fa0 	str	w0, [x29,#92]
/home/pwnz/devel/optee/optee_os/lib/libutee/trace_ext.c:63
    571c:	a94407a0 	ldp	x0, x1, [x29,#64]
    5720:	a90207a0 	stp	x0, x1, [x29,#32]
    5724:	a94507a0 	ldp	x0, x1, [x29,#80]
    5728:	910183b4 	add	x20, x29, #0x60
    572c:	a90307a0 	stp	x0, x1, [x29,#48]
    5730:	aa1303e2 	mov	x2, x19
    5734:	910083a3 	add	x3, x29, #0x20
    5738:	d2802001 	mov	x1, #0x100                 	// #256
    573c:	aa1403e0 	mov	x0, x20
    5740:	9400044f 	bl	687c <vsnprintf>
    5744:	2a0003f3 	mov	w19, w0
/home/pwnz/devel/optee/optee_os/lib/libutee/trace_ext.c:66
    5748:	37f80060 	tbnz	w0, #31, 5754 <printf+0xb0>
/home/pwnz/devel/optee/optee_os/lib/libutee/trace_ext.c:69
    574c:	aa1403e0 	mov	x0, x20
    5750:	97ffffc9 	bl	5674 <trace_ext_puts>
/home/pwnz/devel/optee/optee_os/lib/libutee/trace_ext.c:72
    5754:	2a1303e0 	mov	w0, w19
    5758:	a94153f3 	ldp	x19, x20, [sp,#16]
    575c:	a9407bfd 	ldp	x29, x30, [sp]
    5760:	910883ff 	add	sp, sp, #0x220
    5764:	d65f03c0 	ret
/home/pwnz/devel/optee/optee_os/lib/libutee/trace_ext.c:60
    5768:	52800013 	mov	w19, #0x0                   	// #0
    576c:	17fffffa 	b	5754 <printf+0xb0>

0000000000005770 <puts>:
puts():
/home/pwnz/devel/optee/optee_os/lib/libutee/trace_ext.c:75
    5770:	a9be7bfd 	stp	x29, x30, [sp,#-32]!
    5774:	910003fd 	mov	x29, sp
    5778:	f9000bf3 	str	x19, [sp,#16]
    577c:	aa0003f3 	mov	x19, x0
/home/pwnz/devel/optee/optee_os/lib/libutee/trace_ext.c:76
    5780:	940007bf 	bl	767c <trace_get_level>
    5784:	7100001f 	cmp	w0, #0x0
    5788:	540000cd 	b.le	57a0 <puts+0x30>
/home/pwnz/devel/optee/optee_os/lib/libutee/trace_ext.c:77
    578c:	aa1303e0 	mov	x0, x19
    5790:	97ffffb9 	bl	5674 <trace_ext_puts>
/home/pwnz/devel/optee/optee_os/lib/libutee/trace_ext.c:78
    5794:	f0000020 	adrp	x0, c000 <PRIME_TABLE+0x770>
    5798:	9121ac00 	add	x0, x0, #0x86b
    579c:	97ffffb6 	bl	5674 <trace_ext_puts>
/home/pwnz/devel/optee/optee_os/lib/libutee/trace_ext.c:81
    57a0:	52800020 	mov	w0, #0x1                   	// #1
    57a4:	f9400bf3 	ldr	x19, [sp,#16]
    57a8:	a8c27bfd 	ldp	x29, x30, [sp],#32
    57ac:	d65f03c0 	ret

00000000000057b0 <putchar>:
putchar():
/home/pwnz/devel/optee/optee_os/lib/libutee/trace_ext.c:84
    57b0:	a9bd7bfd 	stp	x29, x30, [sp,#-48]!
    57b4:	910003fd 	mov	x29, sp
    57b8:	f9000bf3 	str	x19, [sp,#16]
    57bc:	2a0003f3 	mov	w19, w0
/home/pwnz/devel/optee/optee_os/lib/libutee/trace_ext.c:85
    57c0:	3900a3a0 	strb	w0, [x29,#40]
    57c4:	3900a7bf 	strb	wzr, [x29,#41]
/home/pwnz/devel/optee/optee_os/lib/libutee/trace_ext.c:87
    57c8:	940007ad 	bl	767c <trace_get_level>
    57cc:	7100001f 	cmp	w0, #0x0
    57d0:	5400006d 	b.le	57dc <putchar+0x2c>
/home/pwnz/devel/optee/optee_os/lib/libutee/trace_ext.c:88
    57d4:	9100a3a0 	add	x0, x29, #0x28
    57d8:	97ffffa7 	bl	5674 <trace_ext_puts>
/home/pwnz/devel/optee/optee_os/lib/libutee/trace_ext.c:95
    57dc:	12001e60 	and	w0, w19, #0xff
    57e0:	f9400bf3 	ldr	x19, [sp,#16]
    57e4:	a8c37bfd 	ldp	x29, x30, [sp],#48
    57e8:	d65f03c0 	ret

00000000000057ec <raw_malloc_return_hook>:
raw_malloc_return_hook():
/home/pwnz/devel/optee/optee_os/lib/libutils/isoc/bget_malloc.c:184
    57ec:	f0000082 	adrp	x2, 18000 <mempool_u32+0x1a10>
    57f0:	9104c043 	add	x3, x2, #0x130
    57f4:	91002063 	add	x3, x3, #0x8
    57f8:	f9409844 	ldr	x4, [x2,#304]
    57fc:	b9402465 	ldr	w5, [x3,#36]
    5800:	eb0400bf 	cmp	x5, x4
    5804:	5400004a 	b.ge	580c <raw_malloc_return_hook+0x20>
/home/pwnz/devel/optee/optee_os/lib/libutils/isoc/bget_malloc.c:185
    5808:	b9002464 	str	w4, [x3,#36]
/home/pwnz/devel/optee/optee_os/lib/libutils/isoc/bget_malloc.c:187
    580c:	b5000140 	cbnz	x0, 5834 <raw_malloc_return_hook+0x48>
/home/pwnz/devel/optee/optee_os/lib/libutils/isoc/bget_malloc.c:188
    5810:	9104c040 	add	x0, x2, #0x130
    5814:	91002000 	add	x0, x0, #0x8
    5818:	b9402c02 	ldr	w2, [x0,#44]
    581c:	11000442 	add	w2, w2, #0x1
    5820:	b9002c02 	str	w2, [x0,#44]
/home/pwnz/devel/optee/optee_os/lib/libutils/isoc/bget_malloc.c:189
    5824:	b9403002 	ldr	w2, [x0,#48]
    5828:	eb01005f 	cmp	x2, x1
    582c:	54000042 	b.cs	5834 <raw_malloc_return_hook+0x48>
/home/pwnz/devel/optee/optee_os/lib/libutils/isoc/bget_malloc.c:191
    5830:	29061001 	stp	w1, w4, [x0,#48]
    5834:	d65f03c0 	ret

0000000000005838 <create_free_block>:
create_free_block():
/home/pwnz/devel/optee/optee_os/lib/libutils/isoc/bget_malloc.c:388
    5838:	a9bf7bfd 	stp	x29, x30, [sp,#-16]!
/home/pwnz/devel/optee/optee_os/lib/libutils/isoc/bget_malloc.c:389
    583c:	8b010003 	add	x3, x0, x1
    5840:	eb02007f 	cmp	x3, x2
/home/pwnz/devel/optee/optee_os/lib/libutils/isoc/bget_malloc.c:388
    5844:	910003fd 	mov	x29, sp
/home/pwnz/devel/optee/optee_os/lib/libutils/isoc/bget_malloc.c:389
    5848:	54000140 	b.eq	5870 <create_free_block+0x38>
/home/pwnz/devel/optee/optee_os/lib/libutils/isoc/bget_malloc.c:389 (discriminator 1)
    584c:	d0000023 	adrp	x3, b000 <mpa_get_str+0x20>
    5850:	f0000021 	adrp	x1, c000 <PRIME_TABLE+0x770>
    5854:	f0000020 	adrp	x0, c000 <PRIME_TABLE+0x770>
    5858:	911d4063 	add	x3, x3, #0x750
    585c:	913c6421 	add	x1, x1, #0xf19
    5860:	913ce400 	add	x0, x0, #0xf39
    5864:	528030a2 	mov	w2, #0x185                 	// #389
/home/pwnz/devel/optee/optee_os/lib/libutils/isoc/bget_malloc.c:390 (discriminator 1)
    5868:	97fffdb4 	bl	4f38 <_assert_log>
    586c:	97fffdc4 	bl	4f7c <_assert_break>
/home/pwnz/devel/optee/optee_os/lib/libutils/isoc/bget_malloc.c:390
    5870:	f9400462 	ldr	x2, [x3,#8]
    5874:	b7f80122 	tbnz	x2, #63, 5898 <create_free_block+0x60>
/home/pwnz/devel/optee/optee_os/lib/libutils/isoc/bget_malloc.c:390 (discriminator 1)
    5878:	d0000023 	adrp	x3, b000 <mpa_get_str+0x20>
    587c:	f0000021 	adrp	x1, c000 <PRIME_TABLE+0x770>
    5880:	f0000020 	adrp	x0, c000 <PRIME_TABLE+0x770>
    5884:	911d4063 	add	x3, x3, #0x750
    5888:	528030c2 	mov	w2, #0x186                 	// #390
    588c:	913c6421 	add	x1, x1, #0xf19
    5890:	913d5400 	add	x0, x0, #0xf55
    5894:	17fffff5 	b	5868 <create_free_block+0x30>
/home/pwnz/devel/optee/optee_os/lib/libutils/isoc/bget_malloc.c:392
    5898:	f8616802 	ldr	x2, [x0,x1]
    589c:	b4000122 	cbz	x2, 58c0 <create_free_block+0x88>
/home/pwnz/devel/optee/optee_os/lib/libutils/isoc/bget_malloc.c:392 (discriminator 1)
    58a0:	d0000023 	adrp	x3, b000 <mpa_get_str+0x20>
    58a4:	f0000021 	adrp	x1, c000 <PRIME_TABLE+0x770>
    58a8:	f0000020 	adrp	x0, c000 <PRIME_TABLE+0x770>
    58ac:	911d4063 	add	x3, x3, #0x750
    58b0:	52803102 	mov	w2, #0x188                 	// #392
    58b4:	913c6421 	add	x1, x1, #0xf19
    58b8:	913d8c00 	add	x0, x0, #0xf63
    58bc:	17ffffeb 	b	5868 <create_free_block+0x30>
/home/pwnz/devel/optee/optee_os/lib/libutils/isoc/bget_malloc.c:395
    58c0:	a900041f 	stp	xzr, x1, [x0]
/home/pwnz/devel/optee/optee_os/lib/libutils/isoc/bget_malloc.c:399
    58c4:	f8216801 	str	x1, [x0,x1]
/home/pwnz/devel/optee/optee_os/lib/libutils/isoc/bget_malloc.c:402
    58c8:	b0000041 	adrp	x1, e000 <ta_props>
    58cc:	91040021 	add	x1, x1, #0x100
    58d0:	f9400c23 	ldr	x3, [x1,#24]
    58d4:	f9400862 	ldr	x2, [x3,#16]
    58d8:	eb01005f 	cmp	x2, x1
    58dc:	54000120 	b.eq	5900 <create_free_block+0xc8>
/home/pwnz/devel/optee/optee_os/lib/libutils/isoc/bget_malloc.c:402 (discriminator 1)
    58e0:	d0000023 	adrp	x3, b000 <mpa_get_str+0x20>
    58e4:	f0000021 	adrp	x1, c000 <PRIME_TABLE+0x770>
    58e8:	f0000020 	adrp	x0, c000 <PRIME_TABLE+0x770>
    58ec:	911d4063 	add	x3, x3, #0x750
    58f0:	52803242 	mov	w2, #0x192                 	// #402
    58f4:	913c6421 	add	x1, x1, #0xf19
    58f8:	913dd400 	add	x0, x0, #0xf75
    58fc:	17ffffdb 	b	5868 <create_free_block+0x30>
/home/pwnz/devel/optee/optee_os/lib/libutils/isoc/bget_malloc.c:403
    5900:	f9400841 	ldr	x1, [x2,#16]
    5904:	f9400c21 	ldr	x1, [x1,#24]
    5908:	eb02003f 	cmp	x1, x2
    590c:	54000120 	b.eq	5930 <create_free_block+0xf8>
/home/pwnz/devel/optee/optee_os/lib/libutils/isoc/bget_malloc.c:403 (discriminator 1)
    5910:	d0000023 	adrp	x3, b000 <mpa_get_str+0x20>
    5914:	f0000021 	adrp	x1, c000 <PRIME_TABLE+0x770>
    5918:	f0000020 	adrp	x0, c000 <PRIME_TABLE+0x770>
    591c:	911d4063 	add	x3, x3, #0x750
    5920:	52803262 	mov	w2, #0x193                 	// #403
    5924:	913c6421 	add	x1, x1, #0xf19
    5928:	913e7800 	add	x0, x0, #0xf9e
    592c:	17ffffcf 	b	5868 <create_free_block+0x30>
/home/pwnz/devel/optee/optee_os/lib/libutils/isoc/bget_malloc.c:405
    5930:	a9010c01 	stp	x1, x3, [x0,#16]
/home/pwnz/devel/optee/optee_os/lib/libutils/isoc/bget_malloc.c:406
    5934:	f9000c20 	str	x0, [x1,#24]
/home/pwnz/devel/optee/optee_os/lib/libutils/isoc/bget_malloc.c:407
    5938:	f9400c01 	ldr	x1, [x0,#24]
    593c:	f9000820 	str	x0, [x1,#16]
/home/pwnz/devel/optee/optee_os/lib/libutils/isoc/bget_malloc.c:408
    5940:	a8c17bfd 	ldp	x29, x30, [sp],#16
    5944:	d65f03c0 	ret

0000000000005948 <bget>:
bget():
/home/pwnz/devel/optee/optee_os/lib/libutils/isoc/bget.c:575
    5948:	a9bf7bfd 	stp	x29, x30, [sp,#-16]!
/home/pwnz/devel/optee/optee_os/lib/libutils/isoc/bget.c:586
    594c:	f100001f 	cmp	x0, #0x0
/home/pwnz/devel/optee/optee_os/lib/libutils/isoc/bget.c:575
    5950:	910003fd 	mov	x29, sp
/home/pwnz/devel/optee/optee_os/lib/libutils/isoc/bget.c:586
    5954:	5400016c 	b.gt	5980 <bget+0x38>
/home/pwnz/devel/optee/optee_os/lib/libutils/isoc/bget.c:586 (discriminator 1)
    5958:	d0000023 	adrp	x3, b000 <mpa_get_str+0x20>
    595c:	911d4063 	add	x3, x3, #0x750
    5960:	f0000021 	adrp	x1, c000 <PRIME_TABLE+0x770>
    5964:	90000040 	adrp	x0, d000 <__func__.3637+0xa28>
    5968:	91006063 	add	x3, x3, #0x18
    596c:	913f1c21 	add	x1, x1, #0xfc7
    5970:	9106d400 	add	x0, x0, #0x1b5
    5974:	52804942 	mov	w2, #0x24a                 	// #586
/home/pwnz/devel/optee/optee_os/lib/libutils/isoc/bget.c:645 (discriminator 1)
    5978:	97fffd70 	bl	4f38 <_assert_log>
    597c:	97fffd80 	bl	4f7c <_assert_break>
/home/pwnz/devel/optee/optee_os/lib/libutils/isoc/bget.c:593
    5980:	f100401f 	cmp	x0, #0x10
/home/pwnz/devel/optee/optee_os/lib/libutils/isoc/bget.c:607
    5984:	b0000042 	adrp	x2, e000 <ta_props>
    5988:	91040042 	add	x2, x2, #0x100
/home/pwnz/devel/optee/optee_os/lib/libutils/isoc/bget.c:593
    598c:	d2800201 	mov	x1, #0x10                  	// #16
    5990:	9a81a001 	csel	x1, x0, x1, ge
/home/pwnz/devel/optee/optee_os/lib/libutils/isoc/bget.c:628
    5994:	aa0203e3 	mov	x3, x2
/home/pwnz/devel/optee/optee_os/lib/libutils/isoc/bget.c:593
    5998:	91003c21 	add	x1, x1, #0xf
    599c:	927cec21 	and	x1, x1, #0xfffffffffffffff0
/home/pwnz/devel/optee/optee_os/lib/libutils/isoc/bget.c:607
    59a0:	f9400840 	ldr	x0, [x2,#16]
/home/pwnz/devel/optee/optee_os/lib/libutils/isoc/bget.c:597
    59a4:	91004021 	add	x1, x1, #0x10
/home/pwnz/devel/optee/optee_os/lib/libutils/isoc/bget.c:628
    59a8:	eb03001f 	cmp	x0, x3
    59ac:	54000061 	b.ne	59b8 <bget+0x70>
/home/pwnz/devel/optee/optee_os/lib/libutils/isoc/bget.c:755
    59b0:	d2800000 	mov	x0, #0x0                   	// #0
    59b4:	14000022 	b	5a3c <bget+0xf4>
/home/pwnz/devel/optee/optee_os/lib/libutils/isoc/bget.c:629
    59b8:	f9400402 	ldr	x2, [x0,#8]
    59bc:	eb02003f 	cmp	x1, x2
    59c0:	54000aec 	b.gt	5b1c <bget+0x1d4>
/home/pwnz/devel/optee/optee_os/lib/libutils/isoc/bget.c:640
    59c4:	cb010044 	sub	x4, x2, x1
    59c8:	f0000083 	adrp	x3, 18000 <mempool_u32+0x1a10>
    59cc:	f100809f 	cmp	x4, #0x20
    59d0:	540003ad 	b.le	5a44 <bget+0xfc>
/home/pwnz/devel/optee/optee_os/lib/libutils/isoc/bget.c:643
    59d4:	8b040005 	add	x5, x0, x4
/home/pwnz/devel/optee/optee_os/lib/libutils/isoc/bget.c:645
    59d8:	f86168a6 	ldr	x6, [x5,x1]
    59dc:	eb06005f 	cmp	x2, x6
    59e0:	54000140 	b.eq	5a08 <bget+0xc0>
/home/pwnz/devel/optee/optee_os/lib/libutils/isoc/bget.c:645 (discriminator 1)
    59e4:	d0000023 	adrp	x3, b000 <mpa_get_str+0x20>
    59e8:	911d4063 	add	x3, x3, #0x750
    59ec:	f0000021 	adrp	x1, c000 <PRIME_TABLE+0x770>
    59f0:	f0000020 	adrp	x0, c000 <PRIME_TABLE+0x770>
    59f4:	91006063 	add	x3, x3, #0x18
    59f8:	528050a2 	mov	w2, #0x285                 	// #645
    59fc:	913f1c21 	add	x1, x1, #0xfc7
    5a00:	913f8000 	add	x0, x0, #0xfe0
    5a04:	17ffffdd 	b	5978 <bget+0x30>
/home/pwnz/devel/optee/optee_os/lib/libutils/isoc/bget.c:647
    5a08:	f9000404 	str	x4, [x0,#8]
/home/pwnz/devel/optee/optee_os/lib/libutils/isoc/bget.c:656
    5a0c:	9104c062 	add	x2, x3, #0x130
/home/pwnz/devel/optee/optee_os/lib/libutils/isoc/bget.c:649
    5a10:	f8246804 	str	x4, [x0,x4]
/home/pwnz/devel/optee/optee_os/lib/libutils/isoc/bget.c:651
    5a14:	cb0103e0 	neg	x0, x1
    5a18:	f90004a0 	str	x0, [x5,#8]
/home/pwnz/devel/optee/optee_os/lib/libutils/isoc/bget.c:656
    5a1c:	f9409860 	ldr	x0, [x3,#304]
/home/pwnz/devel/optee/optee_os/lib/libutils/isoc/bget.c:653
    5a20:	f82168bf 	str	xzr, [x5,x1]
/home/pwnz/devel/optee/optee_os/lib/libutils/isoc/bget.c:656
    5a24:	8b010001 	add	x1, x0, x1
/home/pwnz/devel/optee/optee_os/lib/libutils/isoc/bget.c:657
    5a28:	f9402040 	ldr	x0, [x2,#64]
/home/pwnz/devel/optee/optee_os/lib/libutils/isoc/bget.c:656
    5a2c:	f9009861 	str	x1, [x3,#304]
/home/pwnz/devel/optee/optee_os/lib/libutils/isoc/bget.c:657
    5a30:	91000400 	add	x0, x0, #0x1
    5a34:	f9002040 	str	x0, [x2,#64]
/home/pwnz/devel/optee/optee_os/lib/libutils/isoc/bget.c:659
    5a38:	910040a0 	add	x0, x5, #0x10
/home/pwnz/devel/optee/optee_os/lib/libutils/isoc/bget.c:756
    5a3c:	a8c17bfd 	ldp	x29, x30, [sp],#16
    5a40:	d65f03c0 	ret
/home/pwnz/devel/optee/optee_os/lib/libutils/isoc/bget.c:666
    5a44:	f8626801 	ldr	x1, [x0,x2]
/home/pwnz/devel/optee/optee_os/lib/libutils/isoc/bget.c:665
    5a48:	8b020005 	add	x5, x0, x2
/home/pwnz/devel/optee/optee_os/lib/libutils/isoc/bget.c:666
    5a4c:	eb01005f 	cmp	x2, x1
    5a50:	54000140 	b.eq	5a78 <bget+0x130>
/home/pwnz/devel/optee/optee_os/lib/libutils/isoc/bget.c:666 (discriminator 1)
    5a54:	d0000023 	adrp	x3, b000 <mpa_get_str+0x20>
    5a58:	911d4063 	add	x3, x3, #0x750
    5a5c:	f0000021 	adrp	x1, c000 <PRIME_TABLE+0x770>
    5a60:	f0000020 	adrp	x0, c000 <PRIME_TABLE+0x770>
    5a64:	91006063 	add	x3, x3, #0x18
    5a68:	52805342 	mov	w2, #0x29a                 	// #666
    5a6c:	913f1c21 	add	x1, x1, #0xfc7
    5a70:	913ff000 	add	x0, x0, #0xffc
    5a74:	17ffffc1 	b	5978 <bget+0x30>
/home/pwnz/devel/optee/optee_os/lib/libutils/isoc/bget.c:671
    5a78:	f9400c01 	ldr	x1, [x0,#24]
    5a7c:	f9400824 	ldr	x4, [x1,#16]
    5a80:	eb04001f 	cmp	x0, x4
    5a84:	54000140 	b.eq	5aac <bget+0x164>
/home/pwnz/devel/optee/optee_os/lib/libutils/isoc/bget.c:671 (discriminator 1)
    5a88:	d0000023 	adrp	x3, b000 <mpa_get_str+0x20>
    5a8c:	911d4063 	add	x3, x3, #0x750
    5a90:	f0000021 	adrp	x1, c000 <PRIME_TABLE+0x770>
    5a94:	90000040 	adrp	x0, d000 <__func__.3637+0xa28>
    5a98:	91006063 	add	x3, x3, #0x18
    5a9c:	528053e2 	mov	w2, #0x29f                 	// #671
    5aa0:	913f1c21 	add	x1, x1, #0xfc7
    5aa4:	91006000 	add	x0, x0, #0x18
    5aa8:	17ffffb4 	b	5978 <bget+0x30>
/home/pwnz/devel/optee/optee_os/lib/libutils/isoc/bget.c:672
    5aac:	f9400804 	ldr	x4, [x0,#16]
    5ab0:	f9400c86 	ldr	x6, [x4,#24]
    5ab4:	eb06001f 	cmp	x0, x6
    5ab8:	54000140 	b.eq	5ae0 <bget+0x198>
/home/pwnz/devel/optee/optee_os/lib/libutils/isoc/bget.c:672 (discriminator 1)
    5abc:	d0000023 	adrp	x3, b000 <mpa_get_str+0x20>
    5ac0:	911d4063 	add	x3, x3, #0x750
    5ac4:	f0000021 	adrp	x1, c000 <PRIME_TABLE+0x770>
    5ac8:	90000040 	adrp	x0, d000 <__func__.3637+0xa28>
    5acc:	91006063 	add	x3, x3, #0x18
    5ad0:	52805402 	mov	w2, #0x2a0                 	// #672
    5ad4:	913f1c21 	add	x1, x1, #0xfc7
    5ad8:	9100cc00 	add	x0, x0, #0x33
    5adc:	17ffffa7 	b	5978 <bget+0x30>
/home/pwnz/devel/optee/optee_os/lib/libutils/isoc/bget.c:673
    5ae0:	f9000824 	str	x4, [x1,#16]
/home/pwnz/devel/optee/optee_os/lib/libutils/isoc/bget.c:688
    5ae4:	91004000 	add	x0, x0, #0x10
/home/pwnz/devel/optee/optee_os/lib/libutils/isoc/bget.c:674
    5ae8:	f9400004 	ldr	x4, [x0]
    5aec:	f9000c81 	str	x1, [x4,#24]
/home/pwnz/devel/optee/optee_os/lib/libutils/isoc/bget.c:677
    5af0:	9104c064 	add	x4, x3, #0x130
    5af4:	f9409861 	ldr	x1, [x3,#304]
    5af8:	8b020021 	add	x1, x1, x2
    5afc:	f9009861 	str	x1, [x3,#304]
/home/pwnz/devel/optee/optee_os/lib/libutils/isoc/bget.c:678
    5b00:	f9402081 	ldr	x1, [x4,#64]
/home/pwnz/devel/optee/optee_os/lib/libutils/isoc/bget.c:681
    5b04:	cb0203e2 	neg	x2, x2
    5b08:	f81f8002 	stur	x2, [x0,#-8]
/home/pwnz/devel/optee/optee_os/lib/libutils/isoc/bget.c:678
    5b0c:	91000421 	add	x1, x1, #0x1
/home/pwnz/devel/optee/optee_os/lib/libutils/isoc/bget.c:685
    5b10:	f90000bf 	str	xzr, [x5]
/home/pwnz/devel/optee/optee_os/lib/libutils/isoc/bget.c:678
    5b14:	f9002081 	str	x1, [x4,#64]
/home/pwnz/devel/optee/optee_os/lib/libutils/isoc/bget.c:690
    5b18:	17ffffc9 	b	5a3c <bget+0xf4>
/home/pwnz/devel/optee/optee_os/lib/libutils/isoc/bget.c:693
    5b1c:	f9400800 	ldr	x0, [x0,#16]
    5b20:	17ffffa2 	b	59a8 <bget+0x60>

0000000000005b24 <bgetz>:
bgetz():
/home/pwnz/devel/optee/optee_os/lib/libutils/isoc/bget.c:764
    5b24:	a9be7bfd 	stp	x29, x30, [sp,#-32]!
    5b28:	910003fd 	mov	x29, sp
    5b2c:	a90153f3 	stp	x19, x20, [sp,#16]
    5b30:	aa0003f4 	mov	x20, x0
/home/pwnz/devel/optee/optee_os/lib/libutils/isoc/bget.c:765
    5b34:	97ffff85 	bl	5948 <bget>
    5b38:	aa0003f3 	mov	x19, x0
/home/pwnz/devel/optee/optee_os/lib/libutils/isoc/bget.c:767
    5b3c:	b4000300 	cbz	x0, 5b9c <bgetz+0x78>
/home/pwnz/devel/optee/optee_os/lib/libutils/isoc/bget.c:772
    5b40:	f85f8000 	ldur	x0, [x0,#-8]
/home/pwnz/devel/optee/optee_os/lib/libutils/isoc/bget.c:773
    5b44:	b50001e0 	cbnz	x0, 5b80 <bgetz+0x5c>
/home/pwnz/devel/optee/optee_os/lib/libutils/isoc/bget.c:777
    5b48:	f85e8262 	ldur	x2, [x19,#-24]
    5b4c:	d1006042 	sub	x2, x2, #0x18
/home/pwnz/devel/optee/optee_os/lib/libutils/isoc/bget.c:781
    5b50:	eb14005f 	cmp	x2, x20
    5b54:	540001ca 	b.ge	5b8c <bgetz+0x68>
    5b58:	d0000023 	adrp	x3, b000 <mpa_get_str+0x20>
    5b5c:	911d4063 	add	x3, x3, #0x750
    5b60:	91008063 	add	x3, x3, #0x20
    5b64:	f0000021 	adrp	x1, c000 <PRIME_TABLE+0x770>
    5b68:	90000040 	adrp	x0, d000 <__func__.3637+0xa28>
    5b6c:	913f1c21 	add	x1, x1, #0xfc7
    5b70:	91013800 	add	x0, x0, #0x4e
    5b74:	528061a2 	mov	w2, #0x30d                 	// #781
    5b78:	97fffcf0 	bl	4f38 <_assert_log>
    5b7c:	97fffd00 	bl	4f7c <_assert_break>
/home/pwnz/devel/optee/optee_os/lib/libutils/isoc/bget.c:779
    5b80:	928001e2 	mov	x2, #0xfffffffffffffff0    	// #-16
    5b84:	cb000042 	sub	x2, x2, x0
    5b88:	17fffff2 	b	5b50 <bgetz+0x2c>
memset_unchecked():
/home/pwnz/devel/optee/optee_os/lib/libutils/isoc/bget_malloc.c:163
    5b8c:	93407c42 	sxtw	x2, w2
    5b90:	52800001 	mov	w1, #0x0                   	// #0
    5b94:	aa1303e0 	mov	x0, x19
    5b98:	94000376 	bl	6970 <memset>
bgetz():
/home/pwnz/devel/optee/optee_os/lib/libutils/isoc/bget.c:785
    5b9c:	aa1303e0 	mov	x0, x19
    5ba0:	a94153f3 	ldp	x19, x20, [sp,#16]
    5ba4:	a8c27bfd 	ldp	x29, x30, [sp],#32
    5ba8:	d65f03c0 	ret

0000000000005bac <brel>:
brel():
/home/pwnz/devel/optee/optee_os/lib/libutils/isoc/bget.c:835
    5bac:	f0000084 	adrp	x4, 18000 <mempool_u32+0x1a10>
    5bb0:	9104c083 	add	x3, x4, #0x130
/home/pwnz/devel/optee/optee_os/lib/libutils/isoc/bget.c:829
    5bb4:	a9bf7bfd 	stp	x29, x30, [sp,#-16]!
    5bb8:	910003fd 	mov	x29, sp
/home/pwnz/devel/optee/optee_os/lib/libutils/isoc/bget.c:835
    5bbc:	f9402462 	ldr	x2, [x3,#72]
    5bc0:	91000442 	add	x2, x2, #0x1
    5bc4:	f9002462 	str	x2, [x3,#72]
/home/pwnz/devel/optee/optee_os/lib/libutils/isoc/bget.c:837
    5bc8:	b5000160 	cbnz	x0, 5bf4 <brel+0x48>
/home/pwnz/devel/optee/optee_os/lib/libutils/isoc/bget.c:837 (discriminator 1)
    5bcc:	d0000023 	adrp	x3, b000 <mpa_get_str+0x20>
    5bd0:	911d4063 	add	x3, x3, #0x750
    5bd4:	f0000021 	adrp	x1, c000 <PRIME_TABLE+0x770>
    5bd8:	90000040 	adrp	x0, d000 <__func__.3637+0xa28>
    5bdc:	9100a063 	add	x3, x3, #0x28
    5be0:	913f1c21 	add	x1, x1, #0xfc7
    5be4:	91017000 	add	x0, x0, #0x5c
    5be8:	528068a2 	mov	w2, #0x345                 	// #837
/home/pwnz/devel/optee/optee_os/lib/libutils/isoc/bget.c:868 (discriminator 1)
    5bec:	97fffcd3 	bl	4f38 <_assert_log>
    5bf0:	97fffce3 	bl	4f7c <_assert_break>
/home/pwnz/devel/optee/optee_os/lib/libutils/isoc/bget.c:865
    5bf4:	f85f8002 	ldur	x2, [x0,#-8]
/home/pwnz/devel/optee/optee_os/lib/libutils/isoc/bget.c:868
    5bf8:	b7f80142 	tbnz	x2, #63, 5c20 <brel+0x74>
/home/pwnz/devel/optee/optee_os/lib/libutils/isoc/bget.c:868 (discriminator 1)
    5bfc:	d0000023 	adrp	x3, b000 <mpa_get_str+0x20>
    5c00:	911d4063 	add	x3, x3, #0x750
    5c04:	f0000021 	adrp	x1, c000 <PRIME_TABLE+0x770>
    5c08:	90000040 	adrp	x0, d000 <__func__.3637+0xa28>
    5c0c:	9100a063 	add	x3, x3, #0x28
    5c10:	52806c82 	mov	w2, #0x364                 	// #868
    5c14:	913f1c21 	add	x1, x1, #0xfc7
    5c18:	9101a000 	add	x0, x0, #0x68
    5c1c:	17fffff4 	b	5bec <brel+0x40>
    5c20:	d1004001 	sub	x1, x0, #0x10
/home/pwnz/devel/optee/optee_os/lib/libutils/isoc/bget.c:874
    5c24:	cb020023 	sub	x3, x1, x2
    5c28:	f9400063 	ldr	x3, [x3]
    5c2c:	b4000143 	cbz	x3, 5c54 <brel+0xa8>
/home/pwnz/devel/optee/optee_os/lib/libutils/isoc/bget.c:874 (discriminator 1)
    5c30:	d0000023 	adrp	x3, b000 <mpa_get_str+0x20>
    5c34:	911d4063 	add	x3, x3, #0x750
    5c38:	f0000021 	adrp	x1, c000 <PRIME_TABLE+0x770>
    5c3c:	90000040 	adrp	x0, d000 <__func__.3637+0xa28>
    5c40:	9100a063 	add	x3, x3, #0x28
    5c44:	52806d42 	mov	w2, #0x36a                 	// #874
    5c48:	913f1c21 	add	x1, x1, #0xfc7
    5c4c:	9101e000 	add	x0, x0, #0x78
    5c50:	17ffffe7 	b	5bec <brel+0x40>
/home/pwnz/devel/optee/optee_os/lib/libutils/isoc/bget.c:877
    5c54:	f9409883 	ldr	x3, [x4,#304]
    5c58:	8b030043 	add	x3, x2, x3
    5c5c:	f9009883 	str	x3, [x4,#304]
/home/pwnz/devel/optee/optee_os/lib/libutils/isoc/bget.c:878
    5c60:	b6f80143 	tbz	x3, #63, 5c88 <brel+0xdc>
/home/pwnz/devel/optee/optee_os/lib/libutils/isoc/bget.c:878 (discriminator 1)
    5c64:	d0000023 	adrp	x3, b000 <mpa_get_str+0x20>
    5c68:	911d4063 	add	x3, x3, #0x750
    5c6c:	f0000021 	adrp	x1, c000 <PRIME_TABLE+0x770>
    5c70:	90000040 	adrp	x0, d000 <__func__.3637+0xa28>
    5c74:	9100a063 	add	x3, x3, #0x28
    5c78:	52806dc2 	mov	w2, #0x36e                 	// #878
    5c7c:	913f1c21 	add	x1, x1, #0xfc7
    5c80:	91029000 	add	x0, x0, #0xa4
    5c84:	17ffffda 	b	5bec <brel+0x40>
/home/pwnz/devel/optee/optee_os/lib/libutils/isoc/bget.c:883
    5c88:	f85f0003 	ldur	x3, [x0,#-16]
    5c8c:	b4000423 	cbz	x3, 5d10 <brel+0x164>
/home/pwnz/devel/optee/optee_os/lib/libutils/isoc/bget.c:894
    5c90:	cb030021 	sub	x1, x1, x3
    5c94:	f9400420 	ldr	x0, [x1,#8]
    5c98:	eb00007f 	cmp	x3, x0
    5c9c:	54000140 	b.eq	5cc4 <brel+0x118>
/home/pwnz/devel/optee/optee_os/lib/libutils/isoc/bget.c:894 (discriminator 1)
    5ca0:	d0000023 	adrp	x3, b000 <mpa_get_str+0x20>
    5ca4:	911d4063 	add	x3, x3, #0x750
    5ca8:	f0000021 	adrp	x1, c000 <PRIME_TABLE+0x770>
    5cac:	90000040 	adrp	x0, d000 <__func__.3637+0xa28>
    5cb0:	9100a063 	add	x3, x3, #0x28
    5cb4:	52806fc2 	mov	w2, #0x37e                 	// #894
    5cb8:	913f1c21 	add	x1, x1, #0xfc7
    5cbc:	9102c800 	add	x0, x0, #0xb2
    5cc0:	17ffffcb 	b	5bec <brel+0x40>
/home/pwnz/devel/optee/optee_os/lib/libutils/isoc/bget.c:896
    5cc4:	cb020062 	sub	x2, x3, x2
    5cc8:	f9000422 	str	x2, [x1,#8]
/home/pwnz/devel/optee/optee_os/lib/libutils/isoc/bget.c:916
    5ccc:	f9400422 	ldr	x2, [x1,#8]
    5cd0:	8b020020 	add	x0, x1, x2
/home/pwnz/devel/optee/optee_os/lib/libutils/isoc/bget.c:917
    5cd4:	f9400403 	ldr	x3, [x0,#8]
    5cd8:	f100007f 	cmp	x3, #0x0
    5cdc:	54000a0d 	b.le	5e1c <brel+0x270>
/home/pwnz/devel/optee/optee_os/lib/libutils/isoc/bget.c:922
    5ce0:	f8636804 	ldr	x4, [x0,x3]
    5ce4:	eb04007f 	cmp	x3, x4
    5ce8:	540005a0 	b.eq	5d9c <brel+0x1f0>
/home/pwnz/devel/optee/optee_os/lib/libutils/isoc/bget.c:922 (discriminator 1)
    5cec:	d0000023 	adrp	x3, b000 <mpa_get_str+0x20>
    5cf0:	911d4063 	add	x3, x3, #0x750
    5cf4:	f0000021 	adrp	x1, c000 <PRIME_TABLE+0x770>
    5cf8:	90000040 	adrp	x0, d000 <__func__.3637+0xa28>
    5cfc:	9100a063 	add	x3, x3, #0x28
    5d00:	52807342 	mov	w2, #0x39a                 	// #922
    5d04:	913f1c21 	add	x1, x1, #0xfc7
    5d08:	9103ac00 	add	x0, x0, #0xeb
    5d0c:	17ffffb8 	b	5bec <brel+0x40>
/home/pwnz/devel/optee/optee_os/lib/libutils/isoc/bget.c:902
    5d10:	b0000043 	adrp	x3, e000 <ta_props>
    5d14:	91040063 	add	x3, x3, #0x100
    5d18:	f9400c65 	ldr	x5, [x3,#24]
    5d1c:	f94008a4 	ldr	x4, [x5,#16]
    5d20:	eb03009f 	cmp	x4, x3
    5d24:	54000140 	b.eq	5d4c <brel+0x1a0>
/home/pwnz/devel/optee/optee_os/lib/libutils/isoc/bget.c:902 (discriminator 1)
    5d28:	d0000023 	adrp	x3, b000 <mpa_get_str+0x20>
    5d2c:	911d4063 	add	x3, x3, #0x750
    5d30:	f0000021 	adrp	x1, c000 <PRIME_TABLE+0x770>
    5d34:	f0000020 	adrp	x0, c000 <PRIME_TABLE+0x770>
    5d38:	9100a063 	add	x3, x3, #0x28
    5d3c:	528070c2 	mov	w2, #0x386                 	// #902
    5d40:	913f1c21 	add	x1, x1, #0xfc7
    5d44:	913dd400 	add	x0, x0, #0xf75
    5d48:	17ffffa9 	b	5bec <brel+0x40>
/home/pwnz/devel/optee/optee_os/lib/libutils/isoc/bget.c:903
    5d4c:	f9400883 	ldr	x3, [x4,#16]
    5d50:	f9400c63 	ldr	x3, [x3,#24]
    5d54:	eb04007f 	cmp	x3, x4
    5d58:	54000140 	b.eq	5d80 <brel+0x1d4>
/home/pwnz/devel/optee/optee_os/lib/libutils/isoc/bget.c:903 (discriminator 1)
    5d5c:	d0000023 	adrp	x3, b000 <mpa_get_str+0x20>
    5d60:	911d4063 	add	x3, x3, #0x750
    5d64:	f0000021 	adrp	x1, c000 <PRIME_TABLE+0x770>
    5d68:	f0000020 	adrp	x0, c000 <PRIME_TABLE+0x770>
    5d6c:	9100a063 	add	x3, x3, #0x28
    5d70:	528070e2 	mov	w2, #0x387                 	// #903
    5d74:	913f1c21 	add	x1, x1, #0xfc7
    5d78:	913e7800 	add	x0, x0, #0xf9e
    5d7c:	17ffff9c 	b	5bec <brel+0x40>
/home/pwnz/devel/optee/optee_os/lib/libutils/isoc/bget.c:905
    5d80:	a9011423 	stp	x3, x5, [x1,#16]
/home/pwnz/devel/optee/optee_os/lib/libutils/isoc/bget.c:869
    5d84:	cb0203e2 	neg	x2, x2
/home/pwnz/devel/optee/optee_os/lib/libutils/isoc/bget.c:906
    5d88:	f9000c61 	str	x1, [x3,#24]
/home/pwnz/devel/optee/optee_os/lib/libutils/isoc/bget.c:907
    5d8c:	f9400c23 	ldr	x3, [x1,#24]
    5d90:	f9000861 	str	x1, [x3,#16]
/home/pwnz/devel/optee/optee_os/lib/libutils/isoc/bget.c:908
    5d94:	f81f8002 	stur	x2, [x0,#-8]
    5d98:	17ffffcd 	b	5ccc <brel+0x120>
/home/pwnz/devel/optee/optee_os/lib/libutils/isoc/bget.c:923
    5d9c:	f9400c04 	ldr	x4, [x0,#24]
    5da0:	f9400885 	ldr	x5, [x4,#16]
    5da4:	eb05001f 	cmp	x0, x5
    5da8:	54000140 	b.eq	5dd0 <brel+0x224>
/home/pwnz/devel/optee/optee_os/lib/libutils/isoc/bget.c:923 (discriminator 1)
    5dac:	d0000023 	adrp	x3, b000 <mpa_get_str+0x20>
    5db0:	911d4063 	add	x3, x3, #0x750
    5db4:	f0000021 	adrp	x1, c000 <PRIME_TABLE+0x770>
    5db8:	90000040 	adrp	x0, d000 <__func__.3637+0xa28>
    5dbc:	9100a063 	add	x3, x3, #0x28
    5dc0:	52807362 	mov	w2, #0x39b                 	// #923
    5dc4:	913f1c21 	add	x1, x1, #0xfc7
    5dc8:	91049000 	add	x0, x0, #0x124
    5dcc:	17ffff88 	b	5bec <brel+0x40>
/home/pwnz/devel/optee/optee_os/lib/libutils/isoc/bget.c:924
    5dd0:	f9400805 	ldr	x5, [x0,#16]
    5dd4:	f9400ca6 	ldr	x6, [x5,#24]
    5dd8:	eb06001f 	cmp	x0, x6
    5ddc:	54000140 	b.eq	5e04 <brel+0x258>
/home/pwnz/devel/optee/optee_os/lib/libutils/isoc/bget.c:924 (discriminator 1)
    5de0:	d0000023 	adrp	x3, b000 <mpa_get_str+0x20>
    5de4:	911d4063 	add	x3, x3, #0x750
    5de8:	f0000021 	adrp	x1, c000 <PRIME_TABLE+0x770>
    5dec:	90000040 	adrp	x0, d000 <__func__.3637+0xa28>
    5df0:	9100a063 	add	x3, x3, #0x28
    5df4:	52807382 	mov	w2, #0x39c                 	// #924
    5df8:	913f1c21 	add	x1, x1, #0xfc7
    5dfc:	91050400 	add	x0, x0, #0x141
    5e00:	17ffff7b 	b	5bec <brel+0x40>
/home/pwnz/devel/optee/optee_os/lib/libutils/isoc/bget.c:925
    5e04:	f9000885 	str	x5, [x4,#16]
/home/pwnz/devel/optee/optee_os/lib/libutils/isoc/bget.c:926
    5e08:	f9400800 	ldr	x0, [x0,#16]
    5e0c:	f9000c04 	str	x4, [x0,#24]
/home/pwnz/devel/optee/optee_os/lib/libutils/isoc/bget.c:927
    5e10:	8b030040 	add	x0, x2, x3
    5e14:	f9000420 	str	x0, [x1,#8]
/home/pwnz/devel/optee/optee_os/lib/libutils/isoc/bget.c:936
    5e18:	8b000020 	add	x0, x1, x0
/home/pwnz/devel/optee/optee_os/lib/libutils/isoc/bget.c:942
    5e1c:	f9400402 	ldr	x2, [x0,#8]
    5e20:	b7f80142 	tbnz	x2, #63, 5e48 <brel+0x29c>
/home/pwnz/devel/optee/optee_os/lib/libutils/isoc/bget.c:942 (discriminator 1)
    5e24:	d0000023 	adrp	x3, b000 <mpa_get_str+0x20>
    5e28:	911d4063 	add	x3, x3, #0x750
    5e2c:	f0000021 	adrp	x1, c000 <PRIME_TABLE+0x770>
    5e30:	90000040 	adrp	x0, d000 <__func__.3637+0xa28>
    5e34:	9100a063 	add	x3, x3, #0x28
    5e38:	528075c2 	mov	w2, #0x3ae                 	// #942
    5e3c:	913f1c21 	add	x1, x1, #0xfc7
    5e40:	91057800 	add	x0, x0, #0x15e
    5e44:	17ffff6a 	b	5bec <brel+0x40>
/home/pwnz/devel/optee/optee_os/lib/libutils/isoc/bget.c:947
    5e48:	f9400421 	ldr	x1, [x1,#8]
    5e4c:	f9000001 	str	x1, [x0]
/home/pwnz/devel/optee/optee_os/lib/libutils/isoc/bget.c:975
    5e50:	a8c17bfd 	ldp	x29, x30, [sp],#16
    5e54:	d65f03c0 	ret

0000000000005e58 <bgetr>:
bgetr():
/home/pwnz/devel/optee/optee_os/lib/libutils/isoc/bget.c:795
    5e58:	a9bd7bfd 	stp	x29, x30, [sp,#-48]!
    5e5c:	910003fd 	mov	x29, sp
    5e60:	a90153f3 	stp	x19, x20, [sp,#16]
    5e64:	aa0003f3 	mov	x19, x0
    5e68:	f90013f5 	str	x21, [sp,#32]
    5e6c:	aa0103f4 	mov	x20, x1
/home/pwnz/devel/optee/optee_os/lib/libutils/isoc/bget.c:800
    5e70:	aa0103e0 	mov	x0, x1
    5e74:	97fffeb5 	bl	5948 <bget>
    5e78:	aa0003f5 	mov	x21, x0
    5e7c:	b4000320 	cbz	x0, 5ee0 <bgetr+0x88>
/home/pwnz/devel/optee/optee_os/lib/libutils/isoc/bget.c:803
    5e80:	b4000313 	cbz	x19, 5ee0 <bgetr+0x88>
/home/pwnz/devel/optee/optee_os/lib/libutils/isoc/bget.c:817
    5e84:	f85f8261 	ldur	x1, [x19,#-8]
    5e88:	928001e3 	mov	x3, #0xfffffffffffffff0    	// #-16
    5e8c:	cb010063 	sub	x3, x3, x1
/home/pwnz/devel/optee/optee_os/lib/libutils/isoc/bget.c:818
    5e90:	f100007f 	cmp	x3, #0x0
    5e94:	5400016c 	b.gt	5ec0 <bgetr+0x68>
    5e98:	d0000023 	adrp	x3, b000 <mpa_get_str+0x20>
    5e9c:	911d4063 	add	x3, x3, #0x750
    5ea0:	9100c063 	add	x3, x3, #0x30
    5ea4:	f0000021 	adrp	x1, c000 <PRIME_TABLE+0x770>
    5ea8:	90000040 	adrp	x0, d000 <__func__.3637+0xa28>
    5eac:	913f1c21 	add	x1, x1, #0xfc7
    5eb0:	9105bc00 	add	x0, x0, #0x16f
    5eb4:	52806642 	mov	w2, #0x332                 	// #818
    5eb8:	97fffc20 	bl	4f38 <_assert_log>
    5ebc:	97fffc30 	bl	4f7c <_assert_break>
/home/pwnz/devel/optee/optee_os/lib/libutils/isoc/bget.c:819
    5ec0:	93407e81 	sxtw	x1, w20
    5ec4:	93407c62 	sxtw	x2, w3
    5ec8:	eb03029f 	cmp	x20, x3
    5ecc:	9a81a042 	csel	x2, x2, x1, ge
    5ed0:	aa1303e1 	mov	x1, x19
    5ed4:	9400028c 	bl	6904 <memcpy>
/home/pwnz/devel/optee/optee_os/lib/libutils/isoc/bget.c:821
    5ed8:	aa1303e0 	mov	x0, x19
    5edc:	97ffff34 	bl	5bac <brel>
/home/pwnz/devel/optee/optee_os/lib/libutils/isoc/bget.c:823
    5ee0:	aa1503e0 	mov	x0, x21
    5ee4:	f94013f5 	ldr	x21, [sp,#32]
    5ee8:	a94153f3 	ldp	x19, x20, [sp,#16]
    5eec:	a8c37bfd 	ldp	x29, x30, [sp],#48
    5ef0:	d65f03c0 	ret

0000000000005ef4 <bpool>:
bpool():
/home/pwnz/devel/optee/optee_os/lib/libutils/isoc/bget.c:999
    5ef4:	a9bf7bfd 	stp	x29, x30, [sp,#-16]!
/home/pwnz/devel/optee/optee_os/lib/libutils/isoc/bget.c:1004
    5ef8:	927cec21 	and	x1, x1, #0xfffffffffffffff0
/home/pwnz/devel/optee/optee_os/lib/libutils/isoc/bget.c:1023
    5efc:	f1004021 	subs	x1, x1, #0x10
/home/pwnz/devel/optee/optee_os/lib/libutils/isoc/bget.c:999
    5f00:	910003fd 	mov	x29, sp
/home/pwnz/devel/optee/optee_os/lib/libutils/isoc/bget.c:1023
    5f04:	54000165 	b.pl	5f30 <bpool+0x3c>
    5f08:	d0000023 	adrp	x3, b000 <mpa_get_str+0x20>
    5f0c:	911d4063 	add	x3, x3, #0x750
    5f10:	f0000021 	adrp	x1, c000 <PRIME_TABLE+0x770>
    5f14:	90000040 	adrp	x0, d000 <__func__.3637+0xa28>
    5f18:	9100e063 	add	x3, x3, #0x38
    5f1c:	913f1c21 	add	x1, x1, #0xfc7
    5f20:	9105e400 	add	x0, x0, #0x179
    5f24:	52807fe2 	mov	w2, #0x3ff                 	// #1023
/home/pwnz/devel/optee/optee_os/lib/libutils/isoc/bget.c:1033 (discriminator 1)
    5f28:	97fffc04 	bl	4f38 <_assert_log>
    5f2c:	97fffc14 	bl	4f7c <_assert_break>
/home/pwnz/devel/optee/optee_os/lib/libutils/isoc/bget.c:1033
    5f30:	b0000042 	adrp	x2, e000 <ta_props>
    5f34:	91040042 	add	x2, x2, #0x100
    5f38:	f9400c44 	ldr	x4, [x2,#24]
    5f3c:	f9400883 	ldr	x3, [x4,#16]
/home/pwnz/devel/optee/optee_os/lib/libutils/isoc/bget.c:1029
    5f40:	f900001f 	str	xzr, [x0]
/home/pwnz/devel/optee/optee_os/lib/libutils/isoc/bget.c:1033
    5f44:	eb02007f 	cmp	x3, x2
    5f48:	54000140 	b.eq	5f70 <bpool+0x7c>
/home/pwnz/devel/optee/optee_os/lib/libutils/isoc/bget.c:1033 (discriminator 1)
    5f4c:	d0000023 	adrp	x3, b000 <mpa_get_str+0x20>
    5f50:	911d4063 	add	x3, x3, #0x750
    5f54:	f0000021 	adrp	x1, c000 <PRIME_TABLE+0x770>
    5f58:	f0000020 	adrp	x0, c000 <PRIME_TABLE+0x770>
    5f5c:	9100e063 	add	x3, x3, #0x38
    5f60:	52808122 	mov	w2, #0x409                 	// #1033
    5f64:	913f1c21 	add	x1, x1, #0xfc7
    5f68:	913dd400 	add	x0, x0, #0xf75
    5f6c:	17ffffef 	b	5f28 <bpool+0x34>
/home/pwnz/devel/optee/optee_os/lib/libutils/isoc/bget.c:1034
    5f70:	f9400862 	ldr	x2, [x3,#16]
    5f74:	f9400c42 	ldr	x2, [x2,#24]
    5f78:	eb03005f 	cmp	x2, x3
    5f7c:	54000140 	b.eq	5fa4 <bpool+0xb0>
/home/pwnz/devel/optee/optee_os/lib/libutils/isoc/bget.c:1034 (discriminator 1)
    5f80:	d0000023 	adrp	x3, b000 <mpa_get_str+0x20>
    5f84:	911d4063 	add	x3, x3, #0x750
    5f88:	f0000021 	adrp	x1, c000 <PRIME_TABLE+0x770>
    5f8c:	f0000020 	adrp	x0, c000 <PRIME_TABLE+0x770>
    5f90:	9100e063 	add	x3, x3, #0x38
    5f94:	52808142 	mov	w2, #0x40a                 	// #1034
    5f98:	913f1c21 	add	x1, x1, #0xfc7
    5f9c:	913e7800 	add	x0, x0, #0xf9e
    5fa0:	17ffffe2 	b	5f28 <bpool+0x34>
/home/pwnz/devel/optee/optee_os/lib/libutils/isoc/bget.c:1036
    5fa4:	a9011002 	stp	x2, x4, [x0,#16]
/home/pwnz/devel/optee/optee_os/lib/libutils/isoc/bget.c:1037
    5fa8:	f9000c40 	str	x0, [x2,#24]
/home/pwnz/devel/optee/optee_os/lib/libutils/isoc/bget.c:1038
    5fac:	f9400c02 	ldr	x2, [x0,#24]
    5fb0:	f9000840 	str	x0, [x2,#16]
/home/pwnz/devel/optee/optee_os/lib/libutils/isoc/bget.c:1054
    5fb4:	8b010002 	add	x2, x0, x1
/home/pwnz/devel/optee/optee_os/lib/libutils/isoc/bget.c:1049
    5fb8:	f9000401 	str	x1, [x0,#8]
/home/pwnz/devel/optee/optee_os/lib/libutils/isoc/bget.c:1055
    5fbc:	f8216801 	str	x1, [x0,x1]
/home/pwnz/devel/optee/optee_os/lib/libutils/isoc/bget.c:1058
    5fc0:	d2f00000 	mov	x0, #0x8000000000000000    	// #-9223372036854775808
    5fc4:	f9000440 	str	x0, [x2,#8]
/home/pwnz/devel/optee/optee_os/lib/libutils/isoc/bget.c:1059
    5fc8:	a8c17bfd 	ldp	x29, x30, [sp],#16
    5fcc:	d65f03c0 	ret

0000000000005fd0 <bstats>:
bstats():
/home/pwnz/devel/optee/optee_os/lib/libutils/isoc/bget.c:1071
    5fd0:	f0000087 	adrp	x7, 18000 <mempool_u32+0x1a10>
    5fd4:	9104c0e8 	add	x8, x7, #0x130
/home/pwnz/devel/optee/optee_os/lib/libutils/isoc/bget.c:1069
    5fd8:	b0000045 	adrp	x5, e000 <ta_props>
    5fdc:	910400a5 	add	x5, x5, #0x100
/home/pwnz/devel/optee/optee_os/lib/libutils/isoc/bget.c:1071
    5fe0:	f9402109 	ldr	x9, [x8,#64]
/home/pwnz/devel/optee/optee_os/lib/libutils/isoc/bget.c:1069
    5fe4:	f94008a6 	ldr	x6, [x5,#16]
/home/pwnz/devel/optee/optee_os/lib/libutils/isoc/bget.c:1071
    5fe8:	f9000069 	str	x9, [x3]
/home/pwnz/devel/optee/optee_os/lib/libutils/isoc/bget.c:1072
    5fec:	f9402503 	ldr	x3, [x8,#72]
    5ff0:	f9000083 	str	x3, [x4]
/home/pwnz/devel/optee/optee_os/lib/libutils/isoc/bget.c:1073
    5ff4:	f94098e3 	ldr	x3, [x7,#304]
    5ff8:	f9000003 	str	x3, [x0]
/home/pwnz/devel/optee/optee_os/lib/libutils/isoc/bget.c:1075
    5ffc:	92800000 	mov	x0, #0xffffffffffffffff    	// #-1
/home/pwnz/devel/optee/optee_os/lib/libutils/isoc/bget.c:1074
    6000:	f900003f 	str	xzr, [x1]
/home/pwnz/devel/optee/optee_os/lib/libutils/isoc/bget.c:1075
    6004:	f9000040 	str	x0, [x2]
/home/pwnz/devel/optee/optee_os/lib/libutils/isoc/bget.c:1076
    6008:	eb0500df 	cmp	x6, x5
    600c:	54000041 	b.ne	6014 <bstats+0x44>
    6010:	d65f03c0 	ret
/home/pwnz/devel/optee/optee_os/lib/libutils/isoc/bget.c:1077
    6014:	f94004c3 	ldr	x3, [x6,#8]
    6018:	f100007f 	cmp	x3, #0x0
    601c:	540001ac 	b.gt	6050 <bstats+0x80>
/home/pwnz/devel/optee/optee_os/lib/libutils/isoc/bget.c:1077 (discriminator 1)
    6020:	b0000023 	adrp	x3, b000 <mpa_get_str+0x20>
    6024:	911d4063 	add	x3, x3, #0x750
    6028:	91010063 	add	x3, x3, #0x40
    602c:	d0000021 	adrp	x1, c000 <PRIME_TABLE+0x770>
    6030:	f0000020 	adrp	x0, d000 <__func__.3637+0xa28>
    6034:	913f1c21 	add	x1, x1, #0xfc7
    6038:	9106b800 	add	x0, x0, #0x1ae
/home/pwnz/devel/optee/optee_os/lib/libutils/isoc/bget.c:1068 (discriminator 1)
    603c:	a9bf7bfd 	stp	x29, x30, [sp,#-16]!
/home/pwnz/devel/optee/optee_os/lib/libutils/isoc/bget.c:1077 (discriminator 1)
    6040:	528086a2 	mov	w2, #0x435                 	// #1077
/home/pwnz/devel/optee/optee_os/lib/libutils/isoc/bget.c:1068 (discriminator 1)
    6044:	910003fd 	mov	x29, sp
/home/pwnz/devel/optee/optee_os/lib/libutils/isoc/bget.c:1077 (discriminator 1)
    6048:	97fffbbc 	bl	4f38 <_assert_log>
    604c:	97fffbcc 	bl	4f7c <_assert_break>
/home/pwnz/devel/optee/optee_os/lib/libutils/isoc/bget.c:1078
    6050:	f9400020 	ldr	x0, [x1]
    6054:	8b030000 	add	x0, x0, x3
    6058:	f9000020 	str	x0, [x1]
/home/pwnz/devel/optee/optee_os/lib/libutils/isoc/bget.c:1079
    605c:	f9400043 	ldr	x3, [x2]
    6060:	f94004c0 	ldr	x0, [x6,#8]
    6064:	eb03001f 	cmp	x0, x3
    6068:	5400004d 	b.le	6070 <bstats+0xa0>
/home/pwnz/devel/optee/optee_os/lib/libutils/isoc/bget.c:1080
    606c:	f9000040 	str	x0, [x2]
/home/pwnz/devel/optee/optee_os/lib/libutils/isoc/bget.c:1082
    6070:	f94008c6 	ldr	x6, [x6,#16]
    6074:	17ffffe5 	b	6008 <bstats+0x38>

0000000000006078 <malloc_reset_stats>:
malloc_reset_stats():
/home/pwnz/devel/optee/optee_os/lib/libutils/isoc/bget_malloc.c:200
    6078:	d0000080 	adrp	x0, 18000 <mempool_u32+0x1a10>
    607c:	9104c000 	add	x0, x0, #0x130
    6080:	b9002c1f 	str	wzr, [x0,#44]
/home/pwnz/devel/optee/optee_os/lib/libutils/isoc/bget_malloc.c:202
    6084:	2906fc1f 	stp	wzr, wzr, [x0,#52]
/home/pwnz/devel/optee/optee_os/lib/libutils/isoc/bget_malloc.c:203
    6088:	b9003c1f 	str	wzr, [x0,#60]
/home/pwnz/devel/optee/optee_os/lib/libutils/isoc/bget_malloc.c:200
    608c:	d65f03c0 	ret

0000000000006090 <malloc_get_stats>:
malloc_get_stats():
/home/pwnz/devel/optee/optee_os/lib/libutils/isoc/bget_malloc.c:208
    6090:	a9be7bfd 	stp	x29, x30, [sp,#-32]!
/home/pwnz/devel/optee/optee_os/lib/libutils/isoc/bget_malloc.c:211
    6094:	d2800702 	mov	x2, #0x38                  	// #56
/home/pwnz/devel/optee/optee_os/lib/libutils/isoc/bget_malloc.c:208
    6098:	910003fd 	mov	x29, sp
    609c:	f9000bf3 	str	x19, [sp,#16]
/home/pwnz/devel/optee/optee_os/lib/libutils/isoc/bget_malloc.c:211
    60a0:	d0000093 	adrp	x19, 18000 <mempool_u32+0x1a10>
    60a4:	9104c261 	add	x1, x19, #0x130
    60a8:	91002021 	add	x1, x1, #0x8
    60ac:	94000216 	bl	6904 <memcpy>
    60b0:	aa0003e3 	mov	x3, x0
/home/pwnz/devel/optee/optee_os/lib/libutils/isoc/bget_malloc.c:212
    60b4:	f9409a60 	ldr	x0, [x19,#304]
/home/pwnz/devel/optee/optee_os/lib/libutils/isoc/bget_malloc.c:214
    60b8:	f9400bf3 	ldr	x19, [sp,#16]
/home/pwnz/devel/optee/optee_os/lib/libutils/isoc/bget_malloc.c:212
    60bc:	b9002060 	str	w0, [x3,#32]
/home/pwnz/devel/optee/optee_os/lib/libutils/isoc/bget_malloc.c:214
    60c0:	a8c27bfd 	ldp	x29, x30, [sp],#32
    60c4:	d65f03c0 	ret

00000000000060c8 <malloc>:
malloc():
/home/pwnz/devel/optee/optee_os/lib/libutils/isoc/bget_malloc.c:822
    60c8:	a9be7bfd 	stp	x29, x30, [sp,#-32]!
raw_malloc():
/home/pwnz/devel/optee/optee_os/lib/libutils/isoc/bget_malloc.c:323
    60cc:	f100001f 	cmp	x0, #0x0
malloc():
/home/pwnz/devel/optee/optee_os/lib/libutils/isoc/bget_malloc.c:822
    60d0:	910003fd 	mov	x29, sp
    60d4:	a90153f3 	stp	x19, x20, [sp,#16]
    60d8:	aa0003f3 	mov	x19, x0
raw_malloc():
/home/pwnz/devel/optee/optee_os/lib/libutils/isoc/bget_malloc.c:326
    60dc:	9a9f1400 	csinc	x0, x0, xzr, ne
    60e0:	97fffe1a 	bl	5948 <bget>
/home/pwnz/devel/optee/optee_os/lib/libutils/isoc/bget_malloc.c:328
    60e4:	aa1303e1 	mov	x1, x19
/home/pwnz/devel/optee/optee_os/lib/libutils/isoc/bget_malloc.c:326
    60e8:	aa0003f4 	mov	x20, x0
/home/pwnz/devel/optee/optee_os/lib/libutils/isoc/bget_malloc.c:328
    60ec:	97fffdc0 	bl	57ec <raw_malloc_return_hook>
malloc():
/home/pwnz/devel/optee/optee_os/lib/libutils/isoc/bget_malloc.c:829
    60f0:	aa1403e0 	mov	x0, x20
    60f4:	a94153f3 	ldp	x19, x20, [sp,#16]
    60f8:	a8c27bfd 	ldp	x29, x30, [sp],#32
    60fc:	d65f03c0 	ret

0000000000006100 <free>:
raw_free():
/home/pwnz/devel/optee/optee_os/lib/libutils/isoc/bget_malloc.c:337
    6100:	b4000040 	cbz	x0, 6108 <free+0x8>
/home/pwnz/devel/optee/optee_os/lib/libutils/isoc/bget_malloc.c:338
    6104:	17fffeaa 	b	5bac <brel>
    6108:	d65f03c0 	ret

000000000000610c <calloc>:
calloc():
/home/pwnz/devel/optee/optee_os/lib/libutils/isoc/bget_malloc.c:840
    610c:	a9be7bfd 	stp	x29, x30, [sp,#-32]!
    6110:	910003fd 	mov	x29, sp
    6114:	a90153f3 	stp	x19, x20, [sp,#16]
raw_calloc():
/home/pwnz/devel/optee/optee_os/lib/libutils/isoc/bget_malloc.c:344
    6118:	9b017c13 	mul	x19, x0, x1
/home/pwnz/devel/optee/optee_os/lib/libutils/isoc/bget_malloc.c:345
    611c:	d2800014 	mov	x20, #0x0                   	// #0
/home/pwnz/devel/optee/optee_os/lib/libutils/isoc/bget_malloc.c:350
    6120:	eb13001f 	cmp	x0, x19
    6124:	fa539022 	ccmp	x1, x19, #0x2, ls
    6128:	540000a8 	b.hi	613c <calloc+0x30>
/home/pwnz/devel/optee/optee_os/lib/libutils/isoc/bget_malloc.c:354
    612c:	f100027f 	cmp	x19, #0x0
/home/pwnz/devel/optee/optee_os/lib/libutils/isoc/bget_malloc.c:357
    6130:	9a9f1660 	csinc	x0, x19, xzr, ne
    6134:	97fffe7c 	bl	5b24 <bgetz>
    6138:	aa0003f4 	mov	x20, x0
/home/pwnz/devel/optee/optee_os/lib/libutils/isoc/bget_malloc.c:359
    613c:	aa1303e1 	mov	x1, x19
    6140:	aa1403e0 	mov	x0, x20
    6144:	97fffdaa 	bl	57ec <raw_malloc_return_hook>
calloc():
/home/pwnz/devel/optee/optee_os/lib/libutils/isoc/bget_malloc.c:847
    6148:	aa1403e0 	mov	x0, x20
    614c:	a94153f3 	ldp	x19, x20, [sp,#16]
    6150:	a8c27bfd 	ldp	x29, x30, [sp],#32
    6154:	d65f03c0 	ret

0000000000006158 <realloc>:
realloc():
/home/pwnz/devel/optee/optee_os/lib/libutils/isoc/bget_malloc.c:855
    6158:	a9be7bfd 	stp	x29, x30, [sp,#-32]!
raw_realloc():
/home/pwnz/devel/optee/optee_os/lib/libutils/isoc/bget_malloc.c:377
    615c:	f100003f 	cmp	x1, #0x0
realloc():
/home/pwnz/devel/optee/optee_os/lib/libutils/isoc/bget_malloc.c:855
    6160:	910003fd 	mov	x29, sp
    6164:	a90153f3 	stp	x19, x20, [sp,#16]
    6168:	aa0103f3 	mov	x19, x1
raw_realloc():
/home/pwnz/devel/optee/optee_os/lib/libutils/isoc/bget_malloc.c:380
    616c:	9a9f1421 	csinc	x1, x1, xzr, ne
    6170:	97ffff3a 	bl	5e58 <bgetr>
/home/pwnz/devel/optee/optee_os/lib/libutils/isoc/bget_malloc.c:382
    6174:	aa1303e1 	mov	x1, x19
/home/pwnz/devel/optee/optee_os/lib/libutils/isoc/bget_malloc.c:380
    6178:	aa0003f4 	mov	x20, x0
/home/pwnz/devel/optee/optee_os/lib/libutils/isoc/bget_malloc.c:382
    617c:	97fffd9c 	bl	57ec <raw_malloc_return_hook>
realloc():
/home/pwnz/devel/optee/optee_os/lib/libutils/isoc/bget_malloc.c:862
    6180:	aa1403e0 	mov	x0, x20
    6184:	a94153f3 	ldp	x19, x20, [sp,#16]
    6188:	a8c27bfd 	ldp	x29, x30, [sp],#32
    618c:	d65f03c0 	ret

0000000000006190 <memalign>:
memalign():
/home/pwnz/devel/optee/optee_os/lib/libutils/isoc/bget_malloc.c:865
    6190:	a9bd7bfd 	stp	x29, x30, [sp,#-48]!
    6194:	910003fd 	mov	x29, sp
    6198:	a90153f3 	stp	x19, x20, [sp,#16]
    619c:	a9025bf5 	stp	x21, x22, [sp,#32]
raw_memalign():
/home/pwnz/devel/optee/optee_os/lib/libutils/isoc/bget_malloc.c:541
    61a0:	b4001bc0 	cbz	x0, 6518 <memalign+0x388>
    61a4:	cb0003f3 	neg	x19, x0
    61a8:	ea33001f 	bics	xzr, x0, x19
    61ac:	54001b61 	b.ne	6518 <memalign+0x388>
    61b0:	aa0103f5 	mov	x21, x1
    61b4:	aa0003f4 	mov	x20, x0
/home/pwnz/devel/optee/optee_os/lib/libutils/isoc/bget_malloc.c:548
    61b8:	f100401f 	cmp	x0, #0x10
    61bc:	54000188 	b.hi	61ec <memalign+0x5c>
raw_malloc():
/home/pwnz/devel/optee/optee_os/lib/libutils/isoc/bget_malloc.c:323
    61c0:	f100003f 	cmp	x1, #0x0
/home/pwnz/devel/optee/optee_os/lib/libutils/isoc/bget_malloc.c:326
    61c4:	9a9f1420 	csinc	x0, x1, xzr, ne
    61c8:	97fffde0 	bl	5948 <bget>
    61cc:	aa0003f3 	mov	x19, x0
/home/pwnz/devel/optee/optee_os/lib/libutils/isoc/bget_malloc.c:328
    61d0:	aa1503e1 	mov	x1, x21
raw_memalign():
/home/pwnz/devel/optee/optee_os/lib/libutils/isoc/bget_malloc.c:595
    61d4:	97fffd86 	bl	57ec <raw_malloc_return_hook>
memalign():
/home/pwnz/devel/optee/optee_os/lib/libutils/isoc/bget_malloc.c:872
    61d8:	aa1303e0 	mov	x0, x19
    61dc:	a94153f3 	ldp	x19, x20, [sp,#16]
    61e0:	a9425bf5 	ldp	x21, x22, [sp,#32]
    61e4:	a8c37bfd 	ldp	x29, x30, [sp],#48
    61e8:	d65f03c0 	ret
raw_memalign():
/home/pwnz/devel/optee/optee_os/lib/libutils/isoc/bget_malloc.c:551
    61ec:	91008036 	add	x22, x1, #0x20
    61f0:	8b0002d6 	add	x22, x22, x0
/home/pwnz/devel/optee/optee_os/lib/libutils/isoc/bget_malloc.c:555
    61f4:	eb16001f 	cmp	x0, x22
    61f8:	fa569022 	ccmp	x1, x22, #0x2, ls
    61fc:	540018e8 	b.hi	6518 <memalign+0x388>
/home/pwnz/devel/optee/optee_os/lib/libutils/isoc/bget_malloc.c:558
    6200:	aa1603e0 	mov	x0, x22
    6204:	97fffdd1 	bl	5948 <bget>
    6208:	aa0003e1 	mov	x1, x0
/home/pwnz/devel/optee/optee_os/lib/libutils/isoc/bget_malloc.c:559
    620c:	b40017e0 	cbz	x0, 6508 <memalign+0x378>
/home/pwnz/devel/optee/optee_os/lib/libutils/isoc/bget_malloc.c:562
    6210:	d1000680 	sub	x0, x20, #0x1
    6214:	ea00003f 	tst	x1, x0
    6218:	54000a80 	b.eq	6368 <memalign+0x1d8>
/home/pwnz/devel/optee/optee_os/lib/libutils/isoc/bget_malloc.c:575
    621c:	8b010280 	add	x0, x20, x1
/home/pwnz/devel/optee/optee_os/lib/libutils/isoc/bget_malloc.c:580
    6220:	8b160036 	add	x22, x1, x22
/home/pwnz/devel/optee/optee_os/lib/libutils/isoc/bget_malloc.c:576
    6224:	8a000273 	and	x19, x19, x0
/home/pwnz/devel/optee/optee_os/lib/libutils/isoc/bget_malloc.c:578
    6228:	cb010260 	sub	x0, x19, x1
/home/pwnz/devel/optee/optee_os/lib/libutils/isoc/bget_malloc.c:579
    622c:	8b140274 	add	x20, x19, x20
    6230:	f1007c1f 	cmp	x0, #0x1f
    6234:	9a939293 	csel	x19, x20, x19, ls
/home/pwnz/devel/optee/optee_os/lib/libutils/isoc/bget_malloc.c:580
    6238:	8b1302a0 	add	x0, x21, x19
    623c:	eb16001f 	cmp	x0, x22
    6240:	54000169 	b.ls	626c <memalign+0xdc>
    6244:	b0000023 	adrp	x3, b000 <mpa_get_str+0x20>
    6248:	911d4063 	add	x3, x3, #0x750
    624c:	d0000021 	adrp	x1, c000 <PRIME_TABLE+0x770>
    6250:	f0000020 	adrp	x0, d000 <__func__.3637+0xa28>
    6254:	91012063 	add	x3, x3, #0x48
    6258:	913c6421 	add	x1, x1, #0xf19
    625c:	9106f800 	add	x0, x0, #0x1be
    6260:	52804882 	mov	w2, #0x244                 	// #580
brel_before():
/home/pwnz/devel/optee/optee_os/lib/libutils/isoc/bget_malloc.c:417
    6264:	97fffb35 	bl	4f38 <_assert_log>
    6268:	97fffb45 	bl	4f7c <_assert_break>
    626c:	eb13003f 	cmp	x1, x19
    6270:	54000143 	b.cc	6298 <memalign+0x108>
    6274:	b0000023 	adrp	x3, b000 <mpa_get_str+0x20>
    6278:	911d4063 	add	x3, x3, #0x750
    627c:	d0000021 	adrp	x1, c000 <PRIME_TABLE+0x770>
    6280:	f0000020 	adrp	x0, d000 <__func__.3637+0xa28>
    6284:	91016063 	add	x3, x3, #0x58
    6288:	52803422 	mov	w2, #0x1a1                 	// #417
    628c:	913c6421 	add	x1, x1, #0xf19
    6290:	9107a800 	add	x0, x0, #0x1ea
    6294:	17fffff4 	b	6264 <memalign+0xd4>
/home/pwnz/devel/optee/optee_os/lib/libutils/isoc/bget_malloc.c:419
    6298:	cb010274 	sub	x20, x19, x1
/home/pwnz/devel/optee/optee_os/lib/libutils/isoc/bget_malloc.c:420
    629c:	f1007e9f 	cmp	x20, #0x1f
    62a0:	54000148 	b.hi	62c8 <memalign+0x138>
    62a4:	b0000023 	adrp	x3, b000 <mpa_get_str+0x20>
    62a8:	911d4063 	add	x3, x3, #0x750
    62ac:	d0000021 	adrp	x1, c000 <PRIME_TABLE+0x770>
    62b0:	f0000020 	adrp	x0, d000 <__func__.3637+0xa28>
    62b4:	91016063 	add	x3, x3, #0x58
    62b8:	52803482 	mov	w2, #0x1a4                 	// #420
    62bc:	913c6421 	add	x1, x1, #0xf19
    62c0:	9107f400 	add	x0, x0, #0x1fd
    62c4:	17ffffe8 	b	6264 <memalign+0xd4>
/home/pwnz/devel/optee/optee_os/lib/libutils/isoc/bget_malloc.c:424
    62c8:	f85f8022 	ldur	x2, [x1,#-8]
/home/pwnz/devel/optee/optee_os/lib/libutils/isoc/bget_malloc.c:423
    62cc:	d1004020 	sub	x0, x1, #0x10
/home/pwnz/devel/optee/optee_os/lib/libutils/isoc/bget_malloc.c:429
    62d0:	f85f0021 	ldur	x1, [x1,#-16]
    62d4:	8b020282 	add	x2, x20, x2
    62d8:	b40003e1 	cbz	x1, 6354 <memalign+0x1c4>
/home/pwnz/devel/optee/optee_os/lib/libutils/isoc/bget_malloc.c:434
    62dc:	cb010000 	sub	x0, x0, x1
/home/pwnz/devel/optee/optee_os/lib/libutils/isoc/bget_malloc.c:435
    62e0:	f9400403 	ldr	x3, [x0,#8]
    62e4:	eb03003f 	cmp	x1, x3
    62e8:	54000140 	b.eq	6310 <memalign+0x180>
    62ec:	b0000023 	adrp	x3, b000 <mpa_get_str+0x20>
    62f0:	911d4063 	add	x3, x3, #0x750
    62f4:	d0000021 	adrp	x1, c000 <PRIME_TABLE+0x770>
    62f8:	f0000020 	adrp	x0, d000 <__func__.3637+0xa28>
    62fc:	91016063 	add	x3, x3, #0x58
    6300:	52803662 	mov	w2, #0x1b3                 	// #435
    6304:	913c6421 	add	x1, x1, #0xf19
    6308:	91089000 	add	x0, x0, #0x224
    630c:	17ffffd6 	b	6264 <memalign+0xd4>
/home/pwnz/devel/optee/optee_os/lib/libutils/isoc/bget_malloc.c:436
    6310:	8b010281 	add	x1, x20, x1
    6314:	f9000401 	str	x1, [x0,#8]
/home/pwnz/devel/optee/optee_os/lib/libutils/isoc/bget_malloc.c:441
    6318:	a93f0a61 	stp	x1, x2, [x19,#-16]
/home/pwnz/devel/optee/optee_os/lib/libutils/isoc/bget_malloc.c:455
    631c:	d0000081 	adrp	x1, 18000 <mempool_u32+0x1a10>
    6320:	f9409820 	ldr	x0, [x1,#304]
    6324:	cb140014 	sub	x20, x0, x20
    6328:	f9009834 	str	x20, [x1,#304]
/home/pwnz/devel/optee/optee_os/lib/libutils/isoc/bget_malloc.c:456
    632c:	b6f80214 	tbz	x20, #63, 636c <memalign+0x1dc>
    6330:	b0000023 	adrp	x3, b000 <mpa_get_str+0x20>
    6334:	911d4063 	add	x3, x3, #0x750
    6338:	91016063 	add	x3, x3, #0x58
    633c:	52803902 	mov	w2, #0x1c8                 	// #456
brel_after():
/home/pwnz/devel/optee/optee_os/lib/libutils/isoc/bget_malloc.c:528
    6340:	d0000021 	adrp	x1, c000 <PRIME_TABLE+0x770>
    6344:	f0000020 	adrp	x0, d000 <__func__.3637+0xa28>
    6348:	913c6421 	add	x1, x1, #0xf19
    634c:	91029000 	add	x0, x0, #0xa4
    6350:	17ffffc5 	b	6264 <memalign+0xd4>
brel_before():
/home/pwnz/devel/optee/optee_os/lib/libutils/isoc/bget_malloc.c:449
    6354:	f81f8262 	stur	x2, [x19,#-8]
/home/pwnz/devel/optee/optee_os/lib/libutils/isoc/bget_malloc.c:451
    6358:	aa1403e1 	mov	x1, x20
    635c:	d1004262 	sub	x2, x19, #0x10
    6360:	97fffd36 	bl	5838 <create_free_block>
    6364:	17ffffee 	b	631c <memalign+0x18c>
raw_memalign():
/home/pwnz/devel/optee/optee_os/lib/libutils/isoc/bget_malloc.c:562
    6368:	aa0103f3 	mov	x19, x1
brel_after():
/home/pwnz/devel/optee/optee_os/lib/libutils/isoc/bget_malloc.c:472
    636c:	f10042bf 	cmp	x21, #0x10
    6370:	d2800200 	mov	x0, #0x10                  	// #16
    6374:	9a8022a0 	csel	x0, x21, x0, cs
/home/pwnz/devel/optee/optee_os/lib/libutils/isoc/bget_malloc.c:476
    6378:	f85f8262 	ldur	x2, [x19,#-8]
/home/pwnz/devel/optee/optee_os/lib/libutils/isoc/bget_malloc.c:472
    637c:	91003c00 	add	x0, x0, #0xf
/home/pwnz/devel/optee/optee_os/lib/libutils/isoc/bget_malloc.c:476
    6380:	d1004264 	sub	x4, x19, #0x10
/home/pwnz/devel/optee/optee_os/lib/libutils/isoc/bget_malloc.c:472
    6384:	927cec00 	and	x0, x0, #0xfffffffffffffff0
/home/pwnz/devel/optee/optee_os/lib/libutils/isoc/bget_malloc.c:476
    6388:	cb0203f4 	neg	x20, x2
/home/pwnz/devel/optee/optee_os/lib/libutils/isoc/bget_malloc.c:475
    638c:	91004001 	add	x1, x0, #0x10
/home/pwnz/devel/optee/optee_os/lib/libutils/isoc/bget_malloc.c:476
    6390:	eb14003f 	cmp	x1, x20
    6394:	5400014d 	b.le	63bc <memalign+0x22c>
    6398:	b0000023 	adrp	x3, b000 <mpa_get_str+0x20>
    639c:	911d4063 	add	x3, x3, #0x750
    63a0:	d0000021 	adrp	x1, c000 <PRIME_TABLE+0x770>
    63a4:	f0000020 	adrp	x0, d000 <__func__.3637+0xa28>
    63a8:	9101a063 	add	x3, x3, #0x68
    63ac:	52803b82 	mov	w2, #0x1dc                 	// #476
    63b0:	913c6421 	add	x1, x1, #0xf19
    63b4:	91091400 	add	x0, x0, #0x245
    63b8:	17ffffab 	b	6264 <memalign+0xd4>
/home/pwnz/devel/optee/optee_os/lib/libutils/isoc/bget_malloc.c:482
    63bc:	cb010294 	sub	x20, x20, x1
/home/pwnz/devel/optee/optee_os/lib/libutils/isoc/bget_malloc.c:483
    63c0:	f1007e9f 	cmp	x20, #0x1f
    63c4:	54000a4d 	b.le	650c <memalign+0x37c>
/home/pwnz/devel/optee/optee_os/lib/libutils/isoc/bget_malloc.c:486
    63c8:	928001e3 	mov	x3, #0xfffffffffffffff0    	// #-16
    63cc:	cb020063 	sub	x3, x3, x2
    63d0:	8b030262 	add	x2, x19, x3
/home/pwnz/devel/optee/optee_os/lib/libutils/isoc/bget_malloc.c:490
    63d4:	cb0103e1 	neg	x1, x1
    63d8:	f9000481 	str	x1, [x4,#8]
    63dc:	8b000260 	add	x0, x19, x0
/home/pwnz/devel/optee/optee_os/lib/libutils/isoc/bget_malloc.c:491
    63e0:	f9400441 	ldr	x1, [x2,#8]
    63e4:	f100003f 	cmp	x1, #0x0
    63e8:	540008ad 	b.le	64fc <memalign+0x36c>
/home/pwnz/devel/optee/optee_os/lib/libutils/isoc/bget_malloc.c:497
    63ec:	f8636a63 	ldr	x3, [x19,x3]
    63f0:	b4000143 	cbz	x3, 6418 <memalign+0x288>
    63f4:	b0000023 	adrp	x3, b000 <mpa_get_str+0x20>
    63f8:	911d4063 	add	x3, x3, #0x750
    63fc:	d0000021 	adrp	x1, c000 <PRIME_TABLE+0x770>
    6400:	f0000020 	adrp	x0, d000 <__func__.3637+0xa28>
    6404:	9101a063 	add	x3, x3, #0x68
    6408:	52803e22 	mov	w2, #0x1f1                 	// #497
    640c:	913c6421 	add	x1, x1, #0xf19
    6410:	91096c00 	add	x0, x0, #0x25b
    6414:	17ffff94 	b	6264 <memalign+0xd4>
/home/pwnz/devel/optee/optee_os/lib/libutils/isoc/bget_malloc.c:498
    6418:	f8616843 	ldr	x3, [x2,x1]
    641c:	eb03003f 	cmp	x1, x3
    6420:	54000140 	b.eq	6448 <memalign+0x2b8>
    6424:	b0000023 	adrp	x3, b000 <mpa_get_str+0x20>
    6428:	911d4063 	add	x3, x3, #0x750
    642c:	d0000021 	adrp	x1, c000 <PRIME_TABLE+0x770>
    6430:	f0000020 	adrp	x0, d000 <__func__.3637+0xa28>
    6434:	9101a063 	add	x3, x3, #0x68
    6438:	52803e42 	mov	w2, #0x1f2                 	// #498
    643c:	913c6421 	add	x1, x1, #0xf19
    6440:	9109c400 	add	x0, x0, #0x271
    6444:	17ffff88 	b	6264 <memalign+0xd4>
/home/pwnz/devel/optee/optee_os/lib/libutils/isoc/bget_malloc.c:502
    6448:	8b010283 	add	x3, x20, x1
    644c:	a9000c1f 	stp	xzr, x3, [x0]
/home/pwnz/devel/optee/optee_os/lib/libutils/isoc/bget_malloc.c:505
    6450:	f8616843 	ldr	x3, [x2,x1]
    6454:	8b140063 	add	x3, x3, x20
    6458:	f8216843 	str	x3, [x2,x1]
/home/pwnz/devel/optee/optee_os/lib/libutils/isoc/bget_malloc.c:511
    645c:	f9400c41 	ldr	x1, [x2,#24]
    6460:	f9400823 	ldr	x3, [x1,#16]
    6464:	eb03005f 	cmp	x2, x3
    6468:	54000140 	b.eq	6490 <memalign+0x300>
    646c:	b0000023 	adrp	x3, b000 <mpa_get_str+0x20>
    6470:	911d4063 	add	x3, x3, #0x750
    6474:	d0000021 	adrp	x1, c000 <PRIME_TABLE+0x770>
    6478:	f0000020 	adrp	x0, d000 <__func__.3637+0xa28>
    647c:	9101a063 	add	x3, x3, #0x68
    6480:	52803fe2 	mov	w2, #0x1ff                 	// #511
    6484:	913c6421 	add	x1, x1, #0xf19
    6488:	910a4000 	add	x0, x0, #0x290
    648c:	17ffff76 	b	6264 <memalign+0xd4>
/home/pwnz/devel/optee/optee_os/lib/libutils/isoc/bget_malloc.c:512
    6490:	f9400843 	ldr	x3, [x2,#16]
    6494:	f9400c64 	ldr	x4, [x3,#24]
    6498:	eb04005f 	cmp	x2, x4
    649c:	54000140 	b.eq	64c4 <memalign+0x334>
    64a0:	b0000023 	adrp	x3, b000 <mpa_get_str+0x20>
    64a4:	911d4063 	add	x3, x3, #0x750
    64a8:	d0000021 	adrp	x1, c000 <PRIME_TABLE+0x770>
    64ac:	f0000020 	adrp	x0, d000 <__func__.3637+0xa28>
    64b0:	9101a063 	add	x3, x3, #0x68
    64b4:	52804002 	mov	w2, #0x200                 	// #512
    64b8:	913c6421 	add	x1, x1, #0xf19
    64bc:	910abc00 	add	x0, x0, #0x2af
    64c0:	17ffff69 	b	6264 <memalign+0xd4>
/home/pwnz/devel/optee/optee_os/lib/libutils/isoc/bget_malloc.c:515
    64c4:	a9010403 	stp	x3, x1, [x0,#16]
/home/pwnz/devel/optee/optee_os/lib/libutils/isoc/bget_malloc.c:519
    64c8:	f9000820 	str	x0, [x1,#16]
/home/pwnz/devel/optee/optee_os/lib/libutils/isoc/bget_malloc.c:520
    64cc:	f9400801 	ldr	x1, [x0,#16]
    64d0:	f9000c20 	str	x0, [x1,#24]
/home/pwnz/devel/optee/optee_os/lib/libutils/isoc/bget_malloc.c:527
    64d4:	d0000081 	adrp	x1, 18000 <mempool_u32+0x1a10>
    64d8:	f9409820 	ldr	x0, [x1,#304]
    64dc:	cb140014 	sub	x20, x0, x20
    64e0:	f9009834 	str	x20, [x1,#304]
/home/pwnz/devel/optee/optee_os/lib/libutils/isoc/bget_malloc.c:528
    64e4:	b6f80154 	tbz	x20, #63, 650c <memalign+0x37c>
    64e8:	b0000023 	adrp	x3, b000 <mpa_get_str+0x20>
    64ec:	911d4063 	add	x3, x3, #0x750
    64f0:	9101a063 	add	x3, x3, #0x68
    64f4:	52804202 	mov	w2, #0x210                 	// #528
    64f8:	17ffff92 	b	6340 <memalign+0x1b0>
/home/pwnz/devel/optee/optee_os/lib/libutils/isoc/bget_malloc.c:523
    64fc:	aa1403e1 	mov	x1, x20
    6500:	97fffcce 	bl	5838 <create_free_block>
    6504:	17fffff4 	b	64d4 <memalign+0x344>
raw_memalign():
/home/pwnz/devel/optee/optee_os/lib/libutils/isoc/bget_malloc.c:559
    6508:	d2800013 	mov	x19, #0x0                   	// #0
/home/pwnz/devel/optee/optee_os/lib/libutils/isoc/bget_malloc.c:595
    650c:	aa1503e1 	mov	x1, x21
    6510:	aa1303e0 	mov	x0, x19
    6514:	17ffff30 	b	61d4 <memalign+0x44>
/home/pwnz/devel/optee/optee_os/lib/libutils/isoc/bget_malloc.c:542
    6518:	d2800013 	mov	x19, #0x0                   	// #0
memalign():
/home/pwnz/devel/optee/optee_os/lib/libutils/isoc/bget_malloc.c:871
    651c:	17ffff2f 	b	61d8 <memalign+0x48>

0000000000006520 <malloc_add_pool>:
malloc_add_pool():
/home/pwnz/devel/optee/optee_os/lib/libutils/isoc/bget_malloc.c:883
    6520:	a9bc7bfd 	stp	x29, x30, [sp,#-64]!
    6524:	910003fd 	mov	x29, sp
    6528:	a90153f3 	stp	x19, x20, [sp,#16]
/home/pwnz/devel/optee/optee_os/lib/libutils/isoc/bget_malloc.c:888
    652c:	8b010013 	add	x19, x0, x1
/home/pwnz/devel/optee/optee_os/lib/libutils/isoc/bget_malloc.c:883
    6530:	a9025bf5 	stp	x21, x22, [sp,#32]
/home/pwnz/devel/optee/optee_os/lib/libutils/isoc/bget_malloc.c:894
    6534:	91003c00 	add	x0, x0, #0xf
/home/pwnz/devel/optee/optee_os/lib/libutils/isoc/bget_malloc.c:883
    6538:	a90363f7 	stp	x23, x24, [sp,#48]
/home/pwnz/devel/optee/optee_os/lib/libutils/isoc/bget_malloc.c:894
    653c:	927cec14 	and	x20, x0, #0xfffffffffffffff0
/home/pwnz/devel/optee/optee_os/lib/libutils/isoc/bget_malloc.c:895
    6540:	927cee73 	and	x19, x19, #0xfffffffffffffff0
/home/pwnz/devel/optee/optee_os/lib/libutils/isoc/bget_malloc.c:896
    6544:	eb13029f 	cmp	x20, x19
    6548:	54000163 	b.cc	6574 <malloc_add_pool+0x54>
/home/pwnz/devel/optee/optee_os/lib/libutils/isoc/bget_malloc.c:896 (discriminator 1)
    654c:	b0000023 	adrp	x3, b000 <mpa_get_str+0x20>
    6550:	911d4063 	add	x3, x3, #0x750
    6554:	d0000021 	adrp	x1, c000 <PRIME_TABLE+0x770>
    6558:	f0000020 	adrp	x0, d000 <__func__.3637+0xa28>
    655c:	9101e063 	add	x3, x3, #0x78
    6560:	913c6421 	add	x1, x1, #0xf19
    6564:	910b3800 	add	x0, x0, #0x2ce
    6568:	52807002 	mov	w2, #0x380                 	// #896
/home/pwnz/devel/optee/optee_os/lib/libutils/isoc/bget_malloc.c:908 (discriminator 1)
    656c:	97fffa73 	bl	4f38 <_assert_log>
    6570:	97fffa83 	bl	4f7c <_assert_break>
/home/pwnz/devel/optee/optee_os/lib/libutils/isoc/bget_malloc.c:898
    6574:	cb140273 	sub	x19, x19, x20
    6578:	f100be7f 	cmp	x19, #0x2f
    657c:	54000449 	b.ls	6604 <malloc_add_pool+0xe4>
/home/pwnz/devel/optee/optee_os/lib/libutils/isoc/bget_malloc.c:906
    6580:	d0000095 	adrp	x21, 18000 <mempool_u32+0x1a10>
    6584:	9104c2b5 	add	x21, x21, #0x130
/home/pwnz/devel/optee/optee_os/lib/libutils/isoc/bget_malloc.c:905
    6588:	aa1303e1 	mov	x1, x19
    658c:	aa1403e0 	mov	x0, x20
    6590:	97fffe59 	bl	5ef4 <bpool>
raw_realloc():
/home/pwnz/devel/optee/optee_os/lib/libutils/isoc/bget_malloc.c:380
    6594:	a94502b6 	ldp	x22, x0, [x21,#80]
malloc_add_pool():
/home/pwnz/devel/optee/optee_os/lib/libutils/isoc/bget_malloc.c:906
    6598:	910006d6 	add	x22, x22, #0x1
/home/pwnz/devel/optee/optee_os/lib/libutils/isoc/bget_malloc.c:907
    659c:	d37ceed7 	lsl	x23, x22, #4
raw_realloc():
/home/pwnz/devel/optee/optee_os/lib/libutils/isoc/bget_malloc.c:377
    65a0:	f10002ff 	cmp	x23, #0x0
/home/pwnz/devel/optee/optee_os/lib/libutils/isoc/bget_malloc.c:380
    65a4:	9a9f16e1 	csinc	x1, x23, xzr, ne
    65a8:	97fffe2c 	bl	5e58 <bgetr>
    65ac:	aa0003f8 	mov	x24, x0
/home/pwnz/devel/optee/optee_os/lib/libutils/isoc/bget_malloc.c:382
    65b0:	aa1703e1 	mov	x1, x23
    65b4:	97fffc8e 	bl	57ec <raw_malloc_return_hook>
malloc_add_pool():
/home/pwnz/devel/optee/optee_os/lib/libutils/isoc/bget_malloc.c:908
    65b8:	b5000158 	cbnz	x24, 65e0 <malloc_add_pool+0xc0>
/home/pwnz/devel/optee/optee_os/lib/libutils/isoc/bget_malloc.c:908 (discriminator 1)
    65bc:	b0000023 	adrp	x3, b000 <mpa_get_str+0x20>
    65c0:	911d4063 	add	x3, x3, #0x750
    65c4:	d0000021 	adrp	x1, c000 <PRIME_TABLE+0x770>
    65c8:	f0000020 	adrp	x0, d000 <__func__.3637+0xa28>
    65cc:	9101e063 	add	x3, x3, #0x78
    65d0:	52807182 	mov	w2, #0x38c                 	// #908
    65d4:	913c6421 	add	x1, x1, #0xf19
    65d8:	910b6800 	add	x0, x0, #0x2da
    65dc:	17ffffe4 	b	656c <malloc_add_pool+0x4c>
/home/pwnz/devel/optee/optee_os/lib/libutils/isoc/bget_malloc.c:910
    65e0:	f9402aa0 	ldr	x0, [x21,#80]
/home/pwnz/devel/optee/optee_os/lib/libutils/isoc/bget_malloc.c:909
    65e4:	a90562b6 	stp	x22, x24, [x21,#80]
/home/pwnz/devel/optee/optee_os/lib/libutils/isoc/bget_malloc.c:910
    65e8:	d37cec00 	lsl	x0, x0, #4
    65ec:	8b000301 	add	x1, x24, x0
    65f0:	f8206b14 	str	x20, [x24,x0]
/home/pwnz/devel/optee/optee_os/lib/libutils/isoc/bget_malloc.c:911
    65f4:	f9000433 	str	x19, [x1,#8]
/home/pwnz/devel/optee/optee_os/lib/libutils/isoc/bget_malloc.c:913
    65f8:	b94032a1 	ldr	w1, [x21,#48]
    65fc:	0b130033 	add	w19, w1, w19
    6600:	b90032b3 	str	w19, [x21,#48]
/home/pwnz/devel/optee/optee_os/lib/libutils/isoc/bget_malloc.c:917
    6604:	a94153f3 	ldp	x19, x20, [sp,#16]
    6608:	a9425bf5 	ldp	x21, x22, [sp,#32]
    660c:	a94363f7 	ldp	x23, x24, [sp,#48]
    6610:	a8c47bfd 	ldp	x29, x30, [sp],#64
    6614:	d65f03c0 	ret

0000000000006618 <malloc_buffer_is_within_alloced>:
malloc_buffer_is_within_alloced():
/home/pwnz/devel/optee/optee_os/lib/libutils/isoc/bget_malloc.c:924
    6618:	8b010001 	add	x1, x0, x1
/home/pwnz/devel/optee/optee_os/lib/libutils/isoc/bget_malloc.c:931
    661c:	eb01001f 	cmp	x0, x1
    6620:	54000b88 	b.hi	6790 <malloc_buffer_is_within_alloced+0x178>
    6624:	aa0003e5 	mov	x5, x0
bpool_foreach_iterator_init():
/home/pwnz/devel/optee/optee_os/lib/libutils/isoc/bget_malloc.c:246
    6628:	d0000080 	adrp	x0, 18000 <mempool_u32+0x1a10>
    662c:	9104c000 	add	x0, x0, #0x130
/home/pwnz/devel/optee/optee_os/lib/libutils/isoc/bget_malloc.c:245
    6630:	d2800006 	mov	x6, #0x0                   	// #0
bpool_foreach_pool():
/home/pwnz/devel/optee/optee_os/lib/libutils/isoc/bget_malloc.c:255
    6634:	d2f0000b 	mov	x11, #0x8000000000000000    	// #-9223372036854775808
bget_buf_size():
/home/pwnz/devel/optee/optee_os/lib/libutils/isoc/bget_malloc.c:617
    6638:	928001e9 	mov	x9, #0xfffffffffffffff0    	// #-16
bpool_foreach_iterator_init():
/home/pwnz/devel/optee/optee_os/lib/libutils/isoc/bget_malloc.c:246
    663c:	a9451c0a 	ldp	x10, x7, [x0,#80]
    6640:	f94000e3 	ldr	x3, [x7]
bpool_foreach_pool():
/home/pwnz/devel/optee/optee_os/lib/libutils/isoc/bget_malloc.c:253
    6644:	f9400462 	ldr	x2, [x3,#8]
bpool_foreach():
/home/pwnz/devel/optee/optee_os/lib/libutils/isoc/bget_malloc.c:295
    6648:	aa0303e4 	mov	x4, x3
bpool_foreach_pool():
/home/pwnz/devel/optee/optee_os/lib/libutils/isoc/bget_malloc.c:255
    664c:	eb0b005f 	cmp	x2, x11
    6650:	540009a0 	b.eq	6784 <malloc_buffer_is_within_alloced+0x16c>
malloc_buffer_is_within_alloced():
/home/pwnz/devel/optee/optee_os/lib/libutils/isoc/bget_malloc.c:920
    6654:	a9bf7bfd 	stp	x29, x30, [sp,#-16]!
    6658:	910003fd 	mov	x29, sp
    665c:	1400000d 	b	6690 <malloc_buffer_is_within_alloced+0x78>
bpool_foreach_pool():
/home/pwnz/devel/optee/optee_os/lib/libutils/isoc/bget_malloc.c:272
    6660:	91004084 	add	x4, x4, #0x10
malloc_buffer_is_within_alloced():
/home/pwnz/devel/optee/optee_os/lib/libutils/isoc/bget_malloc.c:940
    6664:	8b020082 	add	x2, x4, x2
/home/pwnz/devel/optee/optee_os/lib/libutils/isoc/bget_malloc.c:942
    6668:	eb02003f 	cmp	x1, x2
    666c:	1a9f87e2 	cset	w2, ls
    6670:	eb0400bf 	cmp	x5, x4
    6674:	1a9f37e0 	cset	w0, cs
    6678:	6a000040 	ands	w0, w2, w0
    667c:	540007a1 	b.ne	6770 <malloc_buffer_is_within_alloced+0x158>
bpool_foreach_pool():
/home/pwnz/devel/optee/optee_os/lib/libutils/isoc/bget_malloc.c:253
    6680:	f9400462 	ldr	x2, [x3,#8]
bpool_foreach():
/home/pwnz/devel/optee/optee_os/lib/libutils/isoc/bget_malloc.c:295
    6684:	aa0303e4 	mov	x4, x3
bpool_foreach_pool():
/home/pwnz/devel/optee/optee_os/lib/libutils/isoc/bget_malloc.c:255
    6688:	eb0b005f 	cmp	x2, x11
    668c:	540006a0 	b.eq	6760 <malloc_buffer_is_within_alloced+0x148>
/home/pwnz/devel/optee/optee_os/lib/libutils/isoc/bget_malloc.c:258
    6690:	b6f80242 	tbz	x2, #63, 66d8 <malloc_buffer_is_within_alloced+0xc0>
/home/pwnz/devel/optee/optee_os/lib/libutils/isoc/bget_malloc.c:260
    6694:	cb0203e8 	neg	x8, x2
/home/pwnz/devel/optee/optee_os/lib/libutils/isoc/bget_malloc.c:262
    6698:	52800000 	mov	w0, #0x0                   	// #0
/home/pwnz/devel/optee/optee_os/lib/libutils/isoc/bget_malloc.c:275
    669c:	8b080063 	add	x3, x3, x8
bpool_foreach():
/home/pwnz/devel/optee/optee_os/lib/libutils/isoc/bget_malloc.c:286
    66a0:	35ffff00 	cbnz	w0, 6680 <malloc_buffer_is_within_alloced+0x68>
bget_buf_size():
/home/pwnz/devel/optee/optee_os/lib/libutils/isoc/bget_malloc.c:617
    66a4:	cb020122 	sub	x2, x9, x2
/home/pwnz/devel/optee/optee_os/lib/libutils/isoc/bget_malloc.c:618
    66a8:	f100005f 	cmp	x2, #0x0
    66ac:	54fffdac 	b.gt	6660 <malloc_buffer_is_within_alloced+0x48>
    66b0:	b0000023 	adrp	x3, b000 <mpa_get_str+0x20>
    66b4:	911d4063 	add	x3, x3, #0x750
    66b8:	91022063 	add	x3, x3, #0x88
    66bc:	d0000021 	adrp	x1, c000 <PRIME_TABLE+0x770>
    66c0:	f0000020 	adrp	x0, d000 <__func__.3637+0xa28>
    66c4:	913c6421 	add	x1, x1, #0xf19
    66c8:	9105bc00 	add	x0, x0, #0x16f
    66cc:	52804d42 	mov	w2, #0x26a                 	// #618
    66d0:	97fffa1a 	bl	4f38 <_assert_log>
    66d4:	97fffa2a 	bl	4f7c <_assert_break>
bpool_foreach_pool():
/home/pwnz/devel/optee/optee_os/lib/libutils/isoc/bget_malloc.c:268
    66d8:	f9400c60 	ldr	x0, [x3,#24]
    66dc:	f9400800 	ldr	x0, [x0,#16]
    66e0:	eb00007f 	cmp	x3, x0
    66e4:	54000160 	b.eq	6710 <malloc_buffer_is_within_alloced+0xf8>
    66e8:	b0000023 	adrp	x3, b000 <mpa_get_str+0x20>
    66ec:	911d4063 	add	x3, x3, #0x750
    66f0:	91026063 	add	x3, x3, #0x98
    66f4:	d0000021 	adrp	x1, c000 <PRIME_TABLE+0x770>
    66f8:	f0000020 	adrp	x0, d000 <__func__.3637+0xa28>
    66fc:	913c6421 	add	x1, x1, #0xf19
    6700:	91006000 	add	x0, x0, #0x18
    6704:	52802182 	mov	w2, #0x10c                 	// #268
    6708:	97fffa0c 	bl	4f38 <_assert_log>
    670c:	97fffa1c 	bl	4f7c <_assert_break>
/home/pwnz/devel/optee/optee_os/lib/libutils/isoc/bget_malloc.c:269
    6710:	f9400860 	ldr	x0, [x3,#16]
    6714:	f9400c00 	ldr	x0, [x0,#24]
    6718:	eb00007f 	cmp	x3, x0
    671c:	54000160 	b.eq	6748 <malloc_buffer_is_within_alloced+0x130>
    6720:	b0000023 	adrp	x3, b000 <mpa_get_str+0x20>
    6724:	911d4063 	add	x3, x3, #0x750
    6728:	91026063 	add	x3, x3, #0x98
    672c:	d0000021 	adrp	x1, c000 <PRIME_TABLE+0x770>
    6730:	f0000020 	adrp	x0, d000 <__func__.3637+0xa28>
    6734:	913c6421 	add	x1, x1, #0xf19
    6738:	9100cc00 	add	x0, x0, #0x33
    673c:	528021a2 	mov	w2, #0x10d                 	// #269
    6740:	97fff9fe 	bl	4f38 <_assert_log>
    6744:	97fffa0e 	bl	4f7c <_assert_break>
    6748:	aa0203e8 	mov	x8, x2
/home/pwnz/devel/optee/optee_os/lib/libutils/isoc/bget_malloc.c:265
    674c:	52800020 	mov	w0, #0x1                   	// #1
    6750:	17ffffd3 	b	669c <malloc_buffer_is_within_alloced+0x84>
bpool_foreach():
/home/pwnz/devel/optee/optee_os/lib/libutils/isoc/bget_malloc.c:295
    6754:	d37cecc0 	lsl	x0, x6, #4
    6758:	f86068e3 	ldr	x3, [x7,x0]
    675c:	17ffffc9 	b	6680 <malloc_buffer_is_within_alloced+0x68>
/home/pwnz/devel/optee/optee_os/lib/libutils/isoc/bget_malloc.c:291
    6760:	910004c6 	add	x6, x6, #0x1
    6764:	eb0a00df 	cmp	x6, x10
    6768:	54ffff63 	b.cc	6754 <malloc_buffer_is_within_alloced+0x13c>
malloc_buffer_is_within_alloced():
/home/pwnz/devel/optee/optee_os/lib/libutils/isoc/bget_malloc.c:925
    676c:	52800000 	mov	w0, #0x0                   	// #0
/home/pwnz/devel/optee/optee_os/lib/libutils/isoc/bget_malloc.c:952
    6770:	a8c17bfd 	ldp	x29, x30, [sp],#16
    6774:	d65f03c0 	ret
bpool_foreach():
/home/pwnz/devel/optee/optee_os/lib/libutils/isoc/bget_malloc.c:295
    6778:	d37cecc0 	lsl	x0, x6, #4
    677c:	f86068e3 	ldr	x3, [x7,x0]
    6780:	17ffffb1 	b	6644 <malloc_buffer_is_within_alloced+0x2c>
/home/pwnz/devel/optee/optee_os/lib/libutils/isoc/bget_malloc.c:291
    6784:	910004c6 	add	x6, x6, #0x1
    6788:	eb0a00df 	cmp	x6, x10
    678c:	54ffff63 	b.cc	6778 <malloc_buffer_is_within_alloced+0x160>
malloc_buffer_is_within_alloced():
/home/pwnz/devel/optee/optee_os/lib/libutils/isoc/bget_malloc.c:925
    6790:	52800000 	mov	w0, #0x0                   	// #0
/home/pwnz/devel/optee/optee_os/lib/libutils/isoc/bget_malloc.c:951
    6794:	d65f03c0 	ret

0000000000006798 <malloc_buffer_overlaps_heap>:
malloc_buffer_overlaps_heap():
/home/pwnz/devel/optee/optee_os/lib/libutils/isoc/bget_malloc.c:964
    6798:	d0000082 	adrp	x2, 18000 <mempool_u32+0x1a10>
    679c:	9104c042 	add	x2, x2, #0x130
/home/pwnz/devel/optee/optee_os/lib/libutils/isoc/bget_malloc.c:957
    67a0:	8b010001 	add	x1, x0, x1
/home/pwnz/devel/optee/optee_os/lib/libutils/isoc/bget_malloc.c:964
    67a4:	d2800005 	mov	x5, #0x0                   	// #0
    67a8:	a9450c47 	ldp	x7, x3, [x2,#80]
/home/pwnz/devel/optee/optee_os/lib/libutils/isoc/bget_malloc.c:964 (discriminator 1)
    67ac:	eb0700bf 	cmp	x5, x7
    67b0:	54000081 	b.ne	67c0 <malloc_buffer_overlaps_heap+0x28>
/home/pwnz/devel/optee/optee_os/lib/libutils/isoc/bget_malloc.c:959
    67b4:	52800002 	mov	w2, #0x0                   	// #0
/home/pwnz/devel/optee/optee_os/lib/libutils/isoc/bget_malloc.c:982
    67b8:	2a0203e0 	mov	w0, w2
    67bc:	d65f03c0 	ret
/home/pwnz/devel/optee/optee_os/lib/libutils/isoc/bget_malloc.c:966
    67c0:	a9401066 	ldp	x6, x4, [x3]
/home/pwnz/devel/optee/optee_os/lib/libutils/isoc/bget_malloc.c:968
    67c4:	eb01001f 	cmp	x0, x1
    67c8:	1a9f97e2 	cset	w2, hi
/home/pwnz/devel/optee/optee_os/lib/libutils/isoc/bget_malloc.c:966
    67cc:	8b0400c4 	add	x4, x6, x4
/home/pwnz/devel/optee/optee_os/lib/libutils/isoc/bget_malloc.c:968
    67d0:	eb0400df 	cmp	x6, x4
    67d4:	1a9f97e8 	cset	w8, hi
    67d8:	2a080042 	orr	w2, w2, w8
    67dc:	35fffee2 	cbnz	w2, 67b8 <malloc_buffer_overlaps_heap+0x20>
/home/pwnz/devel/optee/optee_os/lib/libutils/isoc/bget_malloc.c:973
    67e0:	eb06003f 	cmp	x1, x6
    67e4:	91004063 	add	x3, x3, #0x10
    67e8:	1a9f97e2 	cset	w2, hi
    67ec:	eb04001f 	cmp	x0, x4
    67f0:	1a9f27e4 	cset	w4, cc
    67f4:	2a040042 	orr	w2, w2, w4
    67f8:	35fffe02 	cbnz	w2, 67b8 <malloc_buffer_overlaps_heap+0x20>
/home/pwnz/devel/optee/optee_os/lib/libutils/isoc/bget_malloc.c:964 (discriminator 2)
    67fc:	910004a5 	add	x5, x5, #0x1
    6800:	17ffffeb 	b	67ac <malloc_buffer_overlaps_heap+0x14>

0000000000006804 <snprintf>:
snprintf():
/home/pwnz/devel/optee/optee_os/lib/libutils/isoc/snprintf.c:32
    6804:	a9b07bfd 	stp	x29, x30, [sp,#-256]!
    6808:	910003fd 	mov	x29, sp
    680c:	a90d93a3 	stp	x3, x4, [x29,#216]
/home/pwnz/devel/optee/optee_os/lib/libutils/isoc/snprintf.c:36
    6810:	910403a3 	add	x3, x29, #0x100
    6814:	a9030fa3 	stp	x3, x3, [x29,#48]
    6818:	910343a3 	add	x3, x29, #0xd0
    681c:	f90023a3 	str	x3, [x29,#64]
    6820:	128004e3 	mov	w3, #0xffffffd8            	// #-40
    6824:	b9004ba3 	str	w3, [x29,#72]
    6828:	12800fe3 	mov	w3, #0xffffff80            	// #-128
    682c:	b9004fa3 	str	w3, [x29,#76]
/home/pwnz/devel/optee/optee_os/lib/libutils/isoc/snprintf.c:37
    6830:	910043a3 	add	x3, x29, #0x10
/home/pwnz/devel/optee/optee_os/lib/libutils/isoc/snprintf.c:32
    6834:	a90e9ba5 	stp	x5, x6, [x29,#232]
/home/pwnz/devel/optee/optee_os/lib/libutils/isoc/snprintf.c:37
    6838:	a94317a4 	ldp	x4, x5, [x29,#48]
    683c:	a90117a4 	stp	x4, x5, [x29,#16]
    6840:	a94417a4 	ldp	x4, x5, [x29,#64]
    6844:	a90217a4 	stp	x4, x5, [x29,#32]
/home/pwnz/devel/optee/optee_os/lib/libutils/isoc/snprintf.c:32
    6848:	3d8017a0 	str	q0, [x29,#80]
/home/pwnz/devel/optee/optee_os/lib/libutils/isoc/snprintf.c:37
    684c:	52800004 	mov	w4, #0x0                   	// #0
/home/pwnz/devel/optee/optee_os/lib/libutils/isoc/snprintf.c:32
    6850:	3d801ba1 	str	q1, [x29,#96]
    6854:	3d801fa2 	str	q2, [x29,#112]
    6858:	3d8023a3 	str	q3, [x29,#128]
    685c:	3d8027a4 	str	q4, [x29,#144]
    6860:	3d802ba5 	str	q5, [x29,#160]
    6864:	3d802fa6 	str	q6, [x29,#176]
    6868:	3d8033a7 	str	q7, [x29,#192]
    686c:	f9007fa7 	str	x7, [x29,#248]
/home/pwnz/devel/optee/optee_os/lib/libutils/isoc/snprintf.c:37
    6870:	9400004e 	bl	69a8 <__vsnprintf>
/home/pwnz/devel/optee/optee_os/lib/libutils/isoc/snprintf.c:41
    6874:	a8d07bfd 	ldp	x29, x30, [sp],#256
    6878:	d65f03c0 	ret

000000000000687c <vsnprintf>:
vsnprintf():
/home/pwnz/devel/optee/optee_os/lib/libutils/isoc/snprintf.c:44
    687c:	a9bb7bfd 	stp	x29, x30, [sp,#-80]!
    6880:	910003fd 	mov	x29, sp
    6884:	a90153f3 	stp	x19, x20, [sp,#16]
    6888:	aa0003f3 	mov	x19, x0
    688c:	f90013f5 	str	x21, [sp,#32]
    6890:	aa0103f4 	mov	x20, x1
    6894:	aa0203f5 	mov	x21, x2
/home/pwnz/devel/optee/optee_os/lib/libutils/isoc/snprintf.c:45
    6898:	aa0303e1 	mov	x1, x3
    689c:	9100c3a0 	add	x0, x29, #0x30
    68a0:	d2800402 	mov	x2, #0x20                  	// #32
    68a4:	94000018 	bl	6904 <memcpy>
    68a8:	aa0003e3 	mov	x3, x0
    68ac:	aa1503e2 	mov	x2, x21
    68b0:	aa1403e1 	mov	x1, x20
    68b4:	52800004 	mov	w4, #0x0                   	// #0
    68b8:	aa1303e0 	mov	x0, x19
    68bc:	9400003b 	bl	69a8 <__vsnprintf>
/home/pwnz/devel/optee/optee_os/lib/libutils/isoc/snprintf.c:46
    68c0:	f94013f5 	ldr	x21, [sp,#32]
    68c4:	a94153f3 	ldp	x19, x20, [sp,#16]
    68c8:	a8c57bfd 	ldp	x29, x30, [sp],#80
    68cc:	d65f03c0 	ret

00000000000068d0 <memcmp>:
memcmp():
/home/pwnz/devel/optee/optee_os/lib/libutils/isoc/newlib/memcmp.c:89
    68d0:	d2800004 	mov	x4, #0x0                   	// #0
    68d4:	eb04005f 	cmp	x2, x4
    68d8:	54000061 	b.ne	68e4 <memcmp+0x14>
/home/pwnz/devel/optee/optee_os/lib/libutils/isoc/newlib/memcmp.c:95
    68dc:	52800000 	mov	w0, #0x0                   	// #0
/home/pwnz/devel/optee/optee_os/lib/libutils/isoc/newlib/memcmp.c:135
    68e0:	d65f03c0 	ret
/home/pwnz/devel/optee/optee_os/lib/libutils/isoc/newlib/memcmp.c:90
    68e4:	38646803 	ldrb	w3, [x0,x4]
    68e8:	91000484 	add	x4, x4, #0x1
    68ec:	8b040025 	add	x5, x1, x4
    68f0:	385ff0a5 	ldurb	w5, [x5,#-1]
    68f4:	6b05007f 	cmp	w3, w5
    68f8:	54fffee0 	b.eq	68d4 <memcmp+0x4>
/home/pwnz/devel/optee/optee_os/lib/libutils/isoc/newlib/memcmp.c:91
    68fc:	4b050060 	sub	w0, w3, w5
    6900:	d65f03c0 	ret

0000000000006904 <memcpy>:
memcpy():
/home/pwnz/devel/optee/optee_os/lib/libutils/isoc/newlib/memcpy.c:93
    6904:	d2800003 	mov	x3, #0x0                   	// #0
    6908:	eb03005f 	cmp	x2, x3
    690c:	54000041 	b.ne	6914 <memcpy+0x10>
/home/pwnz/devel/optee/optee_os/lib/libutils/isoc/newlib/memcpy.c:134
    6910:	d65f03c0 	ret
/home/pwnz/devel/optee/optee_os/lib/libutils/isoc/newlib/memcpy.c:94
    6914:	38636824 	ldrb	w4, [x1,x3]
    6918:	38236804 	strb	w4, [x0,x3]
    691c:	91000463 	add	x3, x3, #0x1
    6920:	17fffffa 	b	6908 <memcpy+0x4>

0000000000006924 <memmove>:
memmove():
/home/pwnz/devel/optee/optee_os/lib/libutils/isoc/newlib/memmove.c:95
    6924:	eb01001f 	cmp	x0, x1
    6928:	54000089 	b.ls	6938 <memmove+0x14>
/home/pwnz/devel/optee/optee_os/lib/libutils/isoc/newlib/memmove.c:95 (discriminator 1)
    692c:	8b020023 	add	x3, x1, x2
    6930:	eb03001f 	cmp	x0, x3
    6934:	540000e3 	b.cc	6950 <memmove+0x2c>
    6938:	d2800003 	mov	x3, #0x0                   	// #0
/home/pwnz/devel/optee/optee_os/lib/libutils/isoc/newlib/memmove.c:102
    693c:	eb03005f 	cmp	x2, x3
    6940:	54000101 	b.ne	6960 <memmove+0x3c>
/home/pwnz/devel/optee/optee_os/lib/libutils/isoc/newlib/memmove.c:156
    6944:	d65f03c0 	ret
/home/pwnz/devel/optee/optee_os/lib/libutils/isoc/newlib/memmove.c:100
    6948:	38626823 	ldrb	w3, [x1,x2]
    694c:	38226803 	strb	w3, [x0,x2]
/home/pwnz/devel/optee/optee_os/lib/libutils/isoc/newlib/memmove.c:99
    6950:	d1000442 	sub	x2, x2, #0x1
    6954:	b100045f 	cmn	x2, #0x1
    6958:	54ffff81 	b.ne	6948 <memmove+0x24>
    695c:	d65f03c0 	ret
/home/pwnz/devel/optee/optee_os/lib/libutils/isoc/newlib/memmove.c:103
    6960:	38636824 	ldrb	w4, [x1,x3]
    6964:	38236804 	strb	w4, [x0,x3]
    6968:	91000463 	add	x3, x3, #0x1
    696c:	17fffff4 	b	693c <memmove+0x18>

0000000000006970 <memset>:
memset():
/home/pwnz/devel/optee/optee_os/lib/libutils/isoc/newlib/memset.c:124
    6970:	d2800003 	mov	x3, #0x0                   	// #0
    6974:	eb03005f 	cmp	x2, x3
    6978:	54000041 	b.ne	6980 <memset+0x10>
/home/pwnz/devel/optee/optee_os/lib/libutils/isoc/newlib/memset.c:128
    697c:	d65f03c0 	ret
/home/pwnz/devel/optee/optee_os/lib/libutils/isoc/newlib/memset.c:125
    6980:	38236801 	strb	w1, [x0,x3]
    6984:	91000463 	add	x3, x3, #0x1
    6988:	17fffffb 	b	6974 <memset+0x4>

000000000000698c <strlen>:
strlen():
/home/pwnz/devel/optee/optee_os/lib/libutils/isoc/newlib/strlen.c:116
    698c:	aa0003e1 	mov	x1, x0
    6990:	39400022 	ldrb	w2, [x1]
    6994:	35000062 	cbnz	w2, 69a0 <strlen+0x14>
/home/pwnz/devel/optee/optee_os/lib/libutils/isoc/newlib/strlen.c:119
    6998:	cb000020 	sub	x0, x1, x0
    699c:	d65f03c0 	ret
/home/pwnz/devel/optee/optee_os/lib/libutils/isoc/newlib/strlen.c:117
    69a0:	91000421 	add	x1, x1, #0x1
    69a4:	17fffffb 	b	6990 <strlen+0x4>

00000000000069a8 <__vsnprintf>:
__vsnprintf():
/home/pwnz/devel/optee/optee_os/lib/libutils/ext/snprintk.c:136
    69a8:	d103c3ff 	sub	sp, sp, #0xf0
    69ac:	a9037bfd 	stp	x29, x30, [sp,#48]
    69b0:	9100c3fd 	add	x29, sp, #0x30
    69b4:	a90803a1 	stp	x1, x0, [x29,#128]
    69b8:	12001c80 	and	w0, w4, #0xff
    69bc:	b9007fa0 	str	w0, [x29,#124]
/home/pwnz/devel/optee/optee_os/lib/libutils/ext/snprintk.c:140
    69c0:	f94047a0 	ldr	x0, [x29,#136]
/home/pwnz/devel/optee/optee_os/lib/libutils/ext/snprintk.c:136
    69c4:	a90453f3 	stp	x19, x20, [sp,#64]
    69c8:	a90873fb 	stp	x27, x28, [sp,#128]
kprintf():
/home/pwnz/devel/optee/optee_os/lib/libutils/ext/snprintk.c:266
    69cc:	5280001b 	mov	w27, #0x0                   	// #0
    69d0:	b9401874 	ldr	w20, [x3,#24]
    69d4:	a9407073 	ldp	x19, x28, [x3]
__vsnprintf():
/home/pwnz/devel/optee/optee_os/lib/libutils/ext/snprintk.c:136
    69d8:	a90663f7 	stp	x23, x24, [sp,#96]
    69dc:	a9076bf9 	stp	x25, x26, [sp,#112]
    69e0:	910263b8 	add	x24, x29, #0x98
    69e4:	a9055bf5 	stp	x21, x22, [sp,#80]
    69e8:	aa0203f9 	mov	x25, x2
/home/pwnz/devel/optee/optee_os/lib/libutils/ext/snprintk.c:140
    69ec:	8b01001a 	add	x26, x0, x1
    69f0:	aa0003f6 	mov	x22, x0
kprintf():
/home/pwnz/devel/optee/optee_os/lib/libutils/ext/snprintk.c:268
    69f4:	d2800017 	mov	x23, #0x0                   	// #0
/home/pwnz/devel/optee/optee_os/lib/libutils/ext/snprintk.c:274
    69f8:	39400320 	ldrb	w0, [x25]
    69fc:	7100941f 	cmp	w0, #0x25
    6a00:	7a401804 	ccmp	w0, #0x0, #0x4, ne
    6a04:	540003c1 	b.ne	6a7c <__vsnprintf+0xd4>
/home/pwnz/devel/optee/optee_os/lib/libutils/ext/snprintk.c:278
    6a08:	34005780 	cbz	w0, 74f8 <__vsnprintf+0xb50>
/home/pwnz/devel/optee/optee_os/lib/libutils/ext/snprintk.c:286
    6a0c:	12800004 	mov	w4, #0xffffffff            	// #-1
/home/pwnz/devel/optee/optee_os/lib/libutils/ext/snprintk.c:281
    6a10:	91000722 	add	x2, x25, #0x1
    6a14:	2a1403e0 	mov	w0, w20
/home/pwnz/devel/optee/optee_os/lib/libutils/ext/snprintk.c:323
    6a18:	2a0403e5 	mov	w5, w4
/home/pwnz/devel/optee/optee_os/lib/libutils/ext/snprintk.c:287
    6a1c:	52800001 	mov	w1, #0x0                   	// #0
/home/pwnz/devel/optee/optee_os/lib/libutils/ext/snprintk.c:285
    6a20:	5280000a 	mov	w10, #0x0                   	// #0
/home/pwnz/devel/optee/optee_os/lib/libutils/ext/snprintk.c:283
    6a24:	52800015 	mov	w21, #0x0                   	// #0
/home/pwnz/devel/optee/optee_os/lib/libutils/ext/snprintk.c:298
    6a28:	52800406 	mov	w6, #0x20                  	// #32
/home/pwnz/devel/optee/optee_os/lib/libutils/ext/snprintk.c:289
    6a2c:	39400048 	ldrb	w8, [x2]
    6a30:	91000459 	add	x25, x2, #0x1
/home/pwnz/devel/optee/optee_os/lib/libutils/ext/snprintk.c:290
    6a34:	71018d1f 	cmp	w8, #0x63
    6a38:	54001b80 	b.eq	6da8 <__vsnprintf+0x400>
    6a3c:	5400080c 	b.gt	6b3c <__vsnprintf+0x194>
    6a40:	7100c11f 	cmp	w8, #0x30
    6a44:	54001960 	b.eq	6d70 <__vsnprintf+0x3c8>
    6a48:	540003cc 	b.gt	6ac0 <__vsnprintf+0x118>
    6a4c:	7100a91f 	cmp	w8, #0x2a
    6a50:	540012c0 	b.eq	6ca8 <__vsnprintf+0x300>
    6a54:	5400024c 	b.gt	6a9c <__vsnprintf+0xf4>
    6a58:	7100811f 	cmp	w8, #0x20
    6a5c:	540011c0 	b.eq	6c94 <__vsnprintf+0x2ec>
    6a60:	71008d1f 	cmp	w8, #0x23
    6a64:	540011e0 	b.eq	6ca0 <__vsnprintf+0x2f8>
/home/pwnz/devel/optee/optee_os/lib/libutils/ext/snprintk.c:540
    6a68:	34005488 	cbz	w8, 74f8 <__vsnprintf+0xb50>
/home/pwnz/devel/optee/optee_os/lib/libutils/ext/snprintk.c:544
    6a6c:	910303a3 	add	x3, x29, #0xc0
    6a70:	2a0003f4 	mov	w20, w0
    6a74:	381d8c68 	strb	w8, [x3,#-40]!
    6a78:	140000d4 	b	6dc8 <__vsnprintf+0x420>
/home/pwnz/devel/optee/optee_os/lib/libutils/ext/snprintk.c:275
    6a7c:	1100077b 	add	w27, w27, #0x1
/home/pwnz/devel/optee/optee_os/lib/libutils/ext/snprintk.c:276
    6a80:	b40000b6 	cbz	x22, 6a94 <__vsnprintf+0xec>
    6a84:	eb16035f 	cmp	x26, x22
    6a88:	54000069 	b.ls	6a94 <__vsnprintf+0xec>
    6a8c:	390002c0 	strb	w0, [x22]
    6a90:	910006d6 	add	x22, x22, #0x1
/home/pwnz/devel/optee/optee_os/lib/libutils/ext/snprintk.c:274
    6a94:	91000739 	add	x25, x25, #0x1
    6a98:	17ffffd8 	b	69f8 <__vsnprintf+0x50>
/home/pwnz/devel/optee/optee_os/lib/libutils/ext/snprintk.c:290
    6a9c:	7100b51f 	cmp	w8, #0x2d
    6aa0:	54001120 	b.eq	6cc4 <__vsnprintf+0x31c>
    6aa4:	7100b91f 	cmp	w8, #0x2e
    6aa8:	54001280 	b.eq	6cf8 <__vsnprintf+0x350>
    6aac:	7100ad1f 	cmp	w8, #0x2b
    6ab0:	54fffdc1 	b.ne	6a68 <__vsnprintf+0xc0>
/home/pwnz/devel/optee/optee_os/lib/libutils/ext/snprintk.c:318
    6ab4:	2a0803e1 	mov	w1, w8
/home/pwnz/devel/optee/optee_os/lib/libutils/ext/snprintk.c:321
    6ab8:	aa1903e2 	mov	x2, x25
    6abc:	17ffffdc 	b	6a2c <__vsnprintf+0x84>
/home/pwnz/devel/optee/optee_os/lib/libutils/ext/snprintk.c:290
    6ac0:	7101111f 	cmp	w8, #0x44
    6ac4:	54001920 	b.eq	6de8 <__vsnprintf+0x440>
    6ac8:	5400018c 	b.gt	6af8 <__vsnprintf+0x150>
    6acc:	7100e51f 	cmp	w8, #0x39
    6ad0:	54fffccc 	b.gt	6a68 <__vsnprintf+0xc0>
    6ad4:	5280000a 	mov	w10, #0x0                   	// #0
/home/pwnz/devel/optee/optee_os/lib/libutils/ext/snprintk.c:345
    6ad8:	5100c108 	sub	w8, w8, #0x30
    6adc:	52800142 	mov	w2, #0xa                   	// #10
    6ae0:	1b02214a 	madd	w10, w10, w2, w8
/home/pwnz/devel/optee/optee_os/lib/libutils/ext/snprintk.c:346
    6ae4:	38401728 	ldrb	w8, [x25],#1
/home/pwnz/devel/optee/optee_os/lib/libutils/ext/snprintk.c:347
    6ae8:	5100c102 	sub	w2, w8, #0x30
    6aec:	7100245f 	cmp	w2, #0x9
    6af0:	54ffff49 	b.ls	6ad8 <__vsnprintf+0x130>
    6af4:	17ffffd0 	b	6a34 <__vsnprintf+0x8c>
/home/pwnz/devel/optee/optee_os/lib/libutils/ext/snprintk.c:290
    6af8:	7101551f 	cmp	w8, #0x55
    6afc:	54003c40 	b.eq	7284 <__vsnprintf+0x8dc>
    6b00:	7101611f 	cmp	w8, #0x58
    6b04:	54000ac0 	b.eq	6c5c <__vsnprintf+0x2b4>
    6b08:	71013d1f 	cmp	w8, #0x4f
    6b0c:	54fffae1 	b.ne	6a68 <__vsnprintf+0xc0>
/home/pwnz/devel/optee/optee_os/lib/libutils/ext/snprintk.c:407
    6b10:	321c02b5 	orr	w21, w21, #0x10
/home/pwnz/devel/optee/optee_os/lib/libutils/ext/snprintk.c:410
    6b14:	36382695 	tbz	w21, #7, 6fe4 <__vsnprintf+0x63c>
    6b18:	37f827e0 	tbnz	w0, #31, 7014 <__vsnprintf+0x66c>
    6b1c:	91003e61 	add	x1, x19, #0xf
    6b20:	2a0003f4 	mov	w20, w0
    6b24:	aa1303e0 	mov	x0, x19
    6b28:	927df033 	and	x19, x1, #0xfffffffffffffff8
    6b2c:	f9400005 	ldr	x5, [x0]
/home/pwnz/devel/optee/optee_os/lib/libutils/ext/snprintk.c:411
    6b30:	52800000 	mov	w0, #0x0                   	// #0
/home/pwnz/devel/optee/optee_os/lib/libutils/ext/snprintk.c:481
    6b34:	52800001 	mov	w1, #0x0                   	// #0
    6b38:	140000b8 	b	6e18 <__vsnprintf+0x470>
/home/pwnz/devel/optee/optee_os/lib/libutils/ext/snprintk.c:290
    6b3c:	7101bd1f 	cmp	w8, #0x6f
    6b40:	54fffea0 	b.eq	6b14 <__vsnprintf+0x16c>
    6b44:	5400024c 	b.gt	6b8c <__vsnprintf+0x1e4>
    6b48:	7101a51f 	cmp	w8, #0x69
    6b4c:	54001500 	b.eq	6dec <__vsnprintf+0x444>
    6b50:	540000ec 	b.gt	6b6c <__vsnprintf+0x1c4>
    6b54:	7101911f 	cmp	w8, #0x64
    6b58:	540014a0 	b.eq	6dec <__vsnprintf+0x444>
    6b5c:	7101a11f 	cmp	w8, #0x68
    6b60:	54fff841 	b.ne	6a68 <__vsnprintf+0xc0>
/home/pwnz/devel/optee/optee_os/lib/libutils/ext/snprintk.c:351
    6b64:	321a02b5 	orr	w21, w21, #0x40
    6b68:	17ffffd4 	b	6ab8 <__vsnprintf+0x110>
/home/pwnz/devel/optee/optee_os/lib/libutils/ext/snprintk.c:290
    6b6c:	7101b11f 	cmp	w8, #0x6c
    6b70:	54001040 	b.eq	6d78 <__vsnprintf+0x3d0>
    6b74:	7101b91f 	cmp	w8, #0x6e
    6b78:	54001d40 	b.eq	6f20 <__vsnprintf+0x578>
    6b7c:	7101a91f 	cmp	w8, #0x6a
    6b80:	54fff741 	b.ne	6a68 <__vsnprintf+0xc0>
/home/pwnz/devel/optee/optee_os/lib/libutils/ext/snprintk.c:354
    6b84:	321902b5 	orr	w21, w21, #0x80
    6b88:	17ffffcc 	b	6ab8 <__vsnprintf+0x110>
/home/pwnz/devel/optee/optee_os/lib/libutils/ext/snprintk.c:290
    6b8c:	7101d11f 	cmp	w8, #0x74
    6b90:	54001040 	b.eq	6d98 <__vsnprintf+0x3f0>
    6b94:	5400046c 	b.gt	6c20 <__vsnprintf+0x278>
    6b98:	7101c51f 	cmp	w8, #0x71
    6b9c:	54000f60 	b.eq	6d88 <__vsnprintf+0x3e0>
    6ba0:	540026cb 	b.lt	7078 <__vsnprintf+0x6d0>
    6ba4:	7101cd1f 	cmp	w8, #0x73
    6ba8:	54fff601 	b.ne	6a68 <__vsnprintf+0xc0>
/home/pwnz/devel/optee/optee_os/lib/libutils/ext/snprintk.c:441
    6bac:	37f83480 	tbnz	w0, #31, 723c <__vsnprintf+0x894>
    6bb0:	91003e61 	add	x1, x19, #0xf
    6bb4:	2a0003f4 	mov	w20, w0
    6bb8:	aa1303e0 	mov	x0, x19
    6bbc:	927df033 	and	x19, x1, #0xfffffffffffffff8
    6bc0:	f9400003 	ldr	x3, [x0]
/home/pwnz/devel/optee/optee_os/lib/libutils/ext/snprintk.c:443
    6bc4:	f0000020 	adrp	x0, d000 <__func__.3637+0xa28>
    6bc8:	910b7000 	add	x0, x0, #0x2dc
    6bcc:	f100007f 	cmp	x3, #0x0
    6bd0:	9a830003 	csel	x3, x0, x3, eq
/home/pwnz/devel/optee/optee_os/lib/libutils/ext/snprintk.c:444
    6bd4:	3100049f 	cmn	w4, #0x1
    6bd8:	540033e0 	b.eq	7254 <__vsnprintf+0x8ac>
/home/pwnz/devel/optee/optee_os/lib/libutils/ext/snprintk.c:450
    6bdc:	93407c82 	sxtw	x2, w4
    6be0:	aa0303e0 	mov	x0, x3
    6be4:	290d2ba8 	stp	w8, w10, [x29,#104]
    6be8:	52800001 	mov	w1, #0x0                   	// #0
    6bec:	f9003ba3 	str	x3, [x29,#112]
    6bf0:	b9007ba4 	str	w4, [x29,#120]
    6bf4:	94000332 	bl	78bc <memchr>
/home/pwnz/devel/optee/optee_os/lib/libutils/ext/snprintk.c:452
    6bf8:	294d2ba8 	ldp	w8, w10, [x29,#104]
    6bfc:	b9407ba4 	ldr	w4, [x29,#120]
    6c00:	f9403ba3 	ldr	x3, [x29,#112]
    6c04:	b4000080 	cbz	x0, 6c14 <__vsnprintf+0x26c>
/home/pwnz/devel/optee/optee_os/lib/libutils/ext/snprintk.c:453
    6c08:	cb030000 	sub	x0, x0, x3
    6c0c:	6b00009f 	cmp	w4, w0
    6c10:	1a80d084 	csel	w4, w4, w0, le
/home/pwnz/devel/optee/optee_os/lib/libutils/ext/snprintk.c:284
    6c14:	52800000 	mov	w0, #0x0                   	// #0
/home/pwnz/devel/optee/optee_os/lib/libutils/ext/snprintk.c:460
    6c18:	52800001 	mov	w1, #0x0                   	// #0
    6c1c:	14000144 	b	712c <__vsnprintf+0x784>
/home/pwnz/devel/optee/optee_os/lib/libutils/ext/snprintk.c:290
    6c20:	7101e11f 	cmp	w8, #0x78
    6c24:	540037e0 	b.eq	7320 <__vsnprintf+0x978>
    6c28:	7101e91f 	cmp	w8, #0x7a
    6c2c:	54000ba0 	b.eq	6da0 <__vsnprintf+0x3f8>
    6c30:	7101d51f 	cmp	w8, #0x75
    6c34:	54fff1a1 	b.ne	6a68 <__vsnprintf+0xc0>
/home/pwnz/devel/optee/optee_os/lib/libutils/ext/snprintk.c:466
    6c38:	363832b5 	tbz	w21, #7, 728c <__vsnprintf+0x8e4>
    6c3c:	37f83400 	tbnz	w0, #31, 72bc <__vsnprintf+0x914>
    6c40:	91003e61 	add	x1, x19, #0xf
    6c44:	2a0003f4 	mov	w20, w0
    6c48:	aa1303e0 	mov	x0, x19
    6c4c:	927df033 	and	x19, x1, #0xfffffffffffffff8
    6c50:	f9400005 	ldr	x5, [x0]
/home/pwnz/devel/optee/optee_os/lib/libutils/ext/snprintk.c:467
    6c54:	52800020 	mov	w0, #0x1                   	// #1
    6c58:	17ffffb7 	b	6b34 <__vsnprintf+0x18c>
/home/pwnz/devel/optee/optee_os/lib/libutils/ext/snprintk.c:470
    6c5c:	b0000037 	adrp	x23, b000 <mpa_get_str+0x20>
    6c60:	912002f7 	add	x23, x23, #0x800
/home/pwnz/devel/optee/optee_os/lib/libutils/ext/snprintk.c:474
    6c64:	36383675 	tbz	w21, #7, 7330 <__vsnprintf+0x988>
    6c68:	37f837c0 	tbnz	w0, #31, 7360 <__vsnprintf+0x9b8>
    6c6c:	91003e61 	add	x1, x19, #0xf
    6c70:	2a0003f4 	mov	w20, w0
    6c74:	aa1303e0 	mov	x0, x19
    6c78:	927df033 	and	x19, x1, #0xfffffffffffffff8
    6c7c:	f9400005 	ldr	x5, [x0]
/home/pwnz/devel/optee/optee_os/lib/libutils/ext/snprintk.c:477
    6c80:	36000075 	tbz	w21, #0, 6c8c <__vsnprintf+0x2e4>
    6c84:	b4000045 	cbz	x5, 6c8c <__vsnprintf+0x2e4>
/home/pwnz/devel/optee/optee_os/lib/libutils/ext/snprintk.c:478
    6c88:	321f02b5 	orr	w21, w21, #0x2
/home/pwnz/devel/optee/optee_os/lib/libutils/ext/snprintk.c:475
    6c8c:	52800040 	mov	w0, #0x2                   	// #2
    6c90:	17ffffa9 	b	6b34 <__vsnprintf+0x18c>
/home/pwnz/devel/optee/optee_os/lib/libutils/ext/snprintk.c:298
    6c94:	7100003f 	cmp	w1, #0x0
    6c98:	1a861021 	csel	w1, w1, w6, ne
    6c9c:	17ffff87 	b	6ab8 <__vsnprintf+0x110>
/home/pwnz/devel/optee/optee_os/lib/libutils/ext/snprintk.c:301
    6ca0:	320002b5 	orr	w21, w21, #0x1
    6ca4:	17ffff85 	b	6ab8 <__vsnprintf+0x110>
/home/pwnz/devel/optee/optee_os/lib/libutils/ext/snprintk.c:310
    6ca8:	37f80120 	tbnz	w0, #31, 6ccc <__vsnprintf+0x324>
    6cac:	91002e63 	add	x3, x19, #0xb
    6cb0:	aa1303e2 	mov	x2, x19
    6cb4:	927df073 	and	x19, x3, #0xfffffffffffffff8
    6cb8:	b940004a 	ldr	w10, [x2]
    6cbc:	36ffefea 	tbz	w10, #31, 6ab8 <__vsnprintf+0x110>
/home/pwnz/devel/optee/optee_os/lib/libutils/ext/snprintk.c:312
    6cc0:	4b0a03ea 	neg	w10, w10
/home/pwnz/devel/optee/optee_os/lib/libutils/ext/snprintk.c:315
    6cc4:	321e02b5 	orr	w21, w21, #0x4
    6cc8:	17ffff7c 	b	6ab8 <__vsnprintf+0x110>
/home/pwnz/devel/optee/optee_os/lib/libutils/ext/snprintk.c:310
    6ccc:	11002003 	add	w3, w0, #0x8
    6cd0:	7100007f 	cmp	w3, #0x0
    6cd4:	540000cd 	b.le	6cec <__vsnprintf+0x344>
    6cd8:	91002e67 	add	x7, x19, #0xb
    6cdc:	aa1303e2 	mov	x2, x19
    6ce0:	2a0303e0 	mov	w0, w3
    6ce4:	927df0f3 	and	x19, x7, #0xfffffffffffffff8
    6ce8:	17fffff4 	b	6cb8 <__vsnprintf+0x310>
    6cec:	8b20c382 	add	x2, x28, w0, sxtw
    6cf0:	2a0303e0 	mov	w0, w3
    6cf4:	17fffff1 	b	6cb8 <__vsnprintf+0x310>
/home/pwnz/devel/optee/optee_os/lib/libutils/ext/snprintk.c:321
    6cf8:	39400328 	ldrb	w8, [x25]
    6cfc:	91000723 	add	x3, x25, #0x1
    6d00:	7100a91f 	cmp	w8, #0x2a
    6d04:	54000140 	b.eq	6d2c <__vsnprintf+0x384>
    6d08:	aa0303f9 	mov	x25, x3
    6d0c:	52800004 	mov	w4, #0x0                   	// #0
/home/pwnz/devel/optee/optee_os/lib/libutils/ext/snprintk.c:327
    6d10:	5100c102 	sub	w2, w8, #0x30
    6d14:	7100245f 	cmp	w2, #0x9
    6d18:	54ffe8e8 	b.hi	6a34 <__vsnprintf+0x8c>
/home/pwnz/devel/optee/optee_os/lib/libutils/ext/snprintk.c:328
    6d1c:	52800143 	mov	w3, #0xa                   	// #10
/home/pwnz/devel/optee/optee_os/lib/libutils/ext/snprintk.c:329
    6d20:	38401728 	ldrb	w8, [x25],#1
/home/pwnz/devel/optee/optee_os/lib/libutils/ext/snprintk.c:328
    6d24:	1b030884 	madd	w4, w4, w3, w2
    6d28:	17fffffa 	b	6d10 <__vsnprintf+0x368>
/home/pwnz/devel/optee/optee_os/lib/libutils/ext/snprintk.c:322
    6d2c:	37f80160 	tbnz	w0, #31, 6d58 <__vsnprintf+0x3b0>
    6d30:	91002e64 	add	x4, x19, #0xb
    6d34:	2a0003e2 	mov	w2, w0
    6d38:	aa1303e0 	mov	x0, x19
    6d3c:	927df093 	and	x19, x4, #0xfffffffffffffff8
/home/pwnz/devel/optee/optee_os/lib/libutils/ext/snprintk.c:323
    6d40:	b9400004 	ldr	w4, [x0]
/home/pwnz/devel/optee/optee_os/lib/libutils/ext/snprintk.c:321
    6d44:	aa0303f9 	mov	x25, x3
/home/pwnz/devel/optee/optee_os/lib/libutils/ext/snprintk.c:323
    6d48:	2a0203e0 	mov	w0, w2
    6d4c:	7100009f 	cmp	w4, #0x0
    6d50:	1a85a084 	csel	w4, w4, w5, ge
    6d54:	17ffff59 	b	6ab8 <__vsnprintf+0x110>
/home/pwnz/devel/optee/optee_os/lib/libutils/ext/snprintk.c:322
    6d58:	11002002 	add	w2, w0, #0x8
    6d5c:	8b20c380 	add	x0, x28, w0, sxtw
    6d60:	7100005f 	cmp	w2, #0x0
    6d64:	54fffeed 	b.le	6d40 <__vsnprintf+0x398>
    6d68:	91002e64 	add	x4, x19, #0xb
    6d6c:	17fffff3 	b	6d38 <__vsnprintf+0x390>
/home/pwnz/devel/optee/optee_os/lib/libutils/ext/snprintk.c:339
    6d70:	321602b5 	orr	w21, w21, #0x400
    6d74:	17ffff51 	b	6ab8 <__vsnprintf+0x110>
/home/pwnz/devel/optee/optee_os/lib/libutils/ext/snprintk.c:357
    6d78:	39400322 	ldrb	w2, [x25]
    6d7c:	7101b05f 	cmp	w2, #0x6c
    6d80:	54000081 	b.ne	6d90 <__vsnprintf+0x3e8>
/home/pwnz/devel/optee/optee_os/lib/libutils/ext/snprintk.c:358
    6d84:	91000739 	add	x25, x25, #0x1
/home/pwnz/devel/optee/optee_os/lib/libutils/ext/snprintk.c:365
    6d88:	321b02b5 	orr	w21, w21, #0x20
    6d8c:	17ffff4b 	b	6ab8 <__vsnprintf+0x110>
/home/pwnz/devel/optee/optee_os/lib/libutils/ext/snprintk.c:361
    6d90:	321c02b5 	orr	w21, w21, #0x10
    6d94:	17ffff49 	b	6ab8 <__vsnprintf+0x110>
/home/pwnz/devel/optee/optee_os/lib/libutils/ext/snprintk.c:368
    6d98:	321802b5 	orr	w21, w21, #0x100
    6d9c:	17ffff47 	b	6ab8 <__vsnprintf+0x110>
/home/pwnz/devel/optee/optee_os/lib/libutils/ext/snprintk.c:371
    6da0:	321702b5 	orr	w21, w21, #0x200
    6da4:	17ffff45 	b	6ab8 <__vsnprintf+0x110>
/home/pwnz/devel/optee/optee_os/lib/libutils/ext/snprintk.c:374
    6da8:	37f80140 	tbnz	w0, #31, 6dd0 <__vsnprintf+0x428>
    6dac:	91002e61 	add	x1, x19, #0xb
    6db0:	2a0003f4 	mov	w20, w0
    6db4:	aa1303e0 	mov	x0, x19
    6db8:	927df033 	and	x19, x1, #0xfffffffffffffff8
    6dbc:	910303a3 	add	x3, x29, #0xc0
    6dc0:	b9400000 	ldr	w0, [x0]
    6dc4:	381d8c60 	strb	w0, [x3,#-40]!
/home/pwnz/devel/optee/optee_os/lib/libutils/ext/snprintk.c:545
    6dc8:	52800024 	mov	w4, #0x1                   	// #1
    6dcc:	17ffff92 	b	6c14 <__vsnprintf+0x26c>
/home/pwnz/devel/optee/optee_os/lib/libutils/ext/snprintk.c:374
    6dd0:	11002014 	add	w20, w0, #0x8
    6dd4:	8b20c380 	add	x0, x28, w0, sxtw
    6dd8:	7100029f 	cmp	w20, #0x0
    6ddc:	54ffff0d 	b.le	6dbc <__vsnprintf+0x414>
    6de0:	91002e61 	add	x1, x19, #0xb
    6de4:	17fffff4 	b	6db4 <__vsnprintf+0x40c>
/home/pwnz/devel/optee/optee_os/lib/libutils/ext/snprintk.c:379
    6de8:	321c02b5 	orr	w21, w21, #0x10
/home/pwnz/devel/optee/optee_os/lib/libutils/ext/snprintk.c:383
    6dec:	36380515 	tbz	w21, #7, 6e8c <__vsnprintf+0x4e4>
    6df0:	37f80660 	tbnz	w0, #31, 6ebc <__vsnprintf+0x514>
    6df4:	91003e62 	add	x2, x19, #0xf
    6df8:	2a0003f4 	mov	w20, w0
    6dfc:	aa1303e0 	mov	x0, x19
    6e00:	927df053 	and	x19, x2, #0xfffffffffffffff8
    6e04:	f9400005 	ldr	x5, [x0]
/home/pwnz/devel/optee/optee_os/lib/libutils/ext/snprintk.c:388
    6e08:	52800020 	mov	w0, #0x1                   	// #1
/home/pwnz/devel/optee/optee_os/lib/libutils/ext/snprintk.c:384
    6e0c:	b6f80065 	tbz	x5, #63, 6e18 <__vsnprintf+0x470>
/home/pwnz/devel/optee/optee_os/lib/libutils/ext/snprintk.c:385
    6e10:	cb0503e5 	neg	x5, x5
/home/pwnz/devel/optee/optee_os/lib/libutils/ext/snprintk.c:386
    6e14:	528005a1 	mov	w1, #0x2d                  	// #45
/home/pwnz/devel/optee/optee_os/lib/libutils/ext/snprintk.c:488
    6e18:	3100049f 	cmn	w4, #0x1
    6e1c:	12157aa2 	and	w2, w21, #0xfffffbff
    6e20:	1a951055 	csel	w21, w2, w21, ne
/home/pwnz/devel/optee/optee_os/lib/libutils/ext/snprintk.c:496
    6e24:	f10000bf 	cmp	x5, #0x0
    6e28:	7a400880 	ccmp	w4, #0x0, #0x0, eq
/home/pwnz/devel/optee/optee_os/lib/libutils/ext/snprintk.c:495
    6e2c:	91009703 	add	x3, x24, #0x25
/home/pwnz/devel/optee/optee_os/lib/libutils/ext/snprintk.c:496
    6e30:	54000260 	b.eq	6e7c <__vsnprintf+0x4d4>
/home/pwnz/devel/optee/optee_os/lib/libutils/ext/snprintk.c:502
    6e34:	7100041f 	cmp	w0, #0x1
    6e38:	54002c60 	b.eq	73c4 <__vsnprintf+0xa1c>
    6e3c:	7100081f 	cmp	w0, #0x2
    6e40:	54002e40 	b.eq	7408 <__vsnprintf+0xa60>
    6e44:	91009700 	add	x0, x24, #0x25
/home/pwnz/devel/optee/optee_os/lib/libutils/ext/snprintk.c:505
    6e48:	120008a2 	and	w2, w5, #0x7
    6e4c:	d1000403 	sub	x3, x0, #0x1
    6e50:	1100c042 	add	w2, w2, #0x30
    6e54:	381ff002 	sturb	w2, [x0,#-1]
/home/pwnz/devel/optee/optee_os/lib/libutils/ext/snprintk.c:506
    6e58:	d343fca5 	lsr	x5, x5, #3
/home/pwnz/devel/optee/optee_os/lib/libutils/ext/snprintk.c:507
    6e5c:	b5002c45 	cbnz	x5, 73e4 <__vsnprintf+0xa3c>
/home/pwnz/devel/optee/optee_os/lib/libutils/ext/snprintk.c:509
    6e60:	7100c05f 	cmp	w2, #0x30
    6e64:	1a9f07e2 	cset	w2, ne
    6e68:	6a0202bf 	tst	w21, w2
    6e6c:	54000080 	b.eq	6e7c <__vsnprintf+0x4d4>
/home/pwnz/devel/optee/optee_os/lib/libutils/ext/snprintk.c:510
    6e70:	52800602 	mov	w2, #0x30                  	// #48
    6e74:	381ff062 	sturb	w2, [x3,#-1]
    6e78:	d1000803 	sub	x3, x0, #0x2
/home/pwnz/devel/optee/optee_os/lib/libutils/ext/snprintk.c:536
    6e7c:	91009702 	add	x2, x24, #0x25
    6e80:	2a0403e0 	mov	w0, w4
    6e84:	4b030044 	sub	w4, w2, w3
    6e88:	140000a9 	b	712c <__vsnprintf+0x784>
/home/pwnz/devel/optee/optee_os/lib/libutils/ext/snprintk.c:383
    6e8c:	3747fb35 	tbnz	w21, #8, 6df0 <__vsnprintf+0x448>
    6e90:	374ffb15 	tbnz	w21, #9, 6df0 <__vsnprintf+0x448>
    6e94:	372ffaf5 	tbnz	w21, #5, 6df0 <__vsnprintf+0x448>
    6e98:	3727fad5 	tbnz	w21, #4, 6df0 <__vsnprintf+0x448>
    6e9c:	36300295 	tbz	w21, #6, 6eec <__vsnprintf+0x544>
    6ea0:	37f801a0 	tbnz	w0, #31, 6ed4 <__vsnprintf+0x52c>
    6ea4:	91002e62 	add	x2, x19, #0xb
    6ea8:	2a0003f4 	mov	w20, w0
    6eac:	aa1303e0 	mov	x0, x19
    6eb0:	927df053 	and	x19, x2, #0xfffffffffffffff8
    6eb4:	79800005 	ldrsh	x5, [x0]
    6eb8:	17ffffd4 	b	6e08 <__vsnprintf+0x460>
    6ebc:	11002014 	add	w20, w0, #0x8
    6ec0:	8b20c380 	add	x0, x28, w0, sxtw
    6ec4:	7100029f 	cmp	w20, #0x0
    6ec8:	54fff9ed 	b.le	6e04 <__vsnprintf+0x45c>
    6ecc:	91003e62 	add	x2, x19, #0xf
    6ed0:	17ffffcb 	b	6dfc <__vsnprintf+0x454>
    6ed4:	11002014 	add	w20, w0, #0x8
    6ed8:	8b20c380 	add	x0, x28, w0, sxtw
    6edc:	7100029f 	cmp	w20, #0x0
    6ee0:	54fffead 	b.le	6eb4 <__vsnprintf+0x50c>
    6ee4:	91002e62 	add	x2, x19, #0xb
    6ee8:	17fffff1 	b	6eac <__vsnprintf+0x504>
    6eec:	37f800e0 	tbnz	w0, #31, 6f08 <__vsnprintf+0x560>
    6ef0:	91002e62 	add	x2, x19, #0xb
    6ef4:	2a0003f4 	mov	w20, w0
    6ef8:	aa1303e0 	mov	x0, x19
    6efc:	927df053 	and	x19, x2, #0xfffffffffffffff8
    6f00:	b9800005 	ldrsw	x5, [x0]
    6f04:	17ffffc1 	b	6e08 <__vsnprintf+0x460>
    6f08:	11002014 	add	w20, w0, #0x8
    6f0c:	8b20c380 	add	x0, x28, w0, sxtw
    6f10:	7100029f 	cmp	w20, #0x0
    6f14:	54ffff6d 	b.le	6f00 <__vsnprintf+0x558>
    6f18:	91002e62 	add	x2, x19, #0xb
    6f1c:	17fffff7 	b	6ef8 <__vsnprintf+0x550>
/home/pwnz/devel/optee/optee_os/lib/libutils/ext/snprintk.c:391
    6f20:	36380155 	tbz	w21, #7, 6f48 <__vsnprintf+0x5a0>
/home/pwnz/devel/optee/optee_os/lib/libutils/ext/snprintk.c:400
    6f24:	37f802c0 	tbnz	w0, #31, 6f7c <__vsnprintf+0x5d4>
    6f28:	91003e61 	add	x1, x19, #0xf
    6f2c:	2a0003f4 	mov	w20, w0
    6f30:	aa1303e0 	mov	x0, x19
    6f34:	927df033 	and	x19, x1, #0xfffffffffffffff8
    6f38:	f9400000 	ldr	x0, [x0]
    6f3c:	93407f61 	sxtw	x1, w27
    6f40:	f9000001 	str	x1, [x0]
    6f44:	17fffead 	b	69f8 <__vsnprintf+0x50>
/home/pwnz/devel/optee/optee_os/lib/libutils/ext/snprintk.c:393
    6f48:	3747fef5 	tbnz	w21, #8, 6f24 <__vsnprintf+0x57c>
/home/pwnz/devel/optee/optee_os/lib/libutils/ext/snprintk.c:395
    6f4c:	374ffed5 	tbnz	w21, #9, 6f24 <__vsnprintf+0x57c>
/home/pwnz/devel/optee/optee_os/lib/libutils/ext/snprintk.c:397
    6f50:	372ffeb5 	tbnz	w21, #5, 6f24 <__vsnprintf+0x57c>
/home/pwnz/devel/optee/optee_os/lib/libutils/ext/snprintk.c:399
    6f54:	3727fe95 	tbnz	w21, #4, 6f24 <__vsnprintf+0x57c>
/home/pwnz/devel/optee/optee_os/lib/libutils/ext/snprintk.c:401
    6f58:	363002b5 	tbz	w21, #6, 6fac <__vsnprintf+0x604>
/home/pwnz/devel/optee/optee_os/lib/libutils/ext/snprintk.c:402
    6f5c:	37f801c0 	tbnz	w0, #31, 6f94 <__vsnprintf+0x5ec>
    6f60:	91003e61 	add	x1, x19, #0xf
    6f64:	2a0003f4 	mov	w20, w0
    6f68:	aa1303e0 	mov	x0, x19
    6f6c:	927df033 	and	x19, x1, #0xfffffffffffffff8
    6f70:	f9400000 	ldr	x0, [x0]
    6f74:	7900001b 	strh	w27, [x0]
    6f78:	17fffea0 	b	69f8 <__vsnprintf+0x50>
/home/pwnz/devel/optee/optee_os/lib/libutils/ext/snprintk.c:400
    6f7c:	11002014 	add	w20, w0, #0x8
    6f80:	8b20c380 	add	x0, x28, w0, sxtw
    6f84:	7100029f 	cmp	w20, #0x0
    6f88:	54fffd8d 	b.le	6f38 <__vsnprintf+0x590>
    6f8c:	91003e61 	add	x1, x19, #0xf
    6f90:	17ffffe8 	b	6f30 <__vsnprintf+0x588>
/home/pwnz/devel/optee/optee_os/lib/libutils/ext/snprintk.c:402
    6f94:	11002014 	add	w20, w0, #0x8
    6f98:	8b20c380 	add	x0, x28, w0, sxtw
    6f9c:	7100029f 	cmp	w20, #0x0
    6fa0:	54fffe8d 	b.le	6f70 <__vsnprintf+0x5c8>
    6fa4:	91003e61 	add	x1, x19, #0xf
    6fa8:	17fffff0 	b	6f68 <__vsnprintf+0x5c0>
/home/pwnz/devel/optee/optee_os/lib/libutils/ext/snprintk.c:404
    6fac:	37f80100 	tbnz	w0, #31, 6fcc <__vsnprintf+0x624>
    6fb0:	91003e61 	add	x1, x19, #0xf
    6fb4:	2a0003f4 	mov	w20, w0
    6fb8:	aa1303e0 	mov	x0, x19
    6fbc:	927df033 	and	x19, x1, #0xfffffffffffffff8
    6fc0:	f9400000 	ldr	x0, [x0]
    6fc4:	b900001b 	str	w27, [x0]
    6fc8:	17fffe8c 	b	69f8 <__vsnprintf+0x50>
    6fcc:	11002014 	add	w20, w0, #0x8
    6fd0:	8b20c380 	add	x0, x28, w0, sxtw
    6fd4:	7100029f 	cmp	w20, #0x0
    6fd8:	54ffff4d 	b.le	6fc0 <__vsnprintf+0x618>
    6fdc:	91003e61 	add	x1, x19, #0xf
    6fe0:	17fffff6 	b	6fb8 <__vsnprintf+0x610>
/home/pwnz/devel/optee/optee_os/lib/libutils/ext/snprintk.c:410
    6fe4:	3747d9b5 	tbnz	w21, #8, 6b18 <__vsnprintf+0x170>
    6fe8:	374fd995 	tbnz	w21, #9, 6b18 <__vsnprintf+0x170>
    6fec:	372fd975 	tbnz	w21, #5, 6b18 <__vsnprintf+0x170>
    6ff0:	3727d955 	tbnz	w21, #4, 6b18 <__vsnprintf+0x170>
    6ff4:	36300295 	tbz	w21, #6, 7044 <__vsnprintf+0x69c>
    6ff8:	37f801a0 	tbnz	w0, #31, 702c <__vsnprintf+0x684>
    6ffc:	91002e61 	add	x1, x19, #0xb
    7000:	2a0003f4 	mov	w20, w0
    7004:	aa1303e0 	mov	x0, x19
    7008:	927df033 	and	x19, x1, #0xfffffffffffffff8
    700c:	79400005 	ldrh	w5, [x0]
    7010:	17fffec8 	b	6b30 <__vsnprintf+0x188>
    7014:	11002014 	add	w20, w0, #0x8
    7018:	8b20c380 	add	x0, x28, w0, sxtw
    701c:	7100029f 	cmp	w20, #0x0
    7020:	54ffd86d 	b.le	6b2c <__vsnprintf+0x184>
    7024:	91003e61 	add	x1, x19, #0xf
    7028:	17fffebf 	b	6b24 <__vsnprintf+0x17c>
    702c:	11002014 	add	w20, w0, #0x8
    7030:	8b20c380 	add	x0, x28, w0, sxtw
    7034:	7100029f 	cmp	w20, #0x0
    7038:	54fffead 	b.le	700c <__vsnprintf+0x664>
    703c:	91002e61 	add	x1, x19, #0xb
    7040:	17fffff1 	b	7004 <__vsnprintf+0x65c>
    7044:	37f800e0 	tbnz	w0, #31, 7060 <__vsnprintf+0x6b8>
    7048:	91002e61 	add	x1, x19, #0xb
    704c:	2a0003f4 	mov	w20, w0
    7050:	aa1303e0 	mov	x0, x19
    7054:	927df033 	and	x19, x1, #0xfffffffffffffff8
    7058:	b9400005 	ldr	w5, [x0]
    705c:	17fffeb5 	b	6b30 <__vsnprintf+0x188>
    7060:	11002014 	add	w20, w0, #0x8
    7064:	8b20c380 	add	x0, x28, w0, sxtw
    7068:	7100029f 	cmp	w20, #0x0
    706c:	54ffff6d 	b.le	7058 <__vsnprintf+0x6b0>
    7070:	91002e61 	add	x1, x19, #0xb
    7074:	17fffff7 	b	7050 <__vsnprintf+0x6a8>
/home/pwnz/devel/optee/optee_os/lib/libutils/ext/snprintk.c:414
    7078:	b9407fa1 	ldr	w1, [x29,#124]
    707c:	34000b81 	cbz	w1, 71ec <__vsnprintf+0x844>
    7080:	39400321 	ldrb	w1, [x25]
    7084:	7101543f 	cmp	w1, #0x55
    7088:	54000b21 	b.ne	71ec <__vsnprintf+0x844>
    708c:	39400721 	ldrb	w1, [x25,#1]
    7090:	7101b03f 	cmp	w1, #0x6c
    7094:	54000ac1 	b.ne	71ec <__vsnprintf+0x844>
/home/pwnz/devel/optee/optee_os/lib/libutils/ext/snprintk.c:419
    7098:	91000b39 	add	x25, x25, #0x2
/home/pwnz/devel/optee/optee_os/lib/libutils/ext/snprintk.c:420
    709c:	37f809c0 	tbnz	w0, #31, 71d4 <__vsnprintf+0x82c>
    70a0:	91003e61 	add	x1, x19, #0xf
    70a4:	2a0003f4 	mov	w20, w0
    70a8:	aa1303e0 	mov	x0, x19
    70ac:	927df033 	and	x19, x1, #0xfffffffffffffff8
    70b0:	f9400000 	ldr	x0, [x0]
uuid2str():
/home/pwnz/devel/optee/optee_os/lib/libutils/ext/snprintk.c:222
    70b4:	d0000022 	adrp	x2, d000 <__func__.3637+0xa28>
    70b8:	b90073aa 	str	w10, [x29,#112]
    70bc:	910b8c42 	add	x2, x2, #0x2e3
    70c0:	b9007ba8 	str	w8, [x29,#120]
    70c4:	39403c01 	ldrb	w1, [x0,#15]
    70c8:	79400804 	ldrh	w4, [x0,#4]
    70cc:	39402407 	ldrb	w7, [x0,#9]
    70d0:	39402006 	ldrb	w6, [x0,#8]
    70d4:	79400c05 	ldrh	w5, [x0,#6]
    70d8:	b9002be1 	str	w1, [sp,#40]
    70dc:	39403801 	ldrb	w1, [x0,#14]
    70e0:	b90023e1 	str	w1, [sp,#32]
    70e4:	39403401 	ldrb	w1, [x0,#13]
    70e8:	b9001be1 	str	w1, [sp,#24]
    70ec:	39403001 	ldrb	w1, [x0,#12]
    70f0:	b90013e1 	str	w1, [sp,#16]
    70f4:	39402c01 	ldrb	w1, [x0,#11]
    70f8:	b9000be1 	str	w1, [sp,#8]
    70fc:	39402801 	ldrb	w1, [x0,#10]
    7100:	b90003e1 	str	w1, [sp]
    7104:	d28004a1 	mov	x1, #0x25                  	// #37
    7108:	b9400003 	ldr	w3, [x0]
    710c:	aa1803e0 	mov	x0, x24
    7110:	94000125 	bl	75a4 <snprintk>
    7114:	2a0003e4 	mov	w4, w0
    7118:	b94073aa 	ldr	w10, [x29,#112]
kprintf():
/home/pwnz/devel/optee/optee_os/lib/libutils/ext/snprintk.c:422
    711c:	aa1803e3 	mov	x3, x24
    7120:	b9407ba8 	ldr	w8, [x29,#120]
/home/pwnz/devel/optee/optee_os/lib/libutils/ext/snprintk.c:284
    7124:	52800000 	mov	w0, #0x0                   	// #0
/home/pwnz/devel/optee/optee_os/lib/libutils/ext/snprintk.c:423
    7128:	52800001 	mov	w1, #0x0                   	// #0
/home/pwnz/devel/optee/optee_os/lib/libutils/ext/snprintk.c:564
    712c:	6b04001f 	cmp	w0, w4
    7130:	1a84a006 	csel	w6, w0, w4, ge
/home/pwnz/devel/optee/optee_os/lib/libutils/ext/snprintk.c:565
    7134:	34001781 	cbz	w1, 7424 <__vsnprintf+0xa7c>
/home/pwnz/devel/optee/optee_os/lib/libutils/ext/snprintk.c:566
    7138:	110004c6 	add	w6, w6, #0x1
/home/pwnz/devel/optee/optee_os/lib/libutils/ext/snprintk.c:571
    713c:	6b06015f 	cmp	w10, w6
    7140:	1a86a142 	csel	w2, w10, w6, ge
    7144:	0b02037b 	add	w27, w27, w2
/home/pwnz/devel/optee/optee_os/lib/libutils/ext/snprintk.c:574
    7148:	52808082 	mov	w2, #0x404                 	// #1028
    714c:	6a0202a2 	ands	w2, w21, w2
    7150:	540000a1 	b.ne	7164 <__vsnprintf+0x7bc>
/home/pwnz/devel/optee/optee_os/lib/libutils/ext/snprintk.c:575
    7154:	4b060145 	sub	w5, w10, w6
/home/pwnz/devel/optee/optee_os/lib/libutils/ext/snprintk.c:577
    7158:	52800407 	mov	w7, #0x20                  	// #32
/home/pwnz/devel/optee/optee_os/lib/libutils/ext/snprintk.c:576
    715c:	710000bf 	cmp	w5, #0x0
    7160:	540016ac 	b.gt	7434 <__vsnprintf+0xa8c>
/home/pwnz/devel/optee/optee_os/lib/libutils/ext/snprintk.c:581
    7164:	34001801 	cbz	w1, 7464 <__vsnprintf+0xabc>
/home/pwnz/devel/optee/optee_os/lib/libutils/ext/snprintk.c:582
    7168:	b5001756 	cbnz	x22, 7450 <__vsnprintf+0xaa8>
/home/pwnz/devel/optee/optee_os/lib/libutils/ext/snprintk.c:585
    716c:	d2800016 	mov	x22, #0x0                   	// #0
/home/pwnz/devel/optee/optee_os/lib/libutils/ext/snprintk.c:589
    7170:	7110005f 	cmp	w2, #0x400
    7174:	540000a1 	b.ne	7188 <__vsnprintf+0x7e0>
/home/pwnz/devel/optee/optee_os/lib/libutils/ext/snprintk.c:590
    7178:	4b060141 	sub	w1, w10, w6
/home/pwnz/devel/optee/optee_os/lib/libutils/ext/snprintk.c:592
    717c:	52800602 	mov	w2, #0x30                  	// #48
/home/pwnz/devel/optee/optee_os/lib/libutils/ext/snprintk.c:591
    7180:	7100003f 	cmp	w1, #0x0
    7184:	540018ec 	b.gt	74a0 <__vsnprintf+0xaf8>
/home/pwnz/devel/optee/optee_os/lib/libutils/ext/snprintk.c:596
    7188:	4b040000 	sub	w0, w0, w4
/home/pwnz/devel/optee/optee_os/lib/libutils/ext/snprintk.c:598
    718c:	52800601 	mov	w1, #0x30                  	// #48
/home/pwnz/devel/optee/optee_os/lib/libutils/ext/snprintk.c:597
    7190:	7100001f 	cmp	w0, #0x0
    7194:	5400194c 	b.gt	74bc <__vsnprintf+0xb14>
    7198:	8b244064 	add	x4, x3, w4, uxtw
/home/pwnz/devel/optee/optee_os/lib/libutils/ext/snprintk.c:601
    719c:	eb04007f 	cmp	x3, x4
    71a0:	540019c1 	b.ne	74d8 <__vsnprintf+0xb30>
/home/pwnz/devel/optee/optee_os/lib/libutils/ext/snprintk.c:604
    71a4:	3617c2b5 	tbz	w21, #2, 69f8 <__vsnprintf+0x50>
/home/pwnz/devel/optee/optee_os/lib/libutils/ext/snprintk.c:605
    71a8:	4b06014a 	sub	w10, w10, w6
/home/pwnz/devel/optee/optee_os/lib/libutils/ext/snprintk.c:607
    71ac:	52800400 	mov	w0, #0x20                  	// #32
/home/pwnz/devel/optee/optee_os/lib/libutils/ext/snprintk.c:606
    71b0:	7100015f 	cmp	w10, #0x0
    71b4:	54ffc22d 	b.le	69f8 <__vsnprintf+0x50>
/home/pwnz/devel/optee/optee_os/lib/libutils/ext/snprintk.c:607
    71b8:	b40000b6 	cbz	x22, 71cc <__vsnprintf+0x824>
    71bc:	eb16035f 	cmp	x26, x22
    71c0:	54000069 	b.ls	71cc <__vsnprintf+0x824>
    71c4:	390002c0 	strb	w0, [x22]
    71c8:	910006d6 	add	x22, x22, #0x1
    71cc:	5100054a 	sub	w10, w10, #0x1
    71d0:	17fffff8 	b	71b0 <__vsnprintf+0x808>
/home/pwnz/devel/optee/optee_os/lib/libutils/ext/snprintk.c:420
    71d4:	11002014 	add	w20, w0, #0x8
    71d8:	8b20c380 	add	x0, x28, w0, sxtw
    71dc:	7100029f 	cmp	w20, #0x0
    71e0:	54fff68d 	b.le	70b0 <__vsnprintf+0x708>
    71e4:	91003e61 	add	x1, x19, #0xf
    71e8:	17ffffb0 	b	70a8 <__vsnprintf+0x700>
/home/pwnz/devel/optee/optee_os/lib/libutils/ext/snprintk.c:434
    71ec:	37f801c0 	tbnz	w0, #31, 7224 <__vsnprintf+0x87c>
    71f0:	91003e61 	add	x1, x19, #0xf
    71f4:	2a0003f4 	mov	w20, w0
    71f8:	aa1303e0 	mov	x0, x19
    71fc:	927df033 	and	x19, x1, #0xfffffffffffffff8
/home/pwnz/devel/optee/optee_os/lib/libutils/ext/snprintk.c:436
    7200:	90000037 	adrp	x23, b000 <mpa_get_str+0x20>
    7204:	912002f7 	add	x23, x23, #0x800
/home/pwnz/devel/optee/optee_os/lib/libutils/ext/snprintk.c:434
    7208:	f9400005 	ldr	x5, [x0]
/home/pwnz/devel/optee/optee_os/lib/libutils/ext/snprintk.c:437
    720c:	321f02b5 	orr	w21, w21, #0x2
/home/pwnz/devel/optee/optee_os/lib/libutils/ext/snprintk.c:436
    7210:	910062f7 	add	x23, x23, #0x18
/home/pwnz/devel/optee/optee_os/lib/libutils/ext/snprintk.c:481
    7214:	52800001 	mov	w1, #0x0                   	// #0
/home/pwnz/devel/optee/optee_os/lib/libutils/ext/snprintk.c:438
    7218:	52800f08 	mov	w8, #0x78                  	// #120
/home/pwnz/devel/optee/optee_os/lib/libutils/ext/snprintk.c:435
    721c:	52800040 	mov	w0, #0x2                   	// #2
    7220:	17fffefe 	b	6e18 <__vsnprintf+0x470>
/home/pwnz/devel/optee/optee_os/lib/libutils/ext/snprintk.c:434
    7224:	11002014 	add	w20, w0, #0x8
    7228:	8b20c380 	add	x0, x28, w0, sxtw
    722c:	7100029f 	cmp	w20, #0x0
    7230:	54fffe8d 	b.le	7200 <__vsnprintf+0x858>
    7234:	91003e61 	add	x1, x19, #0xf
    7238:	17fffff0 	b	71f8 <__vsnprintf+0x850>
/home/pwnz/devel/optee/optee_os/lib/libutils/ext/snprintk.c:441
    723c:	11002014 	add	w20, w0, #0x8
    7240:	8b20c380 	add	x0, x28, w0, sxtw
    7244:	7100029f 	cmp	w20, #0x0
    7248:	54ffcbcd 	b.le	6bc0 <__vsnprintf+0x218>
    724c:	91003e61 	add	x1, x19, #0xf
    7250:	17fffe5a 	b	6bb8 <__vsnprintf+0x210>
/home/pwnz/devel/optee/optee_os/lib/libutils/ext/snprintk.c:459
    7254:	aa0303e0 	mov	x0, x3
    7258:	b9006fa8 	str	w8, [x29,#108]
    725c:	f9003ba3 	str	x3, [x29,#112]
    7260:	b9007baa 	str	w10, [x29,#120]
    7264:	97fffdca 	bl	698c <strlen>
/home/pwnz/devel/optee/optee_os/lib/libutils/ext/snprintk.c:460
    7268:	52800001 	mov	w1, #0x0                   	// #0
/home/pwnz/devel/optee/optee_os/lib/libutils/ext/snprintk.c:459
    726c:	2a0003e4 	mov	w4, w0
    7270:	b9406fa8 	ldr	w8, [x29,#108]
/home/pwnz/devel/optee/optee_os/lib/libutils/ext/snprintk.c:284
    7274:	52800000 	mov	w0, #0x0                   	// #0
    7278:	b9407baa 	ldr	w10, [x29,#120]
    727c:	f9403ba3 	ldr	x3, [x29,#112]
    7280:	17ffffab 	b	712c <__vsnprintf+0x784>
/home/pwnz/devel/optee/optee_os/lib/libutils/ext/snprintk.c:463
    7284:	321c02b5 	orr	w21, w21, #0x10
    7288:	17fffe6c 	b	6c38 <__vsnprintf+0x290>
/home/pwnz/devel/optee/optee_os/lib/libutils/ext/snprintk.c:466
    728c:	3747cd95 	tbnz	w21, #8, 6c3c <__vsnprintf+0x294>
    7290:	374fcd75 	tbnz	w21, #9, 6c3c <__vsnprintf+0x294>
    7294:	372fcd55 	tbnz	w21, #5, 6c3c <__vsnprintf+0x294>
    7298:	3727cd35 	tbnz	w21, #4, 6c3c <__vsnprintf+0x294>
    729c:	36300295 	tbz	w21, #6, 72ec <__vsnprintf+0x944>
    72a0:	37f801a0 	tbnz	w0, #31, 72d4 <__vsnprintf+0x92c>
    72a4:	91002e61 	add	x1, x19, #0xb
    72a8:	2a0003f4 	mov	w20, w0
    72ac:	aa1303e0 	mov	x0, x19
    72b0:	927df033 	and	x19, x1, #0xfffffffffffffff8
    72b4:	79400005 	ldrh	w5, [x0]
    72b8:	17fffe67 	b	6c54 <__vsnprintf+0x2ac>
    72bc:	11002014 	add	w20, w0, #0x8
    72c0:	8b20c380 	add	x0, x28, w0, sxtw
    72c4:	7100029f 	cmp	w20, #0x0
    72c8:	54ffcc4d 	b.le	6c50 <__vsnprintf+0x2a8>
    72cc:	91003e61 	add	x1, x19, #0xf
    72d0:	17fffe5e 	b	6c48 <__vsnprintf+0x2a0>
    72d4:	11002014 	add	w20, w0, #0x8
    72d8:	8b20c380 	add	x0, x28, w0, sxtw
    72dc:	7100029f 	cmp	w20, #0x0
    72e0:	54fffead 	b.le	72b4 <__vsnprintf+0x90c>
    72e4:	91002e61 	add	x1, x19, #0xb
    72e8:	17fffff1 	b	72ac <__vsnprintf+0x904>
    72ec:	37f800e0 	tbnz	w0, #31, 7308 <__vsnprintf+0x960>
    72f0:	91002e61 	add	x1, x19, #0xb
    72f4:	2a0003f4 	mov	w20, w0
    72f8:	aa1303e0 	mov	x0, x19
    72fc:	927df033 	and	x19, x1, #0xfffffffffffffff8
    7300:	b9400005 	ldr	w5, [x0]
    7304:	17fffe54 	b	6c54 <__vsnprintf+0x2ac>
    7308:	11002014 	add	w20, w0, #0x8
    730c:	8b20c380 	add	x0, x28, w0, sxtw
    7310:	7100029f 	cmp	w20, #0x0
    7314:	54ffff6d 	b.le	7300 <__vsnprintf+0x958>
    7318:	91002e61 	add	x1, x19, #0xb
    731c:	17fffff7 	b	72f8 <__vsnprintf+0x950>
/home/pwnz/devel/optee/optee_os/lib/libutils/ext/snprintk.c:473
    7320:	90000037 	adrp	x23, b000 <mpa_get_str+0x20>
    7324:	912002f7 	add	x23, x23, #0x800
    7328:	910062f7 	add	x23, x23, #0x18
    732c:	17fffe4e 	b	6c64 <__vsnprintf+0x2bc>
/home/pwnz/devel/optee/optee_os/lib/libutils/ext/snprintk.c:474
    7330:	3747c9d5 	tbnz	w21, #8, 6c68 <__vsnprintf+0x2c0>
    7334:	374fc9b5 	tbnz	w21, #9, 6c68 <__vsnprintf+0x2c0>
    7338:	372fc995 	tbnz	w21, #5, 6c68 <__vsnprintf+0x2c0>
    733c:	3727c975 	tbnz	w21, #4, 6c68 <__vsnprintf+0x2c0>
    7340:	36300295 	tbz	w21, #6, 7390 <__vsnprintf+0x9e8>
    7344:	37f801a0 	tbnz	w0, #31, 7378 <__vsnprintf+0x9d0>
    7348:	91002e61 	add	x1, x19, #0xb
    734c:	2a0003f4 	mov	w20, w0
    7350:	aa1303e0 	mov	x0, x19
    7354:	927df033 	and	x19, x1, #0xfffffffffffffff8
    7358:	79400005 	ldrh	w5, [x0]
    735c:	17fffe49 	b	6c80 <__vsnprintf+0x2d8>
    7360:	11002014 	add	w20, w0, #0x8
    7364:	8b20c380 	add	x0, x28, w0, sxtw
    7368:	7100029f 	cmp	w20, #0x0
    736c:	54ffc88d 	b.le	6c7c <__vsnprintf+0x2d4>
    7370:	91003e61 	add	x1, x19, #0xf
    7374:	17fffe40 	b	6c74 <__vsnprintf+0x2cc>
    7378:	11002014 	add	w20, w0, #0x8
    737c:	8b20c380 	add	x0, x28, w0, sxtw
    7380:	7100029f 	cmp	w20, #0x0
    7384:	54fffead 	b.le	7358 <__vsnprintf+0x9b0>
    7388:	91002e61 	add	x1, x19, #0xb
    738c:	17fffff1 	b	7350 <__vsnprintf+0x9a8>
    7390:	37f800e0 	tbnz	w0, #31, 73ac <__vsnprintf+0xa04>
    7394:	91002e61 	add	x1, x19, #0xb
    7398:	2a0003f4 	mov	w20, w0
    739c:	aa1303e0 	mov	x0, x19
    73a0:	927df033 	and	x19, x1, #0xfffffffffffffff8
    73a4:	b9400005 	ldr	w5, [x0]
    73a8:	17fffe36 	b	6c80 <__vsnprintf+0x2d8>
    73ac:	11002014 	add	w20, w0, #0x8
    73b0:	8b20c380 	add	x0, x28, w0, sxtw
    73b4:	7100029f 	cmp	w20, #0x0
    73b8:	54ffff6d 	b.le	73a4 <__vsnprintf+0x9fc>
    73bc:	91002e61 	add	x1, x19, #0xb
    73c0:	17fffff7 	b	739c <__vsnprintf+0x9f4>
/home/pwnz/devel/optee/optee_os/lib/libutils/ext/snprintk.c:502
    73c4:	91009700 	add	x0, x24, #0x25
/home/pwnz/devel/optee/optee_os/lib/libutils/ext/snprintk.c:516
    73c8:	d2800146 	mov	x6, #0xa                   	// #10
/home/pwnz/devel/optee/optee_os/lib/libutils/ext/snprintk.c:515
    73cc:	f10024bf 	cmp	x5, #0x9
    73d0:	d1000403 	sub	x3, x0, #0x1
    73d4:	540000c8 	b.hi	73ec <__vsnprintf+0xa44>
/home/pwnz/devel/optee/optee_os/lib/libutils/ext/snprintk.c:519
    73d8:	1100c0a2 	add	w2, w5, #0x30
    73dc:	381ff002 	sturb	w2, [x0,#-1]
    73e0:	17fffea7 	b	6e7c <__vsnprintf+0x4d4>
/home/pwnz/devel/optee/optee_os/lib/libutils/ext/snprintk.c:507
    73e4:	aa0303e0 	mov	x0, x3
    73e8:	17fffe98 	b	6e48 <__vsnprintf+0x4a0>
/home/pwnz/devel/optee/optee_os/lib/libutils/ext/snprintk.c:516
    73ec:	aa0303e0 	mov	x0, x3
    73f0:	9ac608a3 	udiv	x3, x5, x6
    73f4:	9b069462 	msub	x2, x3, x6, x5
/home/pwnz/devel/optee/optee_os/lib/libutils/ext/snprintk.c:517
    73f8:	aa0303e5 	mov	x5, x3
/home/pwnz/devel/optee/optee_os/lib/libutils/ext/snprintk.c:516
    73fc:	1100c042 	add	w2, w2, #0x30
    7400:	39000002 	strb	w2, [x0]
    7404:	17fffff2 	b	73cc <__vsnprintf+0xa24>
/home/pwnz/devel/optee/optee_os/lib/libutils/ext/snprintk.c:502
    7408:	91009703 	add	x3, x24, #0x25
/home/pwnz/devel/optee/optee_os/lib/libutils/ext/snprintk.c:524
    740c:	92400ca0 	and	x0, x5, #0xf
/home/pwnz/devel/optee/optee_os/lib/libutils/ext/snprintk.c:525
    7410:	d344fca5 	lsr	x5, x5, #4
/home/pwnz/devel/optee/optee_os/lib/libutils/ext/snprintk.c:524
    7414:	38606ae0 	ldrb	w0, [x23,x0]
    7418:	381ffc60 	strb	w0, [x3,#-1]!
/home/pwnz/devel/optee/optee_os/lib/libutils/ext/snprintk.c:526
    741c:	b5ffff85 	cbnz	x5, 740c <__vsnprintf+0xa64>
    7420:	17fffe97 	b	6e7c <__vsnprintf+0x4d4>
/home/pwnz/devel/optee/optee_os/lib/libutils/ext/snprintk.c:568
    7424:	110008c2 	add	w2, w6, #0x2
    7428:	f27f02bf 	tst	x21, #0x2
    742c:	1a861046 	csel	w6, w2, w6, ne
    7430:	17ffff43 	b	713c <__vsnprintf+0x794>
/home/pwnz/devel/optee/optee_os/lib/libutils/ext/snprintk.c:577
    7434:	b40000b6 	cbz	x22, 7448 <__vsnprintf+0xaa0>
    7438:	eb16035f 	cmp	x26, x22
    743c:	54000069 	b.ls	7448 <__vsnprintf+0xaa0>
    7440:	390002c7 	strb	w7, [x22]
    7444:	910006d6 	add	x22, x22, #0x1
    7448:	510004a5 	sub	w5, w5, #0x1
    744c:	17ffff44 	b	715c <__vsnprintf+0x7b4>
/home/pwnz/devel/optee/optee_os/lib/libutils/ext/snprintk.c:582
    7450:	eb16035f 	cmp	x26, x22
    7454:	54ffe8e9 	b.ls	7170 <__vsnprintf+0x7c8>
    7458:	390002c1 	strb	w1, [x22]
    745c:	910006d6 	add	x22, x22, #0x1
    7460:	17ffff44 	b	7170 <__vsnprintf+0x7c8>
/home/pwnz/devel/optee/optee_os/lib/libutils/ext/snprintk.c:583
    7464:	360fe875 	tbz	w21, #1, 7170 <__vsnprintf+0x7c8>
/home/pwnz/devel/optee/optee_os/lib/libutils/ext/snprintk.c:584
    7468:	b4ffe836 	cbz	x22, 716c <__vsnprintf+0x7c4>
    746c:	eb16035f 	cmp	x26, x22
    7470:	54ffe809 	b.ls	7170 <__vsnprintf+0x7c8>
    7474:	52800601 	mov	w1, #0x30                  	// #48
    7478:	390002c1 	strb	w1, [x22]
/home/pwnz/devel/optee/optee_os/lib/libutils/ext/snprintk.c:585
    747c:	b10006c1 	adds	x1, x22, #0x1
    7480:	54ffe760 	b.eq	716c <__vsnprintf+0x7c4>
    7484:	eb01035f 	cmp	x26, x1
    7488:	54000089 	b.ls	7498 <__vsnprintf+0xaf0>
    748c:	390006c8 	strb	w8, [x22,#1]
    7490:	91000ad6 	add	x22, x22, #0x2
    7494:	17ffff37 	b	7170 <__vsnprintf+0x7c8>
    7498:	aa0103f6 	mov	x22, x1
    749c:	17ffff35 	b	7170 <__vsnprintf+0x7c8>
/home/pwnz/devel/optee/optee_os/lib/libutils/ext/snprintk.c:592
    74a0:	b40000b6 	cbz	x22, 74b4 <__vsnprintf+0xb0c>
    74a4:	eb16035f 	cmp	x26, x22
    74a8:	54000069 	b.ls	74b4 <__vsnprintf+0xb0c>
    74ac:	390002c2 	strb	w2, [x22]
    74b0:	910006d6 	add	x22, x22, #0x1
    74b4:	51000421 	sub	w1, w1, #0x1
    74b8:	17ffff32 	b	7180 <__vsnprintf+0x7d8>
/home/pwnz/devel/optee/optee_os/lib/libutils/ext/snprintk.c:598
    74bc:	b40000b6 	cbz	x22, 74d0 <__vsnprintf+0xb28>
    74c0:	eb16035f 	cmp	x26, x22
    74c4:	54000069 	b.ls	74d0 <__vsnprintf+0xb28>
    74c8:	390002c1 	strb	w1, [x22]
    74cc:	910006d6 	add	x22, x22, #0x1
    74d0:	51000400 	sub	w0, w0, #0x1
    74d4:	17ffff2f 	b	7190 <__vsnprintf+0x7e8>
/home/pwnz/devel/optee/optee_os/lib/libutils/ext/snprintk.c:602
    74d8:	b40000d6 	cbz	x22, 74f0 <__vsnprintf+0xb48>
    74dc:	eb16035f 	cmp	x26, x22
    74e0:	54000089 	b.ls	74f0 <__vsnprintf+0xb48>
    74e4:	39400060 	ldrb	w0, [x3]
    74e8:	910006d6 	add	x22, x22, #0x1
    74ec:	381ff2c0 	sturb	w0, [x22,#-1]
/home/pwnz/devel/optee/optee_os/lib/libutils/ext/snprintk.c:601
    74f0:	91000463 	add	x3, x3, #0x1
    74f4:	17ffff2a 	b	719c <__vsnprintf+0x7f4>
__vsnprintf():
/home/pwnz/devel/optee/optee_os/lib/libutils/ext/snprintk.c:142
    74f8:	f94047a0 	ldr	x0, [x29,#136]
    74fc:	f100001f 	cmp	x0, #0x0
    7500:	f94043a0 	ldr	x0, [x29,#128]
    7504:	fa401804 	ccmp	x0, #0x0, #0x4, ne
    7508:	540000c0 	b.eq	7520 <__vsnprintf+0xb78>
/home/pwnz/devel/optee/optee_os/lib/libutils/ext/snprintk.c:144
    750c:	f94043a1 	ldr	x1, [x29,#128]
    7510:	93407f60 	sxtw	x0, w27
    7514:	eb00003f 	cmp	x1, x0
    7518:	54000168 	b.hi	7544 <__vsnprintf+0xb9c>
/home/pwnz/devel/optee/optee_os/lib/libutils/ext/snprintk.c:145
    751c:	381ff35f 	sturb	wzr, [x26,#-1]
/home/pwnz/devel/optee/optee_os/lib/libutils/ext/snprintk.c:150
    7520:	2a1b03e0 	mov	w0, w27
    7524:	a94453f3 	ldp	x19, x20, [sp,#64]
    7528:	a9455bf5 	ldp	x21, x22, [sp,#80]
    752c:	a94663f7 	ldp	x23, x24, [sp,#96]
    7530:	a9476bf9 	ldp	x25, x26, [sp,#112]
    7534:	a94873fb 	ldp	x27, x28, [sp,#128]
    7538:	a9437bfd 	ldp	x29, x30, [sp,#48]
    753c:	9103c3ff 	add	sp, sp, #0xf0
    7540:	d65f03c0 	ret
/home/pwnz/devel/optee/optee_os/lib/libutils/ext/snprintk.c:147
    7544:	f94047a1 	ldr	x1, [x29,#136]
    7548:	3820683f 	strb	wzr, [x1,x0]
/home/pwnz/devel/optee/optee_os/lib/libutils/ext/snprintk.c:149
    754c:	17fffff5 	b	7520 <__vsnprintf+0xb78>

0000000000007550 <vsnprintk>:
vsnprintk():
/home/pwnz/devel/optee/optee_os/lib/libutils/ext/snprintk.c:128
    7550:	a9bb7bfd 	stp	x29, x30, [sp,#-80]!
    7554:	910003fd 	mov	x29, sp
    7558:	a90153f3 	stp	x19, x20, [sp,#16]
    755c:	aa0003f3 	mov	x19, x0
    7560:	f90013f5 	str	x21, [sp,#32]
    7564:	aa0103f4 	mov	x20, x1
    7568:	aa0203f5 	mov	x21, x2
/home/pwnz/devel/optee/optee_os/lib/libutils/ext/snprintk.c:129
    756c:	aa0303e1 	mov	x1, x3
    7570:	9100c3a0 	add	x0, x29, #0x30
    7574:	d2800402 	mov	x2, #0x20                  	// #32
    7578:	97fffce3 	bl	6904 <memcpy>
    757c:	aa0003e3 	mov	x3, x0
    7580:	aa1503e2 	mov	x2, x21
    7584:	aa1403e1 	mov	x1, x20
    7588:	52800024 	mov	w4, #0x1                   	// #1
    758c:	aa1303e0 	mov	x0, x19
    7590:	97fffd06 	bl	69a8 <__vsnprintf>
/home/pwnz/devel/optee/optee_os/lib/libutils/ext/snprintk.c:130
    7594:	f94013f5 	ldr	x21, [sp,#32]
    7598:	a94153f3 	ldp	x19, x20, [sp,#16]
    759c:	a8c57bfd 	ldp	x29, x30, [sp],#80
    75a0:	d65f03c0 	ret

00000000000075a4 <snprintk>:
snprintk():
/home/pwnz/devel/optee/optee_os/lib/libutils/ext/snprintk.c:111
    75a4:	a9b07bfd 	stp	x29, x30, [sp,#-256]!
    75a8:	910003fd 	mov	x29, sp
    75ac:	a90d93a3 	stp	x3, x4, [x29,#216]
/home/pwnz/devel/optee/optee_os/lib/libutils/ext/snprintk.c:115
    75b0:	910403a3 	add	x3, x29, #0x100
    75b4:	a9030fa3 	stp	x3, x3, [x29,#48]
    75b8:	910343a3 	add	x3, x29, #0xd0
    75bc:	f90023a3 	str	x3, [x29,#64]
    75c0:	128004e3 	mov	w3, #0xffffffd8            	// #-40
    75c4:	b9004ba3 	str	w3, [x29,#72]
    75c8:	12800fe3 	mov	w3, #0xffffff80            	// #-128
    75cc:	b9004fa3 	str	w3, [x29,#76]
/home/pwnz/devel/optee/optee_os/lib/libutils/ext/snprintk.c:116
    75d0:	910043a3 	add	x3, x29, #0x10
/home/pwnz/devel/optee/optee_os/lib/libutils/ext/snprintk.c:111
    75d4:	a90e9ba5 	stp	x5, x6, [x29,#232]
/home/pwnz/devel/optee/optee_os/lib/libutils/ext/snprintk.c:116
    75d8:	a94317a4 	ldp	x4, x5, [x29,#48]
    75dc:	a90117a4 	stp	x4, x5, [x29,#16]
    75e0:	a94417a4 	ldp	x4, x5, [x29,#64]
/home/pwnz/devel/optee/optee_os/lib/libutils/ext/snprintk.c:111
    75e4:	3d8017a0 	str	q0, [x29,#80]
    75e8:	3d801ba1 	str	q1, [x29,#96]
    75ec:	3d801fa2 	str	q2, [x29,#112]
    75f0:	3d8023a3 	str	q3, [x29,#128]
    75f4:	3d8027a4 	str	q4, [x29,#144]
    75f8:	3d802ba5 	str	q5, [x29,#160]
    75fc:	3d802fa6 	str	q6, [x29,#176]
    7600:	3d8033a7 	str	q7, [x29,#192]
    7604:	f9007fa7 	str	x7, [x29,#248]
/home/pwnz/devel/optee/optee_os/lib/libutils/ext/snprintk.c:116
    7608:	a90217a4 	stp	x4, x5, [x29,#32]
    760c:	97ffffd1 	bl	7550 <vsnprintk>
/home/pwnz/devel/optee/optee_os/lib/libutils/ext/snprintk.c:120
    7610:	a8d07bfd 	ldp	x29, x30, [sp],#256
    7614:	d65f03c0 	ret

0000000000007618 <buf_compare_ct>:
buf_compare_ct():
/home/pwnz/devel/optee/optee_os/lib/libutils/ext/buf_compare_ct.c:35
    7618:	d2800004 	mov	x4, #0x0                   	// #0
/home/pwnz/devel/optee/optee_os/lib/libutils/ext/buf_compare_ct.c:31
    761c:	52800003 	mov	w3, #0x0                   	// #0
/home/pwnz/devel/optee/optee_os/lib/libutils/ext/buf_compare_ct.c:35
    7620:	eb04005f 	cmp	x2, x4
    7624:	540000c1 	b.ne	763c <buf_compare_ct+0x24>
/home/pwnz/devel/optee/optee_os/lib/libutils/ext/buf_compare_ct.c:41
    7628:	2a831063 	orr	w3, w3, w3, asr #4
/home/pwnz/devel/optee/optee_os/lib/libutils/ext/buf_compare_ct.c:42
    762c:	2a830863 	orr	w3, w3, w3, asr #2
/home/pwnz/devel/optee/optee_os/lib/libutils/ext/buf_compare_ct.c:43
    7630:	2a830463 	orr	w3, w3, w3, asr #1
/home/pwnz/devel/optee/optee_os/lib/libutils/ext/buf_compare_ct.c:47
    7634:	12000060 	and	w0, w3, #0x1
    7638:	d65f03c0 	ret
/home/pwnz/devel/optee/optee_os/lib/libutils/ext/buf_compare_ct.c:36
    763c:	38646805 	ldrb	w5, [x0,x4]
    7640:	38646826 	ldrb	w6, [x1,x4]
    7644:	91000484 	add	x4, x4, #0x1
    7648:	4a0600a5 	eor	w5, w5, w6
    764c:	12001ca5 	and	w5, w5, #0xff
    7650:	2a050063 	orr	w3, w3, w5
    7654:	17fffff3 	b	7620 <buf_compare_ct+0x8>

0000000000007658 <trace_set_level>:
trace_set_level():
/home/pwnz/devel/optee/optee_os/lib/libutils/ext/trace.c:43
    7658:	51000401 	sub	w1, w0, #0x1
    765c:	71000c3f 	cmp	w1, #0x3
    7660:	d0000021 	adrp	x1, d000 <__func__.3637+0xa28>
    7664:	54000088 	b.hi	7674 <trace_set_level+0x1c>
/home/pwnz/devel/optee/optee_os/lib/libutils/ext/trace.c:46
    7668:	f9430821 	ldr	x1, [x1,#1552]
    766c:	b9000020 	str	w0, [x1]
    7670:	d65f03c0 	ret
    7674:	52800080 	mov	w0, #0x4                   	// #4
    7678:	17fffffc 	b	7668 <trace_set_level+0x10>

000000000000767c <trace_get_level>:
trace_get_level():
/home/pwnz/devel/optee/optee_os/lib/libutils/ext/trace.c:52
    767c:	d0000020 	adrp	x0, d000 <__func__.3637+0xa28>
    7680:	f9430800 	ldr	x0, [x0,#1552]
    7684:	b9400000 	ldr	w0, [x0]
    7688:	d65f03c0 	ret

000000000000768c <trace_printf>:
trace_printf():
/home/pwnz/devel/optee/optee_os/lib/libutils/ext/trace.c:73
    768c:	d108c3ff 	sub	sp, sp, #0x230
    7690:	a9007bfd 	stp	x29, x30, [sp]
    7694:	910003fd 	mov	x29, sp
    7698:	f9010fa5 	str	x5, [x29,#536]
    769c:	910403a5 	add	x5, x29, #0x100
    76a0:	a9046bf9 	stp	x25, x26, [sp,#64]
/home/pwnz/devel/optee/optee_os/lib/libutils/ext/trace.c:80
    76a4:	72001c79 	ands	w25, w3, #0xff
/home/pwnz/devel/optee/optee_os/lib/libutils/ext/trace.c:73
    76a8:	a90153f3 	stp	x19, x20, [sp,#16]
    76ac:	a9025bf5 	stp	x21, x22, [sp,#32]
    76b0:	a90363f7 	stp	x23, x24, [sp,#48]
    76b4:	f90113a6 	str	x6, [x29,#544]
    76b8:	f90117a7 	str	x7, [x29,#552]
    76bc:	3d8024a0 	str	q0, [x5,#144]
    76c0:	3d8028a1 	str	q1, [x5,#160]
    76c4:	3d802ca2 	str	q2, [x5,#176]
    76c8:	3d8030a3 	str	q3, [x5,#192]
    76cc:	3d8034a4 	str	q4, [x5,#208]
    76d0:	3d8038a5 	str	q5, [x5,#224]
    76d4:	3d803ca6 	str	q6, [x5,#240]
    76d8:	910803a5 	add	x5, x29, #0x200
    76dc:	3d8000a7 	str	q7, [x5]
/home/pwnz/devel/optee/optee_os/lib/libutils/ext/trace.c:80
    76e0:	54000e20 	b.eq	78a4 <trace_printf+0x218>
/home/pwnz/devel/optee/optee_os/lib/libutils/ext/trace.c:80 (discriminator 1)
    76e4:	d0000023 	adrp	x3, d000 <__func__.3637+0xa28>
    76e8:	f9430863 	ldr	x3, [x3,#1552]
    76ec:	b9400063 	ldr	w3, [x3]
    76f0:	6b02007f 	cmp	w3, w2
    76f4:	54000cab 	b.lt	7888 <trace_printf+0x1fc>
trace_level_to_string():
/home/pwnz/devel/optee/optee_os/lib/libutils/ext/trace.c:64
    76f8:	51000443 	sub	w3, w2, #0x1
/home/pwnz/devel/optee/optee_os/lib/libutils/ext/trace.c:67
    76fc:	90000025 	adrp	x5, b000 <mpa_get_str+0x20>
/home/pwnz/devel/optee/optee_os/lib/libutils/ext/trace.c:64
    7700:	71000c7f 	cmp	w3, #0x3
/home/pwnz/devel/optee/optee_os/lib/libutils/ext/trace.c:67
    7704:	9120c0a5 	add	x5, x5, #0x830
/home/pwnz/devel/optee/optee_os/lib/libutils/ext/trace.c:64
    7708:	1a9f9043 	csel	w3, w2, wzr, ls
/home/pwnz/devel/optee/optee_os/lib/libutils/ext/trace.c:67
    770c:	52800126 	mov	w6, #0x9                   	// #9
    7710:	9b261463 	smaddl	x3, w3, w6, x5
trace_printf():
/home/pwnz/devel/optee/optee_os/lib/libutils/ext/trace.c:83
    7714:	910243b4 	add	x20, x29, #0x90
    7718:	2a0203fa 	mov	w26, w2
    771c:	2a0103f8 	mov	w24, w1
    7720:	aa0003f6 	mov	x22, x0
    7724:	d0000022 	adrp	x2, d000 <__func__.3637+0xa28>
    7728:	aa0403f7 	mov	x23, x4
    772c:	910c7442 	add	x2, x2, #0x31d
    7730:	d2802001 	mov	x1, #0x100                 	// #256
    7734:	aa1403e0 	mov	x0, x20
    7738:	97ffff9b 	bl	75a4 <snprintk>
/home/pwnz/devel/optee/optee_os/lib/libutils/ext/trace.c:85
    773c:	37f80a60 	tbnz	w0, #31, 7888 <trace_printf+0x1fc>
/home/pwnz/devel/optee/optee_os/lib/libutils/ext/trace.c:87
    7740:	93407c13 	sxtw	x19, w0
/home/pwnz/devel/optee/optee_os/lib/libutils/ext/trace.c:89
    7744:	34000099 	cbz	w25, 7754 <trace_printf+0xc8>
/home/pwnz/devel/optee/optee_os/lib/libutils/ext/trace.c:89 (discriminator 1)
    7748:	52800340 	mov	w0, #0x1a                  	// #26
    774c:	1ada2401 	lsr	w1, w0, w26
    7750:	36000181 	tbz	w1, #0, 7780 <trace_printf+0xf4>
/home/pwnz/devel/optee/optee_os/lib/libutils/ext/trace.c:92
    7754:	97fff7d2 	bl	569c <trace_ext_get_thread_id>
/home/pwnz/devel/optee/optee_os/lib/libutils/ext/trace.c:94
    7758:	37f80140 	tbnz	w0, #31, 7780 <trace_printf+0xf4>
/home/pwnz/devel/optee/optee_os/lib/libutils/ext/trace.c:95
    775c:	2a0003e3 	mov	w3, w0
    7760:	d0000022 	adrp	x2, d000 <__func__.3637+0xa28>
    7764:	d2802001 	mov	x1, #0x100                 	// #256
    7768:	910c8442 	add	x2, x2, #0x321
    776c:	cb130021 	sub	x1, x1, x19
    7770:	8b130280 	add	x0, x20, x19
    7774:	97ffff8c 	bl	75a4 <snprintk>
/home/pwnz/devel/optee/optee_os/lib/libutils/ext/trace.c:97
    7778:	37f80880 	tbnz	w0, #31, 7888 <trace_printf+0x1fc>
/home/pwnz/devel/optee/optee_os/lib/libutils/ext/trace.c:99
    777c:	8b20c273 	add	x19, x19, w0, sxtw
/home/pwnz/devel/optee/optee_os/lib/libutils/ext/trace.c:102
    7780:	d0000023 	adrp	x3, d000 <__func__.3637+0xa28>
    7784:	d0000022 	adrp	x2, d000 <__func__.3637+0xa28>
    7788:	d2802001 	mov	x1, #0x100                 	// #256
    778c:	910ca442 	add	x2, x2, #0x329
    7790:	f9431063 	ldr	x3, [x3,#1568]
    7794:	cb130021 	sub	x1, x1, x19
    7798:	8b130280 	add	x0, x20, x19
    779c:	97ffff82 	bl	75a4 <snprintk>
/home/pwnz/devel/optee/optee_os/lib/libutils/ext/trace.c:104
    77a0:	37f80740 	tbnz	w0, #31, 7888 <trace_printf+0x1fc>
/home/pwnz/devel/optee/optee_os/lib/libutils/ext/trace.c:106
    77a4:	8b20c273 	add	x19, x19, w0, sxtw
/home/pwnz/devel/optee/optee_os/lib/libutils/ext/trace.c:108
    77a8:	34000099 	cbz	w25, 77b8 <trace_printf+0x12c>
/home/pwnz/devel/optee/optee_os/lib/libutils/ext/trace.c:108 (discriminator 1)
    77ac:	52800342 	mov	w2, #0x1a                  	// #26
    77b0:	1ada2455 	lsr	w21, w2, w26
    77b4:	36000195 	tbz	w21, #0, 77e4 <trace_printf+0x158>
/home/pwnz/devel/optee/optee_os/lib/libutils/ext/trace.c:111
    77b8:	b4000176 	cbz	x22, 77e4 <trace_printf+0x158>
/home/pwnz/devel/optee/optee_os/lib/libutils/ext/trace.c:112
    77bc:	d0000022 	adrp	x2, d000 <__func__.3637+0xa28>
    77c0:	d2802001 	mov	x1, #0x100                 	// #256
    77c4:	2a1803e4 	mov	w4, w24
    77c8:	aa1603e3 	mov	x3, x22
    77cc:	910cb442 	add	x2, x2, #0x32d
    77d0:	cb130021 	sub	x1, x1, x19
    77d4:	8b130280 	add	x0, x20, x19
    77d8:	97ffff73 	bl	75a4 <snprintk>
/home/pwnz/devel/optee/optee_os/lib/libutils/ext/trace.c:114
    77dc:	37f80560 	tbnz	w0, #31, 7888 <trace_printf+0x1fc>
/home/pwnz/devel/optee/optee_os/lib/libutils/ext/trace.c:116
    77e0:	8b20c273 	add	x19, x19, w0, sxtw
/home/pwnz/devel/optee/optee_os/lib/libutils/ext/trace.c:119
    77e4:	d2802015 	mov	x21, #0x100                 	// #256
    77e8:	b0000022 	adrp	x2, c000 <PRIME_TABLE+0x770>
    77ec:	cb1302a1 	sub	x1, x21, x19
    77f0:	912b9c42 	add	x2, x2, #0xae7
    77f4:	8b130280 	add	x0, x20, x19
    77f8:	97ffff6b 	bl	75a4 <snprintk>
/home/pwnz/devel/optee/optee_os/lib/libutils/ext/trace.c:120
    77fc:	37f80460 	tbnz	w0, #31, 7888 <trace_printf+0x1fc>
/home/pwnz/devel/optee/optee_os/lib/libutils/ext/trace.c:122
    7800:	8b20c273 	add	x19, x19, w0, sxtw
/home/pwnz/devel/optee/optee_os/lib/libutils/ext/trace.c:124
    7804:	9108c3a0 	add	x0, x29, #0x230
    7808:	a90703a0 	stp	x0, x0, [x29,#112]
    780c:	910843a0 	add	x0, x29, #0x210
    7810:	f90043a0 	str	x0, [x29,#128]
    7814:	128002e0 	mov	w0, #0xffffffe8            	// #-24
    7818:	b9008ba0 	str	w0, [x29,#136]
    781c:	12800fe0 	mov	w0, #0xffffff80            	// #-128
    7820:	b9008fa0 	str	w0, [x29,#140]
/home/pwnz/devel/optee/optee_os/lib/libutils/ext/trace.c:125
    7824:	910143a3 	add	x3, x29, #0x50
    7828:	a94707a0 	ldp	x0, x1, [x29,#112]
    782c:	a90507a0 	stp	x0, x1, [x29,#80]
    7830:	a94807a0 	ldp	x0, x1, [x29,#128]
    7834:	a90607a0 	stp	x0, x1, [x29,#96]
    7838:	cb1302a1 	sub	x1, x21, x19
    783c:	8b130280 	add	x0, x20, x19
    7840:	aa1703e2 	mov	x2, x23
    7844:	97ffff43 	bl	7550 <vsnprintk>
/home/pwnz/devel/optee/optee_os/lib/libutils/ext/trace.c:128
    7848:	7100001f 	cmp	w0, #0x0
    784c:	8b20c261 	add	x1, x19, w0, sxtw
    7850:	9a93c033 	csel	x19, x1, x19, gt
    7854:	d2801fc0 	mov	x0, #0xfe                  	// #254
    7858:	f103fa7f 	cmp	x19, #0xfe
    785c:	9a809273 	csel	x19, x19, x0, ls
/home/pwnz/devel/optee/optee_os/lib/libutils/ext/trace.c:133
    7860:	52800140 	mov	w0, #0xa                   	// #10
    7864:	38336a80 	strb	w0, [x20,x19]
/home/pwnz/devel/optee/optee_os/lib/libutils/ext/trace.c:134
    7868:	b4000093 	cbz	x19, 7878 <trace_printf+0x1ec>
/home/pwnz/devel/optee/optee_os/lib/libutils/ext/trace.c:134 (discriminator 1)
    786c:	38736a80 	ldrb	w0, [x20,x19]
    7870:	7100281f 	cmp	w0, #0xa
    7874:	540001e0 	b.eq	78b0 <trace_printf+0x224>
/home/pwnz/devel/optee/optee_os/lib/libutils/ext/trace.c:137
    7878:	91024ba0 	add	x0, x29, #0x92
    787c:	3833681f 	strb	wzr, [x0,x19]
/home/pwnz/devel/optee/optee_os/lib/libutils/ext/trace.c:139
    7880:	aa1403e0 	mov	x0, x20
    7884:	97fff77c 	bl	5674 <trace_ext_puts>
/home/pwnz/devel/optee/optee_os/lib/libutils/ext/trace.c:140
    7888:	a94153f3 	ldp	x19, x20, [sp,#16]
    788c:	a9425bf5 	ldp	x21, x22, [sp,#32]
    7890:	a94363f7 	ldp	x23, x24, [sp,#48]
    7894:	a9446bf9 	ldp	x25, x26, [sp,#64]
    7898:	a9407bfd 	ldp	x29, x30, [sp]
    789c:	9108c3ff 	add	sp, sp, #0x230
    78a0:	d65f03c0 	ret
trace_level_to_string():
/home/pwnz/devel/optee/optee_os/lib/libutils/ext/trace.c:62
    78a4:	d0000023 	adrp	x3, d000 <__func__.3637+0xa28>
    78a8:	910c5063 	add	x3, x3, #0x314
    78ac:	17ffff9a 	b	7714 <trace_printf+0x88>
trace_printf():
/home/pwnz/devel/optee/optee_os/lib/libutils/ext/trace.c:135
    78b0:	d1000673 	sub	x19, x19, #0x1
    78b4:	17ffffed 	b	7868 <trace_printf+0x1dc>

00000000000078b8 <dhex_dump>:
dhex_dump():
/home/pwnz/devel/optee/optee_os/lib/libutils/ext/trace.c:251
    78b8:	d65f03c0 	ret

00000000000078bc <memchr>:
memchr():
/home/pwnz/devel/optee/optee_os/lib/libutils/isoc/newlib/memchr.c:108
    78bc:	12001c21 	and	w1, w1, #0xff
    78c0:	8b020002 	add	x2, x0, x2
/home/pwnz/devel/optee/optee_os/lib/libutils/isoc/newlib/memchr.c:152
    78c4:	eb02001f 	cmp	x0, x2
    78c8:	54000061 	b.ne	78d4 <memchr+0x18>
/home/pwnz/devel/optee/optee_os/lib/libutils/isoc/newlib/memchr.c:158
    78cc:	d2800000 	mov	x0, #0x0                   	// #0
/home/pwnz/devel/optee/optee_os/lib/libutils/isoc/newlib/memchr.c:159
    78d0:	d65f03c0 	ret
/home/pwnz/devel/optee/optee_os/lib/libutils/isoc/newlib/memchr.c:153
    78d4:	39400003 	ldrb	w3, [x0]
    78d8:	6b01007f 	cmp	w3, w1
    78dc:	54ffffa0 	b.eq	78d0 <memchr+0x14>
/home/pwnz/devel/optee/optee_os/lib/libutils/isoc/newlib/memchr.c:155
    78e0:	91000400 	add	x0, x0, #0x1
    78e4:	17fffff8 	b	78c4 <memchr+0x8>

00000000000078e8 <__mpa_set_unused_digits_to_zero>:
__mpa_set_unused_digits_to_zero():
/home/pwnz/devel/optee/optee_os/lib/libmpa/mpa_misc.c:59
    78e8:	b9400401 	ldr	w1, [x0,#4]
/home/pwnz/devel/optee/optee_os/lib/libmpa/mpa_misc.c:60
    78ec:	b8408402 	ldr	w2, [x0],#8
/home/pwnz/devel/optee/optee_os/lib/libmpa/mpa_misc.c:59
    78f0:	7100003f 	cmp	w1, #0x0
    78f4:	5a81a423 	cneg	w3, w1, lt
/home/pwnz/devel/optee/optee_os/lib/libmpa/mpa_misc.c:60
    78f8:	52800001 	mov	w1, #0x0                   	// #0
    78fc:	4b030042 	sub	w2, w2, w3
    7900:	8b23c800 	add	x0, x0, w3, sxtw #2
    7904:	d37e7442 	ubfiz	x2, x2, #2, #30
    7908:	17fffc1a 	b	6970 <memset>

000000000000790c <mpa_wipe>:
mpa_wipe():
/home/pwnz/devel/optee/optee_os/lib/libmpa/mpa_misc.c:77
    790c:	a9be7bfd 	stp	x29, x30, [sp,#-32]!
/home/pwnz/devel/optee/optee_os/lib/libmpa/mpa_misc.c:78
    7910:	52800001 	mov	w1, #0x0                   	// #0
/home/pwnz/devel/optee/optee_os/lib/libmpa/mpa_misc.c:77
    7914:	910003fd 	mov	x29, sp
    7918:	f9000bf3 	str	x19, [sp,#16]
    791c:	aa0003f3 	mov	x19, x0
/home/pwnz/devel/optee/optee_os/lib/libmpa/mpa_misc.c:78
    7920:	b8408402 	ldr	w2, [x0],#8
    7924:	d37e7442 	ubfiz	x2, x2, #2, #30
    7928:	97fffc12 	bl	6970 <memset>
/home/pwnz/devel/optee/optee_os/lib/libmpa/mpa_misc.c:79
    792c:	b900067f 	str	wzr, [x19,#4]
/home/pwnz/devel/optee/optee_os/lib/libmpa/mpa_misc.c:80
    7930:	f9400bf3 	ldr	x19, [sp,#16]
    7934:	a8c27bfd 	ldp	x29, x30, [sp],#32
    7938:	d65f03c0 	ret

000000000000793c <mpa_copy>:
mpa_copy():
/home/pwnz/devel/optee/optee_os/lib/libmpa/mpa_misc.c:93
    793c:	eb01001f 	cmp	x0, x1
    7940:	54000260 	b.eq	798c <mpa_copy+0x50>
/home/pwnz/devel/optee/optee_os/lib/libmpa/mpa_misc.c:92
    7944:	a9be7bfd 	stp	x29, x30, [sp,#-32]!
    7948:	910003fd 	mov	x29, sp
    794c:	a90153f3 	stp	x19, x20, [sp,#16]
    7950:	aa0103f3 	mov	x19, x1
    7954:	aa0003f4 	mov	x20, x0
/home/pwnz/devel/optee/optee_os/lib/libmpa/mpa_misc.c:96
    7958:	91002021 	add	x1, x1, #0x8
    795c:	91002000 	add	x0, x0, #0x8
    7960:	b9400662 	ldr	w2, [x19,#4]
    7964:	7100005f 	cmp	w2, #0x0
    7968:	5a82a442 	cneg	w2, w2, lt
    796c:	531e7442 	lsl	w2, w2, #2
    7970:	93407c42 	sxtw	x2, w2
    7974:	97fffbe4 	bl	6904 <memcpy>
/home/pwnz/devel/optee/optee_os/lib/libmpa/mpa_misc.c:97
    7978:	b9400660 	ldr	w0, [x19,#4]
    797c:	b9000680 	str	w0, [x20,#4]
/home/pwnz/devel/optee/optee_os/lib/libmpa/mpa_misc.c:98
    7980:	a94153f3 	ldp	x19, x20, [sp,#16]
    7984:	a8c27bfd 	ldp	x29, x30, [sp],#32
    7988:	d65f03c0 	ret
    798c:	d65f03c0 	ret

0000000000007990 <mpa_abs>:
mpa_abs():
/home/pwnz/devel/optee/optee_os/lib/libmpa/mpa_misc.c:106
    7990:	a9be7bfd 	stp	x29, x30, [sp,#-32]!
    7994:	910003fd 	mov	x29, sp
    7998:	f9000bf3 	str	x19, [sp,#16]
    799c:	aa0003f3 	mov	x19, x0
/home/pwnz/devel/optee/optee_os/lib/libmpa/mpa_misc.c:107
    79a0:	97ffffe7 	bl	793c <mpa_copy>
/home/pwnz/devel/optee/optee_os/lib/libmpa/mpa_misc.c:108
    79a4:	b9400660 	ldr	w0, [x19,#4]
    79a8:	36f80060 	tbz	w0, #31, 79b4 <mpa_abs+0x24>
/home/pwnz/devel/optee/optee_os/lib/libmpa/mpa_misc.c:108 (discriminator 1)
    79ac:	4b0003e0 	neg	w0, w0
    79b0:	b9000660 	str	w0, [x19,#4]
/home/pwnz/devel/optee/optee_os/lib/libmpa/mpa_misc.c:109
    79b4:	f9400bf3 	ldr	x19, [sp,#16]
    79b8:	a8c27bfd 	ldp	x29, x30, [sp],#32
    79bc:	d65f03c0 	ret

00000000000079c0 <mpa_highest_bit_index>:
mpa_highest_bit_index():
/home/pwnz/devel/optee/optee_os/lib/libmpa/mpa_misc.c:123
    79c0:	b9400401 	ldr	w1, [x0,#4]
    79c4:	7100003f 	cmp	w1, #0x0
    79c8:	540001a0 	b.eq	79fc <mpa_highest_bit_index+0x3c>
/home/pwnz/devel/optee/optee_os/lib/libmpa/mpa_misc.c:126
    79cc:	5a81a421 	cneg	w1, w1, lt
    79d0:	51000421 	sub	w1, w1, #0x1
    79d4:	8b21c800 	add	x0, x0, w1, sxtw #2
    79d8:	b9400802 	ldr	w2, [x0,#8]
/home/pwnz/devel/optee/optee_os/lib/libmpa/mpa_misc.c:128
    79dc:	52800000 	mov	w0, #0x0                   	// #0
/home/pwnz/devel/optee/optee_os/lib/libmpa/mpa_misc.c:129
    79e0:	53017c42 	lsr	w2, w2, #1
/home/pwnz/devel/optee/optee_os/lib/libmpa/mpa_misc.c:130
    79e4:	34000082 	cbz	w2, 79f4 <mpa_highest_bit_index+0x34>
/home/pwnz/devel/optee/optee_os/lib/libmpa/mpa_misc.c:128 (discriminator 2)
    79e8:	11000400 	add	w0, w0, #0x1
    79ec:	7100801f 	cmp	w0, #0x20
    79f0:	54ffff81 	b.ne	79e0 <mpa_highest_bit_index+0x20>
/home/pwnz/devel/optee/optee_os/lib/libmpa/mpa_misc.c:133
    79f4:	0b011400 	add	w0, w0, w1, lsl #5
    79f8:	d65f03c0 	ret
/home/pwnz/devel/optee/optee_os/lib/libmpa/mpa_misc.c:124
    79fc:	12800000 	mov	w0, #0xffffffff            	// #-1
/home/pwnz/devel/optee/optee_os/lib/libmpa/mpa_misc.c:134
    7a00:	d65f03c0 	ret

0000000000007a04 <mpa_get_bit>:
mpa_get_bit():
/home/pwnz/devel/optee/optee_os/lib/libmpa/mpa_misc.c:153
    7a04:	b9400402 	ldr	w2, [x0,#4]
/home/pwnz/devel/optee/optee_os/lib/libmpa/mpa_misc.c:150
    7a08:	53057c23 	lsr	w3, w1, #5
/home/pwnz/devel/optee/optee_os/lib/libmpa/mpa_misc.c:153
    7a0c:	7100005f 	cmp	w2, #0x0
    7a10:	5a82a442 	cneg	w2, w2, lt
    7a14:	6b02007f 	cmp	w3, w2
    7a18:	54000148 	b.hi	7a40 <mpa_get_bit+0x3c>
/home/pwnz/devel/optee/optee_os/lib/libmpa/mpa_misc.c:156
    7a1c:	d37e6863 	ubfiz	x3, x3, #2, #27
/home/pwnz/devel/optee/optee_os/lib/libmpa/mpa_misc.c:155
    7a20:	12001021 	and	w1, w1, #0x1f
/home/pwnz/devel/optee/optee_os/lib/libmpa/mpa_misc.c:156
    7a24:	8b030000 	add	x0, x0, x3
/home/pwnz/devel/optee/optee_os/lib/libmpa/mpa_misc.c:155
    7a28:	d2800022 	mov	x2, #0x1                   	// #1
    7a2c:	9ac12041 	lsl	x1, x2, x1
/home/pwnz/devel/optee/optee_os/lib/libmpa/mpa_misc.c:156
    7a30:	b9400800 	ldr	w0, [x0,#8]
    7a34:	ea00003f 	tst	x1, x0
    7a38:	1a9f07e0 	cset	w0, ne
    7a3c:	d65f03c0 	ret
    7a40:	52800000 	mov	w0, #0x0                   	// #0
/home/pwnz/devel/optee/optee_os/lib/libmpa/mpa_misc.c:157
    7a44:	d65f03c0 	ret

0000000000007a48 <mpa_can_hold>:
mpa_can_hold():
/home/pwnz/devel/optee/optee_os/lib/libmpa/mpa_misc.c:167
    7a48:	b9400421 	ldr	w1, [x1,#4]
    7a4c:	b9400000 	ldr	w0, [x0]
    7a50:	7100003f 	cmp	w1, #0x0
    7a54:	5a81a421 	cneg	w1, w1, lt
    7a58:	6b01001f 	cmp	w0, w1
/home/pwnz/devel/optee/optee_os/lib/libmpa/mpa_misc.c:168
    7a5c:	1a9f37e0 	cset	w0, cs
    7a60:	d65f03c0 	ret

0000000000007a64 <mpa_parity>:
mpa_parity():
/home/pwnz/devel/optee/optee_os/lib/libmpa/mpa_misc.c:178
    7a64:	b9400800 	ldr	w0, [x0,#8]
/home/pwnz/devel/optee/optee_os/lib/libmpa/mpa_misc.c:179
    7a68:	12000000 	and	w0, w0, #0x1
    7a6c:	d65f03c0 	ret

0000000000007a70 <mpa_constant_one>:
mpa_constant_one():
/home/pwnz/devel/optee/optee_os/lib/libmpa/mpa_misc.c:189
    7a70:	90000020 	adrp	x0, b000 <mpa_get_str+0x20>
    7a74:	91218000 	add	x0, x0, #0x860
    7a78:	d65f03c0 	ret

0000000000007a7c <__mpa_montgomery_mul_add>:
__mpa_montgomery_mul_add():
/home/pwnz/devel/optee/optee_os/lib/libmpa/mpa_montgomery.c:56
    7a7c:	34000222 	cbz	w2, 7ac0 <__mpa_montgomery_mul_add+0x44>
/home/pwnz/devel/optee/optee_os/lib/libmpa/mpa_montgomery.c:58
    7a80:	91002007 	add	x7, x0, #0x8
    7a84:	d2800025 	mov	x5, #0x1                   	// #1
/home/pwnz/devel/optee/optee_os/lib/libmpa/mpa_montgomery.c:59
    7a88:	aa0703e3 	mov	x3, x7
/home/pwnz/devel/optee/optee_os/lib/libmpa/mpa_montgomery.c:60
    7a8c:	52800004 	mov	w4, #0x0                   	// #0
/home/pwnz/devel/optee/optee_os/lib/libmpa/mpa_montgomery.c:61
    7a90:	b9400428 	ldr	w8, [x1,#4]
    7a94:	510004a6 	sub	w6, w5, #0x1
    7a98:	910004a5 	add	x5, x5, #0x1
    7a9c:	6b0800df 	cmp	w6, w8
    7aa0:	5400012b 	b.lt	7ac4 <__mpa_montgomery_mul_add+0x48>
/home/pwnz/devel/optee/optee_os/lib/libmpa/mpa_montgomery.c:68
    7aa4:	350001e4 	cbnz	w4, 7ae0 <__mpa_montgomery_mul_add+0x64>
/home/pwnz/devel/optee/optee_os/lib/libmpa/mpa_montgomery.c:73
    7aa8:	cb070063 	sub	x3, x3, x7
/home/pwnz/devel/optee/optee_os/lib/libmpa/mpa_montgomery.c:74
    7aac:	b9400401 	ldr	w1, [x0,#4]
/home/pwnz/devel/optee/optee_os/lib/libmpa/mpa_montgomery.c:73
    7ab0:	9342fc63 	asr	x3, x3, #2
/home/pwnz/devel/optee/optee_os/lib/libmpa/mpa_montgomery.c:74
    7ab4:	6b01007f 	cmp	w3, w1
    7ab8:	5400004d 	b.le	7ac0 <__mpa_montgomery_mul_add+0x44>
/home/pwnz/devel/optee/optee_os/lib/libmpa/mpa_montgomery.c:75
    7abc:	b9000403 	str	w3, [x0,#4]
    7ac0:	d65f03c0 	ret
/home/pwnz/devel/optee/optee_os/lib/libmpa/mpa_montgomery.c:62
    7ac4:	b9400066 	ldr	w6, [x3]
    7ac8:	8b2440c4 	add	x4, x6, w4, uxtw
    7acc:	b8657826 	ldr	w6, [x1,x5,lsl #2]
    7ad0:	9ba210c4 	umaddl	x4, w6, w2, x4
/home/pwnz/devel/optee/optee_os/lib/libmpa/mpa_montgomery.c:65
    7ad4:	b8004464 	str	w4, [x3],#4
/home/pwnz/devel/optee/optee_os/lib/libmpa/mpa_montgomery.c:66
    7ad8:	d360fc84 	lsr	x4, x4, #32
    7adc:	17ffffed 	b	7a90 <__mpa_montgomery_mul_add+0x14>
/home/pwnz/devel/optee/optee_os/lib/libmpa/mpa_montgomery.c:69
    7ae0:	b9400061 	ldr	w1, [x3]
    7ae4:	8b244024 	add	x4, x1, w4, uxtw
/home/pwnz/devel/optee/optee_os/lib/libmpa/mpa_montgomery.c:70
    7ae8:	b8004464 	str	w4, [x3],#4
/home/pwnz/devel/optee/optee_os/lib/libmpa/mpa_montgomery.c:71
    7aec:	d360fc84 	lsr	x4, x4, #32
    7af0:	17ffffed 	b	7aa4 <__mpa_montgomery_mul_add+0x28>

0000000000007af4 <__mpa_montgomery_sub_ack>:
__mpa_montgomery_sub_ack():
/home/pwnz/devel/optee/optee_os/lib/libmpa/mpa_montgomery.c:97
    7af4:	91002002 	add	x2, x0, #0x8
/home/pwnz/devel/optee/optee_os/lib/libmpa/mpa_montgomery.c:100
    7af8:	d2800026 	mov	x6, #0x1                   	// #1
/home/pwnz/devel/optee/optee_os/lib/libmpa/mpa_montgomery.c:98
    7afc:	52800004 	mov	w4, #0x0                   	// #0
/home/pwnz/devel/optee/optee_os/lib/libmpa/mpa_montgomery.c:100
    7b00:	b9400423 	ldr	w3, [x1,#4]
    7b04:	510004c5 	sub	w5, w6, #0x1
    7b08:	910004c6 	add	x6, x6, #0x1
    7b0c:	6b05007f 	cmp	w3, w5
    7b10:	540000cc 	b.gt	7b28 <__mpa_montgomery_sub_ack+0x34>
/home/pwnz/devel/optee/optee_os/lib/libmpa/mpa_montgomery.c:109
    7b14:	350001a4 	cbnz	w4, 7b48 <__mpa_montgomery_sub_ack+0x54>
/home/pwnz/devel/optee/optee_os/lib/libmpa/mpa_montgomery.c:115
    7b18:	b9400401 	ldr	w1, [x0,#4]
    7b1c:	6b0100bf 	cmp	w5, w1
    7b20:	5400026a 	b.ge	7b6c <__mpa_montgomery_sub_ack+0x78>
    7b24:	d65f03c0 	ret
/home/pwnz/devel/optee/optee_os/lib/libmpa/mpa_montgomery.c:101
    7b28:	b8667825 	ldr	w5, [x1,x6,lsl #2]
    7b2c:	b9400043 	ldr	w3, [x2]
    7b30:	cb050063 	sub	x3, x3, x5
    7b34:	cb244063 	sub	x3, x3, w4, uxtw
/home/pwnz/devel/optee/optee_os/lib/libmpa/mpa_montgomery.c:103
    7b38:	b8004443 	str	w3, [x2],#4
/home/pwnz/devel/optee/optee_os/lib/libmpa/mpa_montgomery.c:104
    7b3c:	d360fc63 	lsr	x3, x3, #32
    7b40:	4b0303e4 	neg	w4, w3
    7b44:	17ffffef 	b	7b00 <__mpa_montgomery_sub_ack+0xc>
/home/pwnz/devel/optee/optee_os/lib/libmpa/mpa_montgomery.c:110
    7b48:	b9400041 	ldr	w1, [x2]
/home/pwnz/devel/optee/optee_os/lib/libmpa/mpa_montgomery.c:113
    7b4c:	110004a5 	add	w5, w5, #0x1
/home/pwnz/devel/optee/optee_os/lib/libmpa/mpa_montgomery.c:110
    7b50:	cb244023 	sub	x3, x1, w4, uxtw
/home/pwnz/devel/optee/optee_os/lib/libmpa/mpa_montgomery.c:111
    7b54:	b8004443 	str	w3, [x2],#4
/home/pwnz/devel/optee/optee_os/lib/libmpa/mpa_montgomery.c:112
    7b58:	d360fc63 	lsr	x3, x3, #32
    7b5c:	4b0303e4 	neg	w4, w3
    7b60:	17ffffed 	b	7b14 <__mpa_montgomery_sub_ack+0x20>
/home/pwnz/devel/optee/optee_os/lib/libmpa/mpa_montgomery.c:118
    7b64:	51000421 	sub	w1, w1, #0x1
    7b68:	b9000401 	str	w1, [x0,#4]
/home/pwnz/devel/optee/optee_os/lib/libmpa/mpa_montgomery.c:117
    7b6c:	b9400401 	ldr	w1, [x0,#4]
    7b70:	7100003f 	cmp	w1, #0x0
    7b74:	5400006d 	b.le	7b80 <__mpa_montgomery_sub_ack+0x8c>
/home/pwnz/devel/optee/optee_os/lib/libmpa/mpa_montgomery.c:117 (discriminator 1)
    7b78:	b85fcc43 	ldr	w3, [x2,#-4]!
    7b7c:	34ffff43 	cbz	w3, 7b64 <__mpa_montgomery_sub_ack+0x70>
    7b80:	d65f03c0 	ret

0000000000007b84 <__mpa_montgomery_mul>:
__mpa_montgomery_mul():
/home/pwnz/devel/optee/optee_os/lib/libmpa/mpa_montgomery.c:137
    7b84:	a9bb7bfd 	stp	x29, x30, [sp,#-80]!
    7b88:	910003fd 	mov	x29, sp
    7b8c:	a90363f7 	stp	x23, x24, [sp,#48]
    7b90:	aa0103f7 	mov	x23, x1
    7b94:	a9046bf9 	stp	x25, x26, [sp,#64]
    7b98:	910022f9 	add	x25, x23, #0x8
/home/pwnz/devel/optee/optee_os/lib/libmpa/mpa_montgomery.c:144
    7b9c:	52800018 	mov	w24, #0x0                   	// #0
/home/pwnz/devel/optee/optee_os/lib/libmpa/mpa_montgomery.c:137
    7ba0:	a90153f3 	stp	x19, x20, [sp,#16]
    7ba4:	a9025bf5 	stp	x21, x22, [sp,#32]
    7ba8:	aa0003f3 	mov	x19, x0
    7bac:	aa0203f6 	mov	x22, x2
    7bb0:	aa0303f4 	mov	x20, x3
    7bb4:	2a0403f5 	mov	w21, w4
/home/pwnz/devel/optee/optee_os/lib/libmpa/mpa_montgomery.c:142
    7bb8:	97ffff55 	bl	790c <mpa_wipe>
/home/pwnz/devel/optee/optee_os/lib/libmpa/mpa_montgomery.c:144 (discriminator 1)
    7bbc:	b9400680 	ldr	w0, [x20,#4]
    7bc0:	6b00031f 	cmp	w24, w0
    7bc4:	540001ab 	b.lt	7bf8 <__mpa_montgomery_mul+0x74>
/home/pwnz/devel/optee/optee_os/lib/libmpa/mpa_montgomery.c:161
    7bc8:	aa1403e1 	mov	x1, x20
    7bcc:	aa1303e0 	mov	x0, x19
    7bd0:	94000af3 	bl	a79c <__mpa_abs_cmp>
    7bd4:	37f805e0 	tbnz	w0, #31, 7c90 <__mpa_montgomery_mul+0x10c>
/home/pwnz/devel/optee/optee_os/lib/libmpa/mpa_montgomery.c:162
    7bd8:	aa1403e1 	mov	x1, x20
    7bdc:	aa1303e0 	mov	x0, x19
/home/pwnz/devel/optee/optee_os/lib/libmpa/mpa_montgomery.c:163
    7be0:	a9425bf5 	ldp	x21, x22, [sp,#32]
    7be4:	a94153f3 	ldp	x19, x20, [sp,#16]
    7be8:	a94363f7 	ldp	x23, x24, [sp,#48]
    7bec:	a9446bf9 	ldp	x25, x26, [sp,#64]
    7bf0:	a8c57bfd 	ldp	x29, x30, [sp],#80
/home/pwnz/devel/optee/optee_os/lib/libmpa/mpa_montgomery.c:162
    7bf4:	17ffffc0 	b	7af4 <__mpa_montgomery_sub_ack>
/home/pwnz/devel/optee/optee_os/lib/libmpa/mpa_montgomery.c:146
    7bf8:	b94006e1 	ldr	w1, [x23,#4]
    7bfc:	52800002 	mov	w2, #0x0                   	// #0
/home/pwnz/devel/optee/optee_os/lib/libmpa/mpa_montgomery.c:145
    7c00:	b9400a69 	ldr	w9, [x19,#8]
/home/pwnz/devel/optee/optee_os/lib/libmpa/mpa_montgomery.c:146
    7c04:	7100003f 	cmp	w1, #0x0
    7c08:	5a81a421 	cneg	w1, w1, lt
    7c0c:	6b01031f 	cmp	w24, w1
    7c10:	5400004a 	b.ge	7c18 <__mpa_montgomery_mul+0x94>
/home/pwnz/devel/optee/optee_os/lib/libmpa/mpa_montgomery.c:146 (discriminator 1)
    7c14:	b9400322 	ldr	w2, [x25]
/home/pwnz/devel/optee/optee_os/lib/libmpa/mpa_montgomery.c:147
    7c18:	b94006c1 	ldr	w1, [x22,#4]
    7c1c:	52800000 	mov	w0, #0x0                   	// #0
    7c20:	34000041 	cbz	w1, 7c28 <__mpa_montgomery_mul+0xa4>
/home/pwnz/devel/optee/optee_os/lib/libmpa/mpa_montgomery.c:147 (discriminator 1)
    7c24:	b9400ac0 	ldr	w0, [x22,#8]
/home/pwnz/devel/optee/optee_os/lib/libmpa/mpa_montgomery.c:145
    7c28:	1b002440 	madd	w0, w2, w0, w9
/home/pwnz/devel/optee/optee_os/lib/libmpa/mpa_montgomery.c:149
    7c2c:	aa1603e1 	mov	x1, x22
/home/pwnz/devel/optee/optee_os/lib/libmpa/mpa_montgomery.c:145
    7c30:	1b157c1a 	mul	w26, w0, w21
/home/pwnz/devel/optee/optee_os/lib/libmpa/mpa_montgomery.c:149
    7c34:	aa1303e0 	mov	x0, x19
    7c38:	97ffff91 	bl	7a7c <__mpa_montgomery_mul_add>
/home/pwnz/devel/optee/optee_os/lib/libmpa/mpa_montgomery.c:151
    7c3c:	2a1a03e2 	mov	w2, w26
    7c40:	aa1403e1 	mov	x1, x20
    7c44:	aa1303e0 	mov	x0, x19
    7c48:	97ffff8d 	bl	7a7c <__mpa_montgomery_mul_add>
/home/pwnz/devel/optee/optee_os/lib/libmpa/mpa_montgomery.c:154
    7c4c:	b9400660 	ldr	w0, [x19,#4]
    7c50:	91002261 	add	x1, x19, #0x8
/home/pwnz/devel/optee/optee_os/lib/libmpa/mpa_montgomery.c:155
    7c54:	52800002 	mov	w2, #0x0                   	// #0
/home/pwnz/devel/optee/optee_os/lib/libmpa/mpa_montgomery.c:154
    7c58:	51000400 	sub	w0, w0, #0x1
    7c5c:	b9000660 	str	w0, [x19,#4]
    7c60:	91001021 	add	x1, x1, #0x4
/home/pwnz/devel/optee/optee_os/lib/libmpa/mpa_montgomery.c:155 (discriminator 1)
    7c64:	6b00005f 	cmp	w2, w0
    7c68:	540000cb 	b.lt	7c80 <__mpa_montgomery_mul+0xfc>
/home/pwnz/devel/optee/optee_os/lib/libmpa/mpa_montgomery.c:157 (discriminator 2)
    7c6c:	8b20ca60 	add	x0, x19, w0, sxtw #2
/home/pwnz/devel/optee/optee_os/lib/libmpa/mpa_montgomery.c:144 (discriminator 2)
    7c70:	11000718 	add	w24, w24, #0x1
    7c74:	91001339 	add	x25, x25, #0x4
/home/pwnz/devel/optee/optee_os/lib/libmpa/mpa_montgomery.c:157 (discriminator 2)
    7c78:	b900081f 	str	wzr, [x0,#8]
    7c7c:	17ffffd0 	b	7bbc <__mpa_montgomery_mul+0x38>
/home/pwnz/devel/optee/optee_os/lib/libmpa/mpa_montgomery.c:156 (discriminator 3)
    7c80:	b9400023 	ldr	w3, [x1]
    7c84:	11000442 	add	w2, w2, #0x1
    7c88:	b81fc023 	stur	w3, [x1,#-4]
    7c8c:	17fffff5 	b	7c60 <__mpa_montgomery_mul+0xdc>
/home/pwnz/devel/optee/optee_os/lib/libmpa/mpa_montgomery.c:163
    7c90:	a94153f3 	ldp	x19, x20, [sp,#16]
    7c94:	a9425bf5 	ldp	x21, x22, [sp,#32]
    7c98:	a94363f7 	ldp	x23, x24, [sp,#48]
    7c9c:	a9446bf9 	ldp	x25, x26, [sp,#64]
    7ca0:	a8c57bfd 	ldp	x29, x30, [sp],#80
    7ca4:	d65f03c0 	ret

0000000000007ca8 <mpa_compute_fmm_context>:
mpa_compute_fmm_context():
/home/pwnz/devel/optee/optee_os/lib/libmpa/mpa_montgomery.c:179
    7ca8:	a9ba7bfd 	stp	x29, x30, [sp,#-96]!
    7cac:	910003fd 	mov	x29, sp
    7cb0:	a90363f7 	stp	x23, x24, [sp,#48]
    7cb4:	aa0203f8 	mov	x24, x2
/home/pwnz/devel/optee/optee_os/lib/libmpa/mpa_montgomery.c:193
    7cb8:	b9400402 	ldr	w2, [x0,#4]
/home/pwnz/devel/optee/optee_os/lib/libmpa/mpa_montgomery.c:179
    7cbc:	aa0303f7 	mov	x23, x3
    7cc0:	a90153f3 	stp	x19, x20, [sp,#16]
    7cc4:	aa0103f4 	mov	x20, x1
/home/pwnz/devel/optee/optee_os/lib/libmpa/mpa_montgomery.c:193
    7cc8:	7100005f 	cmp	w2, #0x0
/home/pwnz/devel/optee/optee_os/lib/libmpa/mpa_montgomery.c:179
    7ccc:	aa0403f3 	mov	x19, x4
    7cd0:	a9025bf5 	stp	x21, x22, [sp,#32]
/home/pwnz/devel/optee/optee_os/lib/libmpa/mpa_montgomery.c:194
    7cd4:	52800021 	mov	w1, #0x1                   	// #1
/home/pwnz/devel/optee/optee_os/lib/libmpa/mpa_montgomery.c:193
    7cd8:	5a82a455 	cneg	w21, w2, lt
/home/pwnz/devel/optee/optee_os/lib/libmpa/mpa_montgomery.c:179
    7cdc:	aa0003f6 	mov	x22, x0
/home/pwnz/devel/optee/optee_os/lib/libmpa/mpa_montgomery.c:194
    7ce0:	aa1403e0 	mov	x0, x20
    7ce4:	94000175 	bl	82b8 <mpa_set_word>
/home/pwnz/devel/optee/optee_os/lib/libmpa/mpa_montgomery.c:195
    7ce8:	531b6aa2 	lsl	w2, w21, #5
    7cec:	aa1403e1 	mov	x1, x20
    7cf0:	aa1403e0 	mov	x0, x20
    7cf4:	940007b8 	bl	9bd4 <mpa_shift_left>
/home/pwnz/devel/optee/optee_os/lib/libmpa/mpa_montgomery.c:196
    7cf8:	aa1603e2 	mov	x2, x22
    7cfc:	aa1403e1 	mov	x1, x20
    7d00:	aa1403e0 	mov	x0, x20
    7d04:	aa1303e3 	mov	x3, x19
    7d08:	94000d78 	bl	b2e8 <mpa_mod>
/home/pwnz/devel/optee/optee_os/lib/libmpa/mpa_montgomery.c:202
    7d0c:	52800035 	mov	w21, #0x1                   	// #1
/home/pwnz/devel/optee/optee_os/lib/libmpa/mpa_montgomery.c:199
    7d10:	aa1603e3 	mov	x3, x22
    7d14:	aa1403e2 	mov	x2, x20
    7d18:	aa1303e4 	mov	x4, x19
    7d1c:	aa1403e1 	mov	x1, x20
    7d20:	aa1803e0 	mov	x0, x24
    7d24:	94000db9 	bl	b408 <mpa_mul_mod>
/home/pwnz/devel/optee/optee_os/lib/libmpa/mpa_montgomery.c:204
    7d28:	b9400ac0 	ldr	w0, [x22,#8]
/home/pwnz/devel/optee/optee_os/lib/libmpa/mpa_montgomery.c:206
    7d2c:	910103b6 	add	x22, x29, #0x40
    7d30:	aa1303e1 	mov	x1, x19
/home/pwnz/devel/optee/optee_os/lib/libmpa/mpa_montgomery.c:203
    7d34:	290a57b5 	stp	w21, w21, [x29,#80]
/home/pwnz/devel/optee/optee_os/lib/libmpa/mpa_montgomery.c:204
    7d38:	b9005ba0 	str	w0, [x29,#88]
/home/pwnz/devel/optee/optee_os/lib/libmpa/mpa_montgomery.c:207
    7d3c:	910123b8 	add	x24, x29, #0x48
/home/pwnz/devel/optee/optee_os/lib/libmpa/mpa_montgomery.c:206
    7d40:	aa1603e0 	mov	x0, x22
    7d44:	94000610 	bl	9584 <mpa_alloc_static_temp_var>
/home/pwnz/devel/optee/optee_os/lib/libmpa/mpa_montgomery.c:207
    7d48:	aa1303e1 	mov	x1, x19
    7d4c:	aa1803e0 	mov	x0, x24
    7d50:	9400060d 	bl	9584 <mpa_alloc_static_temp_var>
/home/pwnz/devel/optee/optee_os/lib/libmpa/mpa_montgomery.c:209
    7d54:	d0000034 	adrp	x20, d000 <__func__.3637+0xa28>
    7d58:	a94403a1 	ldp	x1, x0, [x29,#64]
    7d5c:	aa1303e5 	mov	x5, x19
    7d60:	f9432e94 	ldr	x20, [x20,#1624]
    7d64:	910143a3 	add	x3, x29, #0x50
    7d68:	d2800002 	mov	x2, #0x0                   	// #0
    7d6c:	aa1403e4 	mov	x4, x20
    7d70:	94000544 	bl	9280 <mpa_extended_gcd>
/home/pwnz/devel/optee/optee_os/lib/libmpa/mpa_montgomery.c:211
    7d74:	f94027a0 	ldr	x0, [x29,#72]
    7d78:	2a1503e1 	mov	w1, w21
    7d7c:	94000adb 	bl	a8e8 <mpa_cmp_short>
    7d80:	2a0003f5 	mov	w21, w0
/home/pwnz/devel/optee/optee_os/lib/libmpa/mpa_montgomery.c:213
    7d84:	35000160 	cbnz	w0, 7db0 <mpa_compute_fmm_context+0x108>
/home/pwnz/devel/optee/optee_os/lib/libmpa/mpa_montgomery.c:229
    7d88:	f94023a1 	ldr	x1, [x29,#64]
    7d8c:	b9400420 	ldr	w0, [x1,#4]
    7d90:	37f800a0 	tbnz	w0, #31, 7da4 <mpa_compute_fmm_context+0xfc>
/home/pwnz/devel/optee/optee_os/lib/libmpa/mpa_montgomery.c:230
    7d94:	aa1303e3 	mov	x3, x19
    7d98:	aa1403e2 	mov	x2, x20
    7d9c:	aa0103e0 	mov	x0, x1
    7da0:	94000970 	bl	a360 <mpa_sub>
/home/pwnz/devel/optee/optee_os/lib/libmpa/mpa_montgomery.c:234
    7da4:	f94023a0 	ldr	x0, [x29,#64]
    7da8:	b9400800 	ldr	w0, [x0,#8]
    7dac:	b90002e0 	str	w0, [x23]
/home/pwnz/devel/optee/optee_os/lib/libmpa/mpa_montgomery.c:238
    7db0:	aa1303e1 	mov	x1, x19
    7db4:	aa1803e0 	mov	x0, x24
    7db8:	940005f7 	bl	9594 <mpa_free_static_temp_var>
/home/pwnz/devel/optee/optee_os/lib/libmpa/mpa_montgomery.c:239
    7dbc:	aa1303e1 	mov	x1, x19
    7dc0:	aa1603e0 	mov	x0, x22
    7dc4:	940005f4 	bl	9594 <mpa_free_static_temp_var>
/home/pwnz/devel/optee/optee_os/lib/libmpa/mpa_montgomery.c:241
    7dc8:	710002bf 	cmp	w21, #0x0
/home/pwnz/devel/optee/optee_os/lib/libmpa/mpa_montgomery.c:244
    7dcc:	a94153f3 	ldp	x19, x20, [sp,#16]
    7dd0:	5a9f03e0 	csetm	w0, ne
    7dd4:	a9425bf5 	ldp	x21, x22, [sp,#32]
    7dd8:	a94363f7 	ldp	x23, x24, [sp,#48]
    7ddc:	a8c67bfd 	ldp	x29, x30, [sp],#96
    7de0:	d65f03c0 	ret

0000000000007de4 <mpa_montgomery_mul>:
mpa_montgomery_mul():
/home/pwnz/devel/optee/optee_os/lib/libmpa/mpa_montgomery.c:257
    7de4:	a9ba7bfd 	stp	x29, x30, [sp,#-96]!
    7de8:	910003fd 	mov	x29, sp
    7dec:	a90153f3 	stp	x19, x20, [sp,#16]
/home/pwnz/devel/optee/optee_os/lib/libmpa/mpa_montgomery.c:260
    7df0:	910163b3 	add	x19, x29, #0x58
/home/pwnz/devel/optee/optee_os/lib/libmpa/mpa_montgomery.c:257
    7df4:	aa0503f4 	mov	x20, x5
    7df8:	a9025bf5 	stp	x21, x22, [sp,#32]
    7dfc:	a90363f7 	stp	x23, x24, [sp,#48]
    7e00:	aa0003f5 	mov	x21, x0
    7e04:	f90023f9 	str	x25, [sp,#64]
    7e08:	aa0103f6 	mov	x22, x1
    7e0c:	aa0203f7 	mov	x23, x2
/home/pwnz/devel/optee/optee_os/lib/libmpa/mpa_montgomery.c:260
    7e10:	aa0503e1 	mov	x1, x5
/home/pwnz/devel/optee/optee_os/lib/libmpa/mpa_montgomery.c:257
    7e14:	aa0303f8 	mov	x24, x3
    7e18:	2a0403f9 	mov	w25, w4
/home/pwnz/devel/optee/optee_os/lib/libmpa/mpa_montgomery.c:260
    7e1c:	aa1303e0 	mov	x0, x19
    7e20:	940005d9 	bl	9584 <mpa_alloc_static_temp_var>
/home/pwnz/devel/optee/optee_os/lib/libmpa/mpa_montgomery.c:262
    7e24:	f9402fa0 	ldr	x0, [x29,#88]
    7e28:	2a1903e4 	mov	w4, w25
    7e2c:	aa1803e3 	mov	x3, x24
    7e30:	aa1703e2 	mov	x2, x23
    7e34:	aa1603e1 	mov	x1, x22
    7e38:	97ffff53 	bl	7b84 <__mpa_montgomery_mul>
/home/pwnz/devel/optee/optee_os/lib/libmpa/mpa_montgomery.c:264
    7e3c:	f9402fa1 	ldr	x1, [x29,#88]
    7e40:	aa1503e0 	mov	x0, x21
    7e44:	97fffebe 	bl	793c <mpa_copy>
/home/pwnz/devel/optee/optee_os/lib/libmpa/mpa_montgomery.c:265
    7e48:	aa1403e1 	mov	x1, x20
    7e4c:	aa1303e0 	mov	x0, x19
    7e50:	940005d1 	bl	9594 <mpa_free_static_temp_var>
/home/pwnz/devel/optee/optee_os/lib/libmpa/mpa_montgomery.c:266
    7e54:	f94023f9 	ldr	x25, [sp,#64]
    7e58:	a94153f3 	ldp	x19, x20, [sp,#16]
    7e5c:	a9425bf5 	ldp	x21, x22, [sp,#32]
    7e60:	a94363f7 	ldp	x23, x24, [sp,#48]
    7e64:	a8c67bfd 	ldp	x29, x30, [sp],#96
    7e68:	d65f03c0 	ret

0000000000007e6c <mpa_is_prob_prime>:
mpa_is_prob_prime():
/home/pwnz/devel/optee/optee_os/lib/libmpa/mpa_primetest.c:89
    7e6c:	a9b37bfd 	stp	x29, x30, [sp,#-208]!
    7e70:	910003fd 	mov	x29, sp
    7e74:	a9025bf5 	stp	x21, x22, [sp,#32]
    7e78:	2a0103f6 	mov	w22, w1
is_small_prime():
/home/pwnz/devel/optee/optee_os/lib/libmpa/mpa_primetest.c:136
    7e7c:	b9400401 	ldr	w1, [x0,#4]
mpa_is_prob_prime():
/home/pwnz/devel/optee/optee_os/lib/libmpa/mpa_primetest.c:89
    7e80:	a90153f3 	stp	x19, x20, [sp,#16]
    7e84:	aa0003f4 	mov	x20, x0
is_small_prime():
/home/pwnz/devel/optee/optee_os/lib/libmpa/mpa_primetest.c:136
    7e88:	7100003f 	cmp	w1, #0x0
mpa_is_prob_prime():
/home/pwnz/devel/optee/optee_os/lib/libmpa/mpa_primetest.c:89
    7e8c:	a90363f7 	stp	x23, x24, [sp,#48]
    7e90:	a9046bf9 	stp	x25, x26, [sp,#64]
is_small_prime():
/home/pwnz/devel/optee/optee_os/lib/libmpa/mpa_primetest.c:136
    7e94:	5a81a421 	cneg	w1, w1, lt
mpa_is_prob_prime():
/home/pwnz/devel/optee/optee_os/lib/libmpa/mpa_primetest.c:89
    7e98:	a90573fb 	stp	x27, x28, [sp,#80]
    7e9c:	aa0203f3 	mov	x19, x2
is_small_prime():
/home/pwnz/devel/optee/optee_os/lib/libmpa/mpa_primetest.c:136
    7ea0:	7100043f 	cmp	w1, #0x1
    7ea4:	5400018d 	b.le	7ed4 <mpa_is_prob_prime+0x68>
/home/pwnz/devel/optee/optee_os/lib/libmpa/mpa_primetest.c:137
    7ea8:	97fffeef 	bl	7a64 <mpa_parity>
    7eac:	35000d80 	cbnz	w0, 805c <mpa_is_prob_prime+0x1f0>
    7eb0:	52800019 	mov	w25, #0x0                   	// #0
mpa_is_prob_prime():
/home/pwnz/devel/optee/optee_os/lib/libmpa/mpa_primetest.c:107
    7eb4:	2a1903e0 	mov	w0, w25
    7eb8:	a94153f3 	ldp	x19, x20, [sp,#16]
    7ebc:	a9425bf5 	ldp	x21, x22, [sp,#32]
    7ec0:	a94363f7 	ldp	x23, x24, [sp,#48]
    7ec4:	a9446bf9 	ldp	x25, x26, [sp,#64]
    7ec8:	a94573fb 	ldp	x27, x28, [sp,#80]
    7ecc:	a8cd7bfd 	ldp	x29, x30, [sp],#208
    7ed0:	d65f03c0 	ret
is_small_prime():
/home/pwnz/devel/optee/optee_os/lib/libmpa/mpa_primetest.c:139
    7ed4:	940000fe 	bl	82cc <mpa_get_word>
    7ed8:	2a0003f5 	mov	w21, w0
/home/pwnz/devel/optee/optee_os/lib/libmpa/mpa_primetest.c:140
    7edc:	32000000 	orr	w0, w0, #0x1
    7ee0:	7100041f 	cmp	w0, #0x1
    7ee4:	54fffe60 	b.eq	7eb0 <mpa_is_prob_prime+0x44>
/home/pwnz/devel/optee/optee_os/lib/libmpa/mpa_primetest.c:143
    7ee8:	52800039 	mov	w25, #0x1                   	// #1
/home/pwnz/devel/optee/optee_os/lib/libmpa/mpa_primetest.c:142
    7eec:	71000abf 	cmp	w21, #0x2
    7ef0:	54fffe20 	b.eq	7eb4 <mpa_is_prob_prime+0x48>
/home/pwnz/devel/optee/optee_os/lib/libmpa/mpa_primetest.c:144
    7ef4:	3607fdf5 	tbz	w21, #0, 7eb0 <mpa_is_prob_prime+0x44>
/home/pwnz/devel/optee/optee_os/lib/libmpa/mpa_primetest.c:148
    7ef8:	529869e1 	mov	w1, #0xc34f                	// #49999
    7efc:	aa1403e0 	mov	x0, x20
    7f00:	94000a7a 	bl	a8e8 <mpa_cmp_short>
    7f04:	7100001f 	cmp	w0, #0x0
    7f08:	54000aac 	b.gt	805c <mpa_is_prob_prime+0x1f0>
/home/pwnz/devel/optee/optee_os/lib/libmpa/mpa_primetest.c:150
    7f0c:	51000eb5 	sub	w21, w21, #0x3
check_table():
/home/pwnz/devel/optee/optee_os/lib/libmpa/mpa_primetest.c:117
    7f10:	90000020 	adrp	x0, b000 <mpa_get_str+0x20>
    7f14:	91224000 	add	x0, x0, #0x890
    7f18:	d3467ea1 	ubfx	x1, x21, #6, #26
    7f1c:	d34116b5 	ubfx	x21, x21, #1, #5
    7f20:	b8617802 	ldr	w2, [x0,x1,lsl #2]
    7f24:	1ad52440 	lsr	w0, w2, w21
    7f28:	0a190019 	and	w25, w0, w25
    7f2c:	17ffffe2 	b	7eb4 <mpa_is_prob_prime+0x48>
primality_test_miller_rabin():
/home/pwnz/devel/optee/optee_os/lib/libmpa/mpa_primetest.c:228
    7f30:	f94057a1 	ldr	x1, [x29,#168]
    7f34:	52800022 	mov	w2, #0x1                   	// #1
/home/pwnz/devel/optee/optee_os/lib/libmpa/mpa_primetest.c:229
    7f38:	11000718 	add	w24, w24, #0x1
/home/pwnz/devel/optee/optee_os/lib/libmpa/mpa_primetest.c:228
    7f3c:	aa0103e0 	mov	x0, x1
    7f40:	94000789 	bl	9d64 <mpa_shift_right>
    7f44:	1400008e 	b	817c <mpa_is_prob_prime+0x310>
/home/pwnz/devel/optee/optee_os/lib/libmpa/mpa_primetest.c:234
    7f48:	36f803b7 	tbz	w23, #31, 7fbc <mpa_is_prob_prime+0x150>
/home/pwnz/devel/optee/optee_os/lib/libmpa/mpa_primetest.c:235
    7f4c:	f9403ba0 	ldr	x0, [x29,#112]
/home/pwnz/devel/optee/optee_os/lib/libmpa/mpa_primetest.c:237
    7f50:	52800039 	mov	w25, #0x1                   	// #1
/home/pwnz/devel/optee/optee_os/lib/libmpa/mpa_primetest.c:235
    7f54:	91312000 	add	x0, x0, #0xc48
    7f58:	b8767801 	ldr	w1, [x0,x22,lsl #2]
    7f5c:	f94053a0 	ldr	x0, [x29,#160]
    7f60:	940000ae 	bl	8218 <mpa_set_S32>
/home/pwnz/devel/optee/optee_os/lib/libmpa/mpa_primetest.c:236
    7f64:	f94053a1 	ldr	x1, [x29,#160]
    7f68:	aa1403e0 	mov	x0, x20
    7f6c:	94000a45 	bl	a880 <mpa_cmp>
    7f70:	34000220 	cbz	w0, 7fb4 <mpa_is_prob_prime+0x148>
/home/pwnz/devel/optee/optee_os/lib/libmpa/mpa_primetest.c:254
    7f74:	b9409fa6 	ldr	w6, [x29,#156]
    7f78:	aa1303e7 	mov	x7, x19
    7f7c:	a94a0ba1 	ldp	x1, x2, [x29,#160]
    7f80:	aa1403e3 	mov	x3, x20
    7f84:	a94b93a0 	ldp	x0, x4, [x29,#184]
/home/pwnz/devel/optee/optee_os/lib/libmpa/mpa_primetest.c:255
    7f88:	52800019 	mov	w25, #0x0                   	// #0
/home/pwnz/devel/optee/optee_os/lib/libmpa/mpa_primetest.c:254
    7f8c:	f94067a5 	ldr	x5, [x29,#200]
    7f90:	94000a77 	bl	a96c <mpa_exp_mod>
/home/pwnz/devel/optee/optee_os/lib/libmpa/mpa_primetest.c:258
    7f94:	f9405fa0 	ldr	x0, [x29,#184]
    7f98:	52800021 	mov	w1, #0x1                   	// #1
    7f9c:	94000a53 	bl	a8e8 <mpa_cmp_short>
/home/pwnz/devel/optee/optee_os/lib/libmpa/mpa_primetest.c:259
    7fa0:	7100001f 	cmp	w0, #0x0
/home/pwnz/devel/optee/optee_os/lib/libmpa/mpa_primetest.c:258
    7fa4:	2a0003e2 	mov	w2, w0
/home/pwnz/devel/optee/optee_os/lib/libmpa/mpa_primetest.c:259
    7fa8:	7a400b24 	ccmp	w25, #0x0, #0x4, eq
    7fac:	540002ed 	b.le	8008 <mpa_is_prob_prime+0x19c>
/home/pwnz/devel/optee/optee_os/lib/libmpa/mpa_primetest.c:260
    7fb0:	52800019 	mov	w25, #0x0                   	// #0
    7fb4:	910006d6 	add	x22, x22, #0x1
    7fb8:	1400007b 	b	81a4 <mpa_is_prob_prime+0x338>
/home/pwnz/devel/optee/optee_os/lib/libmpa/mpa_primetest.c:246
    7fbc:	f9405ba1 	ldr	x1, [x29,#176]
    7fc0:	aa1303e3 	mov	x3, x19
    7fc4:	52800022 	mov	w2, #0x1                   	// #1
    7fc8:	aa0103e0 	mov	x0, x1
    7fcc:	940009a6 	bl	a664 <mpa_sub_word>
/home/pwnz/devel/optee/optee_os/lib/libmpa/mpa_primetest.c:248
    7fd0:	f94053a0 	ldr	x0, [x29,#160]
    7fd4:	f9405ba1 	ldr	x1, [x29,#176]
    7fd8:	94000660 	bl	9958 <mpa_get_random>
/home/pwnz/devel/optee/optee_os/lib/libmpa/mpa_primetest.c:249
    7fdc:	f9405ba1 	ldr	x1, [x29,#176]
    7fe0:	aa1303e3 	mov	x3, x19
    7fe4:	52800022 	mov	w2, #0x1                   	// #1
    7fe8:	aa0103e0 	mov	x0, x1
    7fec:	9400094f 	bl	a528 <mpa_add_word>
/home/pwnz/devel/optee/optee_os/lib/libmpa/mpa_primetest.c:251
    7ff0:	f94053a1 	ldr	x1, [x29,#160]
    7ff4:	aa1303e3 	mov	x3, x19
    7ff8:	52800042 	mov	w2, #0x2                   	// #2
    7ffc:	aa0103e0 	mov	x0, x1
    8000:	9400094a 	bl	a528 <mpa_add_word>
    8004:	17ffffdc 	b	7f74 <mpa_is_prob_prime+0x108>
/home/pwnz/devel/optee/optee_os/lib/libmpa/mpa_primetest.c:264
    8008:	a94b03a1 	ldp	x1, x0, [x29,#176]
    800c:	b90067a2 	str	w2, [x29,#100]
    8010:	94000a1c 	bl	a880 <mpa_cmp>
    8014:	34000200 	cbz	w0, 8054 <mpa_is_prob_prime+0x1e8>
/home/pwnz/devel/optee/optee_os/lib/libmpa/mpa_primetest.c:265
    8018:	b94067a2 	ldr	w2, [x29,#100]
    801c:	2a190042 	orr	w2, w2, w25
/home/pwnz/devel/optee/optee_os/lib/libmpa/mpa_primetest.c:264
    8020:	340001a2 	cbz	w2, 8054 <mpa_is_prob_prime+0x1e8>
/home/pwnz/devel/optee/optee_os/lib/libmpa/mpa_primetest.c:270
    8024:	11000739 	add	w25, w25, #0x1
/home/pwnz/devel/optee/optee_os/lib/libmpa/mpa_primetest.c:271
    8028:	6b19031f 	cmp	w24, w25
    802c:	54fffc2d 	b.le	7fb0 <mpa_is_prob_prime+0x144>
/home/pwnz/devel/optee/optee_os/lib/libmpa/mpa_primetest.c:272
    8030:	a94b93a1 	ldp	x1, x4, [x29,#184]
    8034:	aa1303e7 	mov	x7, x19
    8038:	b9409fa6 	ldr	w6, [x29,#156]
    803c:	aa1403e3 	mov	x3, x20
    8040:	f94037a2 	ldr	x2, [x29,#104]
    8044:	aa0103e0 	mov	x0, x1
    8048:	f94067a5 	ldr	x5, [x29,#200]
    804c:	94000a48 	bl	a96c <mpa_exp_mod>
    8050:	17ffffd1 	b	7f94 <mpa_is_prob_prime+0x128>
/home/pwnz/devel/optee/optee_os/lib/libmpa/mpa_primetest.c:264
    8054:	12800019 	mov	w25, #0xffffffff            	// #-1
    8058:	17ffffd7 	b	7fb4 <mpa_is_prob_prime+0x148>
has_small_factors():
/home/pwnz/devel/optee/optee_os/lib/libmpa/mpa_primetest.c:170
    805c:	910323b5 	add	x21, x29, #0xc8
    8060:	aa1303e1 	mov	x1, x19
    8064:	aa1503e0 	mov	x0, x21
    8068:	94000547 	bl	9584 <mpa_alloc_static_temp_var>
/home/pwnz/devel/optee/optee_os/lib/libmpa/mpa_primetest.c:171
    806c:	f94067a0 	ldr	x0, [x29,#200]
    8070:	f0000018 	adrp	x24, b000 <mpa_get_str+0x20>
    8074:	91224317 	add	x23, x24, #0x890
    8078:	aa1303e3 	mov	x3, x19
    807c:	9131e2e2 	add	x2, x23, #0xc78
    8080:	aa1403e1 	mov	x1, x20
    8084:	94000437 	bl	9160 <mpa_gcd>
/home/pwnz/devel/optee/optee_os/lib/libmpa/mpa_primetest.c:172
    8088:	f94067a0 	ldr	x0, [x29,#200]
    808c:	52800021 	mov	w1, #0x1                   	// #1
    8090:	94000a16 	bl	a8e8 <mpa_cmp_short>
    8094:	2a0003f9 	mov	w25, w0
/home/pwnz/devel/optee/optee_os/lib/libmpa/mpa_primetest.c:173
    8098:	aa1303e1 	mov	x1, x19
    809c:	aa1503e0 	mov	x0, x21
    80a0:	9400053d 	bl	9594 <mpa_free_static_temp_var>
    80a4:	f9003bb8 	str	x24, [x29,#112]
mpa_is_prob_prime():
/home/pwnz/devel/optee/optee_os/lib/libmpa/mpa_primetest.c:98
    80a8:	35fff059 	cbnz	w25, 7eb0 <mpa_is_prob_prime+0x44>
primality_test_miller_rabin():
/home/pwnz/devel/optee/optee_os/lib/libmpa/mpa_primetest.c:202
    80ac:	910303a0 	add	x0, x29, #0xc0
    80b0:	aa1303e1 	mov	x1, x19
    80b4:	f90043a0 	str	x0, [x29,#128]
    80b8:	94000533 	bl	9584 <mpa_alloc_static_temp_var>
/home/pwnz/devel/optee/optee_os/lib/libmpa/mpa_primetest.c:203
    80bc:	aa1303e1 	mov	x1, x19
    80c0:	aa1503e0 	mov	x0, x21
    80c4:	94000530 	bl	9584 <mpa_alloc_static_temp_var>
/home/pwnz/devel/optee/optee_os/lib/libmpa/mpa_primetest.c:206
    80c8:	52800019 	mov	w25, #0x0                   	// #0
/home/pwnz/devel/optee/optee_os/lib/libmpa/mpa_primetest.c:205
    80cc:	a94c0ba1 	ldp	x1, x2, [x29,#192]
    80d0:	aa1303e4 	mov	x4, x19
    80d4:	910273a3 	add	x3, x29, #0x9c
    80d8:	aa1403e0 	mov	x0, x20
    80dc:	97fffef3 	bl	7ca8 <mpa_compute_fmm_context>
    80e0:	3100041f 	cmn	w0, #0x1
    80e4:	540008c0 	b.eq	81fc <mpa_is_prob_prime+0x390>
/home/pwnz/devel/optee/optee_os/lib/libmpa/mpa_primetest.c:210
    80e8:	910283bc 	add	x28, x29, #0xa0
    80ec:	aa1303e1 	mov	x1, x19
    80f0:	aa1c03e0 	mov	x0, x28
/home/pwnz/devel/optee/optee_os/lib/libmpa/mpa_primetest.c:211
    80f4:	9102a3bb 	add	x27, x29, #0xa8
/home/pwnz/devel/optee/optee_os/lib/libmpa/mpa_primetest.c:210
    80f8:	94000523 	bl	9584 <mpa_alloc_static_temp_var>
/home/pwnz/devel/optee/optee_os/lib/libmpa/mpa_primetest.c:212
    80fc:	9102c3ba 	add	x26, x29, #0xb0
/home/pwnz/devel/optee/optee_os/lib/libmpa/mpa_primetest.c:211
    8100:	aa1303e1 	mov	x1, x19
    8104:	aa1b03e0 	mov	x0, x27
    8108:	9400051f 	bl	9584 <mpa_alloc_static_temp_var>
/home/pwnz/devel/optee/optee_os/lib/libmpa/mpa_primetest.c:212
    810c:	aa1303e1 	mov	x1, x19
    8110:	aa1a03e0 	mov	x0, x26
    8114:	9400051c 	bl	9584 <mpa_alloc_static_temp_var>
/home/pwnz/devel/optee/optee_os/lib/libmpa/mpa_primetest.c:213
    8118:	9102e3a0 	add	x0, x29, #0xb8
    811c:	aa1303e1 	mov	x1, x19
    8120:	f9003fa0 	str	x0, [x29,#120]
    8124:	94000518 	bl	9584 <mpa_alloc_static_temp_var>
/home/pwnz/devel/optee/optee_os/lib/libmpa/mpa_primetest.c:216
    8128:	9130e2e1 	add	x1, x23, #0xc38
    812c:	aa1403e0 	mov	x0, x20
    8130:	940009d4 	bl	a880 <mpa_cmp>
    8134:	2a0003f7 	mov	w23, w0
/home/pwnz/devel/optee/optee_os/lib/libmpa/mpa_primetest.c:215
    8138:	531f7c00 	lsr	w0, w0, #31
    813c:	b9008ba0 	str	w0, [x29,#136]
/home/pwnz/devel/optee/optee_os/lib/libmpa/mpa_primetest.c:219
    8140:	528000e0 	mov	w0, #0x7                   	// #7
    8144:	b9008fa0 	str	w0, [x29,#140]
/home/pwnz/devel/optee/optee_os/lib/libmpa/mpa_primetest.c:218
    8148:	37f800b7 	tbnz	w23, #31, 815c <mpa_is_prob_prime+0x2f0>
/home/pwnz/devel/optee/optee_os/lib/libmpa/mpa_primetest.c:221
    814c:	110006d6 	add	w22, w22, #0x1
    8150:	52800040 	mov	w0, #0x2                   	// #2
    8154:	1ac00ec0 	sdiv	w0, w22, w0
    8158:	b9008fa0 	str	w0, [x29,#140]
/home/pwnz/devel/optee/optee_os/lib/libmpa/mpa_primetest.c:223
    815c:	f9405ba0 	ldr	x0, [x29,#176]
    8160:	aa1403e1 	mov	x1, x20
    8164:	aa1303e3 	mov	x3, x19
    8168:	52800022 	mov	w2, #0x1                   	// #1
/home/pwnz/devel/optee/optee_os/lib/libmpa/mpa_primetest.c:225
    816c:	52800018 	mov	w24, #0x0                   	// #0
/home/pwnz/devel/optee/optee_os/lib/libmpa/mpa_primetest.c:223
    8170:	9400093d 	bl	a664 <mpa_sub_word>
/home/pwnz/devel/optee/optee_os/lib/libmpa/mpa_primetest.c:224
    8174:	a94a87a0 	ldp	x0, x1, [x29,#168]
    8178:	97fffdf1 	bl	793c <mpa_copy>
/home/pwnz/devel/optee/optee_os/lib/libmpa/mpa_primetest.c:227
    817c:	f94057a0 	ldr	x0, [x29,#168]
    8180:	97fffe39 	bl	7a64 <mpa_parity>
    8184:	34ffed60 	cbz	w0, 7f30 <mpa_is_prob_prime+0xc4>
/home/pwnz/devel/optee/optee_os/lib/libmpa/mpa_primetest.c:272
    8188:	f9403ba0 	ldr	x0, [x29,#112]
/home/pwnz/devel/optee/optee_os/lib/libmpa/mpa_primetest.c:227
    818c:	d2800016 	mov	x22, #0x0                   	// #0
    8190:	12800019 	mov	w25, #0xffffffff            	// #-1
/home/pwnz/devel/optee/optee_os/lib/libmpa/mpa_primetest.c:272
    8194:	91224000 	add	x0, x0, #0x890
    8198:	f9003ba0 	str	x0, [x29,#112]
    819c:	9131a000 	add	x0, x0, #0xc68
    81a0:	f90037a0 	str	x0, [x29,#104]
/home/pwnz/devel/optee/optee_os/lib/libmpa/mpa_primetest.c:233
    81a4:	b9408fa1 	ldr	w1, [x29,#140]
    81a8:	3100073f 	cmn	w25, #0x1
    81ac:	1a9f17e0 	cset	w0, eq
    81b0:	6b16003f 	cmp	w1, w22
    81b4:	1a9fd7e1 	cset	w1, gt
    81b8:	6a01001f 	tst	w0, w1
    81bc:	54ffec61 	b.ne	7f48 <mpa_is_prob_prime+0xdc>
/home/pwnz/devel/optee/optee_os/lib/libmpa/mpa_primetest.c:280
    81c0:	b9408ba1 	ldr	w1, [x29,#136]
    81c4:	6a00003f 	tst	w1, w0
/home/pwnz/devel/optee/optee_os/lib/libmpa/mpa_primetest.c:282
    81c8:	aa1303e1 	mov	x1, x19
/home/pwnz/devel/optee/optee_os/lib/libmpa/mpa_primetest.c:280
    81cc:	1a9f0739 	csinc	w25, w25, wzr, eq
/home/pwnz/devel/optee/optee_os/lib/libmpa/mpa_primetest.c:282
    81d0:	aa1c03e0 	mov	x0, x28
    81d4:	940004f0 	bl	9594 <mpa_free_static_temp_var>
/home/pwnz/devel/optee/optee_os/lib/libmpa/mpa_primetest.c:283
    81d8:	aa1303e1 	mov	x1, x19
    81dc:	aa1b03e0 	mov	x0, x27
    81e0:	940004ed 	bl	9594 <mpa_free_static_temp_var>
/home/pwnz/devel/optee/optee_os/lib/libmpa/mpa_primetest.c:284
    81e4:	aa1303e1 	mov	x1, x19
    81e8:	aa1a03e0 	mov	x0, x26
    81ec:	940004ea 	bl	9594 <mpa_free_static_temp_var>
/home/pwnz/devel/optee/optee_os/lib/libmpa/mpa_primetest.c:285
    81f0:	f9403fa0 	ldr	x0, [x29,#120]
    81f4:	aa1303e1 	mov	x1, x19
    81f8:	940004e7 	bl	9594 <mpa_free_static_temp_var>
/home/pwnz/devel/optee/optee_os/lib/libmpa/mpa_primetest.c:287
    81fc:	f94043a0 	ldr	x0, [x29,#128]
    8200:	aa1303e1 	mov	x1, x19
    8204:	940004e4 	bl	9594 <mpa_free_static_temp_var>
/home/pwnz/devel/optee/optee_os/lib/libmpa/mpa_primetest.c:288
    8208:	aa1303e1 	mov	x1, x19
    820c:	aa1503e0 	mov	x0, x21
    8210:	940004e1 	bl	9594 <mpa_free_static_temp_var>
    8214:	17ffff28 	b	7eb4 <mpa_is_prob_prime+0x48>

0000000000008218 <mpa_set_S32>:
mpa_set_S32():
/home/pwnz/devel/optee/optee_os/lib/libmpa/mpa_conv.c:37
    8218:	7100003f 	cmp	w1, #0x0
    821c:	54000100 	b.eq	823c <mpa_set_S32+0x24>
/home/pwnz/devel/optee/optee_os/lib/libmpa/mpa_conv.c:38
    8220:	52800022 	mov	w2, #0x1                   	// #1
    8224:	5a82a442 	cneg	w2, w2, lt
    8228:	b9000402 	str	w2, [x0,#4]
/home/pwnz/devel/optee/optee_os/lib/libmpa/mpa_conv.c:41
    822c:	7100003f 	cmp	w1, #0x0
    8230:	5a81a421 	cneg	w1, w1, lt
    8234:	b9000801 	str	w1, [x0,#8]
    8238:	d65f03c0 	ret
/home/pwnz/devel/optee/optee_os/lib/libmpa/mpa_conv.c:40
    823c:	b900041f 	str	wzr, [x0,#4]
    8240:	17fffffb 	b	822c <mpa_set_S32+0x14>

0000000000008244 <mpa_get_S32>:
mpa_get_S32():
/home/pwnz/devel/optee/optee_os/lib/libmpa/mpa_conv.c:57
    8244:	b9400422 	ldr	w2, [x1,#4]
/home/pwnz/devel/optee/optee_os/lib/libmpa/mpa_conv.c:55
    8248:	aa0003e4 	mov	x4, x0
/home/pwnz/devel/optee/optee_os/lib/libmpa/mpa_conv.c:57
    824c:	7100005f 	cmp	w2, #0x0
    8250:	5a82a440 	cneg	w0, w2, lt
    8254:	7100041f 	cmp	w0, #0x1
    8258:	540002cc 	b.gt	82b0 <mpa_get_S32+0x6c>
/home/pwnz/devel/optee/optee_os/lib/libmpa/mpa_conv.c:59
    825c:	b9400823 	ldr	w3, [x1,#8]
    8260:	52b00000 	mov	w0, #0x80000000            	// #-2147483648
    8264:	7100005f 	cmp	w2, #0x0
    8268:	7a40b060 	ccmp	w3, w0, #0x0, lt
/home/pwnz/devel/optee/optee_os/lib/libmpa/mpa_conv.c:58
    826c:	12800000 	mov	w0, #0xffffffff            	// #-1
/home/pwnz/devel/optee/optee_os/lib/libmpa/mpa_conv.c:59
    8270:	54000088 	b.hi	8280 <mpa_get_S32+0x3c>
/home/pwnz/devel/optee/optee_os/lib/libmpa/mpa_conv.c:61
    8274:	36f80083 	tbz	w3, #31, 8284 <mpa_get_S32+0x40>
/home/pwnz/devel/optee/optee_os/lib/libmpa/mpa_conv.c:64 (discriminator 1)
    8278:	2a0003e1 	mov	w1, w0
/home/pwnz/devel/optee/optee_os/lib/libmpa/mpa_conv.c:61 (discriminator 1)
    827c:	37f800c2 	tbnz	w2, #31, 8294 <mpa_get_S32+0x50>
/home/pwnz/devel/optee/optee_os/lib/libmpa/mpa_conv.c:70
    8280:	d65f03c0 	ret
/home/pwnz/devel/optee/optee_os/lib/libmpa/mpa_conv.c:64
    8284:	34000102 	cbz	w2, 82a4 <mpa_get_S32+0x60>
/home/pwnz/devel/optee/optee_os/lib/libmpa/mpa_conv.c:64 (discriminator 4)
    8288:	12800001 	mov	w1, #0xffffffff            	// #-1
    828c:	6b01005f 	cmp	w2, w1
    8290:	5a81d421 	cneg	w1, w1, gt
/home/pwnz/devel/optee/optee_os/lib/libmpa/mpa_conv.c:64 (discriminator 8)
    8294:	1b037c21 	mul	w1, w1, w3
/home/pwnz/devel/optee/optee_os/lib/libmpa/mpa_conv.c:65 (discriminator 8)
    8298:	52800000 	mov	w0, #0x0                   	// #0
/home/pwnz/devel/optee/optee_os/lib/libmpa/mpa_conv.c:64 (discriminator 8)
    829c:	b9000081 	str	w1, [x4]
/home/pwnz/devel/optee/optee_os/lib/libmpa/mpa_conv.c:65 (discriminator 8)
    82a0:	d65f03c0 	ret
/home/pwnz/devel/optee/optee_os/lib/libmpa/mpa_conv.c:64
    82a4:	52800003 	mov	w3, #0x0                   	// #0
    82a8:	52800021 	mov	w1, #0x1                   	// #1
    82ac:	17fffffa 	b	8294 <mpa_get_S32+0x50>
/home/pwnz/devel/optee/optee_os/lib/libmpa/mpa_conv.c:58
    82b0:	12800000 	mov	w0, #0xffffffff            	// #-1
    82b4:	17fffff3 	b	8280 <mpa_get_S32+0x3c>

00000000000082b8 <mpa_set_word>:
mpa_set_word():
/home/pwnz/devel/optee/optee_os/lib/libmpa/mpa_conv.c:80
    82b8:	7100003f 	cmp	w1, #0x0
/home/pwnz/devel/optee/optee_os/lib/libmpa/mpa_conv.c:79
    82bc:	b9000801 	str	w1, [x0,#8]
/home/pwnz/devel/optee/optee_os/lib/libmpa/mpa_conv.c:80
    82c0:	1a9f07e1 	cset	w1, ne
    82c4:	b9000401 	str	w1, [x0,#4]
    82c8:	d65f03c0 	ret

00000000000082cc <mpa_get_word>:
mpa_get_word():
/home/pwnz/devel/optee/optee_os/lib/libmpa/mpa_conv.c:91
    82cc:	b9400401 	ldr	w1, [x0,#4]
    82d0:	34000061 	cbz	w1, 82dc <mpa_get_word+0x10>
/home/pwnz/devel/optee/optee_os/lib/libmpa/mpa_conv.c:91 (discriminator 1)
    82d4:	b9400800 	ldr	w0, [x0,#8]
    82d8:	d65f03c0 	ret
/home/pwnz/devel/optee/optee_os/lib/libmpa/mpa_conv.c:91
    82dc:	52800000 	mov	w0, #0x0                   	// #0
/home/pwnz/devel/optee/optee_os/lib/libmpa/mpa_conv.c:92
    82e0:	d65f03c0 	ret

00000000000082e4 <__mpa_div_dword>:
__mpa_div_dword():
/home/pwnz/devel/optee/optee_os/lib/libmpa/mpa_div.c:81
    82e4:	2a0003e0 	mov	w0, w0
__mpa_soft_div():
/home/pwnz/devel/optee/optee_os/lib/libmpa/mpa_div.c:46
    82e8:	2a0203e2 	mov	w2, w2
__mpa_div_dword():
/home/pwnz/devel/optee/optee_os/lib/libmpa/mpa_div.c:81
    82ec:	8b018001 	add	x1, x0, x1, lsl #32
__mpa_soft_div():
/home/pwnz/devel/optee/optee_os/lib/libmpa/mpa_div.c:45
    82f0:	d2800024 	mov	x4, #0x1                   	// #1
/home/pwnz/devel/optee/optee_os/lib/libmpa/mpa_div.c:48
    82f4:	b6f800c2 	tbz	x2, #63, 830c <__mpa_div_dword+0x28>
    82f8:	d2800000 	mov	x0, #0x0                   	// #0
/home/pwnz/devel/optee/optee_os/lib/libmpa/mpa_div.c:53
    82fc:	b50000e4 	cbnz	x4, 8318 <__mpa_div_dword+0x34>
/home/pwnz/devel/optee/optee_os/lib/libmpa/mpa_div.c:62
    8300:	b4000043 	cbz	x3, 8308 <__mpa_div_dword+0x24>
/home/pwnz/devel/optee/optee_os/lib/libmpa/mpa_div.c:63
    8304:	b9000061 	str	w1, [x3]
__mpa_div_dword():
/home/pwnz/devel/optee/optee_os/lib/libmpa/mpa_div.c:89
    8308:	d65f03c0 	ret
__mpa_soft_div():
/home/pwnz/devel/optee/optee_os/lib/libmpa/mpa_div.c:49
    830c:	d37ff842 	lsl	x2, x2, #1
/home/pwnz/devel/optee/optee_os/lib/libmpa/mpa_div.c:50
    8310:	d37ff884 	lsl	x4, x4, #1
    8314:	17fffff8 	b	82f4 <__mpa_div_dword+0x10>
/home/pwnz/devel/optee/optee_os/lib/libmpa/mpa_div.c:54
    8318:	eb02003f 	cmp	x1, x2
    831c:	54000063 	b.cc	8328 <__mpa_div_dword+0x44>
/home/pwnz/devel/optee/optee_os/lib/libmpa/mpa_div.c:55
    8320:	cb020021 	sub	x1, x1, x2
/home/pwnz/devel/optee/optee_os/lib/libmpa/mpa_div.c:56
    8324:	8b040000 	add	x0, x0, x4
/home/pwnz/devel/optee/optee_os/lib/libmpa/mpa_div.c:58
    8328:	d341fc42 	lsr	x2, x2, #1
/home/pwnz/devel/optee/optee_os/lib/libmpa/mpa_div.c:59
    832c:	d341fc84 	lsr	x4, x4, #1
    8330:	17fffff3 	b	82fc <__mpa_div_dword+0x18>

0000000000008334 <__mpa_div_q_r_internal_word>:
__mpa_div_q_r_internal_word():
/home/pwnz/devel/optee/optee_os/lib/libmpa/mpa_div.c:269
    8334:	a9ba7bfd 	stp	x29, x30, [sp,#-96]!
    8338:	910003fd 	mov	x29, sp
    833c:	a9025bf5 	stp	x21, x22, [sp,#32]
    8340:	aa0103f5 	mov	x21, x1
/home/pwnz/devel/optee/optee_os/lib/libmpa/mpa_div.c:277
    8344:	b9400441 	ldr	w1, [x2,#4]
/home/pwnz/devel/optee/optee_os/lib/libmpa/mpa_div.c:269
    8348:	aa0203f6 	mov	x22, x2
    834c:	a90153f3 	stp	x19, x20, [sp,#16]
    8350:	2a0303f4 	mov	w20, w3
/home/pwnz/devel/optee/optee_os/lib/libmpa/mpa_div.c:277
    8354:	7100003f 	cmp	w1, #0x0
/home/pwnz/devel/optee/optee_os/lib/libmpa/mpa_div.c:269
    8358:	a90363f7 	stp	x23, x24, [sp,#48]
    835c:	a9046bf9 	stp	x25, x26, [sp,#64]
/home/pwnz/devel/optee/optee_os/lib/libmpa/mpa_div.c:277
    8360:	5a81a421 	cneg	w1, w1, lt
    8364:	7100043f 	cmp	w1, #0x1
    8368:	540001e1 	b.ne	83a4 <__mpa_div_q_r_internal_word+0x70>
/home/pwnz/devel/optee/optee_os/lib/libmpa/mpa_div.c:278
    836c:	b9400841 	ldr	w1, [x2,#8]
    8370:	1ac30821 	udiv	w1, w1, w3
    8374:	97ffffd1 	bl	82b8 <mpa_set_word>
/home/pwnz/devel/optee/optee_os/lib/libmpa/mpa_div.c:279
    8378:	b9400ac0 	ldr	w0, [x22,#8]
    837c:	1ad40801 	udiv	w1, w0, w20
    8380:	1b148021 	msub	w1, w1, w20, w0
    8384:	aa1503e0 	mov	x0, x21
    8388:	97ffffcc 	bl	82b8 <mpa_set_word>
/home/pwnz/devel/optee/optee_os/lib/libmpa/mpa_div.c:301
    838c:	a94153f3 	ldp	x19, x20, [sp,#16]
    8390:	a9425bf5 	ldp	x21, x22, [sp,#32]
    8394:	a94363f7 	ldp	x23, x24, [sp,#48]
    8398:	a9446bf9 	ldp	x25, x26, [sp,#64]
    839c:	a8c67bfd 	ldp	x29, x30, [sp],#96
    83a0:	d65f03c0 	ret
/home/pwnz/devel/optee/optee_os/lib/libmpa/mpa_div.c:282
    83a4:	aa0203e1 	mov	x1, x2
    83a8:	aa0003f3 	mov	x19, x0
    83ac:	aa1503e0 	mov	x0, x21
    83b0:	97fffd63 	bl	793c <mpa_copy>
/home/pwnz/devel/optee/optee_os/lib/libmpa/mpa_div.c:283
    83b4:	52800001 	mov	w1, #0x0                   	// #0
    83b8:	aa1303e0 	mov	x0, x19
    83bc:	97ffffbf 	bl	82b8 <mpa_set_word>
/home/pwnz/devel/optee/optee_os/lib/libmpa/mpa_div.c:289
    83c0:	910173ba 	add	x26, x29, #0x5c
/home/pwnz/devel/optee/optee_os/lib/libmpa/mpa_div.c:285
    83c4:	b94006a1 	ldr	w1, [x21,#4]
    83c8:	7100003f 	cmp	w1, #0x0
    83cc:	5a81a421 	cneg	w1, w1, lt
    83d0:	51000422 	sub	w2, w1, #0x1
/home/pwnz/devel/optee/optee_os/lib/libmpa/mpa_div.c:287
    83d4:	93407c42 	sxtw	x2, w2
    83d8:	8b020aa0 	add	x0, x21, x2, lsl #2
    83dc:	91000843 	add	x3, x2, #0x2
    83e0:	d37ef477 	lsl	x23, x3, #2
    83e4:	cb21c063 	sub	x3, x3, w1, sxtw
    83e8:	51000821 	sub	w1, w1, #0x2
    83ec:	d37ef478 	lsl	x24, x3, #2
    83f0:	937e7c21 	sbfiz	x1, x1, #2, #32
    83f4:	b9400800 	ldr	w0, [x0,#8]
    83f8:	cb020821 	sub	x1, x1, x2, lsl #2
    83fc:	8b0102b9 	add	x25, x21, x1
/home/pwnz/devel/optee/optee_os/lib/libmpa/mpa_div.c:286
    8400:	52800001 	mov	w1, #0x0                   	// #0
/home/pwnz/devel/optee/optee_os/lib/libmpa/mpa_div.c:288
    8404:	eb1802ff 	cmp	x23, x24
    8408:	54000281 	b.ne	8458 <__mpa_div_q_r_internal_word+0x124>
/home/pwnz/devel/optee/optee_os/lib/libmpa/mpa_div.c:296
    840c:	b9400aa0 	ldr	w0, [x21,#8]
    8410:	7100001f 	cmp	w0, #0x0
    8414:	1a9f07e0 	cset	w0, ne
    8418:	b90006a0 	str	w0, [x21,#4]
/home/pwnz/devel/optee/optee_os/lib/libmpa/mpa_div.c:297
    841c:	b94006c0 	ldr	w0, [x22,#4]
    8420:	7100001f 	cmp	w0, #0x0
    8424:	5a80a400 	cneg	w0, w0, lt
    8428:	51000400 	sub	w0, w0, #0x1
    842c:	93407c00 	sxtw	x0, w0
    8430:	2a0003e1 	mov	w1, w0
/home/pwnz/devel/optee/optee_os/lib/libmpa/mpa_div.c:298
    8434:	3100041f 	cmn	w0, #0x1
    8438:	540000a0 	b.eq	844c <__mpa_div_q_r_internal_word+0x118>
    843c:	d1000400 	sub	x0, x0, #0x1
/home/pwnz/devel/optee/optee_os/lib/libmpa/mpa_div.c:298 (discriminator 1)
    8440:	8b000a62 	add	x2, x19, x0, lsl #2
    8444:	b9400c42 	ldr	w2, [x2,#12]
    8448:	34ffff42 	cbz	w2, 8430 <__mpa_div_q_r_internal_word+0xfc>
/home/pwnz/devel/optee/optee_os/lib/libmpa/mpa_div.c:300
    844c:	11000420 	add	w0, w1, #0x1
    8450:	b9000660 	str	w0, [x19,#4]
    8454:	17ffffce 	b	838c <__mpa_div_q_r_internal_word+0x58>
/home/pwnz/devel/optee/optee_os/lib/libmpa/mpa_div.c:289
    8458:	aa1a03e3 	mov	x3, x26
    845c:	2a1403e2 	mov	w2, w20
    8460:	97ffffa1 	bl	82e4 <__mpa_div_dword>
/home/pwnz/devel/optee/optee_os/lib/libmpa/mpa_div.c:290
    8464:	b8376a60 	str	w0, [x19,x23]
/home/pwnz/devel/optee/optee_os/lib/libmpa/mpa_div.c:291
    8468:	b9405fa1 	ldr	w1, [x29,#92]
    846c:	b8376aa1 	str	w1, [x21,x23]
/home/pwnz/devel/optee/optee_os/lib/libmpa/mpa_div.c:293
    8470:	b8776b20 	ldr	w0, [x25,x23]
    8474:	d10012f7 	sub	x23, x23, #0x4
    8478:	17ffffe3 	b	8404 <__mpa_div_q_r_internal_word+0xd0>

000000000000847c <__mpa_div_q_r>:
__mpa_div_q_r():
/home/pwnz/devel/optee/optee_os/lib/libmpa/mpa_div.c:324
    847c:	a9b07bfd 	stp	x29, x30, [sp,#-256]!
    8480:	910003fd 	mov	x29, sp
    8484:	a90363f7 	stp	x23, x24, [sp,#48]
    8488:	aa0103f8 	mov	x24, x1
/home/pwnz/devel/optee/optee_os/lib/libmpa/mpa_div.c:328
    848c:	b9400441 	ldr	w1, [x2,#4]
/home/pwnz/devel/optee/optee_os/lib/libmpa/mpa_div.c:324
    8490:	a90153f3 	stp	x19, x20, [sp,#16]
    8494:	a9025bf5 	stp	x21, x22, [sp,#32]
    8498:	a9046bf9 	stp	x25, x26, [sp,#64]
    849c:	a90573fb 	stp	x27, x28, [sp,#80]
/home/pwnz/devel/optee/optee_os/lib/libmpa/mpa_div.c:328
    84a0:	35000181 	cbnz	w1, 84d0 <__mpa_div_q_r+0x54>
/home/pwnz/devel/optee/optee_os/lib/libmpa/mpa_div.c:344
    84a4:	97ffff85 	bl	82b8 <mpa_set_word>
/home/pwnz/devel/optee/optee_os/lib/libmpa/mpa_div.c:345
    84a8:	52800001 	mov	w1, #0x0                   	// #0
    84ac:	aa1803e0 	mov	x0, x24
    84b0:	97ffff82 	bl	82b8 <mpa_set_word>
/home/pwnz/devel/optee/optee_os/lib/libmpa/mpa_div.c:360
    84b4:	a94153f3 	ldp	x19, x20, [sp,#16]
    84b8:	a9425bf5 	ldp	x21, x22, [sp,#32]
    84bc:	a94363f7 	ldp	x23, x24, [sp,#48]
    84c0:	a9446bf9 	ldp	x25, x26, [sp,#64]
    84c4:	a94573fb 	ldp	x27, x28, [sp,#80]
    84c8:	a8d07bfd 	ldp	x29, x30, [sp],#256
    84cc:	d65f03c0 	ret
    84d0:	aa0003f3 	mov	x19, x0
/home/pwnz/devel/optee/optee_os/lib/libmpa/mpa_div.c:333
    84d4:	b9400460 	ldr	w0, [x3,#4]
    84d8:	aa0303f4 	mov	x20, x3
    84dc:	34fffec0 	cbz	w0, 84b4 <__mpa_div_q_r+0x38>
    84e0:	aa0203fa 	mov	x26, x2
    84e4:	aa0403f7 	mov	x23, x4
/home/pwnz/devel/optee/optee_os/lib/libmpa/mpa_div.c:340
    84e8:	36f82ee1 	tbz	w1, #31, 8ac4 <__mpa_div_q_r+0x648>
/home/pwnz/devel/optee/optee_os/lib/libmpa/mpa_div.c:341
    84ec:	7100001f 	cmp	w0, #0x0
    84f0:	12800001 	mov	w1, #0xffffffff            	// #-1
    84f4:	5a81a420 	cneg	w0, w1, lt
    84f8:	14000176 	b	8ad0 <__mpa_div_q_r+0x654>
/home/pwnz/devel/optee/optee_os/lib/libmpa/mpa_div.c:348
    84fc:	54002d6d 	b.le	8aa8 <__mpa_div_q_r+0x62c>
/home/pwnz/devel/optee/optee_os/lib/libmpa/mpa_div.c:349
    8500:	b9400680 	ldr	w0, [x20,#4]
    8504:	7100001f 	cmp	w0, #0x0
    8508:	5a80a400 	cneg	w0, w0, lt
    850c:	7100041f 	cmp	w0, #0x1
    8510:	54002c0d 	b.le	8a90 <__mpa_div_q_r+0x614>
__mpa_div_q_r_internal():
/home/pwnz/devel/optee/optee_os/lib/libmpa/mpa_div.c:125
    8514:	9103a3a0 	add	x0, x29, #0xe8
    8518:	aa1703e1 	mov	x1, x23
    851c:	f9005fa0 	str	x0, [x29,#184]
    8520:	94000419 	bl	9584 <mpa_alloc_static_temp_var>
/home/pwnz/devel/optee/optee_os/lib/libmpa/mpa_div.c:126
    8524:	9103c3a0 	add	x0, x29, #0xf0
    8528:	aa1703e1 	mov	x1, x23
    852c:	f9005ba0 	str	x0, [x29,#176]
    8530:	94000415 	bl	9584 <mpa_alloc_static_temp_var>
/home/pwnz/devel/optee/optee_os/lib/libmpa/mpa_div.c:127
    8534:	f9407ba0 	ldr	x0, [x29,#240]
    8538:	aa1403e1 	mov	x1, x20
    853c:	97fffd00 	bl	793c <mpa_copy>
/home/pwnz/devel/optee/optee_os/lib/libmpa/mpa_div.c:134
    8540:	9103e3a0 	add	x0, x29, #0xf8
    8544:	aa1703e1 	mov	x1, x23
    8548:	f90057a0 	str	x0, [x29,#168]
    854c:	9400040e 	bl	9584 <mpa_alloc_static_temp_var>
/home/pwnz/devel/optee/optee_os/lib/libmpa/mpa_div.c:135
    8550:	f9407fa0 	ldr	x0, [x29,#248]
    8554:	aa1a03e1 	mov	x1, x26
    8558:	97fffcf9 	bl	793c <mpa_copy>
/home/pwnz/devel/optee/optee_os/lib/libmpa/mpa_div.c:136
    855c:	f9407fa1 	ldr	x1, [x29,#248]
    8560:	b9400420 	ldr	w0, [x1,#4]
    8564:	36f80060 	tbz	w0, #31, 8570 <__mpa_div_q_r+0xf4>
    8568:	4b0003e0 	neg	w0, w0
    856c:	b9000420 	str	w0, [x1,#4]
/home/pwnz/devel/optee/optee_os/lib/libmpa/mpa_div.c:137
    8570:	f9407ba2 	ldr	x2, [x29,#240]
    8574:	b9400440 	ldr	w0, [x2,#4]
    8578:	36f80060 	tbz	w0, #31, 8584 <__mpa_div_q_r+0x108>
    857c:	4b0003e0 	neg	w0, w0
    8580:	b9000440 	str	w0, [x2,#4]
/home/pwnz/devel/optee/optee_os/lib/libmpa/mpa_div.c:143
    8584:	b9400440 	ldr	w0, [x2,#4]
/home/pwnz/devel/optee/optee_os/lib/libmpa/mpa_div.c:142
    8588:	52800019 	mov	w25, #0x0                   	// #0
/home/pwnz/devel/optee/optee_os/lib/libmpa/mpa_div.c:143
    858c:	7100001f 	cmp	w0, #0x0
    8590:	5a80a400 	cneg	w0, w0, lt
    8594:	51000400 	sub	w0, w0, #0x1
    8598:	8b20c840 	add	x0, x2, w0, sxtw #2
    859c:	52800002 	mov	w2, #0x0                   	// #0
    85a0:	b9400800 	ldr	w0, [x0,#8]
    85a4:	b900d7a0 	str	w0, [x29,#212]
/home/pwnz/devel/optee/optee_os/lib/libmpa/mpa_div.c:144
    85a8:	36f80fc0 	tbz	w0, #31, 87a0 <__mpa_div_q_r+0x324>
    85ac:	34000042 	cbz	w2, 85b4 <__mpa_div_q_r+0x138>
    85b0:	b900d7a0 	str	w0, [x29,#212]
/home/pwnz/devel/optee/optee_os/lib/libmpa/mpa_div.c:148
    85b4:	34000119 	cbz	w25, 85d4 <__mpa_div_q_r+0x158>
/home/pwnz/devel/optee/optee_os/lib/libmpa/mpa_div.c:149
    85b8:	aa0103e0 	mov	x0, x1
    85bc:	2a1903e2 	mov	w2, w25
    85c0:	94000585 	bl	9bd4 <mpa_shift_left>
/home/pwnz/devel/optee/optee_os/lib/libmpa/mpa_div.c:150
    85c4:	f9407ba1 	ldr	x1, [x29,#240]
    85c8:	2a1903e2 	mov	w2, w25
    85cc:	aa0103e0 	mov	x0, x1
    85d0:	94000581 	bl	9bd4 <mpa_shift_left>
/home/pwnz/devel/optee/optee_os/lib/libmpa/mpa_div.c:153
    85d4:	f9407fa0 	ldr	x0, [x29,#248]
    85d8:	b9400416 	ldr	w22, [x0,#4]
/home/pwnz/devel/optee/optee_os/lib/libmpa/mpa_div.c:154
    85dc:	f9407ba0 	ldr	x0, [x29,#240]
    85e0:	b9400400 	ldr	w0, [x0,#4]
    85e4:	b900cfa0 	str	w0, [x29,#204]
/home/pwnz/devel/optee/optee_os/lib/libmpa/mpa_div.c:155
    85e8:	2a0003e0 	mov	w0, w0
    85ec:	4b0002c0 	sub	w0, w22, w0
    85f0:	b900cba0 	str	w0, [x29,#200]
/home/pwnz/devel/optee/optee_os/lib/libmpa/mpa_div.c:157
    85f4:	aa1303e0 	mov	x0, x19
    85f8:	97fffcc5 	bl	790c <mpa_wipe>
/home/pwnz/devel/optee/optee_os/lib/libmpa/mpa_div.c:163
    85fc:	b940cba1 	ldr	w1, [x29,#200]
    8600:	f9407ba0 	ldr	x0, [x29,#240]
    8604:	94000535 	bl	9ad8 <__mpa_shift_words_left>
/home/pwnz/devel/optee/optee_os/lib/libmpa/mpa_div.c:169
    8608:	a94f07a2 	ldp	x2, x1, [x29,#240]
/home/pwnz/devel/optee/optee_os/lib/libmpa/mpa_div.c:166
    860c:	52800025 	mov	w5, #0x1                   	// #1
/home/pwnz/devel/optee/optee_os/lib/libmpa/mpa_div.c:165
    8610:	b9400444 	ldr	w4, [x2,#4]
    8614:	7100009f 	cmp	w4, #0x0
    8618:	5a84a484 	cneg	w4, w4, lt
    861c:	51000483 	sub	w3, w4, #0x1
    8620:	2a0403e0 	mov	w0, w4
    8624:	93407c63 	sxtw	x3, w3
    8628:	91000863 	add	x3, x3, #0x2
    862c:	d37ef463 	lsl	x3, x3, #2
/home/pwnz/devel/optee/optee_os/lib/libmpa/mpa_div.c:167
    8630:	7100001f 	cmp	w0, #0x0
    8634:	1a9fd7e6 	cset	w6, gt
    8638:	6a0500df 	tst	w6, w5
    863c:	54000ba1 	b.ne	87b0 <__mpa_div_q_r+0x334>
/home/pwnz/devel/optee/optee_os/lib/libmpa/mpa_div.c:171
    8640:	350002a5 	cbnz	w5, 8694 <__mpa_div_q_r+0x218>
    8644:	b9400423 	ldr	w3, [x1,#4]
    8648:	7100007f 	cmp	w3, #0x0
    864c:	5a83a463 	cneg	w3, w3, lt
    8650:	6b03001f 	cmp	w0, w3
    8654:	5400250a 	b.ge	8af4 <__mpa_div_q_r+0x678>
    8658:	8b20c823 	add	x3, x1, w0, sxtw #2
    865c:	6b00009f 	cmp	w4, w0
    8660:	b9400863 	ldr	w3, [x3,#8]
    8664:	5400006d 	b.le	8670 <__mpa_div_q_r+0x1f4>
    8668:	8b20c840 	add	x0, x2, w0, sxtw #2
    866c:	b9400805 	ldr	w5, [x0,#8]
    8670:	6b0300bf 	cmp	w5, w3
    8674:	54000102 	b.cs	8694 <__mpa_div_q_r+0x218>
/home/pwnz/devel/optee/optee_os/lib/libmpa/mpa_div.c:172
    8678:	b940cba0 	ldr	w0, [x29,#200]
    867c:	52800023 	mov	w3, #0x1                   	// #1
    8680:	8b20ca60 	add	x0, x19, w0, sxtw #2
    8684:	b9000803 	str	w3, [x0,#8]
/home/pwnz/devel/optee/optee_os/lib/libmpa/mpa_div.c:173
    8688:	aa1703e3 	mov	x3, x23
    868c:	aa0103e0 	mov	x0, x1
    8690:	94000734 	bl	a360 <mpa_sub>
/home/pwnz/devel/optee/optee_os/lib/libmpa/mpa_div.c:177
    8694:	f9407fa0 	ldr	x0, [x29,#248]
    8698:	510006d6 	sub	w22, w22, #0x1
    869c:	b9400415 	ldr	w21, [x0,#4]
    86a0:	b940cfa0 	ldr	w0, [x29,#204]
    86a4:	510006b4 	sub	w20, w21, #0x1
    86a8:	51000ab5 	sub	w21, w21, #0x2
    86ac:	93407e9b 	sxtw	x27, w20
    86b0:	4b000294 	sub	w20, w20, w0
/home/pwnz/devel/optee/optee_os/lib/libmpa/mpa_div.c:195
    86b4:	910353a0 	add	x0, x29, #0xd4
    86b8:	f9003ba0 	str	x0, [x29,#112]
    86bc:	910363a0 	add	x0, x29, #0xd8
    86c0:	8b34ca74 	add	x20, x19, w20, sxtw #2
    86c4:	f90053a0 	str	x0, [x29,#160]
/home/pwnz/devel/optee/optee_os/lib/libmpa/mpa_div.c:202
    86c8:	910373a0 	add	x0, x29, #0xdc
    86cc:	93407eb5 	sxtw	x21, w21
    86d0:	f9004fa0 	str	x0, [x29,#152]
    86d4:	91002294 	add	x20, x20, #0x8
    86d8:	910383a0 	add	x0, x29, #0xe0
    86dc:	f90037a0 	str	x0, [x29,#104]
/home/pwnz/devel/optee/optee_os/lib/libmpa/mpa_div.c:206
    86e0:	910393a0 	add	x0, x29, #0xe4
    86e4:	f9004ba0 	str	x0, [x29,#144]
/home/pwnz/devel/optee/optee_os/lib/libmpa/mpa_div.c:178
    86e8:	b940cfa0 	ldr	w0, [x29,#204]
    86ec:	2a1b03fc 	mov	w28, w27
    86f0:	6b1b001f 	cmp	w0, w27
    86f4:	540007ed 	b.le	87f0 <__mpa_div_q_r+0x374>
    86f8:	b980cba0 	ldrsw	x0, [x29,#200]
    86fc:	2a0003e1 	mov	w1, w0
/home/pwnz/devel/optee/optee_os/lib/libmpa/mpa_div.c:239
    8700:	36f81be0 	tbz	w0, #31, 8a7c <__mpa_div_q_r+0x600>
/home/pwnz/devel/optee/optee_os/lib/libmpa/mpa_div.c:241
    8704:	11000421 	add	w1, w1, #0x1
    8708:	b9000661 	str	w1, [x19,#4]
/home/pwnz/devel/optee/optee_os/lib/libmpa/mpa_div.c:245
    870c:	f9407fa1 	ldr	x1, [x29,#248]
    8710:	2a1903e2 	mov	w2, w25
    8714:	aa0103e0 	mov	x0, x1
    8718:	94000593 	bl	9d64 <mpa_shift_right>
/home/pwnz/devel/optee/optee_os/lib/libmpa/mpa_div.c:246
    871c:	f9407fa1 	ldr	x1, [x29,#248]
    8720:	aa1803e0 	mov	x0, x24
    8724:	97fffc86 	bl	793c <mpa_copy>
/home/pwnz/devel/optee/optee_os/lib/libmpa/mpa_div.c:251
    8728:	f9405fa0 	ldr	x0, [x29,#184]
    872c:	aa1703e1 	mov	x1, x23
    8730:	94000399 	bl	9594 <mpa_free_static_temp_var>
/home/pwnz/devel/optee/optee_os/lib/libmpa/mpa_div.c:252
    8734:	f9405ba0 	ldr	x0, [x29,#176]
    8738:	aa1703e1 	mov	x1, x23
    873c:	94000396 	bl	9594 <mpa_free_static_temp_var>
/home/pwnz/devel/optee/optee_os/lib/libmpa/mpa_div.c:253
    8740:	f94057a0 	ldr	x0, [x29,#168]
    8744:	aa1703e1 	mov	x1, x23
    8748:	94000393 	bl	9594 <mpa_free_static_temp_var>
__mpa_div_q_r():
/home/pwnz/devel/optee/optee_os/lib/libmpa/mpa_div.c:358
    874c:	b9400660 	ldr	w0, [x19,#4]
    8750:	12800001 	mov	w1, #0xffffffff            	// #-1
    8754:	b940c3a2 	ldr	w2, [x29,#192]
    8758:	6b01001f 	cmp	w0, w1
    875c:	5a81d421 	cneg	w1, w1, gt
    8760:	6b01005f 	cmp	w2, w1
    8764:	54000060 	b.eq	8770 <__mpa_div_q_r+0x2f4>
/home/pwnz/devel/optee/optee_os/lib/libmpa/mpa_div.c:358 (discriminator 5)
    8768:	4b0003e0 	neg	w0, w0
    876c:	b9000660 	str	w0, [x19,#4]
/home/pwnz/devel/optee/optee_os/lib/libmpa/mpa_div.c:359
    8770:	b9400701 	ldr	w1, [x24,#4]
    8774:	12800000 	mov	w0, #0xffffffff            	// #-1
    8778:	b9400743 	ldr	w3, [x26,#4]
    877c:	6b00003f 	cmp	w1, w0
    8780:	5a80d402 	cneg	w2, w0, gt
    8784:	6b00007f 	cmp	w3, w0
    8788:	5a80d400 	cneg	w0, w0, gt
    878c:	6b00005f 	cmp	w2, w0
    8790:	54ffe920 	b.eq	84b4 <__mpa_div_q_r+0x38>
/home/pwnz/devel/optee/optee_os/lib/libmpa/mpa_div.c:359 (discriminator 9)
    8794:	4b0103e1 	neg	w1, w1
    8798:	b9000701 	str	w1, [x24,#4]
    879c:	17ffff46 	b	84b4 <__mpa_div_q_r+0x38>
__mpa_div_q_r_internal():
/home/pwnz/devel/optee/optee_os/lib/libmpa/mpa_div.c:145
    87a0:	11000739 	add	w25, w25, #0x1
/home/pwnz/devel/optee/optee_os/lib/libmpa/mpa_div.c:146
    87a4:	531f7800 	lsl	w0, w0, #1
    87a8:	52800022 	mov	w2, #0x1                   	// #1
    87ac:	17ffff7f 	b	85a8 <__mpa_div_q_r+0x12c>
/home/pwnz/devel/optee/optee_os/lib/libmpa/mpa_div.c:169
    87b0:	b9400425 	ldr	w5, [x1,#4]
/home/pwnz/devel/optee/optee_os/lib/libmpa/mpa_div.c:168
    87b4:	51000400 	sub	w0, w0, #0x1
/home/pwnz/devel/optee/optee_os/lib/libmpa/mpa_div.c:169
    87b8:	52800006 	mov	w6, #0x0                   	// #0
    87bc:	710000bf 	cmp	w5, #0x0
    87c0:	5a85a4a5 	cneg	w5, w5, lt
    87c4:	6b05001f 	cmp	w0, w5
    87c8:	5400004a 	b.ge	87d0 <__mpa_div_q_r+0x354>
    87cc:	b8636826 	ldr	w6, [x1,x3]
    87d0:	52800005 	mov	w5, #0x0                   	// #0
    87d4:	6b00009f 	cmp	w4, w0
    87d8:	5400004d 	b.le	87e0 <__mpa_div_q_r+0x364>
    87dc:	b8636845 	ldr	w5, [x2,x3]
    87e0:	6b0500df 	cmp	w6, w5
    87e4:	d1001063 	sub	x3, x3, #0x4
    87e8:	1a9f17e5 	cset	w5, eq
    87ec:	17ffff91 	b	8630 <__mpa_div_q_r+0x1b4>
/home/pwnz/devel/optee/optee_os/lib/libmpa/mpa_div.c:179
    87f0:	f9407fa5 	ldr	x5, [x29,#248]
    87f4:	52800001 	mov	w1, #0x0                   	// #0
    87f8:	b94004a0 	ldr	w0, [x5,#4]
    87fc:	7100001f 	cmp	w0, #0x0
    8800:	5a80a403 	cneg	w3, w0, lt
    8804:	6b1b007f 	cmp	w3, w27
    8808:	5400006d 	b.le	8814 <__mpa_div_q_r+0x398>
    880c:	8b3cc8a0 	add	x0, x5, w28, sxtw #2
    8810:	b9400801 	ldr	w1, [x0,#8]
/home/pwnz/devel/optee/optee_os/lib/libmpa/mpa_div.c:180
    8814:	f9407ba6 	ldr	x6, [x29,#240]
    8818:	110006c0 	add	w0, w22, #0x1
    881c:	b9008fa0 	str	w0, [x29,#140]
    8820:	110006c4 	add	w4, w22, #0x1
    8824:	52800002 	mov	w2, #0x0                   	// #0
    8828:	b94004c0 	ldr	w0, [x6,#4]
    882c:	7100001f 	cmp	w0, #0x0
    8830:	5a80a400 	cneg	w0, w0, lt
    8834:	6b04001f 	cmp	w0, w4
    8838:	5400006b 	b.lt	8844 <__mpa_div_q_r+0x3c8>
    883c:	8b36c8c6 	add	x6, x6, w22, sxtw #2
    8840:	b94008c2 	ldr	w2, [x6,#8]
    8844:	b940cfa0 	ldr	w0, [x29,#204]
/home/pwnz/devel/optee/optee_os/lib/libmpa/mpa_div.c:179
    8848:	6b02003f 	cmp	w1, w2
    884c:	4b000360 	sub	w0, w27, w0
    8850:	b900c7a0 	str	w0, [x29,#196]
    8854:	54000561 	b.ne	8900 <__mpa_div_q_r+0x484>
/home/pwnz/devel/optee/optee_os/lib/libmpa/mpa_div.c:181
    8858:	8b20ca60 	add	x0, x19, w0, sxtw #2
    885c:	12800001 	mov	w1, #0xffffffff            	// #-1
    8860:	b9000801 	str	w1, [x0,#8]
/home/pwnz/devel/optee/optee_os/lib/libmpa/mpa_div.c:217
    8864:	510006a0 	sub	w0, w21, #0x1
    8868:	937e7c00 	sbfiz	x0, x0, #2, #32
    886c:	f90043a0 	str	x0, [x29,#128]
/home/pwnz/devel/optee/optee_os/lib/libmpa/mpa_div.c:202
    8870:	510006c0 	sub	w0, w22, #0x1
    8874:	93407c00 	sxtw	x0, w0
    8878:	f9003fa0 	str	x0, [x29,#120]
/home/pwnz/devel/optee/optee_os/lib/libmpa/mpa_div.c:196
    887c:	f9407ba3 	ldr	x3, [x29,#240]
/home/pwnz/devel/optee/optee_os/lib/libmpa/mpa_div.c:195
    8880:	b9408fa4 	ldr	w4, [x29,#140]
/home/pwnz/devel/optee/optee_os/lib/libmpa/mpa_div.c:192
    8884:	b900d7bf 	str	wzr, [x29,#212]
/home/pwnz/devel/optee/optee_os/lib/libmpa/mpa_div.c:193
    8888:	b900dfbf 	str	wzr, [x29,#220]
/home/pwnz/devel/optee/optee_os/lib/libmpa/mpa_div.c:196
    888c:	b9400461 	ldr	w1, [x3,#4]
/home/pwnz/devel/optee/optee_os/lib/libmpa/mpa_div.c:194
    8890:	b900e7bf 	str	wzr, [x29,#228]
/home/pwnz/devel/optee/optee_os/lib/libmpa/mpa_div.c:196
    8894:	7100003f 	cmp	w1, #0x0
/home/pwnz/devel/optee/optee_os/lib/libmpa/mpa_div.c:195
    8898:	b9400280 	ldr	w0, [x20]
/home/pwnz/devel/optee/optee_os/lib/libmpa/mpa_div.c:196
    889c:	5a81a422 	cneg	w2, w1, lt
/home/pwnz/devel/optee/optee_os/lib/libmpa/mpa_div.c:195
    88a0:	52800001 	mov	w1, #0x0                   	// #0
    88a4:	6b04005f 	cmp	w2, w4
    88a8:	5400006b 	b.lt	88b4 <__mpa_div_q_r+0x438>
    88ac:	8b36c863 	add	x3, x3, w22, sxtw #2
    88b0:	b9400861 	ldr	w1, [x3,#8]
    88b4:	f94053a2 	ldr	x2, [x29,#160]
    88b8:	f9403ba3 	ldr	x3, [x29,#112]
    88bc:	94000349 	bl	95e0 <__mpa_mul_add_word>
/home/pwnz/devel/optee/optee_os/lib/libmpa/mpa_div.c:199
    88c0:	f9407fa1 	ldr	x1, [x29,#248]
    88c4:	52800002 	mov	w2, #0x0                   	// #0
    88c8:	b9400420 	ldr	w0, [x1,#4]
    88cc:	7100001f 	cmp	w0, #0x0
    88d0:	5a80a400 	cneg	w0, w0, lt
    88d4:	6b00039f 	cmp	w28, w0
    88d8:	5400006a 	b.ge	88e4 <__mpa_div_q_r+0x468>
    88dc:	8b3cc821 	add	x1, x1, w28, sxtw #2
    88e0:	b9400822 	ldr	w2, [x1,#8]
    88e4:	b940d7a0 	ldr	w0, [x29,#212]
    88e8:	6b02001f 	cmp	w0, w2
    88ec:	54000209 	b.ls	892c <__mpa_div_q_r+0x4b0>
/home/pwnz/devel/optee/optee_os/lib/libmpa/mpa_div.c:221
    88f0:	b9400280 	ldr	w0, [x20]
    88f4:	51000400 	sub	w0, w0, #0x1
    88f8:	b9000280 	str	w0, [x20]
    88fc:	17ffffe0 	b	887c <__mpa_div_q_r+0x400>
/home/pwnz/devel/optee/optee_os/lib/libmpa/mpa_div.c:184
    8900:	52800000 	mov	w0, #0x0                   	// #0
    8904:	6b1c007f 	cmp	w3, w28
    8908:	5400006b 	b.lt	8914 <__mpa_div_q_r+0x498>
    890c:	8b35c8a5 	add	x5, x5, w21, sxtw #2
    8910:	b94008a0 	ldr	w0, [x5,#8]
    8914:	d2800003 	mov	x3, #0x0                   	// #0
    8918:	97fffe73 	bl	82e4 <__mpa_div_dword>
/home/pwnz/devel/optee/optee_os/lib/libmpa/mpa_div.c:183
    891c:	b940c7a1 	ldr	w1, [x29,#196]
    8920:	8b21ca61 	add	x1, x19, w1, sxtw #2
    8924:	b9000820 	str	w0, [x1,#8]
    8928:	17ffffcf 	b	8864 <__mpa_div_q_r+0x3e8>
/home/pwnz/devel/optee/optee_os/lib/libmpa/mpa_div.c:203
    892c:	f9407ba3 	ldr	x3, [x29,#240]
/home/pwnz/devel/optee/optee_os/lib/libmpa/mpa_div.c:202
    8930:	b9400280 	ldr	w0, [x20]
/home/pwnz/devel/optee/optee_os/lib/libmpa/mpa_div.c:203
    8934:	b9400461 	ldr	w1, [x3,#4]
    8938:	7100003f 	cmp	w1, #0x0
    893c:	5a81a422 	cneg	w2, w1, lt
/home/pwnz/devel/optee/optee_os/lib/libmpa/mpa_div.c:202
    8940:	52800001 	mov	w1, #0x0                   	// #0
    8944:	6b0202df 	cmp	w22, w2
    8948:	5400008c 	b.gt	8958 <__mpa_div_q_r+0x4dc>
    894c:	f9403fa1 	ldr	x1, [x29,#120]
    8950:	8b010863 	add	x3, x3, x1, lsl #2
    8954:	b9400861 	ldr	w1, [x3,#8]
    8958:	f94037a2 	ldr	x2, [x29,#104]
    895c:	f9404fa3 	ldr	x3, [x29,#152]
    8960:	94000320 	bl	95e0 <__mpa_mul_add_word>
/home/pwnz/devel/optee/optee_os/lib/libmpa/mpa_div.c:206
    8964:	295b07a0 	ldp	w0, w1, [x29,#216]
    8968:	a9490ba3 	ldp	x3, x2, [x29,#144]
    896c:	9400054f 	bl	9ea8 <__mpa_full_adder>
/home/pwnz/devel/optee/optee_os/lib/libmpa/mpa_div.c:207
    8970:	b900dbbf 	str	wzr, [x29,#216]
/home/pwnz/devel/optee/optee_os/lib/libmpa/mpa_div.c:208
    8974:	f9404ba2 	ldr	x2, [x29,#144]
    8978:	b940d7a0 	ldr	w0, [x29,#212]
    897c:	b940e7a1 	ldr	w1, [x29,#228]
    8980:	f94053a3 	ldr	x3, [x29,#160]
    8984:	94000549 	bl	9ea8 <__mpa_full_adder>
/home/pwnz/devel/optee/optee_os/lib/libmpa/mpa_div.c:209
    8988:	b940dba2 	ldr	w2, [x29,#216]
    898c:	35fffb22 	cbnz	w2, 88f0 <__mpa_div_q_r+0x474>
    8990:	f9407fa1 	ldr	x1, [x29,#248]
    8994:	52800003 	mov	w3, #0x0                   	// #0
    8998:	b9400420 	ldr	w0, [x1,#4]
    899c:	7100001f 	cmp	w0, #0x0
    89a0:	5a80a400 	cneg	w0, w0, lt
    89a4:	6b00039f 	cmp	w28, w0
    89a8:	5400006a 	b.ge	89b4 <__mpa_div_q_r+0x538>
    89ac:	8b3cc823 	add	x3, x1, w28, sxtw #2
    89b0:	b9400863 	ldr	w3, [x3,#8]
    89b4:	b940e7a5 	ldr	w5, [x29,#228]
    89b8:	6b0300bf 	cmp	w5, w3
    89bc:	54fff9a8 	b.hi	88f0 <__mpa_div_q_r+0x474>
/home/pwnz/devel/optee/optee_os/lib/libmpa/mpa_div.c:211
    89c0:	54000243 	b.cc	8a08 <__mpa_div_q_r+0x58c>
/home/pwnz/devel/optee/optee_os/lib/libmpa/mpa_div.c:213
    89c4:	52800003 	mov	w3, #0x0                   	// #0
    89c8:	6b00039f 	cmp	w28, w0
    89cc:	5400006c 	b.gt	89d8 <__mpa_div_q_r+0x55c>
    89d0:	8b35c823 	add	x3, x1, w21, sxtw #2
    89d4:	b9400863 	ldr	w3, [x3,#8]
    89d8:	b940dfa5 	ldr	w5, [x29,#220]
    89dc:	6b0300bf 	cmp	w5, w3
    89e0:	54fff888 	b.hi	88f0 <__mpa_div_q_r+0x474>
/home/pwnz/devel/optee/optee_os/lib/libmpa/mpa_div.c:215
    89e4:	54000123 	b.cc	8a08 <__mpa_div_q_r+0x58c>
/home/pwnz/devel/optee/optee_os/lib/libmpa/mpa_div.c:217
    89e8:	6b15001f 	cmp	w0, w21
    89ec:	5400008b 	b.lt	89fc <__mpa_div_q_r+0x580>
    89f0:	f94043a0 	ldr	x0, [x29,#128]
    89f4:	8b000021 	add	x1, x1, x0
    89f8:	b9400822 	ldr	w2, [x1,#8]
    89fc:	b940e3a0 	ldr	w0, [x29,#224]
    8a00:	6b02001f 	cmp	w0, w2
    8a04:	54fff768 	b.hi	88f0 <__mpa_div_q_r+0x474>
/home/pwnz/devel/optee/optee_os/lib/libmpa/mpa_div.c:225
    8a08:	f9407ba0 	ldr	x0, [x29,#240]
    8a0c:	52800021 	mov	w1, #0x1                   	// #1
    8a10:	94000458 	bl	9b70 <__mpa_shift_words_right>
    8a14:	b940c7a0 	ldr	w0, [x29,#196]
/home/pwnz/devel/optee/optee_os/lib/libmpa/mpa_div.c:227
    8a18:	aa1703e3 	mov	x3, x23
    8a1c:	8b20ca7c 	add	x28, x19, w0, sxtw #2
    8a20:	a94e87a0 	ldp	x0, x1, [x29,#232]
    8a24:	b9400b82 	ldr	w2, [x28,#8]
    8a28:	94000398 	bl	9888 <mpa_mul_word>
/home/pwnz/devel/optee/optee_os/lib/libmpa/mpa_div.c:228
    8a2c:	f9407fa1 	ldr	x1, [x29,#248]
    8a30:	aa1703e3 	mov	x3, x23
    8a34:	f94077a2 	ldr	x2, [x29,#232]
    8a38:	aa0103e0 	mov	x0, x1
    8a3c:	94000649 	bl	a360 <mpa_sub>
/home/pwnz/devel/optee/optee_os/lib/libmpa/mpa_div.c:229
    8a40:	f9407fa1 	ldr	x1, [x29,#248]
    8a44:	b9400420 	ldr	w0, [x1,#4]
    8a48:	36f80100 	tbz	w0, #31, 8a68 <__mpa_div_q_r+0x5ec>
/home/pwnz/devel/optee/optee_os/lib/libmpa/mpa_div.c:230
    8a4c:	f9407ba2 	ldr	x2, [x29,#240]
    8a50:	aa0103e0 	mov	x0, x1
    8a54:	aa1703e3 	mov	x3, x23
    8a58:	940005dd 	bl	a1cc <mpa_add>
/home/pwnz/devel/optee/optee_os/lib/libmpa/mpa_div.c:231
    8a5c:	b9400b80 	ldr	w0, [x28,#8]
    8a60:	51000400 	sub	w0, w0, #0x1
    8a64:	b9000b80 	str	w0, [x28,#8]
    8a68:	d100077b 	sub	x27, x27, #0x1
    8a6c:	d10006b5 	sub	x21, x21, #0x1
    8a70:	d1001294 	sub	x20, x20, #0x4
    8a74:	510006d6 	sub	w22, w22, #0x1
    8a78:	17ffff1c 	b	86e8 <__mpa_div_q_r+0x26c>
    8a7c:	d1000400 	sub	x0, x0, #0x1
/home/pwnz/devel/optee/optee_os/lib/libmpa/mpa_div.c:239
    8a80:	8b000a62 	add	x2, x19, x0, lsl #2
    8a84:	b9400c42 	ldr	w2, [x2,#12]
    8a88:	34ffe3a2 	cbz	w2, 86fc <__mpa_div_q_r+0x280>
    8a8c:	17ffff1e 	b	8704 <__mpa_div_q_r+0x288>
__mpa_div_q_r():
/home/pwnz/devel/optee/optee_os/lib/libmpa/mpa_div.c:352
    8a90:	b9400a83 	ldr	w3, [x20,#8]
    8a94:	aa1a03e2 	mov	x2, x26
    8a98:	aa1803e1 	mov	x1, x24
    8a9c:	aa1303e0 	mov	x0, x19
    8aa0:	97fffe25 	bl	8334 <__mpa_div_q_r_internal_word>
    8aa4:	17ffff2a 	b	874c <__mpa_div_q_r+0x2d0>
/home/pwnz/devel/optee/optee_os/lib/libmpa/mpa_div.c:354
    8aa8:	aa1303e0 	mov	x0, x19
    8aac:	52800001 	mov	w1, #0x0                   	// #0
    8ab0:	97fffe02 	bl	82b8 <mpa_set_word>
/home/pwnz/devel/optee/optee_os/lib/libmpa/mpa_div.c:355
    8ab4:	aa1a03e1 	mov	x1, x26
    8ab8:	aa1803e0 	mov	x0, x24
    8abc:	97fffba0 	bl	793c <mpa_copy>
/home/pwnz/devel/optee/optee_os/lib/libmpa/mpa_div.c:356
    8ac0:	17fffe7d 	b	84b4 <__mpa_div_q_r+0x38>
/home/pwnz/devel/optee/optee_os/lib/libmpa/mpa_div.c:341
    8ac4:	12800001 	mov	w1, #0xffffffff            	// #-1
    8ac8:	6b01001f 	cmp	w0, w1
    8acc:	5a81d420 	cneg	w0, w1, gt
    8ad0:	b900c3a0 	str	w0, [x29,#192]
/home/pwnz/devel/optee/optee_os/lib/libmpa/mpa_div.c:342
    8ad4:	aa1403e1 	mov	x1, x20
    8ad8:	aa1a03e0 	mov	x0, x26
    8adc:	94000730 	bl	a79c <__mpa_abs_cmp>
/home/pwnz/devel/optee/optee_os/lib/libmpa/mpa_div.c:343
    8ae0:	7100001f 	cmp	w0, #0x0
    8ae4:	54ffd0c1 	b.ne	84fc <__mpa_div_q_r+0x80>
/home/pwnz/devel/optee/optee_os/lib/libmpa/mpa_div.c:344
    8ae8:	52800021 	mov	w1, #0x1                   	// #1
    8aec:	aa1303e0 	mov	x0, x19
    8af0:	17fffe6d 	b	84a4 <__mpa_div_q_r+0x28>
__mpa_div_q_r_internal():
/home/pwnz/devel/optee/optee_os/lib/libmpa/mpa_div.c:171
    8af4:	6b00009f 	cmp	w4, w0
    8af8:	54ffdced 	b.le	8694 <__mpa_div_q_r+0x218>
    8afc:	52800003 	mov	w3, #0x0                   	// #0
    8b00:	17fffeda 	b	8668 <__mpa_div_q_r+0x1ec>

0000000000008b04 <mpa_div>:
mpa_div():
/home/pwnz/devel/optee/optee_os/lib/libmpa/mpa_div.c:379
    8b04:	a9ba7bfd 	stp	x29, x30, [sp,#-96]!
/home/pwnz/devel/optee/optee_os/lib/libmpa/mpa_div.c:386
    8b08:	eb02001f 	cmp	x0, x2
    8b0c:	fa431004 	ccmp	x0, x3, #0x4, ne
/home/pwnz/devel/optee/optee_os/lib/libmpa/mpa_div.c:379
    8b10:	910003fd 	mov	x29, sp
    8b14:	a90153f3 	stp	x19, x20, [sp,#16]
/home/pwnz/devel/optee/optee_os/lib/libmpa/mpa_div.c:386
    8b18:	fa401804 	ccmp	x0, #0x0, #0x4, ne
/home/pwnz/devel/optee/optee_os/lib/libmpa/mpa_div.c:379
    8b1c:	a9025bf5 	stp	x21, x22, [sp,#32]
    8b20:	aa0003f4 	mov	x20, x0
    8b24:	a90363f7 	stp	x23, x24, [sp,#48]
    8b28:	aa0103f3 	mov	x19, x1
    8b2c:	f90023f9 	str	x25, [sp,#64]
    8b30:	aa0203f6 	mov	x22, x2
    8b34:	aa0303f7 	mov	x23, x3
    8b38:	aa0403f5 	mov	x21, x4
/home/pwnz/devel/optee/optee_os/lib/libmpa/mpa_div.c:386
    8b3c:	54000501 	b.ne	8bdc <mpa_div+0xd8>
/home/pwnz/devel/optee/optee_os/lib/libmpa/mpa_div.c:388
    8b40:	52800039 	mov	w25, #0x1                   	// #1
/home/pwnz/devel/optee/optee_os/lib/libmpa/mpa_div.c:387
    8b44:	aa0403e1 	mov	x1, x4
    8b48:	910143a0 	add	x0, x29, #0x50
    8b4c:	9400028e 	bl	9584 <mpa_alloc_static_temp_var>
/home/pwnz/devel/optee/optee_os/lib/libmpa/mpa_div.c:395
    8b50:	f100027f 	cmp	x19, #0x0
    8b54:	fa5312e4 	ccmp	x23, x19, #0x4, ne
    8b58:	fa5312c4 	ccmp	x22, x19, #0x4, ne
    8b5c:	54000461 	b.ne	8be8 <mpa_div+0xe4>
/home/pwnz/devel/optee/optee_os/lib/libmpa/mpa_div.c:397
    8b60:	52800038 	mov	w24, #0x1                   	// #1
/home/pwnz/devel/optee/optee_os/lib/libmpa/mpa_div.c:396
    8b64:	aa1503e1 	mov	x1, x21
    8b68:	910163a0 	add	x0, x29, #0x58
    8b6c:	94000286 	bl	9584 <mpa_alloc_static_temp_var>
/home/pwnz/devel/optee/optee_os/lib/libmpa/mpa_div.c:403
    8b70:	a94507a0 	ldp	x0, x1, [x29,#80]
    8b74:	aa1503e4 	mov	x4, x21
    8b78:	aa1703e3 	mov	x3, x23
    8b7c:	aa1603e2 	mov	x2, x22
    8b80:	97fffe3f 	bl	847c <__mpa_div_q_r>
/home/pwnz/devel/optee/optee_os/lib/libmpa/mpa_div.c:405
    8b84:	b4000094 	cbz	x20, 8b94 <mpa_div+0x90>
/home/pwnz/devel/optee/optee_os/lib/libmpa/mpa_div.c:406
    8b88:	f9402ba1 	ldr	x1, [x29,#80]
    8b8c:	aa1403e0 	mov	x0, x20
    8b90:	97fffb6b 	bl	793c <mpa_copy>
/home/pwnz/devel/optee/optee_os/lib/libmpa/mpa_div.c:407
    8b94:	34000099 	cbz	w25, 8ba4 <mpa_div+0xa0>
/home/pwnz/devel/optee/optee_os/lib/libmpa/mpa_div.c:408
    8b98:	aa1503e1 	mov	x1, x21
    8b9c:	910143a0 	add	x0, x29, #0x50
    8ba0:	9400027d 	bl	9594 <mpa_free_static_temp_var>
/home/pwnz/devel/optee/optee_os/lib/libmpa/mpa_div.c:409
    8ba4:	b4000093 	cbz	x19, 8bb4 <mpa_div+0xb0>
/home/pwnz/devel/optee/optee_os/lib/libmpa/mpa_div.c:410
    8ba8:	f9402fa1 	ldr	x1, [x29,#88]
    8bac:	aa1303e0 	mov	x0, x19
    8bb0:	97fffb63 	bl	793c <mpa_copy>
/home/pwnz/devel/optee/optee_os/lib/libmpa/mpa_div.c:411
    8bb4:	34000098 	cbz	w24, 8bc4 <mpa_div+0xc0>
/home/pwnz/devel/optee/optee_os/lib/libmpa/mpa_div.c:412
    8bb8:	aa1503e1 	mov	x1, x21
    8bbc:	910163a0 	add	x0, x29, #0x58
    8bc0:	94000275 	bl	9594 <mpa_free_static_temp_var>
/home/pwnz/devel/optee/optee_os/lib/libmpa/mpa_div.c:413
    8bc4:	a94153f3 	ldp	x19, x20, [sp,#16]
    8bc8:	a9425bf5 	ldp	x21, x22, [sp,#32]
    8bcc:	a94363f7 	ldp	x23, x24, [sp,#48]
    8bd0:	f94023f9 	ldr	x25, [sp,#64]
    8bd4:	a8c67bfd 	ldp	x29, x30, [sp],#96
    8bd8:	d65f03c0 	ret
/home/pwnz/devel/optee/optee_os/lib/libmpa/mpa_div.c:391
    8bdc:	52800019 	mov	w25, #0x0                   	// #0
/home/pwnz/devel/optee/optee_os/lib/libmpa/mpa_div.c:390
    8be0:	f9002ba0 	str	x0, [x29,#80]
    8be4:	17ffffdb 	b	8b50 <mpa_div+0x4c>
/home/pwnz/devel/optee/optee_os/lib/libmpa/mpa_div.c:400
    8be8:	52800018 	mov	w24, #0x0                   	// #0
/home/pwnz/devel/optee/optee_os/lib/libmpa/mpa_div.c:399
    8bec:	f9002fb3 	str	x19, [x29,#88]
    8bf0:	17ffffe0 	b	8b70 <mpa_div+0x6c>

0000000000008bf4 <__mpa_divby2>:
__mpa_divby2():
/home/pwnz/devel/optee/optee_os/lib/libmpa/mpa_gcd.c:47
    8bf4:	b9400403 	ldr	w3, [x0,#4]
    8bf8:	7100007f 	cmp	w3, #0x0
    8bfc:	540002a0 	b.eq	8c50 <__mpa_divby2+0x5c>
/home/pwnz/devel/optee/optee_os/lib/libmpa/mpa_gcd.c:50
    8c00:	5a83a466 	cneg	w6, w3, lt
/home/pwnz/devel/optee/optee_os/lib/libmpa/mpa_gcd.c:52
    8c04:	b9400804 	ldr	w4, [x0,#8]
/home/pwnz/devel/optee/optee_os/lib/libmpa/mpa_gcd.c:50
    8c08:	510004c1 	sub	w1, w6, #0x1
/home/pwnz/devel/optee/optee_os/lib/libmpa/mpa_gcd.c:53
    8c0c:	52800025 	mov	w5, #0x1                   	// #1
/home/pwnz/devel/optee/optee_os/lib/libmpa/mpa_gcd.c:50
    8c10:	8b21c801 	add	x1, x0, w1, sxtw #2
/home/pwnz/devel/optee/optee_os/lib/libmpa/mpa_gcd.c:52
    8c14:	53017c84 	lsr	w4, w4, #1
/home/pwnz/devel/optee/optee_os/lib/libmpa/mpa_gcd.c:50
    8c18:	b9400821 	ldr	w1, [x1,#8]
    8c1c:	53017c21 	lsr	w1, w1, #1
    8c20:	7100003f 	cmp	w1, #0x0
/home/pwnz/devel/optee/optee_os/lib/libmpa/mpa_gcd.c:52
    8c24:	aa0003e1 	mov	x1, x0
/home/pwnz/devel/optee/optee_os/lib/libmpa/mpa_gcd.c:50
    8c28:	1a9f17e2 	cset	w2, eq
/home/pwnz/devel/optee/optee_os/lib/libmpa/mpa_gcd.c:52
    8c2c:	b8008c24 	str	w4, [x1,#8]!
    8c30:	91001021 	add	x1, x1, #0x4
/home/pwnz/devel/optee/optee_os/lib/libmpa/mpa_gcd.c:53 (discriminator 1)
    8c34:	6b0600bf 	cmp	w5, w6
    8c38:	540000e3 	b.cc	8c54 <__mpa_divby2+0x60>
/home/pwnz/devel/optee/optee_os/lib/libmpa/mpa_gcd.c:60
    8c3c:	4b020061 	sub	w1, w3, w2
    8c40:	7100007f 	cmp	w3, #0x0
    8c44:	0b020062 	add	w2, w3, w2
    8c48:	1a81b042 	csel	w2, w2, w1, lt
    8c4c:	b9000402 	str	w2, [x0,#4]
    8c50:	d65f03c0 	ret
/home/pwnz/devel/optee/optee_os/lib/libmpa/mpa_gcd.c:54 (discriminator 3)
    8c54:	b9400024 	ldr	w4, [x1]
/home/pwnz/devel/optee/optee_os/lib/libmpa/mpa_gcd.c:53 (discriminator 3)
    8c58:	110004a5 	add	w5, w5, #0x1
/home/pwnz/devel/optee/optee_os/lib/libmpa/mpa_gcd.c:55 (discriminator 3)
    8c5c:	53017c87 	lsr	w7, w4, #1
    8c60:	b9000027 	str	w7, [x1]
/home/pwnz/devel/optee/optee_os/lib/libmpa/mpa_gcd.c:56 (discriminator 3)
    8c64:	b85fc027 	ldur	w7, [x1,#-4]
    8c68:	4a047ce4 	eor	w4, w7, w4, lsl #31
    8c6c:	b81fc024 	stur	w4, [x1,#-4]
    8c70:	17fffff0 	b	8c30 <__mpa_divby2+0x3c>

0000000000008c74 <__mpa_gcd.part.0>:
__mpa_gcd():
/home/pwnz/devel/optee/optee_os/lib/libmpa/mpa_gcd.c:212
    8c74:	a9ba7bfd 	stp	x29, x30, [sp,#-96]!
    8c78:	910003fd 	mov	x29, sp
    8c7c:	a9025bf5 	stp	x21, x22, [sp,#32]
/home/pwnz/devel/optee/optee_os/lib/libmpa/mpa_gcd.c:226
    8c80:	910123b6 	add	x22, x29, #0x48
/home/pwnz/devel/optee/optee_os/lib/libmpa/mpa_gcd.c:212
    8c84:	a90153f3 	stp	x19, x20, [sp,#16]
    8c88:	aa0103f5 	mov	x21, x1
    8c8c:	aa0203f4 	mov	x20, x2
    8c90:	aa0303f3 	mov	x19, x3
/home/pwnz/devel/optee/optee_os/lib/libmpa/mpa_gcd.c:226
    8c94:	aa0303e1 	mov	x1, x3
/home/pwnz/devel/optee/optee_os/lib/libmpa/mpa_gcd.c:212
    8c98:	a90363f7 	stp	x23, x24, [sp,#48]
    8c9c:	aa0003f8 	mov	x24, x0
/home/pwnz/devel/optee/optee_os/lib/libmpa/mpa_gcd.c:226
    8ca0:	aa1603e0 	mov	x0, x22
    8ca4:	94000238 	bl	9584 <mpa_alloc_static_temp_var>
/home/pwnz/devel/optee/optee_os/lib/libmpa/mpa_gcd.c:227
    8ca8:	f94027a0 	ldr	x0, [x29,#72]
    8cac:	aa1503e1 	mov	x1, x21
/home/pwnz/devel/optee/optee_os/lib/libmpa/mpa_gcd.c:228
    8cb0:	910143b5 	add	x21, x29, #0x50
/home/pwnz/devel/optee/optee_os/lib/libmpa/mpa_gcd.c:227
    8cb4:	97fffb22 	bl	793c <mpa_copy>
/home/pwnz/devel/optee/optee_os/lib/libmpa/mpa_gcd.c:228
    8cb8:	aa1303e1 	mov	x1, x19
    8cbc:	aa1503e0 	mov	x0, x21
    8cc0:	94000231 	bl	9584 <mpa_alloc_static_temp_var>
/home/pwnz/devel/optee/optee_os/lib/libmpa/mpa_gcd.c:229
    8cc4:	f9402ba0 	ldr	x0, [x29,#80]
    8cc8:	aa1403e1 	mov	x1, x20
/home/pwnz/devel/optee/optee_os/lib/libmpa/mpa_gcd.c:231
    8ccc:	52800014 	mov	w20, #0x0                   	// #0
/home/pwnz/devel/optee/optee_os/lib/libmpa/mpa_gcd.c:229
    8cd0:	97fffb1b 	bl	793c <mpa_copy>
/home/pwnz/devel/optee/optee_os/lib/libmpa/mpa_gcd.c:232
    8cd4:	f94027a0 	ldr	x0, [x29,#72]
    8cd8:	97fffb63 	bl	7a64 <mpa_parity>
    8cdc:	34000340 	cbz	w0, 8d44 <__mpa_gcd.part.0+0xd0>
/home/pwnz/devel/optee/optee_os/lib/libmpa/mpa_gcd.c:238
    8ce0:	910163b7 	add	x23, x29, #0x58
    8ce4:	aa1303e1 	mov	x1, x19
    8ce8:	aa1703e0 	mov	x0, x23
    8cec:	94000226 	bl	9584 <mpa_alloc_static_temp_var>
/home/pwnz/devel/optee/optee_os/lib/libmpa/mpa_gcd.c:239
    8cf0:	f94027a0 	ldr	x0, [x29,#72]
    8cf4:	b9400400 	ldr	w0, [x0,#4]
    8cf8:	350003c0 	cbnz	w0, 8d70 <__mpa_gcd.part.0+0xfc>
/home/pwnz/devel/optee/optee_os/lib/libmpa/mpa_gcd.c:256
    8cfc:	f9402ba1 	ldr	x1, [x29,#80]
    8d00:	2a1403e2 	mov	w2, w20
    8d04:	aa1803e0 	mov	x0, x24
    8d08:	940003b3 	bl	9bd4 <mpa_shift_left>
/home/pwnz/devel/optee/optee_os/lib/libmpa/mpa_gcd.c:257
    8d0c:	aa1303e1 	mov	x1, x19
    8d10:	aa1703e0 	mov	x0, x23
    8d14:	94000220 	bl	9594 <mpa_free_static_temp_var>
/home/pwnz/devel/optee/optee_os/lib/libmpa/mpa_gcd.c:258
    8d18:	aa1303e1 	mov	x1, x19
    8d1c:	aa1603e0 	mov	x0, x22
    8d20:	9400021d 	bl	9594 <mpa_free_static_temp_var>
/home/pwnz/devel/optee/optee_os/lib/libmpa/mpa_gcd.c:259
    8d24:	aa1303e1 	mov	x1, x19
    8d28:	aa1503e0 	mov	x0, x21
    8d2c:	9400021a 	bl	9594 <mpa_free_static_temp_var>
/home/pwnz/devel/optee/optee_os/lib/libmpa/mpa_gcd.c:260
    8d30:	a94153f3 	ldp	x19, x20, [sp,#16]
    8d34:	a9425bf5 	ldp	x21, x22, [sp,#32]
    8d38:	a94363f7 	ldp	x23, x24, [sp,#48]
    8d3c:	a8c67bfd 	ldp	x29, x30, [sp],#96
    8d40:	d65f03c0 	ret
/home/pwnz/devel/optee/optee_os/lib/libmpa/mpa_gcd.c:232
    8d44:	f9402ba0 	ldr	x0, [x29,#80]
    8d48:	97fffb47 	bl	7a64 <mpa_parity>
    8d4c:	35fffca0 	cbnz	w0, 8ce0 <__mpa_gcd.part.0+0x6c>
/home/pwnz/devel/optee/optee_os/lib/libmpa/mpa_gcd.c:234
    8d50:	f94027a0 	ldr	x0, [x29,#72]
/home/pwnz/devel/optee/optee_os/lib/libmpa/mpa_gcd.c:233
    8d54:	11000694 	add	w20, w20, #0x1
/home/pwnz/devel/optee/optee_os/lib/libmpa/mpa_gcd.c:234
    8d58:	97ffffa7 	bl	8bf4 <__mpa_divby2>
/home/pwnz/devel/optee/optee_os/lib/libmpa/mpa_gcd.c:235
    8d5c:	f9402ba0 	ldr	x0, [x29,#80]
    8d60:	97ffffa5 	bl	8bf4 <__mpa_divby2>
    8d64:	17ffffdc 	b	8cd4 <__mpa_gcd.part.0+0x60>
/home/pwnz/devel/optee/optee_os/lib/libmpa/mpa_gcd.c:241
    8d68:	f94027a0 	ldr	x0, [x29,#72]
    8d6c:	97ffffa2 	bl	8bf4 <__mpa_divby2>
/home/pwnz/devel/optee/optee_os/lib/libmpa/mpa_gcd.c:240
    8d70:	f94027a0 	ldr	x0, [x29,#72]
    8d74:	97fffb3c 	bl	7a64 <mpa_parity>
    8d78:	34ffff80 	cbz	w0, 8d68 <__mpa_gcd.part.0+0xf4>
/home/pwnz/devel/optee/optee_os/lib/libmpa/mpa_gcd.c:243
    8d7c:	f9402ba0 	ldr	x0, [x29,#80]
    8d80:	97fffb39 	bl	7a64 <mpa_parity>
    8d84:	34000240 	cbz	w0, 8dcc <__mpa_gcd.part.0+0x158>
/home/pwnz/devel/optee/optee_os/lib/libmpa/mpa_gcd.c:246
    8d88:	a9448ba1 	ldp	x1, x2, [x29,#72]
    8d8c:	aa1303e3 	mov	x3, x19
    8d90:	f9402fa0 	ldr	x0, [x29,#88]
    8d94:	94000573 	bl	a360 <mpa_sub>
/home/pwnz/devel/optee/optee_os/lib/libmpa/mpa_gcd.c:248
    8d98:	f9402fa0 	ldr	x0, [x29,#88]
    8d9c:	b9400401 	ldr	w1, [x0,#4]
    8da0:	36f80061 	tbz	w1, #31, 8dac <__mpa_gcd.part.0+0x138>
    8da4:	4b0103e1 	neg	w1, w1
    8da8:	b9000401 	str	w1, [x0,#4]
/home/pwnz/devel/optee/optee_os/lib/libmpa/mpa_gcd.c:249
    8dac:	97ffff92 	bl	8bf4 <__mpa_divby2>
/home/pwnz/devel/optee/optee_os/lib/libmpa/mpa_gcd.c:250
    8db0:	a94487a0 	ldp	x0, x1, [x29,#72]
    8db4:	940006b3 	bl	a880 <mpa_cmp>
/home/pwnz/devel/optee/optee_os/lib/libmpa/mpa_gcd.c:251
    8db8:	f9402fa1 	ldr	x1, [x29,#88]
/home/pwnz/devel/optee/optee_os/lib/libmpa/mpa_gcd.c:250
    8dbc:	37f800e0 	tbnz	w0, #31, 8dd8 <__mpa_gcd.part.0+0x164>
/home/pwnz/devel/optee/optee_os/lib/libmpa/mpa_gcd.c:251
    8dc0:	f94027a0 	ldr	x0, [x29,#72]
/home/pwnz/devel/optee/optee_os/lib/libmpa/mpa_gcd.c:253
    8dc4:	97fffade 	bl	793c <mpa_copy>
    8dc8:	17ffffca 	b	8cf0 <__mpa_gcd.part.0+0x7c>
/home/pwnz/devel/optee/optee_os/lib/libmpa/mpa_gcd.c:244
    8dcc:	f9402ba0 	ldr	x0, [x29,#80]
    8dd0:	97ffff89 	bl	8bf4 <__mpa_divby2>
    8dd4:	17ffffea 	b	8d7c <__mpa_gcd.part.0+0x108>
/home/pwnz/devel/optee/optee_os/lib/libmpa/mpa_gcd.c:253
    8dd8:	f9402ba0 	ldr	x0, [x29,#80]
    8ddc:	17fffffa 	b	8dc4 <__mpa_gcd.part.0+0x150>

0000000000008de0 <__mpa_egcd>:
__mpa_egcd():
/home/pwnz/devel/optee/optee_os/lib/libmpa/mpa_gcd.c:116
    8de0:	a9b57bfd 	stp	x29, x30, [sp,#-176]!
    8de4:	910003fd 	mov	x29, sp
    8de8:	a90153f3 	stp	x19, x20, [sp,#16]
    8dec:	aa0003f4 	mov	x20, x0
/home/pwnz/devel/optee/optee_os/lib/libmpa/mpa_gcd.c:127
    8df0:	b9400480 	ldr	w0, [x4,#4]
/home/pwnz/devel/optee/optee_os/lib/libmpa/mpa_gcd.c:116
    8df4:	a9025bf5 	stp	x21, x22, [sp,#32]
    8df8:	aa0103f6 	mov	x22, x1
    8dfc:	a9046bf9 	stp	x25, x26, [sp,#64]
    8e00:	aa0203f5 	mov	x21, x2
    8e04:	a90363f7 	stp	x23, x24, [sp,#48]
    8e08:	aa0303f9 	mov	x25, x3
    8e0c:	a90573fb 	stp	x27, x28, [sp,#80]
/home/pwnz/devel/optee/optee_os/lib/libmpa/mpa_gcd.c:127
    8e10:	35000260 	cbnz	w0, 8e5c <__mpa_egcd+0x7c>
/home/pwnz/devel/optee/optee_os/lib/libmpa/mpa_gcd.c:128
    8e14:	b4000081 	cbz	x1, 8e24 <__mpa_egcd+0x44>
/home/pwnz/devel/optee/optee_os/lib/libmpa/mpa_gcd.c:129
    8e18:	52800021 	mov	w1, #0x1                   	// #1
    8e1c:	aa1603e0 	mov	x0, x22
    8e20:	97fffd26 	bl	82b8 <mpa_set_word>
/home/pwnz/devel/optee/optee_os/lib/libmpa/mpa_gcd.c:130
    8e24:	b4000095 	cbz	x21, 8e34 <__mpa_egcd+0x54>
/home/pwnz/devel/optee/optee_os/lib/libmpa/mpa_gcd.c:131
    8e28:	52800001 	mov	w1, #0x0                   	// #0
    8e2c:	aa1503e0 	mov	x0, x21
    8e30:	97fffd22 	bl	82b8 <mpa_set_word>
/home/pwnz/devel/optee/optee_os/lib/libmpa/mpa_gcd.c:132
    8e34:	aa1903e1 	mov	x1, x25
    8e38:	aa1403e0 	mov	x0, x20
    8e3c:	97fffac0 	bl	793c <mpa_copy>
/home/pwnz/devel/optee/optee_os/lib/libmpa/mpa_gcd.c:205
    8e40:	a94153f3 	ldp	x19, x20, [sp,#16]
    8e44:	a9425bf5 	ldp	x21, x22, [sp,#32]
    8e48:	a94363f7 	ldp	x23, x24, [sp,#48]
    8e4c:	a9446bf9 	ldp	x25, x26, [sp,#64]
    8e50:	a94573fb 	ldp	x27, x28, [sp,#80]
    8e54:	a8cb7bfd 	ldp	x29, x30, [sp],#176
    8e58:	d65f03c0 	ret
/home/pwnz/devel/optee/optee_os/lib/libmpa/mpa_gcd.c:135
    8e5c:	910263b8 	add	x24, x29, #0x98
    8e60:	aa0403f7 	mov	x23, x4
    8e64:	aa0503f3 	mov	x19, x5
    8e68:	aa0503e1 	mov	x1, x5
    8e6c:	aa1803e0 	mov	x0, x24
    8e70:	940001c5 	bl	9584 <mpa_alloc_static_temp_var>
/home/pwnz/devel/optee/optee_os/lib/libmpa/mpa_gcd.c:136
    8e74:	f9404fa0 	ldr	x0, [x29,#152]
    8e78:	aa1903e1 	mov	x1, x25
    8e7c:	97fffab0 	bl	793c <mpa_copy>
/home/pwnz/devel/optee/optee_os/lib/libmpa/mpa_gcd.c:137
    8e80:	910283a0 	add	x0, x29, #0xa0
    8e84:	aa1303e1 	mov	x1, x19
    8e88:	f90037a0 	str	x0, [x29,#104]
    8e8c:	940001be 	bl	9584 <mpa_alloc_static_temp_var>
/home/pwnz/devel/optee/optee_os/lib/libmpa/mpa_gcd.c:138
    8e90:	f94053a0 	ldr	x0, [x29,#160]
    8e94:	aa1703e1 	mov	x1, x23
/home/pwnz/devel/optee/optee_os/lib/libmpa/mpa_gcd.c:140
    8e98:	52800017 	mov	w23, #0x0                   	// #0
/home/pwnz/devel/optee/optee_os/lib/libmpa/mpa_gcd.c:138
    8e9c:	97fffaa8 	bl	793c <mpa_copy>
/home/pwnz/devel/optee/optee_os/lib/libmpa/mpa_gcd.c:141
    8ea0:	f9404fa0 	ldr	x0, [x29,#152]
    8ea4:	97fffaf0 	bl	7a64 <mpa_parity>
    8ea8:	34000980 	cbz	w0, 8fd8 <__mpa_egcd+0x1f8>
/home/pwnz/devel/optee/optee_os/lib/libmpa/mpa_gcd.c:147
    8eac:	9102a3a0 	add	x0, x29, #0xa8
    8eb0:	aa1303e1 	mov	x1, x19
    8eb4:	f90033a0 	str	x0, [x29,#96]
    8eb8:	940001b3 	bl	9584 <mpa_alloc_static_temp_var>
/home/pwnz/devel/optee/optee_os/lib/libmpa/mpa_gcd.c:148
    8ebc:	f9404fa1 	ldr	x1, [x29,#152]
/home/pwnz/devel/optee/optee_os/lib/libmpa/mpa_gcd.c:150
    8ec0:	9101e3bc 	add	x28, x29, #0x78
/home/pwnz/devel/optee/optee_os/lib/libmpa/mpa_gcd.c:148
    8ec4:	f94057a0 	ldr	x0, [x29,#168]
/home/pwnz/devel/optee/optee_os/lib/libmpa/mpa_gcd.c:152
    8ec8:	910203bb 	add	x27, x29, #0x80
/home/pwnz/devel/optee/optee_os/lib/libmpa/mpa_gcd.c:154
    8ecc:	910223ba 	add	x26, x29, #0x88
/home/pwnz/devel/optee/optee_os/lib/libmpa/mpa_gcd.c:156
    8ed0:	910243b9 	add	x25, x29, #0x90
/home/pwnz/devel/optee/optee_os/lib/libmpa/mpa_gcd.c:148
    8ed4:	97fffa9a 	bl	793c <mpa_copy>
/home/pwnz/devel/optee/optee_os/lib/libmpa/mpa_gcd.c:149
    8ed8:	f94053a1 	ldr	x1, [x29,#160]
    8edc:	aa1403e0 	mov	x0, x20
    8ee0:	97fffa97 	bl	793c <mpa_copy>
/home/pwnz/devel/optee/optee_os/lib/libmpa/mpa_gcd.c:150
    8ee4:	aa1303e1 	mov	x1, x19
    8ee8:	aa1c03e0 	mov	x0, x28
    8eec:	940001a6 	bl	9584 <mpa_alloc_static_temp_var>
/home/pwnz/devel/optee/optee_os/lib/libmpa/mpa_gcd.c:151
    8ef0:	f9403fa0 	ldr	x0, [x29,#120]
    8ef4:	52800021 	mov	w1, #0x1                   	// #1
    8ef8:	97fffcf0 	bl	82b8 <mpa_set_word>
/home/pwnz/devel/optee/optee_os/lib/libmpa/mpa_gcd.c:152
    8efc:	aa1303e1 	mov	x1, x19
    8f00:	aa1b03e0 	mov	x0, x27
    8f04:	940001a0 	bl	9584 <mpa_alloc_static_temp_var>
/home/pwnz/devel/optee/optee_os/lib/libmpa/mpa_gcd.c:153
    8f08:	f94043a0 	ldr	x0, [x29,#128]
    8f0c:	52800001 	mov	w1, #0x0                   	// #0
    8f10:	97fffcea 	bl	82b8 <mpa_set_word>
/home/pwnz/devel/optee/optee_os/lib/libmpa/mpa_gcd.c:154
    8f14:	aa1303e1 	mov	x1, x19
    8f18:	aa1a03e0 	mov	x0, x26
    8f1c:	9400019a 	bl	9584 <mpa_alloc_static_temp_var>
/home/pwnz/devel/optee/optee_os/lib/libmpa/mpa_gcd.c:155
    8f20:	f94047a0 	ldr	x0, [x29,#136]
    8f24:	52800001 	mov	w1, #0x0                   	// #0
    8f28:	97fffce4 	bl	82b8 <mpa_set_word>
/home/pwnz/devel/optee/optee_os/lib/libmpa/mpa_gcd.c:156
    8f2c:	aa1303e1 	mov	x1, x19
    8f30:	aa1903e0 	mov	x0, x25
    8f34:	94000194 	bl	9584 <mpa_alloc_static_temp_var>
/home/pwnz/devel/optee/optee_os/lib/libmpa/mpa_gcd.c:157
    8f38:	f9404ba0 	ldr	x0, [x29,#144]
    8f3c:	52800021 	mov	w1, #0x1                   	// #1
    8f40:	97fffcde 	bl	82b8 <mpa_set_word>
/home/pwnz/devel/optee/optee_os/lib/libmpa/mpa_gcd.c:159
    8f44:	f94057a0 	ldr	x0, [x29,#168]
    8f48:	b9400400 	ldr	w0, [x0,#4]
    8f4c:	35000800 	cbnz	w0, 904c <__mpa_egcd+0x26c>
/home/pwnz/devel/optee/optee_os/lib/libmpa/mpa_gcd.c:192
    8f50:	b4000096 	cbz	x22, 8f60 <__mpa_egcd+0x180>
/home/pwnz/devel/optee/optee_os/lib/libmpa/mpa_gcd.c:193
    8f54:	f94047a1 	ldr	x1, [x29,#136]
    8f58:	aa1603e0 	mov	x0, x22
    8f5c:	97fffa78 	bl	793c <mpa_copy>
/home/pwnz/devel/optee/optee_os/lib/libmpa/mpa_gcd.c:194
    8f60:	b4000095 	cbz	x21, 8f70 <__mpa_egcd+0x190>
/home/pwnz/devel/optee/optee_os/lib/libmpa/mpa_gcd.c:195
    8f64:	f9404ba1 	ldr	x1, [x29,#144]
    8f68:	aa1503e0 	mov	x0, x21
    8f6c:	97fffa74 	bl	793c <mpa_copy>
/home/pwnz/devel/optee/optee_os/lib/libmpa/mpa_gcd.c:196
    8f70:	2a1703e2 	mov	w2, w23
    8f74:	aa1403e1 	mov	x1, x20
    8f78:	aa1403e0 	mov	x0, x20
    8f7c:	94000316 	bl	9bd4 <mpa_shift_left>
/home/pwnz/devel/optee/optee_os/lib/libmpa/mpa_gcd.c:198
    8f80:	aa1303e1 	mov	x1, x19
    8f84:	aa1c03e0 	mov	x0, x28
    8f88:	94000183 	bl	9594 <mpa_free_static_temp_var>
/home/pwnz/devel/optee/optee_os/lib/libmpa/mpa_gcd.c:199
    8f8c:	aa1303e1 	mov	x1, x19
    8f90:	aa1b03e0 	mov	x0, x27
    8f94:	94000180 	bl	9594 <mpa_free_static_temp_var>
/home/pwnz/devel/optee/optee_os/lib/libmpa/mpa_gcd.c:200
    8f98:	aa1303e1 	mov	x1, x19
    8f9c:	aa1a03e0 	mov	x0, x26
    8fa0:	9400017d 	bl	9594 <mpa_free_static_temp_var>
/home/pwnz/devel/optee/optee_os/lib/libmpa/mpa_gcd.c:201
    8fa4:	aa1303e1 	mov	x1, x19
    8fa8:	aa1903e0 	mov	x0, x25
    8fac:	9400017a 	bl	9594 <mpa_free_static_temp_var>
/home/pwnz/devel/optee/optee_os/lib/libmpa/mpa_gcd.c:202
    8fb0:	aa1303e1 	mov	x1, x19
    8fb4:	aa1803e0 	mov	x0, x24
    8fb8:	94000177 	bl	9594 <mpa_free_static_temp_var>
/home/pwnz/devel/optee/optee_os/lib/libmpa/mpa_gcd.c:203
    8fbc:	f94037a0 	ldr	x0, [x29,#104]
    8fc0:	aa1303e1 	mov	x1, x19
    8fc4:	94000174 	bl	9594 <mpa_free_static_temp_var>
/home/pwnz/devel/optee/optee_os/lib/libmpa/mpa_gcd.c:204
    8fc8:	f94033a0 	ldr	x0, [x29,#96]
    8fcc:	aa1303e1 	mov	x1, x19
    8fd0:	94000171 	bl	9594 <mpa_free_static_temp_var>
    8fd4:	17ffff9b 	b	8e40 <__mpa_egcd+0x60>
/home/pwnz/devel/optee/optee_os/lib/libmpa/mpa_gcd.c:141
    8fd8:	f94053a0 	ldr	x0, [x29,#160]
    8fdc:	97fffaa2 	bl	7a64 <mpa_parity>
    8fe0:	35fff660 	cbnz	w0, 8eac <__mpa_egcd+0xcc>
/home/pwnz/devel/optee/optee_os/lib/libmpa/mpa_gcd.c:143
    8fe4:	f9404fa0 	ldr	x0, [x29,#152]
/home/pwnz/devel/optee/optee_os/lib/libmpa/mpa_gcd.c:142
    8fe8:	110006f7 	add	w23, w23, #0x1
/home/pwnz/devel/optee/optee_os/lib/libmpa/mpa_gcd.c:143
    8fec:	97ffff02 	bl	8bf4 <__mpa_divby2>
/home/pwnz/devel/optee/optee_os/lib/libmpa/mpa_gcd.c:144
    8ff0:	f94053a0 	ldr	x0, [x29,#160]
    8ff4:	97ffff00 	bl	8bf4 <__mpa_divby2>
    8ff8:	17ffffaa 	b	8ea0 <__mpa_egcd+0xc0>
/home/pwnz/devel/optee/optee_os/lib/libmpa/mpa_gcd.c:161
    8ffc:	f94057a0 	ldr	x0, [x29,#168]
    9000:	97fffefd 	bl	8bf4 <__mpa_divby2>
/home/pwnz/devel/optee/optee_os/lib/libmpa/mpa_gcd.c:162
    9004:	f9403fa0 	ldr	x0, [x29,#120]
    9008:	97fffa97 	bl	7a64 <mpa_parity>
    900c:	7100041f 	cmp	w0, #0x1
    9010:	54000521 	b.ne	90b4 <__mpa_egcd+0x2d4>
/home/pwnz/devel/optee/optee_os/lib/libmpa/mpa_gcd.c:163
    9014:	f9403fa1 	ldr	x1, [x29,#120]
    9018:	aa1303e3 	mov	x3, x19
    901c:	f94053a2 	ldr	x2, [x29,#160]
    9020:	aa0103e0 	mov	x0, x1
    9024:	9400046a 	bl	a1cc <mpa_add>
/home/pwnz/devel/optee/optee_os/lib/libmpa/mpa_gcd.c:164
    9028:	f94043a1 	ldr	x1, [x29,#128]
    902c:	aa1303e3 	mov	x3, x19
    9030:	f9404fa2 	ldr	x2, [x29,#152]
    9034:	aa0103e0 	mov	x0, x1
    9038:	940004ca 	bl	a360 <mpa_sub>
/home/pwnz/devel/optee/optee_os/lib/libmpa/mpa_gcd.c:166
    903c:	f9403fa0 	ldr	x0, [x29,#120]
    9040:	97fffeed 	bl	8bf4 <__mpa_divby2>
/home/pwnz/devel/optee/optee_os/lib/libmpa/mpa_gcd.c:167
    9044:	f94043a0 	ldr	x0, [x29,#128]
    9048:	97fffeeb 	bl	8bf4 <__mpa_divby2>
/home/pwnz/devel/optee/optee_os/lib/libmpa/mpa_gcd.c:160
    904c:	f94057a0 	ldr	x0, [x29,#168]
    9050:	97fffa85 	bl	7a64 <mpa_parity>
    9054:	34fffd40 	cbz	w0, 8ffc <__mpa_egcd+0x21c>
/home/pwnz/devel/optee/optee_os/lib/libmpa/mpa_gcd.c:170
    9058:	aa1403e0 	mov	x0, x20
    905c:	97fffa82 	bl	7a64 <mpa_parity>
    9060:	34000340 	cbz	w0, 90c8 <__mpa_egcd+0x2e8>
/home/pwnz/devel/optee/optee_os/lib/libmpa/mpa_gcd.c:180
    9064:	f94057a0 	ldr	x0, [x29,#168]
    9068:	aa1403e1 	mov	x1, x20
    906c:	94000605 	bl	a880 <mpa_cmp>
/home/pwnz/devel/optee/optee_os/lib/libmpa/mpa_gcd.c:181
    9070:	aa1303e3 	mov	x3, x19
/home/pwnz/devel/optee/optee_os/lib/libmpa/mpa_gcd.c:180
    9074:	37f805c0 	tbnz	w0, #31, 912c <__mpa_egcd+0x34c>
/home/pwnz/devel/optee/optee_os/lib/libmpa/mpa_gcd.c:181
    9078:	f94057a1 	ldr	x1, [x29,#168]
    907c:	aa1403e2 	mov	x2, x20
    9080:	aa0103e0 	mov	x0, x1
    9084:	940004b7 	bl	a360 <mpa_sub>
/home/pwnz/devel/optee/optee_os/lib/libmpa/mpa_gcd.c:182
    9088:	f9403fa1 	ldr	x1, [x29,#120]
    908c:	aa1303e3 	mov	x3, x19
    9090:	f94047a2 	ldr	x2, [x29,#136]
    9094:	aa0103e0 	mov	x0, x1
    9098:	940004b2 	bl	a360 <mpa_sub>
/home/pwnz/devel/optee/optee_os/lib/libmpa/mpa_gcd.c:183
    909c:	f94043a1 	ldr	x1, [x29,#128]
    90a0:	aa1303e3 	mov	x3, x19
    90a4:	f9404ba2 	ldr	x2, [x29,#144]
/home/pwnz/devel/optee/optee_os/lib/libmpa/mpa_gcd.c:187
    90a8:	aa0103e0 	mov	x0, x1
    90ac:	940004ad 	bl	a360 <mpa_sub>
    90b0:	17ffffa5 	b	8f44 <__mpa_egcd+0x164>
/home/pwnz/devel/optee/optee_os/lib/libmpa/mpa_gcd.c:162
    90b4:	f94043a0 	ldr	x0, [x29,#128]
    90b8:	97fffa6b 	bl	7a64 <mpa_parity>
    90bc:	7100041f 	cmp	w0, #0x1
    90c0:	54fffbe1 	b.ne	903c <__mpa_egcd+0x25c>
    90c4:	17ffffd4 	b	9014 <__mpa_egcd+0x234>
/home/pwnz/devel/optee/optee_os/lib/libmpa/mpa_gcd.c:171
    90c8:	aa1403e0 	mov	x0, x20
    90cc:	97fffeca 	bl	8bf4 <__mpa_divby2>
/home/pwnz/devel/optee/optee_os/lib/libmpa/mpa_gcd.c:172
    90d0:	f94047a0 	ldr	x0, [x29,#136]
    90d4:	97fffa64 	bl	7a64 <mpa_parity>
    90d8:	7100041f 	cmp	w0, #0x1
    90dc:	540001e1 	b.ne	9118 <__mpa_egcd+0x338>
/home/pwnz/devel/optee/optee_os/lib/libmpa/mpa_gcd.c:173
    90e0:	f94047a1 	ldr	x1, [x29,#136]
    90e4:	aa1303e3 	mov	x3, x19
    90e8:	f94053a2 	ldr	x2, [x29,#160]
    90ec:	aa0103e0 	mov	x0, x1
    90f0:	94000437 	bl	a1cc <mpa_add>
/home/pwnz/devel/optee/optee_os/lib/libmpa/mpa_gcd.c:174
    90f4:	a9490ba1 	ldp	x1, x2, [x29,#144]
    90f8:	aa1303e3 	mov	x3, x19
    90fc:	aa0103e0 	mov	x0, x1
    9100:	94000498 	bl	a360 <mpa_sub>
/home/pwnz/devel/optee/optee_os/lib/libmpa/mpa_gcd.c:176
    9104:	f94047a0 	ldr	x0, [x29,#136]
    9108:	97fffebb 	bl	8bf4 <__mpa_divby2>
/home/pwnz/devel/optee/optee_os/lib/libmpa/mpa_gcd.c:177
    910c:	f9404ba0 	ldr	x0, [x29,#144]
    9110:	97fffeb9 	bl	8bf4 <__mpa_divby2>
    9114:	17ffffd1 	b	9058 <__mpa_egcd+0x278>
/home/pwnz/devel/optee/optee_os/lib/libmpa/mpa_gcd.c:172
    9118:	f9404ba0 	ldr	x0, [x29,#144]
    911c:	97fffa52 	bl	7a64 <mpa_parity>
    9120:	7100041f 	cmp	w0, #0x1
    9124:	54ffff01 	b.ne	9104 <__mpa_egcd+0x324>
    9128:	17ffffee 	b	90e0 <__mpa_egcd+0x300>
/home/pwnz/devel/optee/optee_os/lib/libmpa/mpa_gcd.c:185
    912c:	f94057a2 	ldr	x2, [x29,#168]
    9130:	aa1403e1 	mov	x1, x20
    9134:	aa1403e0 	mov	x0, x20
    9138:	9400048a 	bl	a360 <mpa_sub>
/home/pwnz/devel/optee/optee_os/lib/libmpa/mpa_gcd.c:186
    913c:	f94047a1 	ldr	x1, [x29,#136]
    9140:	aa1303e3 	mov	x3, x19
    9144:	f9403fa2 	ldr	x2, [x29,#120]
    9148:	aa0103e0 	mov	x0, x1
    914c:	94000485 	bl	a360 <mpa_sub>
/home/pwnz/devel/optee/optee_os/lib/libmpa/mpa_gcd.c:187
    9150:	aa1303e3 	mov	x3, x19
    9154:	f94043a2 	ldr	x2, [x29,#128]
    9158:	f9404ba1 	ldr	x1, [x29,#144]
    915c:	17ffffd3 	b	90a8 <__mpa_egcd+0x2c8>

0000000000009160 <mpa_gcd>:
mpa_gcd():
/home/pwnz/devel/optee/optee_os/lib/libmpa/mpa_gcd.c:275
    9160:	a9bc7bfd 	stp	x29, x30, [sp,#-64]!
    9164:	910003fd 	mov	x29, sp
    9168:	a90153f3 	stp	x19, x20, [sp,#16]
    916c:	aa0203f3 	mov	x19, x2
    9170:	a9025bf5 	stp	x21, x22, [sp,#32]
    9174:	aa0003f6 	mov	x22, x0
/home/pwnz/devel/optee/optee_os/lib/libmpa/mpa_gcd.c:281
    9178:	b9400420 	ldr	w0, [x1,#4]
/home/pwnz/devel/optee/optee_os/lib/libmpa/mpa_gcd.c:275
    917c:	aa0103f4 	mov	x20, x1
/home/pwnz/devel/optee/optee_os/lib/libmpa/mpa_gcd.c:282
    9180:	b9400661 	ldr	w1, [x19,#4]
/home/pwnz/devel/optee/optee_os/lib/libmpa/mpa_gcd.c:281
    9184:	52800022 	mov	w2, #0x1                   	// #1
    9188:	7100001f 	cmp	w0, #0x0
/home/pwnz/devel/optee/optee_os/lib/libmpa/mpa_gcd.c:275
    918c:	a90363f7 	stp	x23, x24, [sp,#48]
    9190:	aa0303f8 	mov	x24, x3
/home/pwnz/devel/optee/optee_os/lib/libmpa/mpa_gcd.c:281
    9194:	5a82a457 	cneg	w23, w2, lt
/home/pwnz/devel/optee/optee_os/lib/libmpa/mpa_gcd.c:282
    9198:	36f806e1 	tbz	w1, #31, 9274 <mpa_gcd+0x114>
    919c:	12800015 	mov	w21, #0xffffffff            	// #-1
/home/pwnz/devel/optee/optee_os/lib/libmpa/mpa_gcd.c:283
    91a0:	36f800a0 	tbz	w0, #31, 91b4 <mpa_gcd+0x54>
/home/pwnz/devel/optee/optee_os/lib/libmpa/mpa_gcd.c:283 (discriminator 1)
    91a4:	4b0003e0 	neg	w0, w0
    91a8:	b9000680 	str	w0, [x20,#4]
/home/pwnz/devel/optee/optee_os/lib/libmpa/mpa_gcd.c:284 (discriminator 1)
    91ac:	b9400661 	ldr	w1, [x19,#4]
    91b0:	36f80061 	tbz	w1, #31, 91bc <mpa_gcd+0x5c>
    91b4:	4b0103e1 	neg	w1, w1
    91b8:	b9000661 	str	w1, [x19,#4]
/home/pwnz/devel/optee/optee_os/lib/libmpa/mpa_gcd.c:286
    91bc:	aa1303e1 	mov	x1, x19
    91c0:	aa1403e0 	mov	x0, x20
    91c4:	940005af 	bl	a880 <mpa_cmp>
/home/pwnz/devel/optee/optee_os/lib/libmpa/mpa_gcd.c:287
    91c8:	7100001f 	cmp	w0, #0x0
    91cc:	54000321 	b.ne	9230 <mpa_gcd+0xd0>
/home/pwnz/devel/optee/optee_os/lib/libmpa/mpa_gcd.c:288
    91d0:	aa1403e1 	mov	x1, x20
__mpa_gcd():
/home/pwnz/devel/optee/optee_os/lib/libmpa/mpa_gcd.c:223
    91d4:	aa1603e0 	mov	x0, x22
    91d8:	97fff9d9 	bl	793c <mpa_copy>
mpa_gcd():
/home/pwnz/devel/optee/optee_os/lib/libmpa/mpa_gcd.c:299
    91dc:	b9400680 	ldr	w0, [x20,#4]
    91e0:	52800021 	mov	w1, #0x1                   	// #1
    91e4:	7100001f 	cmp	w0, #0x0
    91e8:	5a81a421 	cneg	w1, w1, lt
    91ec:	6b0102ff 	cmp	w23, w1
    91f0:	54000060 	b.eq	91fc <mpa_gcd+0x9c>
/home/pwnz/devel/optee/optee_os/lib/libmpa/mpa_gcd.c:299 (discriminator 5)
    91f4:	4b0003e0 	neg	w0, w0
    91f8:	b9000680 	str	w0, [x20,#4]
/home/pwnz/devel/optee/optee_os/lib/libmpa/mpa_gcd.c:300
    91fc:	b9400660 	ldr	w0, [x19,#4]
    9200:	52800021 	mov	w1, #0x1                   	// #1
    9204:	7100001f 	cmp	w0, #0x0
    9208:	5a81a421 	cneg	w1, w1, lt
    920c:	6b15003f 	cmp	w1, w21
    9210:	54000060 	b.eq	921c <mpa_gcd+0xbc>
/home/pwnz/devel/optee/optee_os/lib/libmpa/mpa_gcd.c:300 (discriminator 5)
    9214:	4b0003e0 	neg	w0, w0
    9218:	b9000660 	str	w0, [x19,#4]
/home/pwnz/devel/optee/optee_os/lib/libmpa/mpa_gcd.c:301
    921c:	a94153f3 	ldp	x19, x20, [sp,#16]
    9220:	a9425bf5 	ldp	x21, x22, [sp,#32]
    9224:	a94363f7 	ldp	x23, x24, [sp,#48]
    9228:	a8c47bfd 	ldp	x29, x30, [sp],#64
    922c:	d65f03c0 	ret
/home/pwnz/devel/optee/optee_os/lib/libmpa/mpa_gcd.c:291
    9230:	5400016a 	b.ge	925c <mpa_gcd+0xfc>
__mpa_gcd():
/home/pwnz/devel/optee/optee_os/lib/libmpa/mpa_gcd.c:222
    9234:	b9400680 	ldr	w0, [x20,#4]
    9238:	35000060 	cbnz	w0, 9244 <mpa_gcd+0xe4>
/home/pwnz/devel/optee/optee_os/lib/libmpa/mpa_gcd.c:223
    923c:	aa1303e1 	mov	x1, x19
    9240:	17ffffe5 	b	91d4 <mpa_gcd+0x74>
    9244:	aa1803e3 	mov	x3, x24
    9248:	aa1403e2 	mov	x2, x20
    924c:	aa1303e1 	mov	x1, x19
    9250:	aa1603e0 	mov	x0, x22
    9254:	97fffe88 	bl	8c74 <__mpa_gcd.part.0>
    9258:	17ffffe1 	b	91dc <mpa_gcd+0x7c>
/home/pwnz/devel/optee/optee_os/lib/libmpa/mpa_gcd.c:222
    925c:	b9400660 	ldr	w0, [x19,#4]
    9260:	34fffb80 	cbz	w0, 91d0 <mpa_gcd+0x70>
    9264:	aa1803e3 	mov	x3, x24
    9268:	aa1303e2 	mov	x2, x19
    926c:	aa1403e1 	mov	x1, x20
    9270:	17fffff8 	b	9250 <mpa_gcd+0xf0>
mpa_gcd():
/home/pwnz/devel/optee/optee_os/lib/libmpa/mpa_gcd.c:282
    9274:	2a0203f5 	mov	w21, w2
/home/pwnz/devel/optee/optee_os/lib/libmpa/mpa_gcd.c:283
    9278:	36fffa20 	tbz	w0, #31, 91bc <mpa_gcd+0x5c>
    927c:	17ffffca 	b	91a4 <mpa_gcd+0x44>

0000000000009280 <mpa_extended_gcd>:
mpa_extended_gcd():
/home/pwnz/devel/optee/optee_os/lib/libmpa/mpa_gcd.c:317
    9280:	a9b97bfd 	stp	x29, x30, [sp,#-112]!
/home/pwnz/devel/optee/optee_os/lib/libmpa/mpa_gcd.c:324
    9284:	f100003f 	cmp	x1, #0x0
    9288:	fa400840 	ccmp	x2, #0x0, #0x0, eq
/home/pwnz/devel/optee/optee_os/lib/libmpa/mpa_gcd.c:317
    928c:	910003fd 	mov	x29, sp
    9290:	a90153f3 	stp	x19, x20, [sp,#16]
    9294:	aa0303f3 	mov	x19, x3
    9298:	a9025bf5 	stp	x21, x22, [sp,#32]
    929c:	aa0403f4 	mov	x20, x4
    92a0:	a9046bf9 	stp	x25, x26, [sp,#64]
    92a4:	aa0003f6 	mov	x22, x0
    92a8:	a90363f7 	stp	x23, x24, [sp,#48]
    92ac:	aa0503f9 	mov	x25, x5
    92b0:	a90573fb 	stp	x27, x28, [sp,#80]
/home/pwnz/devel/optee/optee_os/lib/libmpa/mpa_gcd.c:324
    92b4:	540001a1 	b.ne	92e8 <mpa_extended_gcd+0x68>
/home/pwnz/devel/optee/optee_os/lib/libmpa/mpa_gcd.c:325
    92b8:	b40000a0 	cbz	x0, 92cc <mpa_extended_gcd+0x4c>
/home/pwnz/devel/optee/optee_os/lib/libmpa/mpa_gcd.c:326
    92bc:	aa0503e3 	mov	x3, x5
    92c0:	aa0403e2 	mov	x2, x4
    92c4:	aa1303e1 	mov	x1, x19
    92c8:	97ffffa6 	bl	9160 <mpa_gcd>
/home/pwnz/devel/optee/optee_os/lib/libmpa/mpa_gcd.c:372
    92cc:	a94153f3 	ldp	x19, x20, [sp,#16]
    92d0:	a9425bf5 	ldp	x21, x22, [sp,#32]
    92d4:	a94363f7 	ldp	x23, x24, [sp,#48]
    92d8:	a9446bf9 	ldp	x25, x26, [sp,#64]
    92dc:	a94573fb 	ldp	x27, x28, [sp,#80]
    92e0:	a8c77bfd 	ldp	x29, x30, [sp],#112
    92e4:	d65f03c0 	ret
/home/pwnz/devel/optee/optee_os/lib/libmpa/mpa_gcd.c:331
    92e8:	b9400460 	ldr	w0, [x3,#4]
    92ec:	aa0103f7 	mov	x23, x1
/home/pwnz/devel/optee/optee_os/lib/libmpa/mpa_gcd.c:332
    92f0:	b9400481 	ldr	w1, [x4,#4]
/home/pwnz/devel/optee/optee_os/lib/libmpa/mpa_gcd.c:331
    92f4:	52800035 	mov	w21, #0x1                   	// #1
    92f8:	7100001f 	cmp	w0, #0x0
    92fc:	aa0203f8 	mov	x24, x2
    9300:	5a95a6ba 	cneg	w26, w21, lt
/home/pwnz/devel/optee/optee_os/lib/libmpa/mpa_gcd.c:332
    9304:	36f80b01 	tbz	w1, #31, 9464 <mpa_extended_gcd+0x1e4>
    9308:	12800015 	mov	w21, #0xffffffff            	// #-1
/home/pwnz/devel/optee/optee_os/lib/libmpa/mpa_gcd.c:333
    930c:	36f800a0 	tbz	w0, #31, 9320 <mpa_extended_gcd+0xa0>
/home/pwnz/devel/optee/optee_os/lib/libmpa/mpa_gcd.c:333 (discriminator 1)
    9310:	4b0003e0 	neg	w0, w0
    9314:	b9000660 	str	w0, [x19,#4]
/home/pwnz/devel/optee/optee_os/lib/libmpa/mpa_gcd.c:334 (discriminator 1)
    9318:	b9400681 	ldr	w1, [x20,#4]
    931c:	36f80061 	tbz	w1, #31, 9328 <mpa_extended_gcd+0xa8>
    9320:	4b0103e1 	neg	w1, w1
    9324:	b9000681 	str	w1, [x20,#4]
/home/pwnz/devel/optee/optee_os/lib/libmpa/mpa_gcd.c:336
    9328:	aa1403e1 	mov	x1, x20
    932c:	aa1303e0 	mov	x0, x19
    9330:	94000554 	bl	a880 <mpa_cmp>
    9334:	2a0003fc 	mov	w28, w0
/home/pwnz/devel/optee/optee_os/lib/libmpa/mpa_gcd.c:337
    9338:	35000540 	cbnz	w0, 93e0 <mpa_extended_gcd+0x160>
/home/pwnz/devel/optee/optee_os/lib/libmpa/mpa_gcd.c:338
    933c:	b4000096 	cbz	x22, 934c <mpa_extended_gcd+0xcc>
/home/pwnz/devel/optee/optee_os/lib/libmpa/mpa_gcd.c:339
    9340:	aa1303e1 	mov	x1, x19
    9344:	aa1603e0 	mov	x0, x22
    9348:	97fff97d 	bl	793c <mpa_copy>
/home/pwnz/devel/optee/optee_os/lib/libmpa/mpa_gcd.c:340
    934c:	b4000097 	cbz	x23, 935c <mpa_extended_gcd+0xdc>
/home/pwnz/devel/optee/optee_os/lib/libmpa/mpa_gcd.c:341
    9350:	52800021 	mov	w1, #0x1                   	// #1
    9354:	aa1703e0 	mov	x0, x23
    9358:	97fffbd8 	bl	82b8 <mpa_set_word>
/home/pwnz/devel/optee/optee_os/lib/libmpa/mpa_gcd.c:342
    935c:	b4000098 	cbz	x24, 936c <mpa_extended_gcd+0xec>
/home/pwnz/devel/optee/optee_os/lib/libmpa/mpa_gcd.c:343
    9360:	52800001 	mov	w1, #0x0                   	// #0
    9364:	aa1803e0 	mov	x0, x24
    9368:	97fffbd4 	bl	82b8 <mpa_set_word>
/home/pwnz/devel/optee/optee_os/lib/libmpa/mpa_gcd.c:365
    936c:	b9400660 	ldr	w0, [x19,#4]
    9370:	52800021 	mov	w1, #0x1                   	// #1
    9374:	7100001f 	cmp	w0, #0x0
    9378:	5a81a421 	cneg	w1, w1, lt
    937c:	6b01035f 	cmp	w26, w1
    9380:	54000060 	b.eq	938c <mpa_extended_gcd+0x10c>
/home/pwnz/devel/optee/optee_os/lib/libmpa/mpa_gcd.c:365 (discriminator 5)
    9384:	4b0003e0 	neg	w0, w0
    9388:	b9000660 	str	w0, [x19,#4]
/home/pwnz/devel/optee/optee_os/lib/libmpa/mpa_gcd.c:366
    938c:	b9400680 	ldr	w0, [x20,#4]
    9390:	52800021 	mov	w1, #0x1                   	// #1
    9394:	7100001f 	cmp	w0, #0x0
    9398:	5a81a421 	cneg	w1, w1, lt
    939c:	6b15003f 	cmp	w1, w21
    93a0:	54000060 	b.eq	93ac <mpa_extended_gcd+0x12c>
/home/pwnz/devel/optee/optee_os/lib/libmpa/mpa_gcd.c:366 (discriminator 5)
    93a4:	4b0003e0 	neg	w0, w0
    93a8:	b9000680 	str	w0, [x20,#4]
/home/pwnz/devel/optee/optee_os/lib/libmpa/mpa_gcd.c:368
    93ac:	f10002ff 	cmp	x23, #0x0
    93b0:	3a411b40 	ccmn	w26, #0x1, #0x0, ne
    93b4:	54000081 	b.ne	93c4 <mpa_extended_gcd+0x144>
/home/pwnz/devel/optee/optee_os/lib/libmpa/mpa_gcd.c:369
    93b8:	b94006e0 	ldr	w0, [x23,#4]
    93bc:	4b0003e0 	neg	w0, w0
    93c0:	b90006e0 	str	w0, [x23,#4]
/home/pwnz/devel/optee/optee_os/lib/libmpa/mpa_gcd.c:370
    93c4:	f100031f 	cmp	x24, #0x0
    93c8:	3a411aa0 	ccmn	w21, #0x1, #0x0, ne
    93cc:	54fff801 	b.ne	92cc <mpa_extended_gcd+0x4c>
/home/pwnz/devel/optee/optee_os/lib/libmpa/mpa_gcd.c:371
    93d0:	b9400700 	ldr	w0, [x24,#4]
    93d4:	4b0003e0 	neg	w0, w0
    93d8:	b9000700 	str	w0, [x24,#4]
    93dc:	17ffffbc 	b	92cc <mpa_extended_gcd+0x4c>
/home/pwnz/devel/optee/optee_os/lib/libmpa/mpa_gcd.c:347
    93e0:	f10002df 	cmp	x22, #0x0
    93e4:	fa561284 	ccmp	x20, x22, #0x4, ne
    93e8:	fa561264 	ccmp	x19, x22, #0x4, ne
    93ec:	54000361 	b.ne	9458 <mpa_extended_gcd+0x1d8>
    93f0:	5280003b 	mov	w27, #0x1                   	// #1
/home/pwnz/devel/optee/optee_os/lib/libmpa/mpa_gcd.c:349
    93f4:	aa1903e1 	mov	x1, x25
    93f8:	9101a3a0 	add	x0, x29, #0x68
    93fc:	94000062 	bl	9584 <mpa_alloc_static_temp_var>
/home/pwnz/devel/optee/optee_os/lib/libmpa/mpa_gcd.c:354
    9400:	aa1903e5 	mov	x5, x25
/home/pwnz/devel/optee/optee_os/lib/libmpa/mpa_gcd.c:353
    9404:	36f8021c 	tbz	w28, #31, 9444 <mpa_extended_gcd+0x1c4>
/home/pwnz/devel/optee/optee_os/lib/libmpa/mpa_gcd.c:354
    9408:	aa1303e4 	mov	x4, x19
    940c:	aa1403e3 	mov	x3, x20
    9410:	aa1703e2 	mov	x2, x23
    9414:	aa1803e1 	mov	x1, x24
/home/pwnz/devel/optee/optee_os/lib/libmpa/mpa_gcd.c:356
    9418:	f94037a0 	ldr	x0, [x29,#104]
    941c:	97fffe71 	bl	8de0 <__mpa_egcd>
/home/pwnz/devel/optee/optee_os/lib/libmpa/mpa_gcd.c:358
    9420:	b4000096 	cbz	x22, 9430 <mpa_extended_gcd+0x1b0>
/home/pwnz/devel/optee/optee_os/lib/libmpa/mpa_gcd.c:359
    9424:	f94037a1 	ldr	x1, [x29,#104]
    9428:	aa1603e0 	mov	x0, x22
    942c:	97fff944 	bl	793c <mpa_copy>
/home/pwnz/devel/optee/optee_os/lib/libmpa/mpa_gcd.c:360
    9430:	34fff9fb 	cbz	w27, 936c <mpa_extended_gcd+0xec>
/home/pwnz/devel/optee/optee_os/lib/libmpa/mpa_gcd.c:361
    9434:	aa1903e1 	mov	x1, x25
    9438:	9101a3a0 	add	x0, x29, #0x68
    943c:	94000056 	bl	9594 <mpa_free_static_temp_var>
    9440:	17ffffcb 	b	936c <mpa_extended_gcd+0xec>
/home/pwnz/devel/optee/optee_os/lib/libmpa/mpa_gcd.c:356
    9444:	aa1403e4 	mov	x4, x20
    9448:	aa1303e3 	mov	x3, x19
    944c:	aa1803e2 	mov	x2, x24
    9450:	aa1703e1 	mov	x1, x23
    9454:	17fffff1 	b	9418 <mpa_extended_gcd+0x198>
/home/pwnz/devel/optee/optee_os/lib/libmpa/mpa_gcd.c:347
    9458:	5280001b 	mov	w27, #0x0                   	// #0
/home/pwnz/devel/optee/optee_os/lib/libmpa/mpa_gcd.c:351
    945c:	f90037b6 	str	x22, [x29,#104]
    9460:	17ffffe8 	b	9400 <mpa_extended_gcd+0x180>
/home/pwnz/devel/optee/optee_os/lib/libmpa/mpa_gcd.c:333
    9464:	36fff620 	tbz	w0, #31, 9328 <mpa_extended_gcd+0xa8>
    9468:	17ffffaa 	b	9310 <mpa_extended_gcd+0x90>

000000000000946c <mpa_init_scratch_mem_sync>:
mpa_init_scratch_mem_sync():
/home/pwnz/devel/optee/optee_os/lib/libmpa/mpa_mem_static.c:41
    946c:	531f7842 	lsl	w2, w2, #1
/home/pwnz/devel/optee/optee_os/lib/libmpa/mpa_mem_static.c:40
    9470:	b900081f 	str	wzr, [x0,#8]
/home/pwnz/devel/optee/optee_os/lib/libmpa/mpa_mem_static.c:41
    9474:	29000801 	stp	w1, w2, [x0]
/home/pwnz/devel/optee/optee_os/lib/libmpa/mpa_mem_static.c:43
    9478:	a9011003 	stp	x3, x4, [x0,#16]
/home/pwnz/devel/optee/optee_os/lib/libmpa/mpa_mem_static.c:44
    947c:	f9001005 	str	x5, [x0,#32]
    9480:	d65f03c0 	ret

0000000000009484 <mpa_init_scratch_mem>:
/home/pwnz/devel/optee/optee_os/lib/libmpa/mpa_mem_static.c:41
    9484:	531f7842 	lsl	w2, w2, #1
/home/pwnz/devel/optee/optee_os/lib/libmpa/mpa_mem_static.c:40
    9488:	b900081f 	str	wzr, [x0,#8]
/home/pwnz/devel/optee/optee_os/lib/libmpa/mpa_mem_static.c:41
    948c:	29000801 	stp	w1, w2, [x0]
/home/pwnz/devel/optee/optee_os/lib/libmpa/mpa_mem_static.c:43
    9490:	a9017c1f 	stp	xzr, xzr, [x0,#16]
/home/pwnz/devel/optee/optee_os/lib/libmpa/mpa_mem_static.c:44
    9494:	f900101f 	str	xzr, [x0,#32]
    9498:	d65f03c0 	ret

000000000000949c <mpa_alloc_static_temp_var_size>:
mpa_alloc_static_temp_var_size():
/home/pwnz/devel/optee/optee_os/lib/libmpa/mpa_mem_static.c:89
    949c:	a9bd7bfd 	stp	x29, x30, [sp,#-48]!
    94a0:	910003fd 	mov	x29, sp
    94a4:	f90013f5 	str	x21, [sp,#32]
    94a8:	aa0103f5 	mov	x21, x1
/home/pwnz/devel/optee/optee_os/lib/libmpa/mpa_mem_static.c:95
    94ac:	f9400841 	ldr	x1, [x2,#16]
/home/pwnz/devel/optee/optee_os/lib/libmpa/mpa_mem_static.c:89
    94b0:	a90153f3 	stp	x19, x20, [sp,#16]
    94b4:	2a0003f4 	mov	w20, w0
    94b8:	aa0203f3 	mov	x19, x2
/home/pwnz/devel/optee/optee_os/lib/libmpa/mpa_mem_static.c:95
    94bc:	b4000061 	cbz	x1, 94c8 <mpa_alloc_static_temp_var_size+0x2c>
/home/pwnz/devel/optee/optee_os/lib/libmpa/mpa_mem_static.c:96
    94c0:	f9401040 	ldr	x0, [x2,#32]
    94c4:	d63f0020 	blr	x1
/home/pwnz/devel/optee/optee_os/lib/libmpa/mpa_mem_static.c:98
    94c8:	b9400a63 	ldr	w3, [x19,#8]
    94cc:	34000463 	cbz	w3, 9558 <mpa_alloc_static_temp_var_size+0xbc>
/home/pwnz/devel/optee/optee_os/lib/libmpa/mpa_mem_static.c:103
    94d0:	2a0303e0 	mov	w0, w3
    94d4:	8b000265 	add	x5, x19, x0
/home/pwnz/devel/optee/optee_os/lib/libmpa/mpa_mem_static.c:104
    94d8:	b8606a62 	ldr	w2, [x19,x0]
    94dc:	0b020062 	add	w2, w3, w2
/home/pwnz/devel/optee/optee_os/lib/libmpa/mpa_mem_static.c:107
    94e0:	11000c42 	add	w2, w2, #0x3
/home/pwnz/devel/optee/optee_os/lib/libmpa/mpa_mem_static.c:108
    94e4:	b9400260 	ldr	w0, [x19]
/home/pwnz/devel/optee/optee_os/lib/libmpa/mpa_mem_static.c:107
    94e8:	121e7442 	and	w2, w2, #0xfffffffc
/home/pwnz/devel/optee/optee_os/lib/libmpa/mpa_mem_static.c:108
    94ec:	6b00005f 	cmp	w2, w0
    94f0:	540003a8 	b.hi	9564 <mpa_alloc_static_temp_var_size+0xc8>
/home/pwnz/devel/optee/optee_os/lib/libmpa/mpa_mem_static.c:112
    94f4:	11007e81 	add	w1, w20, #0x1f
    94f8:	52800414 	mov	w20, #0x20                  	// #32
/home/pwnz/devel/optee/optee_os/lib/libmpa/mpa_mem_static.c:114
    94fc:	2a0203e6 	mov	w6, w2
/home/pwnz/devel/optee/optee_os/lib/libmpa/mpa_mem_static.c:112
    9500:	1ad40c21 	sdiv	w1, w1, w20
    9504:	11000821 	add	w1, w1, #0x2
/home/pwnz/devel/optee/optee_os/lib/libmpa/mpa_mem_static.c:111
    9508:	937e7c24 	sbfiz	x4, x1, #2, #32
/home/pwnz/devel/optee/optee_os/lib/libmpa/mpa_mem_static.c:113
    950c:	91003084 	add	x4, x4, #0xc
/home/pwnz/devel/optee/optee_os/lib/libmpa/mpa_mem_static.c:114
    9510:	8b060087 	add	x7, x4, x6
    9514:	eb2040ff 	cmp	x7, w0, uxtw
    9518:	54000268 	b.hi	9564 <mpa_alloc_static_temp_var_size+0xc8>
/home/pwnz/devel/optee/optee_os/lib/libmpa/mpa_mem_static.c:117
    951c:	8b060260 	add	x0, x19, x6
/home/pwnz/devel/optee/optee_os/lib/libmpa/mpa_mem_static.c:118
    9520:	b8266a64 	str	w4, [x19,x6]
/home/pwnz/devel/optee/optee_os/lib/libmpa/mpa_mem_static.c:119
    9524:	b9000403 	str	w3, [x0,#4]
/home/pwnz/devel/optee/optee_os/lib/libmpa/mpa_mem_static.c:120
    9528:	b4000045 	cbz	x5, 9530 <mpa_alloc_static_temp_var_size+0x94>
/home/pwnz/devel/optee/optee_os/lib/libmpa/mpa_mem_static.c:121
    952c:	b90008a2 	str	w2, [x5,#8]
/home/pwnz/devel/optee/optee_os/lib/libmpa/mpa_mem_static.c:122
    9530:	b900081f 	str	wzr, [x0,#8]
/home/pwnz/devel/optee/optee_os/lib/libmpa/mpa_mem_static.c:125
    9534:	91003000 	add	x0, x0, #0xc
/home/pwnz/devel/optee/optee_os/lib/libmpa/mpa_mem_static.c:123
    9538:	b9000a62 	str	w2, [x19,#8]
/home/pwnz/devel/optee/optee_os/lib/libmpa/mpa_mem_static.c:125
    953c:	f90002a0 	str	x0, [x21]
/home/pwnz/devel/optee/optee_os/lib/libmpa/mpa_mem_static.c:126
    9540:	9400057a 	bl	ab28 <mpa_init_static>
/home/pwnz/devel/optee/optee_os/lib/libmpa/mpa_mem_static.c:127
    9544:	f94002a0 	ldr	x0, [x21]
/home/pwnz/devel/optee/optee_os/lib/libmpa/mpa_mem_static.c:134
    9548:	a94153f3 	ldp	x19, x20, [sp,#16]
    954c:	f94013f5 	ldr	x21, [sp,#32]
    9550:	a8c37bfd 	ldp	x29, x30, [sp],#48
    9554:	d65f03c0 	ret
/home/pwnz/devel/optee/optee_os/lib/libmpa/mpa_mem_static.c:93
    9558:	d2800005 	mov	x5, #0x0                   	// #0
/home/pwnz/devel/optee/optee_os/lib/libmpa/mpa_mem_static.c:99
    955c:	52800502 	mov	w2, #0x28                  	// #40
    9560:	17ffffe0 	b	94e0 <mpa_alloc_static_temp_var_size+0x44>
/home/pwnz/devel/optee/optee_os/lib/libmpa/mpa_mem_static.c:131
    9564:	f9400e61 	ldr	x1, [x19,#24]
/home/pwnz/devel/optee/optee_os/lib/libmpa/mpa_mem_static.c:133
    9568:	d2800000 	mov	x0, #0x0                   	// #0
/home/pwnz/devel/optee/optee_os/lib/libmpa/mpa_mem_static.c:130
    956c:	f90002bf 	str	xzr, [x21]
/home/pwnz/devel/optee/optee_os/lib/libmpa/mpa_mem_static.c:131
    9570:	b4fffec1 	cbz	x1, 9548 <mpa_alloc_static_temp_var_size+0xac>
/home/pwnz/devel/optee/optee_os/lib/libmpa/mpa_mem_static.c:132
    9574:	f9401260 	ldr	x0, [x19,#32]
    9578:	d63f0020 	blr	x1
/home/pwnz/devel/optee/optee_os/lib/libmpa/mpa_mem_static.c:133
    957c:	d2800000 	mov	x0, #0x0                   	// #0
    9580:	17fffff2 	b	9548 <mpa_alloc_static_temp_var_size+0xac>

0000000000009584 <mpa_alloc_static_temp_var>:
mpa_alloc_static_temp_var():
/home/pwnz/devel/optee/optee_os/lib/libmpa/mpa_mem_static.c:139
    9584:	aa0103e2 	mov	x2, x1
    9588:	aa0003e1 	mov	x1, x0
    958c:	b9400440 	ldr	w0, [x2,#4]
    9590:	17ffffc3 	b	949c <mpa_alloc_static_temp_var_size>

0000000000009594 <mpa_free_static_temp_var>:
mpa_free_static_temp_var():
/home/pwnz/devel/optee/optee_os/lib/libmpa/mpa_mem_static.c:154
    9594:	b4000240 	cbz	x0, 95dc <mpa_free_static_temp_var+0x48>
/home/pwnz/devel/optee/optee_os/lib/libmpa/mpa_mem_static.c:154 (discriminator 1)
    9598:	f9400002 	ldr	x2, [x0]
    959c:	b4000202 	cbz	x2, 95dc <mpa_free_static_temp_var+0x48>
/home/pwnz/devel/optee/optee_os/lib/libmpa/mpa_mem_static.c:159
    95a0:	b85f8040 	ldur	w0, [x2,#-8]
    95a4:	34000080 	cbz	w0, 95b4 <mpa_free_static_temp_var+0x20>
/home/pwnz/devel/optee/optee_os/lib/libmpa/mpa_mem_static.c:162
    95a8:	8b204023 	add	x3, x1, w0, uxtw
    95ac:	b85fc044 	ldur	w4, [x2,#-4]
    95b0:	b9000864 	str	w4, [x3,#8]
/home/pwnz/devel/optee/optee_os/lib/libmpa/mpa_mem_static.c:166
    95b4:	b85fc042 	ldur	w2, [x2,#-4]
    95b8:	34000082 	cbz	w2, 95c8 <mpa_free_static_temp_var+0x34>
/home/pwnz/devel/optee/optee_os/lib/libmpa/mpa_mem_static.c:169
    95bc:	8b224022 	add	x2, x1, w2, uxtw
    95c0:	b9000440 	str	w0, [x2,#4]
/home/pwnz/devel/optee/optee_os/lib/libmpa/mpa_mem_static.c:170
    95c4:	b9400820 	ldr	w0, [x1,#8]
/home/pwnz/devel/optee/optee_os/lib/libmpa/mpa_mem_static.c:174
    95c8:	f9400c22 	ldr	x2, [x1,#24]
/home/pwnz/devel/optee/optee_os/lib/libmpa/mpa_mem_static.c:173
    95cc:	b9000820 	str	w0, [x1,#8]
/home/pwnz/devel/optee/optee_os/lib/libmpa/mpa_mem_static.c:174
    95d0:	b4000062 	cbz	x2, 95dc <mpa_free_static_temp_var+0x48>
/home/pwnz/devel/optee/optee_os/lib/libmpa/mpa_mem_static.c:175
    95d4:	f9401020 	ldr	x0, [x1,#32]
    95d8:	d61f0040 	br	x2
    95dc:	d65f03c0 	ret

00000000000095e0 <__mpa_mul_add_word>:
__mpa_mul_add_word():
/home/pwnz/devel/optee/optee_os/lib/libmpa/mpa_mul.c:54
    95e0:	b9400064 	ldr	w4, [x3]
    95e4:	9ba11000 	umaddl	x0, w0, w1, x4
/home/pwnz/devel/optee/optee_os/lib/libmpa/mpa_mul.c:55
    95e8:	b9000040 	str	w0, [x2]
/home/pwnz/devel/optee/optee_os/lib/libmpa/mpa_mul.c:56
    95ec:	d360fc00 	lsr	x0, x0, #32
    95f0:	b9000060 	str	w0, [x3]
    95f4:	d65f03c0 	ret

00000000000095f8 <__mpa_mul_add_word_cum>:
__mpa_mul_add_word_cum():
/home/pwnz/devel/optee/optee_os/lib/libmpa/mpa_mul.c:76
    95f8:	b9400044 	ldr	w4, [x2]
/home/pwnz/devel/optee/optee_os/lib/libmpa/mpa_mul.c:77
    95fc:	b9400065 	ldr	w5, [x3]
/home/pwnz/devel/optee/optee_os/lib/libmpa/mpa_mul.c:75
    9600:	8b050084 	add	x4, x4, x5
    9604:	9ba11000 	umaddl	x0, w0, w1, x4
/home/pwnz/devel/optee/optee_os/lib/libmpa/mpa_mul.c:78
    9608:	b9000040 	str	w0, [x2]
/home/pwnz/devel/optee/optee_os/lib/libmpa/mpa_mul.c:79
    960c:	d360fc00 	lsr	x0, x0, #32
    9610:	b9000060 	str	w0, [x3]
    9614:	d65f03c0 	ret

0000000000009618 <__mpa_abs_mul_word>:
__mpa_abs_mul_word():
/home/pwnz/devel/optee/optee_os/lib/libmpa/mpa_mul.c:95
    9618:	a9bd7bfd 	stp	x29, x30, [sp,#-48]!
    961c:	910003fd 	mov	x29, sp
    9620:	a9025bf5 	stp	x21, x22, [sp,#32]
    9624:	2a0203f6 	mov	w22, w2
/home/pwnz/devel/optee/optee_os/lib/libmpa/mpa_mul.c:102
    9628:	b9400002 	ldr	w2, [x0]
/home/pwnz/devel/optee/optee_os/lib/libmpa/mpa_mul.c:95
    962c:	aa0103f5 	mov	x21, x1
    9630:	a90153f3 	stp	x19, x20, [sp,#16]
/home/pwnz/devel/optee/optee_os/lib/libmpa/mpa_mul.c:102
    9634:	91002014 	add	x20, x0, #0x8
    9638:	52800001 	mov	w1, #0x0                   	// #0
/home/pwnz/devel/optee/optee_os/lib/libmpa/mpa_mul.c:95
    963c:	aa0003f3 	mov	x19, x0
/home/pwnz/devel/optee/optee_os/lib/libmpa/mpa_mul.c:102
    9640:	d37e7442 	ubfiz	x2, x2, #2, #30
    9644:	aa1403e0 	mov	x0, x20
    9648:	97fff4ca 	bl	6970 <memset>
/home/pwnz/devel/optee/optee_os/lib/libmpa/mpa_mul.c:104
    964c:	910022a3 	add	x3, x21, #0x8
/home/pwnz/devel/optee/optee_os/lib/libmpa/mpa_mul.c:107
    9650:	d2800000 	mov	x0, #0x0                   	// #0
/home/pwnz/devel/optee/optee_os/lib/libmpa/mpa_mul.c:106
    9654:	52800001 	mov	w1, #0x0                   	// #0
/home/pwnz/devel/optee/optee_os/lib/libmpa/mpa_mul.c:107 (discriminator 1)
    9658:	b94006a2 	ldr	w2, [x21,#4]
    965c:	7100005f 	cmp	w2, #0x0
    9660:	5a82a442 	cneg	w2, w2, lt
    9664:	6b00005f 	cmp	w2, w0
    9668:	54000168 	b.hi	9694 <__mpa_abs_mul_word+0x7c>
/home/pwnz/devel/optee/optee_os/lib/libmpa/mpa_mul.c:111
    966c:	b9000660 	str	w0, [x19,#4]
/home/pwnz/devel/optee/optee_os/lib/libmpa/mpa_mul.c:112
    9670:	340000a1 	cbz	w1, 9684 <__mpa_abs_mul_word+0x6c>
/home/pwnz/devel/optee/optee_os/lib/libmpa/mpa_mul.c:113
    9674:	b8205a81 	str	w1, [x20,w0,uxtw #2]
/home/pwnz/devel/optee/optee_os/lib/libmpa/mpa_mul.c:114
    9678:	b9400660 	ldr	w0, [x19,#4]
    967c:	11000400 	add	w0, w0, #0x1
    9680:	b9000660 	str	w0, [x19,#4]
/home/pwnz/devel/optee/optee_os/lib/libmpa/mpa_mul.c:116
    9684:	a94153f3 	ldp	x19, x20, [sp,#16]
    9688:	a9425bf5 	ldp	x21, x22, [sp,#32]
    968c:	a8c37bfd 	ldp	x29, x30, [sp],#48
    9690:	d65f03c0 	ret
__mpa_mul_add_word():
/home/pwnz/devel/optee/optee_os/lib/libmpa/mpa_mul.c:54 (discriminator 3)
    9694:	b8607862 	ldr	w2, [x3,x0,lsl #2]
    9698:	2a0103e1 	mov	w1, w1
    969c:	9bb60441 	umaddl	x1, w2, w22, x1
/home/pwnz/devel/optee/optee_os/lib/libmpa/mpa_mul.c:55 (discriminator 3)
    96a0:	b8205a81 	str	w1, [x20,w0,uxtw #2]
    96a4:	91000400 	add	x0, x0, #0x1
/home/pwnz/devel/optee/optee_os/lib/libmpa/mpa_mul.c:56 (discriminator 3)
    96a8:	d360fc21 	lsr	x1, x1, #32
    96ac:	17ffffeb 	b	9658 <__mpa_abs_mul_word+0x40>

00000000000096b0 <__mpa_abs_mul>:
__mpa_abs_mul():
/home/pwnz/devel/optee/optee_os/lib/libmpa/mpa_mul.c:126
    96b0:	a9b97bfd 	stp	x29, x30, [sp,#-112]!
    96b4:	910003fd 	mov	x29, sp
    96b8:	a90153f3 	stp	x19, x20, [sp,#16]
/home/pwnz/devel/optee/optee_os/lib/libmpa/mpa_mul.c:129
    96bc:	9101c3b4 	add	x20, x29, #0x70
/home/pwnz/devel/optee/optee_os/lib/libmpa/mpa_mul.c:126
    96c0:	a90573fb 	stp	x27, x28, [sp,#80]
/home/pwnz/devel/optee/optee_os/lib/libmpa/mpa_mul.c:140
    96c4:	9100205c 	add	x28, x2, #0x8
/home/pwnz/devel/optee/optee_os/lib/libmpa/mpa_mul.c:126
    96c8:	a90363f7 	stp	x23, x24, [sp,#48]
    96cc:	aa0203f7 	mov	x23, x2
/home/pwnz/devel/optee/optee_os/lib/libmpa/mpa_mul.c:135
    96d0:	b9400002 	ldr	w2, [x0]
/home/pwnz/devel/optee/optee_os/lib/libmpa/mpa_mul.c:126
    96d4:	aa0003f3 	mov	x19, x0
    96d8:	a9025bf5 	stp	x21, x22, [sp,#32]
    96dc:	aa0103f6 	mov	x22, x1
/home/pwnz/devel/optee/optee_os/lib/libmpa/mpa_mul.c:135
    96e0:	91002015 	add	x21, x0, #0x8
/home/pwnz/devel/optee/optee_os/lib/libmpa/mpa_mul.c:126
    96e4:	a9046bf9 	stp	x25, x26, [sp,#64]
/home/pwnz/devel/optee/optee_os/lib/libmpa/mpa_mul.c:135
    96e8:	d37e7442 	ubfiz	x2, x2, #2, #30
/home/pwnz/devel/optee/optee_os/lib/libmpa/mpa_mul.c:129
    96ec:	b81fce9f 	str	wzr, [x20,#-4]!
/home/pwnz/devel/optee/optee_os/lib/libmpa/mpa_mul.c:135
    96f0:	52800001 	mov	w1, #0x0                   	// #0
    96f4:	aa1503e0 	mov	x0, x21
/home/pwnz/devel/optee/optee_os/lib/libmpa/mpa_mul.c:137
    96f8:	910022db 	add	x27, x22, #0x8
/home/pwnz/devel/optee/optee_os/lib/libmpa/mpa_mul.c:135
    96fc:	97fff49d 	bl	6970 <memset>
/home/pwnz/devel/optee/optee_os/lib/libmpa/mpa_mul.c:139
    9700:	d2800019 	mov	x25, #0x0                   	// #0
/home/pwnz/devel/optee/optee_os/lib/libmpa/mpa_mul.c:128
    9704:	52800002 	mov	w2, #0x0                   	// #0
/home/pwnz/devel/optee/optee_os/lib/libmpa/mpa_mul.c:139 (discriminator 1)
    9708:	b94006c0 	ldr	w0, [x22,#4]
    970c:	8b190aba 	add	x26, x21, x25, lsl #2
    9710:	7100001f 	cmp	w0, #0x0
    9714:	5a80a400 	cneg	w0, w0, lt
    9718:	6b00033f 	cmp	w25, w0
    971c:	540001c3 	b.cc	9754 <__mpa_abs_mul+0xa4>
/home/pwnz/devel/optee/optee_os/lib/libmpa/mpa_mul.c:151
    9720:	0b020320 	add	w0, w25, w2
    9724:	51000401 	sub	w1, w0, #0x1
    9728:	b9000661 	str	w1, [x19,#4]
/home/pwnz/devel/optee/optee_os/lib/libmpa/mpa_mul.c:152
    972c:	b9406fa1 	ldr	w1, [x29,#108]
    9730:	34000041 	cbz	w1, 9738 <__mpa_abs_mul+0x88>
/home/pwnz/devel/optee/optee_os/lib/libmpa/mpa_mul.c:153
    9734:	b9000660 	str	w0, [x19,#4]
/home/pwnz/devel/optee/optee_os/lib/libmpa/mpa_mul.c:154
    9738:	a94153f3 	ldp	x19, x20, [sp,#16]
    973c:	a9425bf5 	ldp	x21, x22, [sp,#32]
    9740:	a94363f7 	ldp	x23, x24, [sp,#48]
    9744:	a9446bf9 	ldp	x25, x26, [sp,#64]
    9748:	a94573fb 	ldp	x27, x28, [sp,#80]
    974c:	a8c77bfd 	ldp	x29, x30, [sp],#112
    9750:	d65f03c0 	ret
/home/pwnz/devel/optee/optee_os/lib/libmpa/mpa_mul.c:142
    9754:	d2800018 	mov	x24, #0x0                   	// #0
/home/pwnz/devel/optee/optee_os/lib/libmpa/mpa_mul.c:141
    9758:	b9006fbf 	str	wzr, [x29,#108]
/home/pwnz/devel/optee/optee_os/lib/libmpa/mpa_mul.c:142 (discriminator 1)
    975c:	b94006e0 	ldr	w0, [x23,#4]
    9760:	2a1803e2 	mov	w2, w24
    9764:	7100001f 	cmp	w0, #0x0
    9768:	5a80a400 	cneg	w0, w0, lt
    976c:	6b00031f 	cmp	w24, w0
    9770:	540000c3 	b.cc	9788 <__mpa_abs_mul+0xd8>
/home/pwnz/devel/optee/optee_os/lib/libmpa/mpa_mul.c:146
    9774:	b9406fa0 	ldr	w0, [x29,#108]
    9778:	34000040 	cbz	w0, 9780 <__mpa_abs_mul+0xd0>
/home/pwnz/devel/optee/optee_os/lib/libmpa/mpa_mul.c:147
    977c:	b8385b40 	str	w0, [x26,w24,uxtw #2]
    9780:	91000739 	add	x25, x25, #0x1
    9784:	17ffffe1 	b	9708 <__mpa_abs_mul+0x58>
/home/pwnz/devel/optee/optee_os/lib/libmpa/mpa_mul.c:143 (discriminator 3)
    9788:	b8787b81 	ldr	w1, [x28,x24,lsl #2]
    978c:	8b384b42 	add	x2, x26, w24, uxtw #2
    9790:	b8797b60 	ldr	w0, [x27,x25,lsl #2]
    9794:	aa1403e3 	mov	x3, x20
    9798:	91000718 	add	x24, x24, #0x1
    979c:	97ffff97 	bl	95f8 <__mpa_mul_add_word_cum>
    97a0:	17ffffef 	b	975c <__mpa_abs_mul+0xac>

00000000000097a4 <mpa_mul>:
mpa_mul():
/home/pwnz/devel/optee/optee_os/lib/libmpa/mpa_mul.c:169
    97a4:	a9bb7bfd 	stp	x29, x30, [sp,#-80]!
    97a8:	910003fd 	mov	x29, sp
    97ac:	a90153f3 	stp	x19, x20, [sp,#16]
    97b0:	aa0003f3 	mov	x19, x0
/home/pwnz/devel/optee/optee_os/lib/libmpa/mpa_mul.c:173
    97b4:	b9400420 	ldr	w0, [x1,#4]
/home/pwnz/devel/optee/optee_os/lib/libmpa/mpa_mul.c:169
    97b8:	a9025bf5 	stp	x21, x22, [sp,#32]
    97bc:	f9001bf7 	str	x23, [sp,#48]
/home/pwnz/devel/optee/optee_os/lib/libmpa/mpa_mul.c:173
    97c0:	34000080 	cbz	w0, 97d0 <mpa_mul+0x2c>
/home/pwnz/devel/optee/optee_os/lib/libmpa/mpa_mul.c:173 (discriminator 1)
    97c4:	b9400440 	ldr	w0, [x2,#4]
    97c8:	aa0203f5 	mov	x21, x2
    97cc:	35000120 	cbnz	w0, 97f0 <mpa_mul+0x4c>
/home/pwnz/devel/optee/optee_os/lib/libmpa/mpa_mul.c:174
    97d0:	52800001 	mov	w1, #0x0                   	// #0
    97d4:	aa1303e0 	mov	x0, x19
    97d8:	97fffab8 	bl	82b8 <mpa_set_word>
/home/pwnz/devel/optee/optee_os/lib/libmpa/mpa_mul.c:193
    97dc:	a94153f3 	ldp	x19, x20, [sp,#16]
    97e0:	a9425bf5 	ldp	x21, x22, [sp,#32]
    97e4:	f9401bf7 	ldr	x23, [sp,#48]
    97e8:	a8c57bfd 	ldp	x29, x30, [sp],#80
    97ec:	d65f03c0 	ret
/home/pwnz/devel/optee/optee_os/lib/libmpa/mpa_mul.c:179
    97f0:	eb13003f 	cmp	x1, x19
    97f4:	aa0103f6 	mov	x22, x1
    97f8:	1a9f17f4 	cset	w20, eq
    97fc:	eb13005f 	cmp	x2, x19
    9800:	1a9f17e0 	cset	w0, eq
    9804:	aa0303f7 	mov	x23, x3
    9808:	2a000294 	orr	w20, w20, w0
/home/pwnz/devel/optee/optee_os/lib/libmpa/mpa_mul.c:180
    980c:	340003b4 	cbz	w20, 9880 <mpa_mul+0xdc>
/home/pwnz/devel/optee/optee_os/lib/libmpa/mpa_mul.c:181
    9810:	aa0303e1 	mov	x1, x3
    9814:	910123a0 	add	x0, x29, #0x48
    9818:	97ffff5b 	bl	9584 <mpa_alloc_static_temp_var>
/home/pwnz/devel/optee/optee_os/lib/libmpa/mpa_mul.c:185
    981c:	f94027a0 	ldr	x0, [x29,#72]
    9820:	aa1503e2 	mov	x2, x21
    9824:	aa1603e1 	mov	x1, x22
    9828:	97ffffa2 	bl	96b0 <__mpa_abs_mul>
/home/pwnz/devel/optee/optee_os/lib/libmpa/mpa_mul.c:187
    982c:	b94006c1 	ldr	w1, [x22,#4]
    9830:	12800000 	mov	w0, #0xffffffff            	// #-1
    9834:	b94006a2 	ldr	w2, [x21,#4]
    9838:	6b00003f 	cmp	w1, w0
    983c:	5a80d401 	cneg	w1, w0, gt
    9840:	6b00005f 	cmp	w2, w0
    9844:	5a80d400 	cneg	w0, w0, gt
    9848:	6b00003f 	cmp	w1, w0
    984c:	540000a0 	b.eq	9860 <mpa_mul+0xbc>
/home/pwnz/devel/optee/optee_os/lib/libmpa/mpa_mul.c:188
    9850:	f94027a1 	ldr	x1, [x29,#72]
    9854:	b9400420 	ldr	w0, [x1,#4]
    9858:	4b0003e0 	neg	w0, w0
    985c:	b9000420 	str	w0, [x1,#4]
/home/pwnz/devel/optee/optee_os/lib/libmpa/mpa_mul.c:190
    9860:	f94027a1 	ldr	x1, [x29,#72]
    9864:	aa1303e0 	mov	x0, x19
    9868:	97fff835 	bl	793c <mpa_copy>
/home/pwnz/devel/optee/optee_os/lib/libmpa/mpa_mul.c:191
    986c:	34fffb94 	cbz	w20, 97dc <mpa_mul+0x38>
/home/pwnz/devel/optee/optee_os/lib/libmpa/mpa_mul.c:192
    9870:	aa1703e1 	mov	x1, x23
    9874:	910123a0 	add	x0, x29, #0x48
    9878:	97ffff47 	bl	9594 <mpa_free_static_temp_var>
    987c:	17ffffd8 	b	97dc <mpa_mul+0x38>
/home/pwnz/devel/optee/optee_os/lib/libmpa/mpa_mul.c:183
    9880:	f90027b3 	str	x19, [x29,#72]
    9884:	17ffffe6 	b	981c <mpa_mul+0x78>

0000000000009888 <mpa_mul_word>:
mpa_mul_word():
/home/pwnz/devel/optee/optee_os/lib/libmpa/mpa_mul.c:202
    9888:	a9bb7bfd 	stp	x29, x30, [sp,#-80]!
    988c:	910003fd 	mov	x29, sp
    9890:	a90153f3 	stp	x19, x20, [sp,#16]
    9894:	aa0103f4 	mov	x20, x1
/home/pwnz/devel/optee/optee_os/lib/libmpa/mpa_mul.c:207
    9898:	b9400421 	ldr	w1, [x1,#4]
/home/pwnz/devel/optee/optee_os/lib/libmpa/mpa_mul.c:202
    989c:	a9025bf5 	stp	x21, x22, [sp,#32]
    98a0:	f9001bf7 	str	x23, [sp,#48]
/home/pwnz/devel/optee/optee_os/lib/libmpa/mpa_mul.c:207
    98a4:	7100003f 	cmp	w1, #0x0
    98a8:	7a401844 	ccmp	w2, #0x0, #0x4, ne
    98ac:	54000101 	b.ne	98cc <mpa_mul_word+0x44>
/home/pwnz/devel/optee/optee_os/lib/libmpa/mpa_mul.c:208
    98b0:	52800001 	mov	w1, #0x0                   	// #0
    98b4:	97fffa81 	bl	82b8 <mpa_set_word>
/home/pwnz/devel/optee/optee_os/lib/libmpa/mpa_mul.c:228
    98b8:	a94153f3 	ldp	x19, x20, [sp,#16]
    98bc:	a9425bf5 	ldp	x21, x22, [sp,#32]
    98c0:	f9401bf7 	ldr	x23, [sp,#48]
    98c4:	a8c57bfd 	ldp	x29, x30, [sp],#80
    98c8:	d65f03c0 	ret
    98cc:	aa0003f3 	mov	x19, x0
/home/pwnz/devel/optee/optee_os/lib/libmpa/mpa_mul.c:212
    98d0:	12800000 	mov	w0, #0xffffffff            	// #-1
    98d4:	6b00003f 	cmp	w1, w0
    98d8:	2a0203f7 	mov	w23, w2
    98dc:	5a80d415 	cneg	w21, w0, gt
    98e0:	aa0303f6 	mov	x22, x3
/home/pwnz/devel/optee/optee_os/lib/libmpa/mpa_mul.c:216
    98e4:	eb13029f 	cmp	x20, x19
    98e8:	540002e1 	b.ne	9944 <mpa_mul_word+0xbc>
/home/pwnz/devel/optee/optee_os/lib/libmpa/mpa_mul.c:217
    98ec:	aa0303e1 	mov	x1, x3
    98f0:	910123a0 	add	x0, x29, #0x48
    98f4:	97ffff24 	bl	9584 <mpa_alloc_static_temp_var>
/home/pwnz/devel/optee/optee_os/lib/libmpa/mpa_mul.c:221
    98f8:	f94027a0 	ldr	x0, [x29,#72]
    98fc:	2a1703e2 	mov	w2, w23
    9900:	aa1403e1 	mov	x1, x20
    9904:	97ffff45 	bl	9618 <__mpa_abs_mul_word>
/home/pwnz/devel/optee/optee_os/lib/libmpa/mpa_mul.c:223
    9908:	310006bf 	cmn	w21, #0x1
    990c:	540000a1 	b.ne	9920 <mpa_mul_word+0x98>
/home/pwnz/devel/optee/optee_os/lib/libmpa/mpa_mul.c:224
    9910:	f94027a1 	ldr	x1, [x29,#72]
    9914:	b9400420 	ldr	w0, [x1,#4]
    9918:	4b0003e0 	neg	w0, w0
    991c:	b9000420 	str	w0, [x1,#4]
/home/pwnz/devel/optee/optee_os/lib/libmpa/mpa_mul.c:225
    9920:	f94027a1 	ldr	x1, [x29,#72]
    9924:	aa1303e0 	mov	x0, x19
    9928:	97fff805 	bl	793c <mpa_copy>
/home/pwnz/devel/optee/optee_os/lib/libmpa/mpa_mul.c:226
    992c:	eb13029f 	cmp	x20, x19
    9930:	54fffc41 	b.ne	98b8 <mpa_mul_word+0x30>
/home/pwnz/devel/optee/optee_os/lib/libmpa/mpa_mul.c:227
    9934:	aa1603e1 	mov	x1, x22
    9938:	910123a0 	add	x0, x29, #0x48
    993c:	97ffff16 	bl	9594 <mpa_free_static_temp_var>
    9940:	17ffffde 	b	98b8 <mpa_mul_word+0x30>
/home/pwnz/devel/optee/optee_os/lib/libmpa/mpa_mul.c:219
    9944:	f90027b3 	str	x19, [x29,#72]
    9948:	17ffffec 	b	98f8 <mpa_mul_word+0x70>

000000000000994c <mpa_set_random_generator>:
mpa_set_random_generator():
/home/pwnz/devel/optee/optee_os/lib/libmpa/mpa_random.c:34
    994c:	f0000061 	adrp	x1, 18000 <mempool_u32+0x1a10>
    9950:	f900c820 	str	x0, [x1,#400]
    9954:	d65f03c0 	ret

0000000000009958 <mpa_get_random>:
mpa_get_random():
/home/pwnz/devel/optee/optee_os/lib/libmpa/mpa_random.c:52
    9958:	a9ba7bfd 	stp	x29, x30, [sp,#-96]!
    995c:	910003fd 	mov	x29, sp
    9960:	a9025bf5 	stp	x21, x22, [sp,#32]
    9964:	aa0103f5 	mov	x21, x1
    9968:	a90153f3 	stp	x19, x20, [sp,#16]
    996c:	aa0003f4 	mov	x20, x0
    9970:	a90363f7 	stp	x23, x24, [sp,#48]
get_random_byte():
/home/pwnz/devel/optee/optee_os/lib/libmpa/mpa_random.c:40
    9974:	91017fb7 	add	x23, x29, #0x5f
mpa_get_random():
/home/pwnz/devel/optee/optee_os/lib/libmpa/mpa_random.c:52
    9978:	a9046bf9 	stp	x25, x26, [sp,#64]
/home/pwnz/devel/optee/optee_os/lib/libmpa/mpa_random.c:55
    997c:	97fff7e4 	bl	790c <mpa_wipe>
/home/pwnz/devel/optee/optee_os/lib/libmpa/mpa_random.c:56
    9980:	b94006a0 	ldr	w0, [x21,#4]
    9984:	52800013 	mov	w19, #0x0                   	// #0
    9988:	b9400281 	ldr	w1, [x20]
    998c:	7100001f 	cmp	w0, #0x0
    9990:	5a80a400 	cneg	w0, w0, lt
/home/pwnz/devel/optee/optee_os/lib/libmpa/mpa_random.c:57
    9994:	6b00003f 	cmp	w1, w0
    9998:	1a812000 	csel	w0, w0, w1, cs
    999c:	b9000680 	str	w0, [x20,#4]
get_random_byte():
/home/pwnz/devel/optee/optee_os/lib/libmpa/mpa_random.c:40
    99a0:	f000007a 	adrp	x26, 18000 <mempool_u32+0x1a10>
mpa_get_random():
/home/pwnz/devel/optee/optee_os/lib/libmpa/mpa_random.c:60
    99a4:	35000593 	cbnz	w19, 9a54 <mpa_get_random+0xfc>
    99a8:	91002299 	add	x25, x20, #0x8
    99ac:	1400000f 	b	99e8 <mpa_get_random+0x90>
    99b0:	52800098 	mov	w24, #0x4                   	// #4
    99b4:	52800000 	mov	w0, #0x0                   	// #0
/home/pwnz/devel/optee/optee_os/lib/libmpa/mpa_random.c:64 (discriminator 3)
    99b8:	53185c16 	lsl	w22, w0, #8
get_random_byte():
/home/pwnz/devel/optee/optee_os/lib/libmpa/mpa_random.c:40
    99bc:	f940cb42 	ldr	x2, [x26,#400]
    99c0:	d2800021 	mov	x1, #0x1                   	// #1
    99c4:	aa1703e0 	mov	x0, x23
    99c8:	d63f0040 	blr	x2
    99cc:	35ffff80 	cbnz	w0, 99bc <mpa_get_random+0x64>
/home/pwnz/devel/optee/optee_os/lib/libmpa/mpa_random.c:43
    99d0:	39417fa0 	ldrb	w0, [x29,#95]
mpa_get_random():
/home/pwnz/devel/optee/optee_os/lib/libmpa/mpa_random.c:63
    99d4:	71000718 	subs	w24, w24, #0x1
/home/pwnz/devel/optee/optee_os/lib/libmpa/mpa_random.c:64
    99d8:	4a160000 	eor	w0, w0, w22
/home/pwnz/devel/optee/optee_os/lib/libmpa/mpa_random.c:63
    99dc:	54fffee1 	b.ne	99b8 <mpa_get_random+0x60>
/home/pwnz/devel/optee/optee_os/lib/libmpa/mpa_random.c:61 (discriminator 2)
    99e0:	11000673 	add	w19, w19, #0x1
/home/pwnz/devel/optee/optee_os/lib/libmpa/mpa_random.c:65 (discriminator 2)
    99e4:	b8004720 	str	w0, [x25],#4
/home/pwnz/devel/optee/optee_os/lib/libmpa/mpa_random.c:61 (discriminator 1)
    99e8:	b9400681 	ldr	w1, [x20,#4]
    99ec:	6b01027f 	cmp	w19, w1
    99f0:	54fffe0b 	b.lt	99b0 <mpa_get_random+0x58>
/home/pwnz/devel/optee/optee_os/lib/libmpa/mpa_random.c:67
    99f4:	b94006a0 	ldr	w0, [x21,#4]
/home/pwnz/devel/optee/optee_os/lib/libmpa/mpa_random.c:68
    99f8:	52800033 	mov	w19, #0x1                   	// #1
/home/pwnz/devel/optee/optee_os/lib/libmpa/mpa_random.c:67
    99fc:	7100001f 	cmp	w0, #0x0
    9a00:	5a80a400 	cneg	w0, w0, lt
    9a04:	6b00003f 	cmp	w1, w0
    9a08:	5400026b 	b.lt	9a54 <mpa_get_random+0xfc>
/home/pwnz/devel/optee/optee_os/lib/libmpa/mpa_random.c:71
    9a0c:	aa1503e0 	mov	x0, x21
    9a10:	97fff7ec 	bl	79c0 <mpa_highest_bit_index>
/home/pwnz/devel/optee/optee_os/lib/libmpa/mpa_random.c:73
    9a14:	12001000 	and	w0, w0, #0x1f
    9a18:	0b130000 	add	w0, w0, w19
/home/pwnz/devel/optee/optee_os/lib/libmpa/mpa_random.c:74
    9a1c:	7100801f 	cmp	w0, #0x20
    9a20:	54000100 	b.eq	9a40 <mpa_get_random+0xe8>
/home/pwnz/devel/optee/optee_os/lib/libmpa/mpa_random.c:75
    9a24:	1ac02273 	lsl	w19, w19, w0
    9a28:	b9800680 	ldrsw	x0, [x20,#4]
    9a2c:	51000673 	sub	w19, w19, #0x1
    9a30:	8b000a80 	add	x0, x20, x0, lsl #2
/home/pwnz/devel/optee/optee_os/lib/libmpa/mpa_random.c:76
    9a34:	b9400401 	ldr	w1, [x0,#4]
    9a38:	0a130033 	and	w19, w1, w19
    9a3c:	b9000413 	str	w19, [x0,#4]
/home/pwnz/devel/optee/optee_os/lib/libmpa/mpa_random.c:78
    9a40:	aa1503e1 	mov	x1, x21
    9a44:	aa1403e0 	mov	x0, x20
    9a48:	9400038e 	bl	a880 <mpa_cmp>
    9a4c:	531f7c13 	lsr	w19, w0, #31
    9a50:	17ffffd4 	b	99a0 <mpa_get_random+0x48>
/home/pwnz/devel/optee/optee_os/lib/libmpa/mpa_random.c:81
    9a54:	a94153f3 	ldp	x19, x20, [sp,#16]
    9a58:	a9425bf5 	ldp	x21, x22, [sp,#32]
    9a5c:	a94363f7 	ldp	x23, x24, [sp,#48]
    9a60:	a9446bf9 	ldp	x25, x26, [sp,#64]
    9a64:	a8c67bfd 	ldp	x29, x30, [sp],#96
    9a68:	d65f03c0 	ret

0000000000009a6c <mpa_get_random_digits>:
mpa_get_random_digits():
/home/pwnz/devel/optee/optee_os/lib/libmpa/mpa_random.c:84
    9a6c:	a9be7bfd 	stp	x29, x30, [sp,#-32]!
    9a70:	910003fd 	mov	x29, sp
    9a74:	a90153f3 	stp	x19, x20, [sp,#16]
    9a78:	aa0003f4 	mov	x20, x0
    9a7c:	2a0103f3 	mov	w19, w1
/home/pwnz/devel/optee/optee_os/lib/libmpa/mpa_random.c:85
    9a80:	97fff7a3 	bl	790c <mpa_wipe>
/home/pwnz/devel/optee/optee_os/lib/libmpa/mpa_random.c:87
    9a84:	b9400280 	ldr	w0, [x20]
    9a88:	6b13001f 	cmp	w0, w19
    9a8c:	540000a2 	b.cs	9aa0 <mpa_get_random_digits+0x34>
/home/pwnz/devel/optee/optee_os/lib/libmpa/mpa_random.c:88
    9a90:	52800000 	mov	w0, #0x0                   	// #0
/home/pwnz/devel/optee/optee_os/lib/libmpa/mpa_random.c:96
    9a94:	a94153f3 	ldp	x19, x20, [sp,#16]
    9a98:	a8c27bfd 	ldp	x29, x30, [sp],#32
    9a9c:	d65f03c0 	ret
/home/pwnz/devel/optee/optee_os/lib/libmpa/mpa_random.c:92
    9aa0:	f0000060 	adrp	x0, 18000 <mempool_u32+0x1a10>
    9aa4:	7100027f 	cmp	w19, #0x0
/home/pwnz/devel/optee/optee_os/lib/libmpa/mpa_random.c:90
    9aa8:	b9000693 	str	w19, [x20,#4]
/home/pwnz/devel/optee/optee_os/lib/libmpa/mpa_random.c:92
    9aac:	5a93a673 	cneg	w19, w19, lt
    9ab0:	f940c802 	ldr	x2, [x0,#400]
    9ab4:	531e7661 	lsl	w1, w19, #2
    9ab8:	91002280 	add	x0, x20, #0x8
    9abc:	93407c21 	sxtw	x1, w1
    9ac0:	d63f0040 	blr	x2
    9ac4:	35fffe60 	cbnz	w0, 9a90 <mpa_get_random_digits+0x24>
/home/pwnz/devel/optee/optee_os/lib/libmpa/mpa_random.c:95
    9ac8:	b9400680 	ldr	w0, [x20,#4]
    9acc:	7100001f 	cmp	w0, #0x0
    9ad0:	5a80a400 	cneg	w0, w0, lt
    9ad4:	17fffff0 	b	9a94 <mpa_get_random_digits+0x28>

0000000000009ad8 <__mpa_shift_words_left>:
__mpa_shift_words_left():
/home/pwnz/devel/optee/optee_os/lib/libmpa/mpa_shift.c:44
    9ad8:	340004a1 	cbz	w1, 9b6c <__mpa_shift_words_left+0x94>
/home/pwnz/devel/optee/optee_os/lib/libmpa/mpa_shift.c:41 (discriminator 1)
    9adc:	a9bd7bfd 	stp	x29, x30, [sp,#-48]!
    9ae0:	910003fd 	mov	x29, sp
    9ae4:	f90013f5 	str	x21, [sp,#32]
    9ae8:	a90153f3 	stp	x19, x20, [sp,#16]
/home/pwnz/devel/optee/optee_os/lib/libmpa/mpa_shift.c:44 (discriminator 1)
    9aec:	b9400415 	ldr	w21, [x0,#4]
    9af0:	710002bf 	cmp	w21, #0x0
    9af4:	54000280 	b.eq	9b44 <__mpa_shift_words_left+0x6c>
    9af8:	51000425 	sub	w5, w1, #0x1
/home/pwnz/devel/optee/optee_os/lib/libmpa/mpa_shift.c:46
    9afc:	5a95a6a2 	cneg	w2, w21, lt
    9b00:	0b050042 	add	w2, w2, w5
    9b04:	d37e7c43 	ubfiz	x3, x2, #2, #32
    9b08:	91002063 	add	x3, x3, #0x8
    9b0c:	8b030003 	add	x3, x0, x3
/home/pwnz/devel/optee/optee_os/lib/libmpa/mpa_shift.c:46 (discriminator 1)
    9b10:	6b05005f 	cmp	w2, w5
    9b14:	54000208 	b.hi	9b54 <__mpa_shift_words_left+0x7c>
    9b18:	2a0103f3 	mov	w19, w1
    9b1c:	aa0003f4 	mov	x20, x0
/home/pwnz/devel/optee/optee_os/lib/libmpa/mpa_shift.c:49
    9b20:	52800001 	mov	w1, #0x0                   	// #0
    9b24:	d37e7662 	ubfiz	x2, x19, #2, #30
    9b28:	91002000 	add	x0, x0, #0x8
    9b2c:	97fff391 	bl	6970 <memset>
/home/pwnz/devel/optee/optee_os/lib/libmpa/mpa_shift.c:53
    9b30:	4b1302a0 	sub	w0, w21, w19
    9b34:	0b1302a1 	add	w1, w21, w19
    9b38:	710002bf 	cmp	w21, #0x0
    9b3c:	1a80c021 	csel	w1, w1, w0, gt
    9b40:	b9000681 	str	w1, [x20,#4]
/home/pwnz/devel/optee/optee_os/lib/libmpa/mpa_shift.c:56
    9b44:	a94153f3 	ldp	x19, x20, [sp,#16]
    9b48:	f94013f5 	ldr	x21, [sp,#32]
    9b4c:	a8c37bfd 	ldp	x29, x30, [sp],#48
    9b50:	d65f03c0 	ret
/home/pwnz/devel/optee/optee_os/lib/libmpa/mpa_shift.c:47 (discriminator 3)
    9b54:	4b010044 	sub	w4, w2, w1
/home/pwnz/devel/optee/optee_os/lib/libmpa/mpa_shift.c:46 (discriminator 3)
    9b58:	51000442 	sub	w2, w2, #0x1
/home/pwnz/devel/optee/optee_os/lib/libmpa/mpa_shift.c:47 (discriminator 3)
    9b5c:	8b040804 	add	x4, x0, x4, lsl #2
    9b60:	b9400884 	ldr	w4, [x4,#8]
    9b64:	b81fc464 	str	w4, [x3],#-4
    9b68:	17ffffea 	b	9b10 <__mpa_shift_words_left+0x38>
    9b6c:	d65f03c0 	ret

0000000000009b70 <__mpa_shift_words_right>:
__mpa_shift_words_right():
/home/pwnz/devel/optee/optee_os/lib/libmpa/mpa_shift.c:64
    9b70:	aa0003e3 	mov	x3, x0
/home/pwnz/devel/optee/optee_os/lib/libmpa/mpa_shift.c:67
    9b74:	34000201 	cbz	w1, 9bb4 <__mpa_shift_words_right+0x44>
/home/pwnz/devel/optee/optee_os/lib/libmpa/mpa_shift.c:67 (discriminator 1)
    9b78:	b9400402 	ldr	w2, [x0,#4]
    9b7c:	7100005f 	cmp	w2, #0x0
    9b80:	540001a0 	b.eq	9bb4 <__mpa_shift_words_right+0x44>
/home/pwnz/devel/optee/optee_os/lib/libmpa/mpa_shift.c:70
    9b84:	5a82a444 	cneg	w4, w2, lt
    9b88:	6b04003f 	cmp	w1, w4
    9b8c:	54000162 	b.cs	9bb8 <__mpa_shift_words_right+0x48>
    9b90:	91002005 	add	x5, x0, #0x8
    9b94:	2a0103e0 	mov	w0, w1
/home/pwnz/devel/optee/optee_os/lib/libmpa/mpa_shift.c:75 (discriminator 1)
    9b98:	6b04001f 	cmp	w0, w4
    9b9c:	54000121 	b.ne	9bc0 <__mpa_shift_words_right+0x50>
/home/pwnz/devel/optee/optee_os/lib/libmpa/mpa_shift.c:80
    9ba0:	0b010040 	add	w0, w2, w1
    9ba4:	7100005f 	cmp	w2, #0x0
    9ba8:	4b010041 	sub	w1, w2, w1
    9bac:	1a80c021 	csel	w1, w1, w0, gt
    9bb0:	b9000461 	str	w1, [x3,#4]
    9bb4:	d65f03c0 	ret
/home/pwnz/devel/optee/optee_os/lib/libmpa/mpa_shift.c:71
    9bb8:	52800001 	mov	w1, #0x0                   	// #0
    9bbc:	17fff9bf 	b	82b8 <mpa_set_word>
/home/pwnz/devel/optee/optee_os/lib/libmpa/mpa_shift.c:76 (discriminator 3)
    9bc0:	8b204866 	add	x6, x3, w0, uxtw #2
    9bc4:	11000400 	add	w0, w0, #0x1
    9bc8:	b94008c6 	ldr	w6, [x6,#8]
    9bcc:	b80044a6 	str	w6, [x5],#4
    9bd0:	17fffff2 	b	9b98 <__mpa_shift_words_right+0x28>

0000000000009bd4 <mpa_shift_left>:
mpa_shift_left():
/home/pwnz/devel/optee/optee_os/lib/libmpa/mpa_shift.c:98
    9bd4:	a9bd7bfd 	stp	x29, x30, [sp,#-48]!
    9bd8:	910003fd 	mov	x29, sp
    9bdc:	a90153f3 	stp	x19, x20, [sp,#16]
    9be0:	aa0003f3 	mov	x19, x0
    9be4:	a9025bf5 	stp	x21, x22, [sp,#32]
    9be8:	2a0203f6 	mov	w22, w2
/home/pwnz/devel/optee/optee_os/lib/libmpa/mpa_shift.c:110
    9bec:	97fff754 	bl	793c <mpa_copy>
/home/pwnz/devel/optee/optee_os/lib/libmpa/mpa_shift.c:111
    9bf0:	aa1303e0 	mov	x0, x19
    9bf4:	97fff73d 	bl	78e8 <__mpa_set_unused_digits_to_zero>
/home/pwnz/devel/optee/optee_os/lib/libmpa/mpa_shift.c:112
    9bf8:	34000316 	cbz	w22, 9c58 <mpa_shift_left+0x84>
/home/pwnz/devel/optee/optee_os/lib/libmpa/mpa_shift.c:112 (discriminator 1)
    9bfc:	b9400674 	ldr	w20, [x19,#4]
    9c00:	340002d4 	cbz	w20, 9c58 <mpa_shift_left+0x84>
/home/pwnz/devel/optee/optee_os/lib/libmpa/mpa_shift.c:116
    9c04:	53057ed5 	lsr	w21, w22, #5
/home/pwnz/devel/optee/optee_os/lib/libmpa/mpa_shift.c:132
    9c08:	720012d6 	ands	w22, w22, #0x1f
    9c0c:	540003a1 	b.ne	9c80 <mpa_shift_left+0xac>
/home/pwnz/devel/optee/optee_os/lib/libmpa/mpa_shift.c:136
    9c10:	7100029f 	cmp	w20, #0x0
    9c14:	510006a3 	sub	w3, w21, #0x1
    9c18:	5a94a680 	cneg	w0, w20, lt
    9c1c:	0b030000 	add	w0, w0, w3
    9c20:	d37e7c01 	ubfiz	x1, x0, #2, #32
    9c24:	91002021 	add	x1, x1, #0x8
    9c28:	8b010261 	add	x1, x19, x1
/home/pwnz/devel/optee/optee_os/lib/libmpa/mpa_shift.c:136 (discriminator 1)
    9c2c:	6b03001f 	cmp	w0, w3
    9c30:	540001c8 	b.hi	9c68 <mpa_shift_left+0x94>
/home/pwnz/devel/optee/optee_os/lib/libmpa/mpa_shift.c:162
    9c34:	d37e6aa2 	ubfiz	x2, x21, #2, #27
    9c38:	52800001 	mov	w1, #0x0                   	// #0
    9c3c:	91002260 	add	x0, x19, #0x8
    9c40:	97fff34c 	bl	6970 <memset>
/home/pwnz/devel/optee/optee_os/lib/libmpa/mpa_shift.c:164
    9c44:	7100029f 	cmp	w20, #0x0
    9c48:	5400088d 	b.le	9d58 <mpa_shift_left+0x184>
/home/pwnz/devel/optee/optee_os/lib/libmpa/mpa_shift.c:165
    9c4c:	0b150294 	add	w20, w20, w21
    9c50:	0b160294 	add	w20, w20, w22
/home/pwnz/devel/optee/optee_os/lib/libmpa/mpa_shift.c:167
    9c54:	b9000674 	str	w20, [x19,#4]
/home/pwnz/devel/optee/optee_os/lib/libmpa/mpa_shift.c:168
    9c58:	a94153f3 	ldp	x19, x20, [sp,#16]
    9c5c:	a9425bf5 	ldp	x21, x22, [sp,#32]
    9c60:	a8c37bfd 	ldp	x29, x30, [sp],#48
    9c64:	d65f03c0 	ret
/home/pwnz/devel/optee/optee_os/lib/libmpa/mpa_shift.c:137 (discriminator 3)
    9c68:	4b150002 	sub	w2, w0, w21
/home/pwnz/devel/optee/optee_os/lib/libmpa/mpa_shift.c:136 (discriminator 3)
    9c6c:	51000400 	sub	w0, w0, #0x1
/home/pwnz/devel/optee/optee_os/lib/libmpa/mpa_shift.c:137 (discriminator 3)
    9c70:	8b020a62 	add	x2, x19, x2, lsl #2
    9c74:	b9400842 	ldr	w2, [x2,#8]
    9c78:	b81fc422 	str	w2, [x1],#-4
    9c7c:	17ffffec 	b	9c2c <mpa_shift_left+0x58>
/home/pwnz/devel/optee/optee_os/lib/libmpa/mpa_shift.c:139
    9c80:	7100029f 	cmp	w20, #0x0
/home/pwnz/devel/optee/optee_os/lib/libmpa/mpa_shift.c:140
    9c84:	52800021 	mov	w1, #0x1                   	// #1
/home/pwnz/devel/optee/optee_os/lib/libmpa/mpa_shift.c:139
    9c88:	5a94a680 	cneg	w0, w20, lt
/home/pwnz/devel/optee/optee_os/lib/libmpa/mpa_shift.c:140
    9c8c:	52800403 	mov	w3, #0x20                  	// #32
/home/pwnz/devel/optee/optee_os/lib/libmpa/mpa_shift.c:139
    9c90:	51000402 	sub	w2, w0, #0x1
/home/pwnz/devel/optee/optee_os/lib/libmpa/mpa_shift.c:140
    9c94:	4b160063 	sub	w3, w3, w22
/home/pwnz/devel/optee/optee_os/lib/libmpa/mpa_shift.c:139
    9c98:	8b22ca62 	add	x2, x19, w2, sxtw #2
/home/pwnz/devel/optee/optee_os/lib/libmpa/mpa_shift.c:140
    9c9c:	1ad62021 	lsl	w1, w1, w22
    9ca0:	51000421 	sub	w1, w1, #0x1
/home/pwnz/devel/optee/optee_os/lib/libmpa/mpa_shift.c:148
    9ca4:	0b150000 	add	w0, w0, w21
/home/pwnz/devel/optee/optee_os/lib/libmpa/mpa_shift.c:139
    9ca8:	b9400842 	ldr	w2, [x2,#8]
/home/pwnz/devel/optee/optee_os/lib/libmpa/mpa_shift.c:140
    9cac:	1ac32021 	lsl	w1, w1, w3
/home/pwnz/devel/optee/optee_os/lib/libmpa/mpa_shift.c:139
    9cb0:	6a020021 	ands	w1, w1, w2
    9cb4:	1a9f07e6 	cset	w6, ne
/home/pwnz/devel/optee/optee_os/lib/libmpa/mpa_shift.c:148
    9cb8:	0b060000 	add	w0, w0, w6
/home/pwnz/devel/optee/optee_os/lib/libmpa/mpa_shift.c:149
    9cbc:	34000141 	cbz	w1, 9ce4 <mpa_shift_left+0x110>
/home/pwnz/devel/optee/optee_os/lib/libmpa/mpa_shift.c:150
    9cc0:	2a3503e1 	mvn	w1, w21
    9cc4:	8b204a64 	add	x4, x19, w0, uxtw #2
    9cc8:	0b000021 	add	w1, w1, w0
    9ccc:	8b010a61 	add	x1, x19, x1, lsl #2
    9cd0:	b9400821 	ldr	w1, [x1,#8]
    9cd4:	1ac32422 	lsr	w2, w1, w3
/home/pwnz/devel/optee/optee_os/lib/libmpa/mpa_shift.c:151
    9cd8:	b9400881 	ldr	w1, [x4,#8]
    9cdc:	4a020021 	eor	w1, w1, w2
    9ce0:	b9000881 	str	w1, [x4,#8]
/home/pwnz/devel/optee/optee_os/lib/libmpa/mpa_shift.c:153
    9ce4:	51000401 	sub	w1, w0, #0x1
    9ce8:	4b150000 	sub	w0, w0, w21
/home/pwnz/devel/optee/optee_os/lib/libmpa/mpa_shift.c:154
    9cec:	4b150024 	sub	w4, w1, w21
    9cf0:	8b010a65 	add	x5, x19, x1, lsl #2
    9cf4:	8b040a64 	add	x4, x19, x4, lsl #2
/home/pwnz/devel/optee/optee_os/lib/libmpa/mpa_shift.c:153
    9cf8:	aa0103e2 	mov	x2, x1
    9cfc:	91000821 	add	x1, x1, #0x2
    9d00:	51000800 	sub	w0, w0, #0x2
    9d04:	8b010a61 	add	x1, x19, x1, lsl #2
/home/pwnz/devel/optee/optee_os/lib/libmpa/mpa_shift.c:154
    9d08:	b9400884 	ldr	w4, [x4,#8]
    9d0c:	1ad62084 	lsl	w4, w4, w22
    9d10:	b90008a4 	str	w4, [x5,#8]
/home/pwnz/devel/optee/optee_os/lib/libmpa/mpa_shift.c:155
    9d14:	6b15005f 	cmp	w2, w21
    9d18:	54000068 	b.hi	9d24 <mpa_shift_left+0x150>
/home/pwnz/devel/optee/optee_os/lib/libmpa/mpa_shift.c:130
    9d1c:	2a0603f6 	mov	w22, w6
    9d20:	17ffffc5 	b	9c34 <mpa_shift_left+0x60>
/home/pwnz/devel/optee/optee_os/lib/libmpa/mpa_shift.c:156
    9d24:	8b204a67 	add	x7, x19, w0, uxtw #2
/home/pwnz/devel/optee/optee_os/lib/libmpa/mpa_shift.c:158
    9d28:	51000442 	sub	w2, w2, #0x1
    9d2c:	51000400 	sub	w0, w0, #0x1
/home/pwnz/devel/optee/optee_os/lib/libmpa/mpa_shift.c:156
    9d30:	b94008e4 	ldr	w4, [x7,#8]
    9d34:	1ac32485 	lsr	w5, w4, w3
/home/pwnz/devel/optee/optee_os/lib/libmpa/mpa_shift.c:157
    9d38:	b9400024 	ldr	w4, [x1]
    9d3c:	4a050084 	eor	w4, w4, w5
    9d40:	b81fc424 	str	w4, [x1],#-4
/home/pwnz/devel/optee/optee_os/lib/libmpa/mpa_shift.c:159
    9d44:	8b224a65 	add	x5, x19, w2, uxtw #2
    9d48:	b94008e4 	ldr	w4, [x7,#8]
    9d4c:	1ad62084 	lsl	w4, w4, w22
    9d50:	b90008a4 	str	w4, [x5,#8]
    9d54:	17fffff0 	b	9d14 <mpa_shift_left+0x140>
/home/pwnz/devel/optee/optee_os/lib/libmpa/mpa_shift.c:167
    9d58:	4b150294 	sub	w20, w20, w21
    9d5c:	4b160294 	sub	w20, w20, w22
    9d60:	17ffffbd 	b	9c54 <mpa_shift_left+0x80>

0000000000009d64 <mpa_shift_right>:
mpa_shift_right():
/home/pwnz/devel/optee/optee_os/lib/libmpa/mpa_shift.c:179
    9d64:	a9be7bfd 	stp	x29, x30, [sp,#-32]!
    9d68:	910003fd 	mov	x29, sp
    9d6c:	a90153f3 	stp	x19, x20, [sp,#16]
    9d70:	aa0003f3 	mov	x19, x0
    9d74:	2a0203f4 	mov	w20, w2
/home/pwnz/devel/optee/optee_os/lib/libmpa/mpa_shift.c:190
    9d78:	97fff6f1 	bl	793c <mpa_copy>
/home/pwnz/devel/optee/optee_os/lib/libmpa/mpa_shift.c:191
    9d7c:	aa1303e0 	mov	x0, x19
    9d80:	97fff6da 	bl	78e8 <__mpa_set_unused_digits_to_zero>
/home/pwnz/devel/optee/optee_os/lib/libmpa/mpa_shift.c:192
    9d84:	34000674 	cbz	w20, 9e50 <mpa_shift_right+0xec>
/home/pwnz/devel/optee/optee_os/lib/libmpa/mpa_shift.c:192 (discriminator 1)
    9d88:	b9400663 	ldr	w3, [x19,#4]
    9d8c:	7100007f 	cmp	w3, #0x0
    9d90:	54000600 	b.eq	9e50 <mpa_shift_right+0xec>
/home/pwnz/devel/optee/optee_os/lib/libmpa/mpa_shift.c:196
    9d94:	53057e82 	lsr	w2, w20, #5
/home/pwnz/devel/optee/optee_os/lib/libmpa/mpa_shift.c:198
    9d98:	5a83a466 	cneg	w6, w3, lt
/home/pwnz/devel/optee/optee_os/lib/libmpa/mpa_shift.c:195
    9d9c:	12001284 	and	w4, w20, #0x1f
/home/pwnz/devel/optee/optee_os/lib/libmpa/mpa_shift.c:198
    9da0:	6b06005f 	cmp	w2, w6
    9da4:	540000c3 	b.cc	9dbc <mpa_shift_right+0x58>
/home/pwnz/devel/optee/optee_os/lib/libmpa/mpa_shift.c:199
    9da8:	aa1303e0 	mov	x0, x19
    9dac:	52800001 	mov	w1, #0x0                   	// #0
/home/pwnz/devel/optee/optee_os/lib/libmpa/mpa_shift.c:237
    9db0:	a94153f3 	ldp	x19, x20, [sp,#16]
    9db4:	a8c27bfd 	ldp	x29, x30, [sp],#32
/home/pwnz/devel/optee/optee_os/lib/libmpa/mpa_shift.c:199
    9db8:	17fff940 	b	82b8 <mpa_set_word>
    9dbc:	91002260 	add	x0, x19, #0x8
/home/pwnz/devel/optee/optee_os/lib/libmpa/mpa_shift.c:208
    9dc0:	34000264 	cbz	w4, 9e0c <mpa_shift_right+0xa8>
/home/pwnz/devel/optee/optee_os/lib/libmpa/mpa_shift.c:216 (discriminator 1)
    9dc4:	d2800025 	mov	x5, #0x1                   	// #1
/home/pwnz/devel/optee/optee_os/lib/libmpa/mpa_shift.c:218 (discriminator 1)
    9dc8:	52800409 	mov	w9, #0x20                  	// #32
/home/pwnz/devel/optee/optee_os/lib/libmpa/mpa_shift.c:216 (discriminator 1)
    9dcc:	9ac420a5 	lsl	x5, x5, x4
    9dd0:	2a0203e1 	mov	w1, w2
    9dd4:	510004a5 	sub	w5, w5, #0x1
/home/pwnz/devel/optee/optee_os/lib/libmpa/mpa_shift.c:218 (discriminator 1)
    9dd8:	4b040129 	sub	w9, w9, w4
    9ddc:	11000428 	add	w8, w1, #0x1
/home/pwnz/devel/optee/optee_os/lib/libmpa/mpa_shift.c:214 (discriminator 1)
    9de0:	6b0800df 	cmp	w6, w8
    9de4:	54000461 	b.ne	9e70 <mpa_shift_right+0x10c>
    9de8:	2a2203e0 	mvn	w0, w2
    9dec:	0b060000 	add	w0, w0, w6
/home/pwnz/devel/optee/optee_os/lib/libmpa/mpa_shift.c:221
    9df0:	8b204a61 	add	x1, x19, w0, uxtw #2
    9df4:	0b000040 	add	w0, w2, w0
    9df8:	8b000a60 	add	x0, x19, x0, lsl #2
    9dfc:	b9400800 	ldr	w0, [x0,#8]
    9e00:	1ac42404 	lsr	w4, w0, w4
    9e04:	b9000824 	str	w4, [x1,#8]
    9e08:	14000004 	b	9e18 <mpa_shift_right+0xb4>
/home/pwnz/devel/optee/optee_os/lib/libmpa/mpa_shift.c:208 (discriminator 1)
    9e0c:	2a0203e1 	mov	w1, w2
/home/pwnz/devel/optee/optee_os/lib/libmpa/mpa_shift.c:210 (discriminator 1)
    9e10:	6b0100df 	cmp	w6, w1
    9e14:	54000241 	b.ne	9e5c <mpa_shift_right+0xf8>
/home/pwnz/devel/optee/optee_os/lib/libmpa/mpa_shift.c:226
    9e18:	0b020060 	add	w0, w3, w2
    9e1c:	7100007f 	cmp	w3, #0x0
    9e20:	4b020062 	sub	w2, w3, w2
    9e24:	1a80c042 	csel	w2, w2, w0, gt
    9e28:	b9000662 	str	w2, [x19,#4]
/home/pwnz/devel/optee/optee_os/lib/libmpa/mpa_shift.c:231
    9e2c:	7100005f 	cmp	w2, #0x0
    9e30:	5a82a440 	cneg	w0, w2, lt
    9e34:	51000400 	sub	w0, w0, #0x1
    9e38:	8b20ca60 	add	x0, x19, w0, sxtw #2
    9e3c:	b9400800 	ldr	w0, [x0,#8]
    9e40:	35000080 	cbnz	w0, 9e50 <mpa_shift_right+0xec>
/home/pwnz/devel/optee/optee_os/lib/libmpa/mpa_shift.c:232
    9e44:	540002ed 	b.le	9ea0 <mpa_shift_right+0x13c>
/home/pwnz/devel/optee/optee_os/lib/libmpa/mpa_shift.c:233
    9e48:	51000442 	sub	w2, w2, #0x1
/home/pwnz/devel/optee/optee_os/lib/libmpa/mpa_shift.c:235
    9e4c:	b9000662 	str	w2, [x19,#4]
/home/pwnz/devel/optee/optee_os/lib/libmpa/mpa_shift.c:237
    9e50:	a94153f3 	ldp	x19, x20, [sp,#16]
    9e54:	a8c27bfd 	ldp	x29, x30, [sp],#32
    9e58:	d65f03c0 	ret
/home/pwnz/devel/optee/optee_os/lib/libmpa/mpa_shift.c:211 (discriminator 3)
    9e5c:	8b214a64 	add	x4, x19, w1, uxtw #2
    9e60:	11000421 	add	w1, w1, #0x1
    9e64:	b9400884 	ldr	w4, [x4,#8]
    9e68:	b8004404 	str	w4, [x0],#4
    9e6c:	17ffffe9 	b	9e10 <mpa_shift_right+0xac>
/home/pwnz/devel/optee/optee_os/lib/libmpa/mpa_shift.c:215 (discriminator 3)
    9e70:	8b214a61 	add	x1, x19, w1, uxtw #2
    9e74:	b9400827 	ldr	w7, [x1,#8]
/home/pwnz/devel/optee/optee_os/lib/libmpa/mpa_shift.c:216 (discriminator 3)
    9e78:	8b284a61 	add	x1, x19, w8, uxtw #2
/home/pwnz/devel/optee/optee_os/lib/libmpa/mpa_shift.c:215 (discriminator 3)
    9e7c:	b9000007 	str	w7, [x0]
/home/pwnz/devel/optee/optee_os/lib/libmpa/mpa_shift.c:216 (discriminator 3)
    9e80:	b9400821 	ldr	w1, [x1,#8]
/home/pwnz/devel/optee/optee_os/lib/libmpa/mpa_shift.c:218 (discriminator 3)
    9e84:	1ac424e7 	lsr	w7, w7, w4
/home/pwnz/devel/optee/optee_os/lib/libmpa/mpa_shift.c:216 (discriminator 3)
    9e88:	0a0100a1 	and	w1, w5, w1
/home/pwnz/devel/optee/optee_os/lib/libmpa/mpa_shift.c:218 (discriminator 3)
    9e8c:	1ac92021 	lsl	w1, w1, w9
    9e90:	4a070021 	eor	w1, w1, w7
/home/pwnz/devel/optee/optee_os/lib/libmpa/mpa_shift.c:217 (discriminator 3)
    9e94:	b8004401 	str	w1, [x0],#4
    9e98:	2a0803e1 	mov	w1, w8
    9e9c:	17ffffd0 	b	9ddc <mpa_shift_right+0x78>
/home/pwnz/devel/optee/optee_os/lib/libmpa/mpa_shift.c:235
    9ea0:	11000442 	add	w2, w2, #0x1
    9ea4:	17ffffea 	b	9e4c <mpa_shift_right+0xe8>

0000000000009ea8 <__mpa_full_adder>:
__mpa_full_adder():
/home/pwnz/devel/optee/optee_os/lib/libmpa/mpa_addsub.c:54
    9ea8:	b9400064 	ldr	w4, [x3]
    9eac:	8b214081 	add	x1, x4, w1, uxtw
    9eb0:	8b204020 	add	x0, x1, w0, uxtw
/home/pwnz/devel/optee/optee_os/lib/libmpa/mpa_addsub.c:55
    9eb4:	b9000040 	str	w0, [x2]
/home/pwnz/devel/optee/optee_os/lib/libmpa/mpa_addsub.c:56
    9eb8:	d360fc00 	lsr	x0, x0, #32
    9ebc:	b9000060 	str	w0, [x3]
    9ec0:	d65f03c0 	ret

0000000000009ec4 <__mpa_full_sub>:
__mpa_full_sub():
/home/pwnz/devel/optee/optee_os/lib/libmpa/mpa_addsub.c:77
    9ec4:	2a0003e0 	mov	w0, w0
    9ec8:	cb214001 	sub	x1, x0, w1, uxtw
    9ecc:	b9400060 	ldr	w0, [x3]
    9ed0:	cb000021 	sub	x1, x1, x0
/home/pwnz/devel/optee/optee_os/lib/libmpa/mpa_addsub.c:78
    9ed4:	b9000041 	str	w1, [x2]
/home/pwnz/devel/optee/optee_os/lib/libmpa/mpa_addsub.c:79
    9ed8:	d360fc21 	lsr	x1, x1, #32
    9edc:	4b0103e1 	neg	w1, w1
    9ee0:	b9000061 	str	w1, [x3]
    9ee4:	d65f03c0 	ret

0000000000009ee8 <__mpa_full_adder_ackum>:
__mpa_full_adder_ackum():
/home/pwnz/devel/optee/optee_os/lib/libmpa/mpa_addsub.c:101
    9ee8:	b9400043 	ldr	w3, [x2]
    9eec:	8b214061 	add	x1, x3, w1, uxtw
    9ef0:	b9400003 	ldr	w3, [x0]
    9ef4:	8b030021 	add	x1, x1, x3
/home/pwnz/devel/optee/optee_os/lib/libmpa/mpa_addsub.c:102
    9ef8:	b9000001 	str	w1, [x0]
/home/pwnz/devel/optee/optee_os/lib/libmpa/mpa_addsub.c:103
    9efc:	d360fc21 	lsr	x1, x1, #32
    9f00:	b9000041 	str	w1, [x2]
    9f04:	d65f03c0 	ret

0000000000009f08 <__mpa_abs_add>:
__mpa_abs_add():
/home/pwnz/devel/optee/optee_os/lib/libmpa/mpa_addsub.c:127
    9f08:	a9bd7bfd 	stp	x29, x30, [sp,#-48]!
/home/pwnz/devel/optee/optee_os/lib/libmpa/mpa_addsub.c:137
    9f0c:	6b05007f 	cmp	w3, w5
/home/pwnz/devel/optee/optee_os/lib/libmpa/mpa_addsub.c:127
    9f10:	910003fd 	mov	x29, sp
    9f14:	a90153f3 	stp	x19, x20, [sp,#16]
    9f18:	aa0003f4 	mov	x20, x0
    9f1c:	f90013f5 	str	x21, [sp,#32]
    9f20:	aa0103f5 	mov	x21, x1
/home/pwnz/devel/optee/optee_os/lib/libmpa/mpa_addsub.c:137
    9f24:	540000ec 	b.gt	9f40 <__mpa_abs_add+0x38>
    9f28:	2a0503e0 	mov	w0, w5
    9f2c:	2a0303e5 	mov	w5, w3
    9f30:	2a0003e3 	mov	w3, w0
    9f34:	aa0403e0 	mov	x0, x4
/home/pwnz/devel/optee/optee_os/lib/libmpa/mpa_addsub.c:144
    9f38:	aa0203e4 	mov	x4, x2
/home/pwnz/devel/optee/optee_os/lib/libmpa/mpa_addsub.c:143
    9f3c:	aa0003e2 	mov	x2, x0
/home/pwnz/devel/optee/optee_os/lib/libmpa/mpa_addsub.c:152
    9f40:	d2800001 	mov	x1, #0x0                   	// #0
/home/pwnz/devel/optee/optee_os/lib/libmpa/mpa_addsub.c:150
    9f44:	52800008 	mov	w8, #0x0                   	// #0
/home/pwnz/devel/optee/optee_os/lib/libmpa/mpa_addsub.c:152
    9f48:	6b0100bf 	cmp	w5, w1
    9f4c:	540001ac 	b.gt	9f80 <__mpa_abs_add+0x78>
    9f50:	710000bf 	cmp	w5, #0x0
    9f54:	1a9fa0a5 	csel	w5, w5, wzr, ge
    9f58:	937e7ca1 	sbfiz	x1, x5, #2, #32
    9f5c:	8b010284 	add	x4, x20, x1
    9f60:	8b010041 	add	x1, x2, x1
/home/pwnz/devel/optee/optee_os/lib/libmpa/mpa_addsub.c:156
    9f64:	6b05007f 	cmp	w3, w5
    9f68:	340002c8 	cbz	w8, 9fc0 <__mpa_abs_add+0xb8>
    9f6c:	91001080 	add	x0, x4, #0x4
/home/pwnz/devel/optee/optee_os/lib/libmpa/mpa_addsub.c:156 (discriminator 1)
    9f70:	540001ac 	b.gt	9fa4 <__mpa_abs_add+0x9c>
/home/pwnz/devel/optee/optee_os/lib/libmpa/mpa_addsub.c:168
    9f74:	52800021 	mov	w1, #0x1                   	// #1
    9f78:	b9000081 	str	w1, [x4]
    9f7c:	14000019 	b	9fe0 <__mpa_abs_add+0xd8>
__mpa_full_adder():
/home/pwnz/devel/optee/optee_os/lib/libmpa/mpa_addsub.c:54
    9f80:	b8617886 	ldr	w6, [x4,x1,lsl #2]
    9f84:	2a0803e0 	mov	w0, w8
    9f88:	b8617847 	ldr	w7, [x2,x1,lsl #2]
    9f8c:	8b0700c6 	add	x6, x6, x7
    9f90:	8b0000c0 	add	x0, x6, x0
/home/pwnz/devel/optee/optee_os/lib/libmpa/mpa_addsub.c:55
    9f94:	b8217a80 	str	w0, [x20,x1,lsl #2]
/home/pwnz/devel/optee/optee_os/lib/libmpa/mpa_addsub.c:56
    9f98:	d360fc08 	lsr	x8, x0, #32
    9f9c:	91000421 	add	x1, x1, #0x1
    9fa0:	17ffffea 	b	9f48 <__mpa_abs_add+0x40>
__mpa_abs_add():
/home/pwnz/devel/optee/optee_os/lib/libmpa/mpa_addsub.c:157
    9fa4:	aa0003e4 	mov	x4, x0
__mpa_full_adder():
/home/pwnz/devel/optee/optee_os/lib/libmpa/mpa_addsub.c:54
    9fa8:	b8404420 	ldr	w0, [x1],#4
__mpa_abs_add():
/home/pwnz/devel/optee/optee_os/lib/libmpa/mpa_addsub.c:158
    9fac:	110004a5 	add	w5, w5, #0x1
__mpa_full_adder():
/home/pwnz/devel/optee/optee_os/lib/libmpa/mpa_addsub.c:54
    9fb0:	91000400 	add	x0, x0, #0x1
/home/pwnz/devel/optee/optee_os/lib/libmpa/mpa_addsub.c:56
    9fb4:	d360fc08 	lsr	x8, x0, #32
/home/pwnz/devel/optee/optee_os/lib/libmpa/mpa_addsub.c:55
    9fb8:	b81fc080 	stur	w0, [x4,#-4]
    9fbc:	17ffffea 	b	9f64 <__mpa_abs_add+0x5c>
__mpa_abs_add():
/home/pwnz/devel/optee/optee_os/lib/libmpa/mpa_addsub.c:161
    9fc0:	540000ed 	b.le	9fdc <__mpa_abs_add+0xd4>
/home/pwnz/devel/optee/optee_os/lib/libmpa/mpa_addsub.c:163
    9fc4:	4b050073 	sub	w19, w3, w5
    9fc8:	aa0403e0 	mov	x0, x4
    9fcc:	531e7662 	lsl	w2, w19, #2
    9fd0:	93407c42 	sxtw	x2, w2
    9fd4:	97fff24c 	bl	6904 <memcpy>
/home/pwnz/devel/optee/optee_os/lib/libmpa/mpa_addsub.c:164
    9fd8:	8b33c804 	add	x4, x0, w19, sxtw #2
/home/pwnz/devel/optee/optee_os/lib/libmpa/mpa_addsub.c:150
    9fdc:	aa0403e0 	mov	x0, x4
/home/pwnz/devel/optee/optee_os/lib/libmpa/mpa_addsub.c:169
    9fe0:	cb140001 	sub	x1, x0, x20
    9fe4:	9342fc20 	asr	x0, x1, #2
    9fe8:	b90002a0 	str	w0, [x21]
/home/pwnz/devel/optee/optee_os/lib/libmpa/mpa_addsub.c:170
    9fec:	a94153f3 	ldp	x19, x20, [sp,#16]
    9ff0:	f94013f5 	ldr	x21, [sp,#32]
    9ff4:	a8c37bfd 	ldp	x29, x30, [sp],#48
    9ff8:	d65f03c0 	ret

0000000000009ffc <__mpa_abs_add_ackum>:
__mpa_abs_add_ackum():
/home/pwnz/devel/optee/optee_os/lib/libmpa/mpa_addsub.c:179
    9ffc:	a9bb7bfd 	stp	x29, x30, [sp,#-80]!
    a000:	910003fd 	mov	x29, sp
    a004:	a90153f3 	stp	x19, x20, [sp,#16]
/home/pwnz/devel/optee/optee_os/lib/libmpa/mpa_addsub.c:190
    a008:	91002014 	add	x20, x0, #0x8
/home/pwnz/devel/optee/optee_os/lib/libmpa/mpa_addsub.c:179
    a00c:	a9025bf5 	stp	x21, x22, [sp,#32]
    a010:	aa0003f3 	mov	x19, x0
    a014:	a90363f7 	stp	x23, x24, [sp,#48]
    a018:	aa0103f5 	mov	x21, x1
/home/pwnz/devel/optee/optee_os/lib/libmpa/mpa_addsub.c:187
    a01c:	b9400400 	ldr	w0, [x0,#4]
/home/pwnz/devel/optee/optee_os/lib/libmpa/mpa_addsub.c:193
    a020:	91002038 	add	x24, x1, #0x8
/home/pwnz/devel/optee/optee_os/lib/libmpa/mpa_addsub.c:187
    a024:	b9400421 	ldr	w1, [x1,#4]
/home/pwnz/devel/optee/optee_os/lib/libmpa/mpa_addsub.c:196
    a028:	910143b7 	add	x23, x29, #0x50
/home/pwnz/devel/optee/optee_os/lib/libmpa/mpa_addsub.c:197
    a02c:	d2800016 	mov	x22, #0x0                   	// #0
/home/pwnz/devel/optee/optee_os/lib/libmpa/mpa_addsub.c:190
    a030:	6b000022 	subs	w2, w1, w0
    a034:	52800001 	mov	w1, #0x0                   	// #0
    a038:	1a9f5042 	csel	w2, w2, wzr, pl
    a03c:	8b20ca80 	add	x0, x20, w0, sxtw #2
    a040:	11000442 	add	w2, w2, #0x1
    a044:	531e7442 	lsl	w2, w2, #2
    a048:	93407c42 	sxtw	x2, w2
    a04c:	97fff249 	bl	6970 <memset>
/home/pwnz/devel/optee/optee_os/lib/libmpa/mpa_addsub.c:196
    a050:	b81fceff 	str	wzr, [x23,#-4]!
/home/pwnz/devel/optee/optee_os/lib/libmpa/mpa_addsub.c:197
    a054:	b94006a1 	ldr	w1, [x21,#4]
    a058:	8b160a80 	add	x0, x20, x22, lsl #2
    a05c:	6b16003f 	cmp	w1, w22
    a060:	540001ec 	b.gt	a09c <__mpa_abs_add_ackum+0xa0>
/home/pwnz/devel/optee/optee_os/lib/libmpa/mpa_addsub.c:208
    a064:	910133b6 	add	x22, x29, #0x4c
/home/pwnz/devel/optee/optee_os/lib/libmpa/mpa_addsub.c:207
    a068:	b9404fa1 	ldr	w1, [x29,#76]
    a06c:	35000221 	cbnz	w1, a0b0 <__mpa_abs_add_ackum+0xb4>
/home/pwnz/devel/optee/optee_os/lib/libmpa/mpa_addsub.c:215
    a070:	cb140000 	sub	x0, x0, x20
/home/pwnz/devel/optee/optee_os/lib/libmpa/mpa_addsub.c:216
    a074:	b9400661 	ldr	w1, [x19,#4]
/home/pwnz/devel/optee/optee_os/lib/libmpa/mpa_addsub.c:215
    a078:	9342fc02 	asr	x2, x0, #2
/home/pwnz/devel/optee/optee_os/lib/libmpa/mpa_addsub.c:216
    a07c:	6b01005f 	cmp	w2, w1
    a080:	5400004d 	b.le	a088 <__mpa_abs_add_ackum+0x8c>
/home/pwnz/devel/optee/optee_os/lib/libmpa/mpa_addsub.c:217
    a084:	b9000662 	str	w2, [x19,#4]
/home/pwnz/devel/optee/optee_os/lib/libmpa/mpa_addsub.c:218
    a088:	a94153f3 	ldp	x19, x20, [sp,#16]
    a08c:	a9425bf5 	ldp	x21, x22, [sp,#32]
    a090:	a94363f7 	ldp	x23, x24, [sp,#48]
    a094:	a8c57bfd 	ldp	x29, x30, [sp],#80
    a098:	d65f03c0 	ret
/home/pwnz/devel/optee/optee_os/lib/libmpa/mpa_addsub.c:198
    a09c:	b8767b01 	ldr	w1, [x24,x22,lsl #2]
    a0a0:	aa1703e2 	mov	x2, x23
    a0a4:	910006d6 	add	x22, x22, #0x1
    a0a8:	97ffff90 	bl	9ee8 <__mpa_full_adder_ackum>
    a0ac:	17ffffea 	b	a054 <__mpa_abs_add_ackum+0x58>
/home/pwnz/devel/optee/optee_os/lib/libmpa/mpa_addsub.c:208
    a0b0:	91001015 	add	x21, x0, #0x4
    a0b4:	aa1603e2 	mov	x2, x22
    a0b8:	52800001 	mov	w1, #0x0                   	// #0
    a0bc:	97ffff8b 	bl	9ee8 <__mpa_full_adder_ackum>
    a0c0:	aa1503e0 	mov	x0, x21
    a0c4:	17ffffe9 	b	a068 <__mpa_abs_add_ackum+0x6c>

000000000000a0c8 <__mpa_abs_sub>:
__mpa_abs_sub():
/home/pwnz/devel/optee/optee_os/lib/libmpa/mpa_addsub.c:233
    a0c8:	a9ba7bfd 	stp	x29, x30, [sp,#-96]!
    a0cc:	910003fd 	mov	x29, sp
    a0d0:	a9046bf9 	stp	x25, x26, [sp,#64]
/home/pwnz/devel/optee/optee_os/lib/libmpa/mpa_addsub.c:237
    a0d4:	910183b9 	add	x25, x29, #0x60
/home/pwnz/devel/optee/optee_os/lib/libmpa/mpa_addsub.c:233
    a0d8:	a90153f3 	stp	x19, x20, [sp,#16]
    a0dc:	aa0403fa 	mov	x26, x4
    a0e0:	a9025bf5 	stp	x21, x22, [sp,#32]
    a0e4:	2a0303f4 	mov	w20, w3
    a0e8:	a90363f7 	stp	x23, x24, [sp,#48]
    a0ec:	aa0103f5 	mov	x21, x1
    a0f0:	aa0003f7 	mov	x23, x0
    a0f4:	aa0203f8 	mov	x24, x2
    a0f8:	2a0503f6 	mov	w22, w5
/home/pwnz/devel/optee/optee_os/lib/libmpa/mpa_addsub.c:237
    a0fc:	b81fcf3f 	str	wzr, [x25,#-4]!
/home/pwnz/devel/optee/optee_os/lib/libmpa/mpa_addsub.c:239
    a100:	d2800013 	mov	x19, #0x0                   	// #0
    a104:	8b130ae2 	add	x2, x23, x19, lsl #2
    a108:	6b1302df 	cmp	w22, w19
    a10c:	5400028c 	b.gt	a15c <__mpa_abs_sub+0x94>
    a110:	710002df 	cmp	w22, #0x0
    a114:	1a9fa2d3 	csel	w19, w22, wzr, ge
    a118:	937e7e60 	sbfiz	x0, x19, #2, #32
    a11c:	8b000316 	add	x22, x24, x0
    a120:	8b0002e4 	add	x4, x23, x0
/home/pwnz/devel/optee/optee_os/lib/libmpa/mpa_addsub.c:248
    a124:	910173b8 	add	x24, x29, #0x5c
/home/pwnz/devel/optee/optee_os/lib/libmpa/mpa_addsub.c:247
    a128:	b9405fa0 	ldr	w0, [x29,#92]
    a12c:	6b14027f 	cmp	w19, w20
    a130:	34000340 	cbz	w0, a198 <__mpa_abs_sub+0xd0>
/home/pwnz/devel/optee/optee_os/lib/libmpa/mpa_addsub.c:247 (discriminator 1)
    a134:	5400020b 	b.lt	a174 <__mpa_abs_sub+0xac>
/home/pwnz/devel/optee/optee_os/lib/libmpa/mpa_addsub.c:262
    a138:	7100029f 	cmp	w20, #0x0
    a13c:	5400040c 	b.gt	a1bc <__mpa_abs_sub+0xf4>
/home/pwnz/devel/optee/optee_os/lib/libmpa/mpa_addsub.c:264
    a140:	b90002b4 	str	w20, [x21]
/home/pwnz/devel/optee/optee_os/lib/libmpa/mpa_addsub.c:265
    a144:	a94363f7 	ldp	x23, x24, [sp,#48]
    a148:	a94153f3 	ldp	x19, x20, [sp,#16]
    a14c:	a9425bf5 	ldp	x21, x22, [sp,#32]
    a150:	a9446bf9 	ldp	x25, x26, [sp,#64]
    a154:	a8c67bfd 	ldp	x29, x30, [sp],#96
    a158:	d65f03c0 	ret
/home/pwnz/devel/optee/optee_os/lib/libmpa/mpa_addsub.c:240
    a15c:	b8737b41 	ldr	w1, [x26,x19,lsl #2]
    a160:	aa1903e3 	mov	x3, x25
    a164:	b8737b00 	ldr	w0, [x24,x19,lsl #2]
    a168:	91000673 	add	x19, x19, #0x1
    a16c:	97ffff56 	bl	9ec4 <__mpa_full_sub>
    a170:	17ffffe5 	b	a104 <__mpa_abs_sub+0x3c>
/home/pwnz/devel/optee/optee_os/lib/libmpa/mpa_addsub.c:248
    a174:	b84046c0 	ldr	w0, [x22],#4
    a178:	91001097 	add	x23, x4, #0x4
    a17c:	aa0403e2 	mov	x2, x4
    a180:	aa1803e3 	mov	x3, x24
    a184:	52800001 	mov	w1, #0x0                   	// #0
/home/pwnz/devel/optee/optee_os/lib/libmpa/mpa_addsub.c:249
    a188:	11000673 	add	w19, w19, #0x1
/home/pwnz/devel/optee/optee_os/lib/libmpa/mpa_addsub.c:248
    a18c:	97ffff4e 	bl	9ec4 <__mpa_full_sub>
    a190:	aa1703e4 	mov	x4, x23
    a194:	17ffffe5 	b	a128 <__mpa_abs_sub+0x60>
/home/pwnz/devel/optee/optee_os/lib/libmpa/mpa_addsub.c:252
    a198:	54fffd0a 	b.ge	a138 <__mpa_abs_sub+0x70>
/home/pwnz/devel/optee/optee_os/lib/libmpa/mpa_addsub.c:257
    a19c:	4b130293 	sub	w19, w20, w19
    a1a0:	aa0403e0 	mov	x0, x4
    a1a4:	531e7662 	lsl	w2, w19, #2
    a1a8:	aa1603e1 	mov	x1, x22
    a1ac:	93407c42 	sxtw	x2, w2
    a1b0:	97fff1d5 	bl	6904 <memcpy>
/home/pwnz/devel/optee/optee_os/lib/libmpa/mpa_addsub.c:258
    a1b4:	8b33c804 	add	x4, x0, w19, sxtw #2
/home/pwnz/devel/optee/optee_os/lib/libmpa/mpa_addsub.c:262
    a1b8:	17ffffe0 	b	a138 <__mpa_abs_sub+0x70>
/home/pwnz/devel/optee/optee_os/lib/libmpa/mpa_addsub.c:262 (discriminator 1)
    a1bc:	b85fcc80 	ldr	w0, [x4,#-4]!
    a1c0:	35fffc00 	cbnz	w0, a140 <__mpa_abs_sub+0x78>
/home/pwnz/devel/optee/optee_os/lib/libmpa/mpa_addsub.c:263
    a1c4:	51000694 	sub	w20, w20, #0x1
    a1c8:	17ffffdc 	b	a138 <__mpa_abs_sub+0x70>

000000000000a1cc <mpa_add>:
mpa_add():
/home/pwnz/devel/optee/optee_os/lib/libmpa/mpa_addsub.c:281
    a1cc:	a9b97bfd 	stp	x29, x30, [sp,#-112]!
    a1d0:	910003fd 	mov	x29, sp
    a1d4:	a90363f7 	stp	x23, x24, [sp,#48]
    a1d8:	aa0203f8 	mov	x24, x2
/home/pwnz/devel/optee/optee_os/lib/libmpa/mpa_addsub.c:289
    a1dc:	b9400422 	ldr	w2, [x1,#4]
/home/pwnz/devel/optee/optee_os/lib/libmpa/mpa_addsub.c:281
    a1e0:	aa0103f7 	mov	x23, x1
    a1e4:	a9025bf5 	stp	x21, x22, [sp,#32]
/home/pwnz/devel/optee/optee_os/lib/libmpa/mpa_addsub.c:290
    a1e8:	b9400701 	ldr	w1, [x24,#4]
/home/pwnz/devel/optee/optee_os/lib/libmpa/mpa_addsub.c:289
    a1ec:	7100005f 	cmp	w2, #0x0
    a1f0:	5a82a456 	cneg	w22, w2, lt
/home/pwnz/devel/optee/optee_os/lib/libmpa/mpa_addsub.c:281
    a1f4:	a90153f3 	stp	x19, x20, [sp,#16]
/home/pwnz/devel/optee/optee_os/lib/libmpa/mpa_addsub.c:290
    a1f8:	7100003f 	cmp	w1, #0x0
/home/pwnz/devel/optee/optee_os/lib/libmpa/mpa_addsub.c:281
    a1fc:	a9046bf9 	stp	x25, x26, [sp,#64]
/home/pwnz/devel/optee/optee_os/lib/libmpa/mpa_addsub.c:290
    a200:	5a81a434 	cneg	w20, w1, lt
/home/pwnz/devel/optee/optee_os/lib/libmpa/mpa_addsub.c:281
    a204:	aa0003f9 	mov	x25, x0
/home/pwnz/devel/optee/optee_os/lib/libmpa/mpa_addsub.c:292
    a208:	12800000 	mov	w0, #0xffffffff            	// #-1
    a20c:	6b00005f 	cmp	w2, w0
/home/pwnz/devel/optee/optee_os/lib/libmpa/mpa_addsub.c:281
    a210:	a90573fb 	stp	x27, x28, [sp,#80]
/home/pwnz/devel/optee/optee_os/lib/libmpa/mpa_addsub.c:292
    a214:	5a80d41c 	cneg	w28, w0, gt
/home/pwnz/devel/optee/optee_os/lib/libmpa/mpa_addsub.c:293
    a218:	6b00003f 	cmp	w1, w0
/home/pwnz/devel/optee/optee_os/lib/libmpa/mpa_addsub.c:281
    a21c:	aa0303fa 	mov	x26, x3
/home/pwnz/devel/optee/optee_os/lib/libmpa/mpa_addsub.c:293
    a220:	5a80d413 	cneg	w19, w0, gt
/home/pwnz/devel/optee/optee_os/lib/libmpa/mpa_addsub.c:296
    a224:	eb1902ff 	cmp	x23, x25
    a228:	1a9f17fb 	cset	w27, eq
    a22c:	eb19031f 	cmp	x24, x25
    a230:	1a9f17e0 	cset	w0, eq
    a234:	2a00037b 	orr	w27, w27, w0
/home/pwnz/devel/optee/optee_os/lib/libmpa/mpa_addsub.c:297
    a238:	3400049b 	cbz	w27, a2c8 <mpa_add+0xfc>
/home/pwnz/devel/optee/optee_os/lib/libmpa/mpa_addsub.c:298
    a23c:	aa0303e1 	mov	x1, x3
    a240:	9101a3a0 	add	x0, x29, #0x68
    a244:	97fffcd0 	bl	9584 <mpa_alloc_static_temp_var>
/home/pwnz/devel/optee/optee_os/lib/libmpa/mpa_addsub.c:306
    a248:	6b13039f 	cmp	w28, w19
    a24c:	910022f5 	add	x21, x23, #0x8
    a250:	91002313 	add	x19, x24, #0x8
    a254:	540003e1 	b.ne	a2d0 <mpa_add+0x104>
/home/pwnz/devel/optee/optee_os/lib/libmpa/mpa_addsub.c:308
    a258:	f94037a0 	ldr	x0, [x29,#104]
    a25c:	2a1403e5 	mov	w5, w20
    a260:	aa1303e4 	mov	x4, x19
    a264:	2a1603e3 	mov	w3, w22
    a268:	91001001 	add	x1, x0, #0x4
    a26c:	aa1503e2 	mov	x2, x21
    a270:	91002000 	add	x0, x0, #0x8
    a274:	97ffff25 	bl	9f08 <__mpa_abs_add>
/home/pwnz/devel/optee/optee_os/lib/libmpa/mpa_addsub.c:311
    a278:	3100079f 	cmn	w28, #0x1
    a27c:	540000a1 	b.ne	a290 <mpa_add+0xc4>
/home/pwnz/devel/optee/optee_os/lib/libmpa/mpa_addsub.c:327
    a280:	f94037a1 	ldr	x1, [x29,#104]
    a284:	b9400420 	ldr	w0, [x1,#4]
    a288:	4b0003e0 	neg	w0, w0
    a28c:	b9000420 	str	w0, [x1,#4]
/home/pwnz/devel/optee/optee_os/lib/libmpa/mpa_addsub.c:346
    a290:	f94037a1 	ldr	x1, [x29,#104]
    a294:	aa1903e0 	mov	x0, x25
    a298:	97fff5a9 	bl	793c <mpa_copy>
/home/pwnz/devel/optee/optee_os/lib/libmpa/mpa_addsub.c:347
    a29c:	3400009b 	cbz	w27, a2ac <mpa_add+0xe0>
/home/pwnz/devel/optee/optee_os/lib/libmpa/mpa_addsub.c:348
    a2a0:	aa1a03e1 	mov	x1, x26
    a2a4:	9101a3a0 	add	x0, x29, #0x68
    a2a8:	97fffcbb 	bl	9594 <mpa_free_static_temp_var>
/home/pwnz/devel/optee/optee_os/lib/libmpa/mpa_addsub.c:349
    a2ac:	a94153f3 	ldp	x19, x20, [sp,#16]
    a2b0:	a9425bf5 	ldp	x21, x22, [sp,#32]
    a2b4:	a94363f7 	ldp	x23, x24, [sp,#48]
    a2b8:	a9446bf9 	ldp	x25, x26, [sp,#64]
    a2bc:	a94573fb 	ldp	x27, x28, [sp,#80]
    a2c0:	a8c77bfd 	ldp	x29, x30, [sp],#112
    a2c4:	d65f03c0 	ret
/home/pwnz/devel/optee/optee_os/lib/libmpa/mpa_addsub.c:300
    a2c8:	f90037b9 	str	x25, [x29,#104]
    a2cc:	17ffffdf 	b	a248 <mpa_add+0x7c>
/home/pwnz/devel/optee/optee_os/lib/libmpa/mpa_addsub.c:316
    a2d0:	aa1803e1 	mov	x1, x24
    a2d4:	aa1703e0 	mov	x0, x23
/home/pwnz/devel/optee/optee_os/lib/libmpa/mpa_addsub.c:315
    a2d8:	7100079f 	cmp	w28, #0x1
    a2dc:	54000281 	b.ne	a32c <mpa_add+0x160>
/home/pwnz/devel/optee/optee_os/lib/libmpa/mpa_addsub.c:316
    a2e0:	9400015b 	bl	a84c <__mpa_abs_greater_than>
    a2e4:	f94037a6 	ldr	x6, [x29,#104]
    a2e8:	34000120 	cbz	w0, a30c <mpa_add+0x140>
/home/pwnz/devel/optee/optee_os/lib/libmpa/mpa_addsub.c:320
    a2ec:	2a1403e5 	mov	w5, w20
    a2f0:	aa1303e4 	mov	x4, x19
    a2f4:	2a1603e3 	mov	w3, w22
    a2f8:	aa1503e2 	mov	x2, x21
/home/pwnz/devel/optee/optee_os/lib/libmpa/mpa_addsub.c:340
    a2fc:	910010c1 	add	x1, x6, #0x4
    a300:	910020c0 	add	x0, x6, #0x8
    a304:	97ffff71 	bl	a0c8 <__mpa_abs_sub>
    a308:	17ffffe2 	b	a290 <mpa_add+0xc4>
/home/pwnz/devel/optee/optee_os/lib/libmpa/mpa_addsub.c:325
    a30c:	2a1603e5 	mov	w5, w22
    a310:	aa1503e4 	mov	x4, x21
    a314:	2a1403e3 	mov	w3, w20
    a318:	aa1303e2 	mov	x2, x19
    a31c:	910010c1 	add	x1, x6, #0x4
    a320:	910020c0 	add	x0, x6, #0x8
    a324:	97ffff69 	bl	a0c8 <__mpa_abs_sub>
    a328:	17ffffd6 	b	a280 <mpa_add+0xb4>
/home/pwnz/devel/optee/optee_os/lib/libmpa/mpa_addsub.c:331
    a32c:	94000148 	bl	a84c <__mpa_abs_greater_than>
    a330:	f94037a6 	ldr	x6, [x29,#104]
    a334:	340000c0 	cbz	w0, a34c <mpa_add+0x180>
/home/pwnz/devel/optee/optee_os/lib/libmpa/mpa_addsub.c:335
    a338:	2a1403e5 	mov	w5, w20
    a33c:	aa1303e4 	mov	x4, x19
    a340:	2a1603e3 	mov	w3, w22
    a344:	aa1503e2 	mov	x2, x21
    a348:	17fffff5 	b	a31c <mpa_add+0x150>
/home/pwnz/devel/optee/optee_os/lib/libmpa/mpa_addsub.c:340
    a34c:	2a1603e5 	mov	w5, w22
    a350:	aa1503e4 	mov	x4, x21
    a354:	2a1403e3 	mov	w3, w20
    a358:	aa1303e2 	mov	x2, x19
    a35c:	17ffffe8 	b	a2fc <mpa_add+0x130>

000000000000a360 <mpa_sub>:
mpa_sub():
/home/pwnz/devel/optee/optee_os/lib/libmpa/mpa_addsub.c:359
    a360:	a9b97bfd 	stp	x29, x30, [sp,#-112]!
    a364:	910003fd 	mov	x29, sp
    a368:	a90363f7 	stp	x23, x24, [sp,#48]
    a36c:	aa0203f8 	mov	x24, x2
/home/pwnz/devel/optee/optee_os/lib/libmpa/mpa_addsub.c:367
    a370:	b9400422 	ldr	w2, [x1,#4]
/home/pwnz/devel/optee/optee_os/lib/libmpa/mpa_addsub.c:359
    a374:	aa0103f7 	mov	x23, x1
    a378:	a90153f3 	stp	x19, x20, [sp,#16]
/home/pwnz/devel/optee/optee_os/lib/libmpa/mpa_addsub.c:368
    a37c:	b9400701 	ldr	w1, [x24,#4]
/home/pwnz/devel/optee/optee_os/lib/libmpa/mpa_addsub.c:367
    a380:	7100005f 	cmp	w2, #0x0
    a384:	5a82a454 	cneg	w20, w2, lt
/home/pwnz/devel/optee/optee_os/lib/libmpa/mpa_addsub.c:359
    a388:	a9046bf9 	stp	x25, x26, [sp,#64]
/home/pwnz/devel/optee/optee_os/lib/libmpa/mpa_addsub.c:368
    a38c:	7100003f 	cmp	w1, #0x0
/home/pwnz/devel/optee/optee_os/lib/libmpa/mpa_addsub.c:359
    a390:	aa0003f9 	mov	x25, x0
    a394:	a9025bf5 	stp	x21, x22, [sp,#32]
/home/pwnz/devel/optee/optee_os/lib/libmpa/mpa_addsub.c:370
    a398:	12800000 	mov	w0, #0xffffffff            	// #-1
/home/pwnz/devel/optee/optee_os/lib/libmpa/mpa_addsub.c:368
    a39c:	5a81a436 	cneg	w22, w1, lt
/home/pwnz/devel/optee/optee_os/lib/libmpa/mpa_addsub.c:370
    a3a0:	6b00005f 	cmp	w2, w0
/home/pwnz/devel/optee/optee_os/lib/libmpa/mpa_addsub.c:359
    a3a4:	a90573fb 	stp	x27, x28, [sp,#80]
/home/pwnz/devel/optee/optee_os/lib/libmpa/mpa_addsub.c:370
    a3a8:	5a80d41c 	cneg	w28, w0, gt
/home/pwnz/devel/optee/optee_os/lib/libmpa/mpa_addsub.c:371
    a3ac:	6b00003f 	cmp	w1, w0
/home/pwnz/devel/optee/optee_os/lib/libmpa/mpa_addsub.c:359
    a3b0:	aa0303fa 	mov	x26, x3
/home/pwnz/devel/optee/optee_os/lib/libmpa/mpa_addsub.c:371
    a3b4:	5a80d413 	cneg	w19, w0, gt
/home/pwnz/devel/optee/optee_os/lib/libmpa/mpa_addsub.c:374
    a3b8:	eb1902ff 	cmp	x23, x25
    a3bc:	1a9f17fb 	cset	w27, eq
    a3c0:	eb19031f 	cmp	x24, x25
    a3c4:	1a9f17e0 	cset	w0, eq
    a3c8:	2a00037b 	orr	w27, w27, w0
/home/pwnz/devel/optee/optee_os/lib/libmpa/mpa_addsub.c:375
    a3cc:	3400049b 	cbz	w27, a45c <mpa_sub+0xfc>
/home/pwnz/devel/optee/optee_os/lib/libmpa/mpa_addsub.c:376
    a3d0:	aa0303e1 	mov	x1, x3
    a3d4:	9101a3a0 	add	x0, x29, #0x68
    a3d8:	97fffc6b 	bl	9584 <mpa_alloc_static_temp_var>
/home/pwnz/devel/optee/optee_os/lib/libmpa/mpa_addsub.c:384
    a3dc:	6b13039f 	cmp	w28, w19
    a3e0:	91002315 	add	x21, x24, #0x8
    a3e4:	910022f3 	add	x19, x23, #0x8
    a3e8:	54000701 	b.ne	a4c8 <mpa_sub+0x168>
/home/pwnz/devel/optee/optee_os/lib/libmpa/mpa_addsub.c:386
    a3ec:	aa1803e1 	mov	x1, x24
    a3f0:	aa1703e0 	mov	x0, x23
/home/pwnz/devel/optee/optee_os/lib/libmpa/mpa_addsub.c:385
    a3f4:	7100079f 	cmp	w28, #0x1
    a3f8:	540004e1 	b.ne	a494 <mpa_sub+0x134>
/home/pwnz/devel/optee/optee_os/lib/libmpa/mpa_addsub.c:386
    a3fc:	94000114 	bl	a84c <__mpa_abs_greater_than>
    a400:	f94037a6 	ldr	x6, [x29,#104]
    a404:	34000300 	cbz	w0, a464 <mpa_sub+0x104>
/home/pwnz/devel/optee/optee_os/lib/libmpa/mpa_addsub.c:389
    a408:	2a1603e5 	mov	w5, w22
    a40c:	aa1503e4 	mov	x4, x21
    a410:	2a1403e3 	mov	w3, w20
    a414:	aa1303e2 	mov	x2, x19
/home/pwnz/devel/optee/optee_os/lib/libmpa/mpa_addsub.c:409
    a418:	910010c1 	add	x1, x6, #0x4
    a41c:	910020c0 	add	x0, x6, #0x8
    a420:	97ffff2a 	bl	a0c8 <__mpa_abs_sub>
/home/pwnz/devel/optee/optee_os/lib/libmpa/mpa_addsub.c:426
    a424:	f94037a1 	ldr	x1, [x29,#104]
    a428:	aa1903e0 	mov	x0, x25
    a42c:	97fff544 	bl	793c <mpa_copy>
/home/pwnz/devel/optee/optee_os/lib/libmpa/mpa_addsub.c:427
    a430:	3400009b 	cbz	w27, a440 <mpa_sub+0xe0>
/home/pwnz/devel/optee/optee_os/lib/libmpa/mpa_addsub.c:428
    a434:	aa1a03e1 	mov	x1, x26
    a438:	9101a3a0 	add	x0, x29, #0x68
    a43c:	97fffc56 	bl	9594 <mpa_free_static_temp_var>
/home/pwnz/devel/optee/optee_os/lib/libmpa/mpa_addsub.c:429
    a440:	a94153f3 	ldp	x19, x20, [sp,#16]
    a444:	a9425bf5 	ldp	x21, x22, [sp,#32]
    a448:	a94363f7 	ldp	x23, x24, [sp,#48]
    a44c:	a9446bf9 	ldp	x25, x26, [sp,#64]
    a450:	a94573fb 	ldp	x27, x28, [sp,#80]
    a454:	a8c77bfd 	ldp	x29, x30, [sp],#112
    a458:	d65f03c0 	ret
/home/pwnz/devel/optee/optee_os/lib/libmpa/mpa_addsub.c:378
    a45c:	f90037b9 	str	x25, [x29,#104]
    a460:	17ffffdf 	b	a3dc <mpa_sub+0x7c>
/home/pwnz/devel/optee/optee_os/lib/libmpa/mpa_addsub.c:393
    a464:	2a1403e5 	mov	w5, w20
    a468:	aa1303e4 	mov	x4, x19
    a46c:	2a1603e3 	mov	w3, w22
    a470:	aa1503e2 	mov	x2, x21
/home/pwnz/devel/optee/optee_os/lib/libmpa/mpa_addsub.c:404
    a474:	910010c1 	add	x1, x6, #0x4
    a478:	910020c0 	add	x0, x6, #0x8
    a47c:	97ffff13 	bl	a0c8 <__mpa_abs_sub>
/home/pwnz/devel/optee/optee_os/lib/libmpa/mpa_addsub.c:422
    a480:	f94037a1 	ldr	x1, [x29,#104]
    a484:	b9400420 	ldr	w0, [x1,#4]
    a488:	4b0003e0 	neg	w0, w0
    a48c:	b9000420 	str	w0, [x1,#4]
    a490:	17ffffe5 	b	a424 <mpa_sub+0xc4>
/home/pwnz/devel/optee/optee_os/lib/libmpa/mpa_addsub.c:400
    a494:	940000ee 	bl	a84c <__mpa_abs_greater_than>
    a498:	f94037a6 	ldr	x6, [x29,#104]
    a49c:	340000c0 	cbz	w0, a4b4 <mpa_sub+0x154>
/home/pwnz/devel/optee/optee_os/lib/libmpa/mpa_addsub.c:404
    a4a0:	2a1603e5 	mov	w5, w22
    a4a4:	aa1503e4 	mov	x4, x21
    a4a8:	2a1403e3 	mov	w3, w20
    a4ac:	aa1303e2 	mov	x2, x19
    a4b0:	17fffff1 	b	a474 <mpa_sub+0x114>
/home/pwnz/devel/optee/optee_os/lib/libmpa/mpa_addsub.c:409
    a4b4:	2a1403e5 	mov	w5, w20
    a4b8:	aa1303e4 	mov	x4, x19
    a4bc:	2a1603e3 	mov	w3, w22
    a4c0:	aa1503e2 	mov	x2, x21
    a4c4:	17ffffd5 	b	a418 <mpa_sub+0xb8>
    a4c8:	f94037a0 	ldr	x0, [x29,#104]
/home/pwnz/devel/optee/optee_os/lib/libmpa/mpa_addsub.c:416
    a4cc:	2a1603e5 	mov	w5, w22
    a4d0:	aa1503e4 	mov	x4, x21
    a4d4:	2a1403e3 	mov	w3, w20
    a4d8:	91001001 	add	x1, x0, #0x4
    a4dc:	aa1303e2 	mov	x2, x19
/home/pwnz/devel/optee/optee_os/lib/libmpa/mpa_addsub.c:414
    a4e0:	7100079f 	cmp	w28, #0x1
/home/pwnz/devel/optee/optee_os/lib/libmpa/mpa_addsub.c:416
    a4e4:	91002000 	add	x0, x0, #0x8
/home/pwnz/devel/optee/optee_os/lib/libmpa/mpa_addsub.c:414
    a4e8:	54000061 	b.ne	a4f4 <mpa_sub+0x194>
/home/pwnz/devel/optee/optee_os/lib/libmpa/mpa_addsub.c:416
    a4ec:	97fffe87 	bl	9f08 <__mpa_abs_add>
    a4f0:	17ffffcd 	b	a424 <mpa_sub+0xc4>
/home/pwnz/devel/optee/optee_os/lib/libmpa/mpa_addsub.c:420
    a4f4:	97fffe85 	bl	9f08 <__mpa_abs_add>
    a4f8:	17ffffe2 	b	a480 <mpa_sub+0x120>

000000000000a4fc <mpa_neg>:
mpa_neg():
/home/pwnz/devel/optee/optee_os/lib/libmpa/mpa_addsub.c:438
    a4fc:	a9be7bfd 	stp	x29, x30, [sp,#-32]!
    a500:	910003fd 	mov	x29, sp
    a504:	f9000bf3 	str	x19, [sp,#16]
    a508:	aa0003f3 	mov	x19, x0
/home/pwnz/devel/optee/optee_os/lib/libmpa/mpa_addsub.c:439
    a50c:	97fff50c 	bl	793c <mpa_copy>
/home/pwnz/devel/optee/optee_os/lib/libmpa/mpa_addsub.c:440
    a510:	b9400660 	ldr	w0, [x19,#4]
    a514:	4b0003e0 	neg	w0, w0
    a518:	b9000660 	str	w0, [x19,#4]
/home/pwnz/devel/optee/optee_os/lib/libmpa/mpa_addsub.c:441
    a51c:	f9400bf3 	ldr	x19, [sp,#16]
    a520:	a8c27bfd 	ldp	x29, x30, [sp],#32
    a524:	d65f03c0 	ret

000000000000a528 <mpa_add_word>:
mpa_add_word():
/home/pwnz/devel/optee/optee_os/lib/libmpa/mpa_addsub.c:450
    a528:	a9ba7bfd 	stp	x29, x30, [sp,#-96]!
    a52c:	910003fd 	mov	x29, sp
    a530:	a90153f3 	stp	x19, x20, [sp,#16]
    a534:	a9025bf5 	stp	x21, x22, [sp,#32]
    a538:	b9004fa2 	str	w2, [x29,#76]
    a53c:	f9001bf7 	str	x23, [sp,#48]
/home/pwnz/devel/optee/optee_os/lib/libmpa/mpa_addsub.c:456
    a540:	350000e2 	cbnz	w2, a55c <mpa_add_word+0x34>
/home/pwnz/devel/optee/optee_os/lib/libmpa/mpa_addsub.c:457
    a544:	97fff4fe 	bl	793c <mpa_copy>
/home/pwnz/devel/optee/optee_os/lib/libmpa/mpa_addsub.c:500
    a548:	a94153f3 	ldp	x19, x20, [sp,#16]
    a54c:	a9425bf5 	ldp	x21, x22, [sp,#32]
    a550:	f9401bf7 	ldr	x23, [sp,#48]
    a554:	a8c67bfd 	ldp	x29, x30, [sp],#96
    a558:	d65f03c0 	ret
    a55c:	aa0303f6 	mov	x22, x3
/home/pwnz/devel/optee/optee_os/lib/libmpa/mpa_addsub.c:461
    a560:	b9400423 	ldr	w3, [x1,#4]
    a564:	aa0003f5 	mov	x21, x0
    a568:	aa0103f4 	mov	x20, x1
    a56c:	35000083 	cbnz	w3, a57c <mpa_add_word+0x54>
/home/pwnz/devel/optee/optee_os/lib/libmpa/mpa_addsub.c:462
    a570:	52800020 	mov	w0, #0x1                   	// #1
/home/pwnz/devel/optee/optee_os/lib/libmpa/mpa_addsub.c:463
    a574:	29008aa0 	stp	w0, w2, [x21,#4]
/home/pwnz/devel/optee/optee_os/lib/libmpa/mpa_addsub.c:464
    a578:	17fffff4 	b	a548 <mpa_add_word+0x20>
/home/pwnz/devel/optee/optee_os/lib/libmpa/mpa_addsub.c:467
    a57c:	12800017 	mov	w23, #0xffffffff            	// #-1
    a580:	6b17007f 	cmp	w3, w23
    a584:	5a97d6f7 	cneg	w23, w23, gt
/home/pwnz/devel/optee/optee_os/lib/libmpa/mpa_addsub.c:468
    a588:	7100007f 	cmp	w3, #0x0
    a58c:	5a83a473 	cneg	w19, w3, lt
/home/pwnz/devel/optee/optee_os/lib/libmpa/mpa_addsub.c:472
    a590:	eb00003f 	cmp	x1, x0
    a594:	540002e1 	b.ne	a5f0 <mpa_add_word+0xc8>
/home/pwnz/devel/optee/optee_os/lib/libmpa/mpa_addsub.c:473
    a598:	aa1603e1 	mov	x1, x22
    a59c:	910163a0 	add	x0, x29, #0x58
    a5a0:	97fffbf9 	bl	9584 <mpa_alloc_static_temp_var>
/home/pwnz/devel/optee/optee_os/lib/libmpa/mpa_addsub.c:478
    a5a4:	710006ff 	cmp	w23, #0x1
    a5a8:	f9402fa0 	ldr	x0, [x29,#88]
    a5ac:	54000261 	b.ne	a5f8 <mpa_add_word+0xd0>
/home/pwnz/devel/optee/optee_os/lib/libmpa/mpa_addsub.c:480
    a5b0:	91001001 	add	x1, x0, #0x4
    a5b4:	2a1703e5 	mov	w5, w23
    a5b8:	910133a4 	add	x4, x29, #0x4c
    a5bc:	2a1303e3 	mov	w3, w19
    a5c0:	91002282 	add	x2, x20, #0x8
    a5c4:	91002000 	add	x0, x0, #0x8
    a5c8:	97fffe50 	bl	9f08 <__mpa_abs_add>
/home/pwnz/devel/optee/optee_os/lib/libmpa/mpa_addsub.c:497
    a5cc:	f9402fa1 	ldr	x1, [x29,#88]
    a5d0:	aa1503e0 	mov	x0, x21
    a5d4:	97fff4da 	bl	793c <mpa_copy>
/home/pwnz/devel/optee/optee_os/lib/libmpa/mpa_addsub.c:498
    a5d8:	eb15029f 	cmp	x20, x21
    a5dc:	54fffb61 	b.ne	a548 <mpa_add_word+0x20>
/home/pwnz/devel/optee/optee_os/lib/libmpa/mpa_addsub.c:499
    a5e0:	aa1603e1 	mov	x1, x22
    a5e4:	910163a0 	add	x0, x29, #0x58
    a5e8:	97fffbeb 	bl	9594 <mpa_free_static_temp_var>
    a5ec:	17ffffd7 	b	a548 <mpa_add_word+0x20>
/home/pwnz/devel/optee/optee_os/lib/libmpa/mpa_addsub.c:475
    a5f0:	f9002fa0 	str	x0, [x29,#88]
    a5f4:	17ffffec 	b	a5a4 <mpa_add_word+0x7c>
/home/pwnz/devel/optee/optee_os/lib/libmpa/mpa_addsub.c:483
    a5f8:	b9400681 	ldr	w1, [x20,#4]
    a5fc:	7100003f 	cmp	w1, #0x0
    a600:	5a81a421 	cneg	w1, w1, lt
    a604:	7100043f 	cmp	w1, #0x1
    a608:	540000ac 	b.gt	a61c <mpa_add_word+0xf4>
/home/pwnz/devel/optee/optee_os/lib/libmpa/mpa_addsub.c:483 (discriminator 1)
    a60c:	b9400a82 	ldr	w2, [x20,#8]
    a610:	b9404fa1 	ldr	w1, [x29,#76]
    a614:	6b01005f 	cmp	w2, w1
    a618:	540001a9 	b.ls	a64c <mpa_add_word+0x124>
/home/pwnz/devel/optee/optee_os/lib/libmpa/mpa_addsub.c:487
    a61c:	91001001 	add	x1, x0, #0x4
    a620:	52800025 	mov	w5, #0x1                   	// #1
    a624:	91002000 	add	x0, x0, #0x8
    a628:	910133a4 	add	x4, x29, #0x4c
    a62c:	2a1303e3 	mov	w3, w19
    a630:	91002282 	add	x2, x20, #0x8
    a634:	97fffea5 	bl	a0c8 <__mpa_abs_sub>
/home/pwnz/devel/optee/optee_os/lib/libmpa/mpa_addsub.c:489
    a638:	f9402fa1 	ldr	x1, [x29,#88]
    a63c:	b9400420 	ldr	w0, [x1,#4]
    a640:	4b0003e0 	neg	w0, w0
    a644:	b9000420 	str	w0, [x1,#4]
    a648:	17ffffe1 	b	a5cc <mpa_add_word+0xa4>
/home/pwnz/devel/optee/optee_os/lib/libmpa/mpa_addsub.c:492
    a64c:	4b020021 	sub	w1, w1, w2
    a650:	b9000801 	str	w1, [x0,#8]
/home/pwnz/devel/optee/optee_os/lib/libmpa/mpa_addsub.c:493
    a654:	7100003f 	cmp	w1, #0x0
    a658:	1a9f07e1 	cset	w1, ne
    a65c:	b9000401 	str	w1, [x0,#4]
    a660:	17ffffdb 	b	a5cc <mpa_add_word+0xa4>

000000000000a664 <mpa_sub_word>:
mpa_sub_word():
/home/pwnz/devel/optee/optee_os/lib/libmpa/mpa_addsub.c:509
    a664:	a9ba7bfd 	stp	x29, x30, [sp,#-96]!
    a668:	910003fd 	mov	x29, sp
    a66c:	a90153f3 	stp	x19, x20, [sp,#16]
    a670:	a9025bf5 	stp	x21, x22, [sp,#32]
    a674:	b9004fa2 	str	w2, [x29,#76]
    a678:	f9001bf7 	str	x23, [sp,#48]
/home/pwnz/devel/optee/optee_os/lib/libmpa/mpa_addsub.c:515
    a67c:	350000e2 	cbnz	w2, a698 <mpa_sub_word+0x34>
/home/pwnz/devel/optee/optee_os/lib/libmpa/mpa_addsub.c:516
    a680:	97fff4af 	bl	793c <mpa_copy>
/home/pwnz/devel/optee/optee_os/lib/libmpa/mpa_addsub.c:561
    a684:	a94153f3 	ldp	x19, x20, [sp,#16]
    a688:	a9425bf5 	ldp	x21, x22, [sp,#32]
    a68c:	f9401bf7 	ldr	x23, [sp,#48]
    a690:	a8c67bfd 	ldp	x29, x30, [sp],#96
    a694:	d65f03c0 	ret
    a698:	aa0303f6 	mov	x22, x3
/home/pwnz/devel/optee/optee_os/lib/libmpa/mpa_addsub.c:520
    a69c:	b9400423 	ldr	w3, [x1,#4]
    a6a0:	aa0003f5 	mov	x21, x0
    a6a4:	aa0103f4 	mov	x20, x1
/home/pwnz/devel/optee/optee_os/lib/libmpa/mpa_addsub.c:521
    a6a8:	12800000 	mov	w0, #0xffffffff            	// #-1
/home/pwnz/devel/optee/optee_os/lib/libmpa/mpa_addsub.c:520
    a6ac:	35000063 	cbnz	w3, a6b8 <mpa_sub_word+0x54>
/home/pwnz/devel/optee/optee_os/lib/libmpa/mpa_addsub.c:522
    a6b0:	29008aa0 	stp	w0, w2, [x21,#4]
/home/pwnz/devel/optee/optee_os/lib/libmpa/mpa_addsub.c:523
    a6b4:	17fffff4 	b	a684 <mpa_sub_word+0x20>
/home/pwnz/devel/optee/optee_os/lib/libmpa/mpa_addsub.c:526
    a6b8:	6b00007f 	cmp	w3, w0
    a6bc:	5a80d417 	cneg	w23, w0, gt
/home/pwnz/devel/optee/optee_os/lib/libmpa/mpa_addsub.c:527
    a6c0:	7100007f 	cmp	w3, #0x0
    a6c4:	5a83a473 	cneg	w19, w3, lt
/home/pwnz/devel/optee/optee_os/lib/libmpa/mpa_addsub.c:531
    a6c8:	eb15003f 	cmp	x1, x21
    a6cc:	54000401 	b.ne	a74c <mpa_sub_word+0xe8>
/home/pwnz/devel/optee/optee_os/lib/libmpa/mpa_addsub.c:532
    a6d0:	aa1603e1 	mov	x1, x22
    a6d4:	910163a0 	add	x0, x29, #0x58
    a6d8:	97fffbab 	bl	9584 <mpa_alloc_static_temp_var>
/home/pwnz/devel/optee/optee_os/lib/libmpa/mpa_addsub.c:544
    a6dc:	710006ff 	cmp	w23, #0x1
    a6e0:	f9402fa0 	ldr	x0, [x29,#88]
    a6e4:	54000441 	b.ne	a76c <mpa_sub_word+0x108>
/home/pwnz/devel/optee/optee_os/lib/libmpa/mpa_addsub.c:545
    a6e8:	b9400681 	ldr	w1, [x20,#4]
    a6ec:	7100003f 	cmp	w1, #0x0
    a6f0:	5a81a421 	cneg	w1, w1, lt
    a6f4:	7100043f 	cmp	w1, #0x1
    a6f8:	540000ac 	b.gt	a70c <mpa_sub_word+0xa8>
/home/pwnz/devel/optee/optee_os/lib/libmpa/mpa_addsub.c:545 (discriminator 1)
    a6fc:	b9400a82 	ldr	w2, [x20,#8]
    a700:	b9404fa1 	ldr	w1, [x29,#76]
    a704:	6b01005f 	cmp	w2, w1
    a708:	54000269 	b.ls	a754 <mpa_sub_word+0xf0>
/home/pwnz/devel/optee/optee_os/lib/libmpa/mpa_addsub.c:546
    a70c:	91001001 	add	x1, x0, #0x4
    a710:	52800025 	mov	w5, #0x1                   	// #1
    a714:	910133a4 	add	x4, x29, #0x4c
    a718:	2a1303e3 	mov	w3, w19
    a71c:	91002282 	add	x2, x20, #0x8
    a720:	91002000 	add	x0, x0, #0x8
    a724:	97fffe69 	bl	a0c8 <__mpa_abs_sub>
/home/pwnz/devel/optee/optee_os/lib/libmpa/mpa_addsub.c:558
    a728:	f9402fa1 	ldr	x1, [x29,#88]
    a72c:	aa1503e0 	mov	x0, x21
    a730:	97fff483 	bl	793c <mpa_copy>
/home/pwnz/devel/optee/optee_os/lib/libmpa/mpa_addsub.c:559
    a734:	eb15029f 	cmp	x20, x21
    a738:	54fffa61 	b.ne	a684 <mpa_sub_word+0x20>
/home/pwnz/devel/optee/optee_os/lib/libmpa/mpa_addsub.c:560
    a73c:	aa1603e1 	mov	x1, x22
    a740:	910163a0 	add	x0, x29, #0x58
    a744:	97fffb94 	bl	9594 <mpa_free_static_temp_var>
    a748:	17ffffcf 	b	a684 <mpa_sub_word+0x20>
/home/pwnz/devel/optee/optee_os/lib/libmpa/mpa_addsub.c:534
    a74c:	f9002fb5 	str	x21, [x29,#88]
    a750:	17ffffe3 	b	a6dc <mpa_sub_word+0x78>
/home/pwnz/devel/optee/optee_os/lib/libmpa/mpa_addsub.c:549
    a754:	4b020021 	sub	w1, w1, w2
    a758:	b9000801 	str	w1, [x0,#8]
/home/pwnz/devel/optee/optee_os/lib/libmpa/mpa_addsub.c:550
    a75c:	7100003f 	cmp	w1, #0x0
    a760:	5a9f03e1 	csetm	w1, ne
    a764:	b9000401 	str	w1, [x0,#4]
    a768:	17fffff0 	b	a728 <mpa_sub_word+0xc4>
/home/pwnz/devel/optee/optee_os/lib/libmpa/mpa_addsub.c:553
    a76c:	91001001 	add	x1, x0, #0x4
    a770:	52800025 	mov	w5, #0x1                   	// #1
    a774:	91002000 	add	x0, x0, #0x8
    a778:	910133a4 	add	x4, x29, #0x4c
    a77c:	2a1303e3 	mov	w3, w19
    a780:	91002282 	add	x2, x20, #0x8
    a784:	97fffde1 	bl	9f08 <__mpa_abs_add>
/home/pwnz/devel/optee/optee_os/lib/libmpa/mpa_addsub.c:555
    a788:	f9402fa1 	ldr	x1, [x29,#88]
    a78c:	b9400420 	ldr	w0, [x1,#4]
    a790:	4b0003e0 	neg	w0, w0
    a794:	b9000420 	str	w0, [x1,#4]
    a798:	17ffffe4 	b	a728 <mpa_sub_word+0xc4>

000000000000a79c <__mpa_abs_cmp>:
__mpa_abs_cmp():
/home/pwnz/devel/optee/optee_os/lib/libmpa/mpa_cmp.c:43
    a79c:	aa0003e4 	mov	x4, x0
/home/pwnz/devel/optee/optee_os/lib/libmpa/mpa_cmp.c:48
    a7a0:	eb01001f 	cmp	x0, x1
    a7a4:	54000500 	b.eq	a844 <__mpa_abs_cmp+0xa8>
/home/pwnz/devel/optee/optee_os/lib/libmpa/mpa_cmp.c:52
    a7a8:	b9400482 	ldr	w2, [x4,#4]
    a7ac:	b9400420 	ldr	w0, [x1,#4]
    a7b0:	7100005f 	cmp	w2, #0x0
    a7b4:	5a82a443 	cneg	w3, w2, lt
    a7b8:	7100001f 	cmp	w0, #0x0
    a7bc:	5a80a405 	cneg	w5, w0, lt
    a7c0:	6b05007f 	cmp	w3, w5
    a7c4:	54000060 	b.eq	a7d0 <__mpa_abs_cmp+0x34>
/home/pwnz/devel/optee/optee_os/lib/libmpa/mpa_cmp.c:53
    a7c8:	4b050060 	sub	w0, w3, w5
    a7cc:	d65f03c0 	ret
/home/pwnz/devel/optee/optee_os/lib/libmpa/mpa_cmp.c:55 (discriminator 1)
    a7d0:	2a000040 	orr	w0, w2, w0
    a7d4:	340003a0 	cbz	w0, a848 <__mpa_abs_cmp+0xac>
/home/pwnz/devel/optee/optee_os/lib/libmpa/mpa_cmp.c:59
    a7d8:	51000462 	sub	w2, w3, #0x1
/home/pwnz/devel/optee/optee_os/lib/libmpa/mpa_cmp.c:60
    a7dc:	52800025 	mov	w5, #0x1                   	// #1
    a7e0:	93407c43 	sxtw	x3, w2
    a7e4:	91000863 	add	x3, x3, #0x2
    a7e8:	d37ef463 	lsl	x3, x3, #2
/home/pwnz/devel/optee/optee_os/lib/libmpa/mpa_cmp.c:61
    a7ec:	2a2203e0 	mvn	w0, w2
    a7f0:	6a407cbf 	tst	w5, w0, lsr #31
    a7f4:	540001a1 	b.ne	a828 <__mpa_abs_cmp+0x8c>
/home/pwnz/devel/optee/optee_os/lib/libmpa/mpa_cmp.c:49
    a7f8:	52800000 	mov	w0, #0x0                   	// #0
/home/pwnz/devel/optee/optee_os/lib/libmpa/mpa_cmp.c:65
    a7fc:	35000265 	cbnz	w5, a848 <__mpa_abs_cmp+0xac>
/home/pwnz/devel/optee/optee_os/lib/libmpa/mpa_cmp.c:67
    a800:	11000442 	add	w2, w2, #0x1
/home/pwnz/devel/optee/optee_os/lib/libmpa/mpa_cmp.c:68
    a804:	12800000 	mov	w0, #0xffffffff            	// #-1
    a808:	937e7c42 	sbfiz	x2, x2, #2, #32
    a80c:	8b020084 	add	x4, x4, x2
    a810:	8b020022 	add	x2, x1, x2
    a814:	b9400883 	ldr	w3, [x4,#8]
    a818:	b9400841 	ldr	w1, [x2,#8]
    a81c:	6b01007f 	cmp	w3, w1
    a820:	5a809400 	cneg	w0, w0, hi
    a824:	d65f03c0 	ret
/home/pwnz/devel/optee/optee_os/lib/libmpa/mpa_cmp.c:62
    a828:	b8636885 	ldr	w5, [x4,x3]
/home/pwnz/devel/optee/optee_os/lib/libmpa/mpa_cmp.c:63
    a82c:	51000442 	sub	w2, w2, #0x1
/home/pwnz/devel/optee/optee_os/lib/libmpa/mpa_cmp.c:62
    a830:	b8636820 	ldr	w0, [x1,x3]
    a834:	d1001063 	sub	x3, x3, #0x4
    a838:	6b0000bf 	cmp	w5, w0
    a83c:	1a9f17e5 	cset	w5, eq
    a840:	17ffffeb 	b	a7ec <__mpa_abs_cmp+0x50>
/home/pwnz/devel/optee/optee_os/lib/libmpa/mpa_cmp.c:49
    a844:	52800000 	mov	w0, #0x0                   	// #0
/home/pwnz/devel/optee/optee_os/lib/libmpa/mpa_cmp.c:69
    a848:	d65f03c0 	ret

000000000000a84c <__mpa_abs_greater_than>:
__mpa_abs_greater_than():
/home/pwnz/devel/optee/optee_os/lib/libmpa/mpa_cmp.c:77
    a84c:	a9bf7bfd 	stp	x29, x30, [sp,#-16]!
    a850:	910003fd 	mov	x29, sp
/home/pwnz/devel/optee/optee_os/lib/libmpa/mpa_cmp.c:78
    a854:	97ffffd2 	bl	a79c <__mpa_abs_cmp>
    a858:	7100001f 	cmp	w0, #0x0
/home/pwnz/devel/optee/optee_os/lib/libmpa/mpa_cmp.c:79
    a85c:	1a9fd7e0 	cset	w0, gt
    a860:	a8c17bfd 	ldp	x29, x30, [sp],#16
    a864:	d65f03c0 	ret

000000000000a868 <__mpa_abs_less_than>:
__mpa_abs_less_than():
/home/pwnz/devel/optee/optee_os/lib/libmpa/mpa_cmp.c:87
    a868:	a9bf7bfd 	stp	x29, x30, [sp,#-16]!
    a86c:	910003fd 	mov	x29, sp
/home/pwnz/devel/optee/optee_os/lib/libmpa/mpa_cmp.c:88
    a870:	97ffffcb 	bl	a79c <__mpa_abs_cmp>
/home/pwnz/devel/optee/optee_os/lib/libmpa/mpa_cmp.c:89
    a874:	531f7c00 	lsr	w0, w0, #31
    a878:	a8c17bfd 	ldp	x29, x30, [sp],#16
    a87c:	d65f03c0 	ret

000000000000a880 <mpa_cmp>:
mpa_cmp():
/home/pwnz/devel/optee/optee_os/lib/libmpa/mpa_cmp.c:105
    a880:	a9be7bfd 	stp	x29, x30, [sp,#-32]!
/home/pwnz/devel/optee/optee_os/lib/libmpa/mpa_cmp.c:110
    a884:	12800002 	mov	w2, #0xffffffff            	// #-1
/home/pwnz/devel/optee/optee_os/lib/libmpa/mpa_cmp.c:105
    a888:	910003fd 	mov	x29, sp
/home/pwnz/devel/optee/optee_os/lib/libmpa/mpa_cmp.c:110
    a88c:	b9400404 	ldr	w4, [x0,#4]
/home/pwnz/devel/optee/optee_os/lib/libmpa/mpa_cmp.c:111
    a890:	b9400423 	ldr	w3, [x1,#4]
/home/pwnz/devel/optee/optee_os/lib/libmpa/mpa_cmp.c:110
    a894:	6b02009f 	cmp	w4, w2
/home/pwnz/devel/optee/optee_os/lib/libmpa/mpa_cmp.c:105
    a898:	f9000bf3 	str	x19, [sp,#16]
/home/pwnz/devel/optee/optee_os/lib/libmpa/mpa_cmp.c:110
    a89c:	5a82d453 	cneg	w19, w2, gt
/home/pwnz/devel/optee/optee_os/lib/libmpa/mpa_cmp.c:111
    a8a0:	6b02007f 	cmp	w3, w2
    a8a4:	5a82d442 	cneg	w2, w2, gt
    a8a8:	6b02027f 	cmp	w19, w2
    a8ac:	540000e1 	b.ne	a8c8 <mpa_cmp+0x48>
/home/pwnz/devel/optee/optee_os/lib/libmpa/mpa_cmp.c:115
    a8b0:	35000144 	cbnz	w4, a8d8 <mpa_cmp+0x58>
/home/pwnz/devel/optee/optee_os/lib/libmpa/mpa_cmp.c:116
    a8b4:	52800013 	mov	w19, #0x0                   	// #0
    a8b8:	34000083 	cbz	w3, a8c8 <mpa_cmp+0x48>
/home/pwnz/devel/optee/optee_os/lib/libmpa/mpa_cmp.c:116 (discriminator 1)
    a8bc:	3100047f 	cmn	w3, #0x1
    a8c0:	52800026 	mov	w6, #0x1                   	// #1
    a8c4:	5a86d4d3 	cneg	w19, w6, gt
/home/pwnz/devel/optee/optee_os/lib/libmpa/mpa_cmp.c:126
    a8c8:	2a1303e0 	mov	w0, w19
    a8cc:	f9400bf3 	ldr	x19, [sp,#16]
    a8d0:	a8c27bfd 	ldp	x29, x30, [sp],#32
    a8d4:	d65f03c0 	ret
/home/pwnz/devel/optee/optee_os/lib/libmpa/mpa_cmp.c:122
    a8d8:	97ffffb1 	bl	a79c <__mpa_abs_cmp>
/home/pwnz/devel/optee/optee_os/lib/libmpa/mpa_cmp.c:124
    a8dc:	7100067f 	cmp	w19, #0x1
    a8e0:	5a800413 	cneg	w19, w0, ne
    a8e4:	17fffff9 	b	a8c8 <mpa_cmp+0x48>

000000000000a8e8 <mpa_cmp_short>:
mpa_cmp_short():
/home/pwnz/devel/optee/optee_os/lib/libmpa/mpa_cmp.c:144
    a8e8:	b9400403 	ldr	w3, [x0,#4]
/home/pwnz/devel/optee/optee_os/lib/libmpa/mpa_cmp.c:137
    a8ec:	aa0003e4 	mov	x4, x0
/home/pwnz/devel/optee/optee_os/lib/libmpa/mpa_cmp.c:144
    a8f0:	37f80343 	tbnz	w3, #31, a958 <mpa_cmp_short+0x70>
/home/pwnz/devel/optee/optee_os/lib/libmpa/mpa_cmp.c:145 (discriminator 4)
    a8f4:	37f802a1 	tbnz	w1, #31, a948 <mpa_cmp_short+0x60>
/home/pwnz/devel/optee/optee_os/lib/libmpa/mpa_cmp.c:148 (discriminator 4)
    a8f8:	350000c3 	cbnz	w3, a910 <mpa_cmp_short+0x28>
/home/pwnz/devel/optee/optee_os/lib/libmpa/mpa_cmp.c:149
    a8fc:	52800000 	mov	w0, #0x0                   	// #0
    a900:	34000341 	cbz	w1, a968 <mpa_cmp_short+0x80>
/home/pwnz/devel/optee/optee_os/lib/libmpa/mpa_cmp.c:145
    a904:	52800022 	mov	w2, #0x1                   	// #1
/home/pwnz/devel/optee/optee_os/lib/libmpa/mpa_cmp.c:149 (discriminator 1)
    a908:	4b0203e0 	neg	w0, w2
    a90c:	d65f03c0 	ret
/home/pwnz/devel/optee/optee_os/lib/libmpa/mpa_cmp.c:144
    a910:	52800020 	mov	w0, #0x1                   	// #1
/home/pwnz/devel/optee/optee_os/lib/libmpa/mpa_cmp.c:145
    a914:	52800022 	mov	w2, #0x1                   	// #1
/home/pwnz/devel/optee/optee_os/lib/libmpa/mpa_cmp.c:152
    a918:	7100007f 	cmp	w3, #0x0
    a91c:	5a83a463 	cneg	w3, w3, lt
/home/pwnz/devel/optee/optee_os/lib/libmpa/mpa_cmp.c:156
    a920:	7100047f 	cmp	w3, #0x1
    a924:	7a420000 	ccmp	w0, w2, #0x0, eq
    a928:	54000201 	b.ne	a968 <mpa_cmp_short+0x80>
/home/pwnz/devel/optee/optee_os/lib/libmpa/mpa_cmp.c:161
    a92c:	7100003f 	cmp	w1, #0x0
/home/pwnz/devel/optee/optee_os/lib/libmpa/mpa_cmp.c:163
    a930:	b9400882 	ldr	w2, [x4,#8]
/home/pwnz/devel/optee/optee_os/lib/libmpa/mpa_cmp.c:161
    a934:	5a81a421 	cneg	w1, w1, lt
/home/pwnz/devel/optee/optee_os/lib/libmpa/mpa_cmp.c:163
    a938:	6b02003f 	cmp	w1, w2
/home/pwnz/devel/optee/optee_os/lib/libmpa/mpa_cmp.c:166
    a93c:	5a803400 	cneg	w0, w0, cs
    a940:	1a9f1000 	csel	w0, w0, wzr, ne
    a944:	d65f03c0 	ret
/home/pwnz/devel/optee/optee_os/lib/libmpa/mpa_cmp.c:145
    a948:	12800002 	mov	w2, #0xffffffff            	// #-1
/home/pwnz/devel/optee/optee_os/lib/libmpa/mpa_cmp.c:144
    a94c:	52800020 	mov	w0, #0x1                   	// #1
/home/pwnz/devel/optee/optee_os/lib/libmpa/mpa_cmp.c:148
    a950:	34fffdc3 	cbz	w3, a908 <mpa_cmp_short+0x20>
    a954:	17fffff1 	b	a918 <mpa_cmp_short+0x30>
/home/pwnz/devel/optee/optee_os/lib/libmpa/mpa_cmp.c:144
    a958:	12800000 	mov	w0, #0xffffffff            	// #-1
/home/pwnz/devel/optee/optee_os/lib/libmpa/mpa_cmp.c:145
    a95c:	2a0003e2 	mov	w2, w0
    a960:	36fffda1 	tbz	w1, #31, a914 <mpa_cmp_short+0x2c>
    a964:	17ffffed 	b	a918 <mpa_cmp_short+0x30>
/home/pwnz/devel/optee/optee_os/lib/libmpa/mpa_cmp.c:171
    a968:	d65f03c0 	ret

000000000000a96c <mpa_exp_mod>:
mpa_exp_mod():
/home/pwnz/devel/optee/optee_os/lib/libmpa/mpa_expmod.c:51
    a96c:	a9b67bfd 	stp	x29, x30, [sp,#-160]!
    a970:	910003fd 	mov	x29, sp
    a974:	a90573fb 	stp	x27, x28, [sp,#80]
/home/pwnz/devel/optee/optee_os/lib/libmpa/mpa_expmod.c:62
    a978:	910203bc 	add	x28, x29, #0x80
/home/pwnz/devel/optee/optee_os/lib/libmpa/mpa_expmod.c:51
    a97c:	a90153f3 	stp	x19, x20, [sp,#16]
/home/pwnz/devel/optee/optee_os/lib/libmpa/mpa_expmod.c:63
    a980:	910223bb 	add	x27, x29, #0x88
/home/pwnz/devel/optee/optee_os/lib/libmpa/mpa_expmod.c:51
    a984:	aa0703f3 	mov	x19, x7
    a988:	aa0403f4 	mov	x20, x4
    a98c:	a9060ba0 	stp	x0, x2, [x29,#96]
/home/pwnz/devel/optee/optee_os/lib/libmpa/mpa_expmod.c:62
    a990:	aa1c03e0 	mov	x0, x28
/home/pwnz/devel/optee/optee_os/lib/libmpa/mpa_expmod.c:51
    a994:	a9025bf5 	stp	x21, x22, [sp,#32]
    a998:	2a0603f6 	mov	w22, w6
    a99c:	aa0303f5 	mov	x21, x3
    a9a0:	a90363f7 	stp	x23, x24, [sp,#48]
    a9a4:	a9046bf9 	stp	x25, x26, [sp,#64]
    a9a8:	aa0503f8 	mov	x24, x5
    a9ac:	aa0103f7 	mov	x23, x1
/home/pwnz/devel/optee/optee_os/lib/libmpa/mpa_expmod.c:62
    a9b0:	aa0703e1 	mov	x1, x7
    a9b4:	97fffaf4 	bl	9584 <mpa_alloc_static_temp_var>
/home/pwnz/devel/optee/optee_os/lib/libmpa/mpa_expmod.c:75
    a9b8:	aa1c03fa 	mov	x26, x28
/home/pwnz/devel/optee/optee_os/lib/libmpa/mpa_expmod.c:63
    a9bc:	aa1303e1 	mov	x1, x19
    a9c0:	aa1b03e0 	mov	x0, x27
    a9c4:	97fffaf0 	bl	9584 <mpa_alloc_static_temp_var>
/home/pwnz/devel/optee/optee_os/lib/libmpa/mpa_expmod.c:64
    a9c8:	910243a0 	add	x0, x29, #0x90
    a9cc:	aa1303e1 	mov	x1, x19
    a9d0:	f9003fa0 	str	x0, [x29,#120]
    a9d4:	97fffaec 	bl	9584 <mpa_alloc_static_temp_var>
/home/pwnz/devel/optee/optee_os/lib/libmpa/mpa_expmod.c:65
    a9d8:	910263a0 	add	x0, x29, #0x98
    a9dc:	aa1303e1 	mov	x1, x19
    a9e0:	f9003ba0 	str	x0, [x29,#112]
    a9e4:	97fffae8 	bl	9584 <mpa_alloc_static_temp_var>
/home/pwnz/devel/optee/optee_os/lib/libmpa/mpa_expmod.c:71
    a9e8:	f9404ba0 	ldr	x0, [x29,#144]
    a9ec:	aa1803e2 	mov	x2, x24
    a9f0:	2a1603e4 	mov	w4, w22
    a9f4:	aa1503e3 	mov	x3, x21
    a9f8:	aa1703e1 	mov	x1, x23
    a9fc:	97fff462 	bl	7b84 <__mpa_montgomery_mul>
/home/pwnz/devel/optee/optee_os/lib/libmpa/mpa_expmod.c:73
    aa00:	f94043a0 	ldr	x0, [x29,#128]
    aa04:	aa1403e1 	mov	x1, x20
/home/pwnz/devel/optee/optee_os/lib/libmpa/mpa_expmod.c:76
    aa08:	aa1b03f4 	mov	x20, x27
/home/pwnz/devel/optee/optee_os/lib/libmpa/mpa_expmod.c:73
    aa0c:	97fff3cc 	bl	793c <mpa_copy>
/home/pwnz/devel/optee/optee_os/lib/libmpa/mpa_expmod.c:80
    aa10:	f94043a0 	ldr	x0, [x29,#128]
    aa14:	97fff3b5 	bl	78e8 <__mpa_set_unused_digits_to_zero>
/home/pwnz/devel/optee/optee_os/lib/libmpa/mpa_expmod.c:81
    aa18:	f9404ba0 	ldr	x0, [x29,#144]
    aa1c:	97fff3b3 	bl	78e8 <__mpa_set_unused_digits_to_zero>
/home/pwnz/devel/optee/optee_os/lib/libmpa/mpa_expmod.c:83
    aa20:	f94037a0 	ldr	x0, [x29,#104]
    aa24:	97fff3e7 	bl	79c0 <mpa_highest_bit_index>
    aa28:	2a0003f8 	mov	w24, w0
/home/pwnz/devel/optee/optee_os/lib/libmpa/mpa_expmod.c:77
    aa2c:	a9475fb9 	ldp	x25, x23, [x29,#112]
/home/pwnz/devel/optee/optee_os/lib/libmpa/mpa_expmod.c:83 (discriminator 1)
    aa30:	36f803d8 	tbz	w24, #31, aaa8 <mpa_exp_mod+0x13c>
/home/pwnz/devel/optee/optee_os/lib/libmpa/mpa_expmod.c:111
    aa34:	f0000001 	adrp	x1, d000 <__func__.3637+0xa28>
    aa38:	f9400342 	ldr	x2, [x26]
    aa3c:	f9400280 	ldr	x0, [x20]
    aa40:	2a1603e4 	mov	w4, w22
    aa44:	f9430021 	ldr	x1, [x1,#1536]
    aa48:	aa1503e3 	mov	x3, x21
    aa4c:	97fff44e 	bl	7b84 <__mpa_montgomery_mul>
/home/pwnz/devel/optee/optee_os/lib/libmpa/mpa_expmod.c:114
    aa50:	f9400281 	ldr	x1, [x20]
    aa54:	f94033a0 	ldr	x0, [x29,#96]
    aa58:	97fff3b9 	bl	793c <mpa_copy>
/home/pwnz/devel/optee/optee_os/lib/libmpa/mpa_expmod.c:116
    aa5c:	aa1303e1 	mov	x1, x19
    aa60:	aa1c03e0 	mov	x0, x28
    aa64:	97fffacc 	bl	9594 <mpa_free_static_temp_var>
/home/pwnz/devel/optee/optee_os/lib/libmpa/mpa_expmod.c:117
    aa68:	aa1303e1 	mov	x1, x19
    aa6c:	aa1b03e0 	mov	x0, x27
    aa70:	97fffac9 	bl	9594 <mpa_free_static_temp_var>
/home/pwnz/devel/optee/optee_os/lib/libmpa/mpa_expmod.c:118
    aa74:	f9403fa0 	ldr	x0, [x29,#120]
    aa78:	aa1303e1 	mov	x1, x19
    aa7c:	97fffac6 	bl	9594 <mpa_free_static_temp_var>
/home/pwnz/devel/optee/optee_os/lib/libmpa/mpa_expmod.c:119
    aa80:	f9403ba0 	ldr	x0, [x29,#112]
    aa84:	aa1303e1 	mov	x1, x19
    aa88:	97fffac3 	bl	9594 <mpa_free_static_temp_var>
/home/pwnz/devel/optee/optee_os/lib/libmpa/mpa_expmod.c:120
    aa8c:	a94153f3 	ldp	x19, x20, [sp,#16]
    aa90:	a9425bf5 	ldp	x21, x22, [sp,#32]
    aa94:	a94363f7 	ldp	x23, x24, [sp,#48]
    aa98:	a9446bf9 	ldp	x25, x26, [sp,#64]
    aa9c:	a94573fb 	ldp	x27, x28, [sp,#80]
    aaa0:	a8ca7bfd 	ldp	x29, x30, [sp],#160
    aaa4:	d65f03c0 	ret
/home/pwnz/devel/optee/optee_os/lib/libmpa/mpa_expmod.c:84
    aaa8:	f94037a0 	ldr	x0, [x29,#104]
    aaac:	2a1803e1 	mov	w1, w24
    aab0:	97fff3d5 	bl	7a04 <mpa_get_bit>
/home/pwnz/devel/optee/optee_os/lib/libmpa/mpa_expmod.c:86
    aab4:	2a1603e4 	mov	w4, w22
    aab8:	aa1503e3 	mov	x3, x21
    aabc:	f94002e2 	ldr	x2, [x23]
    aac0:	f9400341 	ldr	x1, [x26]
/home/pwnz/devel/optee/optee_os/lib/libmpa/mpa_expmod.c:84
    aac4:	35000220 	cbnz	w0, ab08 <mpa_exp_mod+0x19c>
/home/pwnz/devel/optee/optee_os/lib/libmpa/mpa_expmod.c:86
    aac8:	f9400320 	ldr	x0, [x25]
    aacc:	97fff42e 	bl	7b84 <__mpa_montgomery_mul>
/home/pwnz/devel/optee/optee_os/lib/libmpa/mpa_expmod.c:90
    aad0:	f9400342 	ldr	x2, [x26]
    aad4:	2a1603e4 	mov	w4, w22
    aad8:	f9400280 	ldr	x0, [x20]
    aadc:	aa1503e3 	mov	x3, x21
    aae0:	aa0203e1 	mov	x1, x2
/home/pwnz/devel/optee/optee_os/lib/libmpa/mpa_expmod.c:98
    aae4:	97fff428 	bl	7b84 <__mpa_montgomery_mul>
/home/pwnz/devel/optee/optee_os/lib/libmpa/mpa_expmod.c:83
    aae8:	51000718 	sub	w24, w24, #0x1
    aaec:	aa1703e0 	mov	x0, x23
    aaf0:	aa1903f7 	mov	x23, x25
    aaf4:	aa0003f9 	mov	x25, x0
    aaf8:	aa1a03e0 	mov	x0, x26
    aafc:	aa1403fa 	mov	x26, x20
    ab00:	aa0003f4 	mov	x20, x0
    ab04:	17ffffcb 	b	aa30 <mpa_exp_mod+0xc4>
/home/pwnz/devel/optee/optee_os/lib/libmpa/mpa_expmod.c:94
    ab08:	f9400280 	ldr	x0, [x20]
    ab0c:	97fff41e 	bl	7b84 <__mpa_montgomery_mul>
/home/pwnz/devel/optee/optee_os/lib/libmpa/mpa_expmod.c:98
    ab10:	f94002e2 	ldr	x2, [x23]
    ab14:	2a1603e4 	mov	w4, w22
    ab18:	aa1503e3 	mov	x3, x21
    ab1c:	f9400320 	ldr	x0, [x25]
    ab20:	aa0203e1 	mov	x1, x2
    ab24:	17fffff0 	b	aae4 <mpa_exp_mod+0x178>

000000000000ab28 <mpa_init_static>:
mpa_init_static():
/home/pwnz/devel/optee/optee_os/lib/libmpa/mpa_init.c:35
    ab28:	531e7421 	lsl	w1, w1, #2
    ab2c:	51002021 	sub	w1, w1, #0x8
    ab30:	d3427c21 	ubfx	x1, x1, #2, #30
/home/pwnz/devel/optee/optee_os/lib/libmpa/mpa_init.c:36
    ab34:	29007c01 	stp	w1, wzr, [x0]
/home/pwnz/devel/optee/optee_os/lib/libmpa/mpa_init.c:37
    ab38:	b4000041 	cbz	x1, ab40 <mpa_init_static+0x18>
/home/pwnz/devel/optee/optee_os/lib/libmpa/mpa_init.c:38
    ab3c:	b900081f 	str	wzr, [x0,#8]
    ab40:	d65f03c0 	ret

000000000000ab44 <mpa_init_static_fmm_context>:
mpa_init_static_fmm_context():
/home/pwnz/devel/optee/optee_os/lib/libmpa/mpa_init.c:47
    ab44:	a9bd7bfd 	stp	x29, x30, [sp,#-48]!
    ab48:	910003fd 	mov	x29, sp
    ab4c:	a90153f3 	stp	x19, x20, [sp,#16]
/home/pwnz/devel/optee/optee_os/lib/libmpa/mpa_init.c:51
    ab50:	531e7433 	lsl	w19, w1, #2
    ab54:	51006273 	sub	w19, w19, #0x18
/home/pwnz/devel/optee/optee_os/lib/libmpa/mpa_init.c:54
    ab58:	91005014 	add	x20, x0, #0x14
/home/pwnz/devel/optee/optee_os/lib/libmpa/mpa_init.c:47
    ab5c:	f90013f5 	str	x21, [sp,#32]
/home/pwnz/devel/optee/optee_os/lib/libmpa/mpa_init.c:54
    ab60:	52800001 	mov	w1, #0x0                   	// #0
/home/pwnz/devel/optee/optee_os/lib/libmpa/mpa_init.c:51
    ab64:	d3427e73 	ubfx	x19, x19, #2, #30
/home/pwnz/devel/optee/optee_os/lib/libmpa/mpa_init.c:47
    ab68:	aa0003f5 	mov	x21, x0
/home/pwnz/devel/optee/optee_os/lib/libmpa/mpa_init.c:54
    ab6c:	d37ef662 	lsl	x2, x19, #2
    ab70:	aa1403e0 	mov	x0, x20
/home/pwnz/devel/optee/optee_os/lib/libmpa/mpa_init.c:55
    ab74:	53017e73 	lsr	w19, w19, #1
/home/pwnz/devel/optee/optee_os/lib/libmpa/mpa_init.c:54
    ab78:	97ffef7e 	bl	6970 <memset>
/home/pwnz/devel/optee/optee_os/lib/libmpa/mpa_init.c:62
    ab7c:	51000a61 	sub	w1, w19, #0x2
/home/pwnz/devel/optee/optee_os/lib/libmpa/mpa_init.c:65
    ab80:	d37e7273 	ubfiz	x19, x19, #2, #29
    ab84:	8b130280 	add	x0, x20, x19
/home/pwnz/devel/optee/optee_os/lib/libmpa/mpa_init.c:61
    ab88:	290206bf 	stp	wzr, w1, [x21,#16]
/home/pwnz/devel/optee/optee_os/lib/libmpa/mpa_init.c:65
    ab8c:	a90002b4 	stp	x20, x0, [x21]
/home/pwnz/devel/optee/optee_os/lib/libmpa/mpa_init.c:63
    ab90:	b9001abf 	str	wzr, [x21,#24]
/home/pwnz/devel/optee/optee_os/lib/libmpa/mpa_init.c:66
    ab94:	b8336a81 	str	w1, [x20,x19]
/home/pwnz/devel/optee/optee_os/lib/libmpa/mpa_init.c:69
    ab98:	f94013f5 	ldr	x21, [sp,#32]
    ab9c:	a94153f3 	ldp	x19, x20, [sp,#16]
/home/pwnz/devel/optee/optee_os/lib/libmpa/mpa_init.c:68
    aba0:	b900041f 	str	wzr, [x0,#4]
/home/pwnz/devel/optee/optee_os/lib/libmpa/mpa_init.c:69
    aba4:	a8c37bfd 	ldp	x29, x30, [sp],#48
    aba8:	d65f03c0 	ret

000000000000abac <__mpa_word_to_hexstr>:
__mpa_word_to_hexstr():
/home/pwnz/devel/optee/optee_os/lib/libmpa/mpa_io.c:129
    abac:	d28000e4 	mov	x4, #0x7                   	// #7
/home/pwnz/devel/optee/optee_os/lib/libmpa/mpa_io.c:133 (discriminator 3)
    abb0:	531e7483 	lsl	w3, w4, #2
    abb4:	1ac32423 	lsr	w3, w1, w3
    abb8:	12000c63 	and	w3, w3, #0xf
__mpa_nibble_to_char():
/home/pwnz/devel/optee/optee_os/lib/libmpa/mpa_io.c:118 (discriminator 3)
    abbc:	7100247f 	cmp	w3, #0x9
    abc0:	540000e8 	b.hi	abdc <__mpa_word_to_hexstr+0x30>
/home/pwnz/devel/optee/optee_os/lib/libmpa/mpa_io.c:119
    abc4:	1100c063 	add	w3, w3, #0x30
__mpa_word_to_hexstr():
/home/pwnz/devel/optee/optee_os/lib/libmpa/mpa_io.c:132
    abc8:	38246803 	strb	w3, [x0,x4]
    abcc:	d1000484 	sub	x4, x4, #0x1
/home/pwnz/devel/optee/optee_os/lib/libmpa/mpa_io.c:131
    abd0:	b100049f 	cmn	x4, #0x1
    abd4:	54fffee1 	b.ne	abb0 <__mpa_word_to_hexstr+0x4>
/home/pwnz/devel/optee/optee_os/lib/libmpa/mpa_io.c:135
    abd8:	d65f03c0 	ret
__mpa_nibble_to_char():
/home/pwnz/devel/optee/optee_os/lib/libmpa/mpa_io.c:120
    abdc:	1100dc65 	add	w5, w3, #0x37
    abe0:	7100005f 	cmp	w2, #0x0
    abe4:	11015c63 	add	w3, w3, #0x57
    abe8:	1a851063 	csel	w3, w3, w5, ne
    abec:	17fffff7 	b	abc8 <__mpa_word_to_hexstr+0x1c>

000000000000abf0 <__mpa_mpanum_to_hexstr>:
__mpa_mpanum_to_hexstr():
/home/pwnz/devel/optee/optee_os/lib/libmpa/mpa_io.c:151
    abf0:	b9400447 	ldr	w7, [x2,#4]
/home/pwnz/devel/optee/optee_os/lib/libmpa/mpa_io.c:152
    abf4:	710000ff 	cmp	w7, #0x0
    abf8:	540000c1 	b.ne	ac10 <__mpa_mpanum_to_hexstr+0x20>
/home/pwnz/devel/optee/optee_os/lib/libmpa/mpa_io.c:153
    abfc:	52800601 	mov	w1, #0x30                  	// #48
/home/pwnz/devel/optee/optee_os/lib/libmpa/mpa_io.c:154
    ac00:	3900041f 	strb	wzr, [x0,#1]
/home/pwnz/devel/optee/optee_os/lib/libmpa/mpa_io.c:153
    ac04:	39000001 	strb	w1, [x0]
/home/pwnz/devel/optee/optee_os/lib/libmpa/mpa_io.c:155
    ac08:	52800020 	mov	w0, #0x1                   	// #1
    ac0c:	d65f03c0 	ret
/home/pwnz/devel/optee/optee_os/lib/libmpa/mpa_io.c:143
    ac10:	a9bb7bfd 	stp	x29, x30, [sp,#-80]!
    ac14:	910003fd 	mov	x29, sp
    ac18:	a9025bf5 	stp	x21, x22, [sp,#32]
/home/pwnz/devel/optee/optee_os/lib/libmpa/mpa_io.c:151
    ac1c:	5a87a4f6 	cneg	w22, w7, lt
    ac20:	aa0003f5 	mov	x21, x0
/home/pwnz/devel/optee/optee_os/lib/libmpa/mpa_io.c:157
    ac24:	510006c0 	sub	w0, w22, #0x1
/home/pwnz/devel/optee/optee_os/lib/libmpa/mpa_io.c:163
    ac28:	8b20c840 	add	x0, x2, w0, sxtw #2
/home/pwnz/devel/optee/optee_os/lib/libmpa/mpa_io.c:143
    ac2c:	a90363f7 	stp	x23, x24, [sp,#48]
    ac30:	aa0203f8 	mov	x24, x2
    ac34:	2a0103f7 	mov	w23, w1
/home/pwnz/devel/optee/optee_os/lib/libmpa/mpa_io.c:163
    ac38:	2a0103e2 	mov	w2, w1
/home/pwnz/devel/optee/optee_os/lib/libmpa/mpa_io.c:143
    ac3c:	a90153f3 	stp	x19, x20, [sp,#16]
/home/pwnz/devel/optee/optee_os/lib/libmpa/mpa_io.c:163
    ac40:	b9400801 	ldr	w1, [x0,#8]
    ac44:	910123b4 	add	x20, x29, #0x48
    ac48:	aa1403e0 	mov	x0, x20
    ac4c:	97ffffd8 	bl	abac <__mpa_word_to_hexstr>
/home/pwnz/devel/optee/optee_os/lib/libmpa/mpa_io.c:167
    ac50:	d28000e6 	mov	x6, #0x7                   	// #7
    ac54:	93407cc0 	sxtw	x0, w6
    ac58:	b10004df 	cmn	x6, #0x1
    ac5c:	54000181 	b.ne	ac8c <__mpa_mpanum_to_hexstr+0x9c>
    ac60:	aa1503f3 	mov	x19, x21
/home/pwnz/devel/optee/optee_os/lib/libmpa/mpa_io.c:174
    ac64:	51000ac7 	sub	w7, w22, #0x2
    ac68:	93407cf6 	sxtw	x22, w7
/home/pwnz/devel/optee/optee_os/lib/libmpa/mpa_io.c:175
    ac6c:	36f802f6 	tbz	w22, #31, acc8 <__mpa_mpanum_to_hexstr+0xd8>
/home/pwnz/devel/optee/optee_os/lib/libmpa/mpa_io.c:183
    ac70:	3900027f 	strb	wzr, [x19]
/home/pwnz/devel/optee/optee_os/lib/libmpa/mpa_io.c:182
    ac74:	4b150260 	sub	w0, w19, w21
/home/pwnz/devel/optee/optee_os/lib/libmpa/mpa_io.c:185
    ac78:	a94153f3 	ldp	x19, x20, [sp,#16]
    ac7c:	a9425bf5 	ldp	x21, x22, [sp,#32]
    ac80:	a94363f7 	ldp	x23, x24, [sp,#48]
    ac84:	a8c57bfd 	ldp	x29, x30, [sp],#80
    ac88:	d65f03c0 	ret
/home/pwnz/devel/optee/optee_os/lib/libmpa/mpa_io.c:168
    ac8c:	38666a82 	ldrb	w2, [x20,x6]
    ac90:	d10004c1 	sub	x1, x6, #0x1
    ac94:	7100c05f 	cmp	w2, #0x30
    ac98:	540000c0 	b.eq	acb0 <__mpa_mpanum_to_hexstr+0xc0>
    ac9c:	aa1503e1 	mov	x1, x21
/home/pwnz/devel/optee/optee_os/lib/libmpa/mpa_io.c:170
    aca0:	36f800c0 	tbz	w0, #31, acb8 <__mpa_mpanum_to_hexstr+0xc8>
    aca4:	110004c6 	add	w6, w6, #0x1
    aca8:	8b0602b3 	add	x19, x21, x6
    acac:	17ffffee 	b	ac64 <__mpa_mpanum_to_hexstr+0x74>
    acb0:	aa0103e6 	mov	x6, x1
    acb4:	17ffffe8 	b	ac54 <__mpa_mpanum_to_hexstr+0x64>
/home/pwnz/devel/optee/optee_os/lib/libmpa/mpa_io.c:171
    acb8:	38606a82 	ldrb	w2, [x20,x0]
    acbc:	d1000400 	sub	x0, x0, #0x1
    acc0:	38001422 	strb	w2, [x1],#1
    acc4:	17fffff7 	b	aca0 <__mpa_mpanum_to_hexstr+0xb0>
/home/pwnz/devel/optee/optee_os/lib/libmpa/mpa_io.c:176
    acc8:	8b160b00 	add	x0, x24, x22, lsl #2
    accc:	2a1703e2 	mov	w2, w23
    acd0:	b9400801 	ldr	w1, [x0,#8]
    acd4:	aa1403e0 	mov	x0, x20
    acd8:	97ffffb5 	bl	abac <__mpa_word_to_hexstr>
    acdc:	d28000e0 	mov	x0, #0x7                   	// #7
/home/pwnz/devel/optee/optee_os/lib/libmpa/mpa_io.c:179
    ace0:	cb000261 	sub	x1, x19, x0
    ace4:	38606a82 	ldrb	w2, [x20,x0]
    ace8:	d1000400 	sub	x0, x0, #0x1
/home/pwnz/devel/optee/optee_os/lib/libmpa/mpa_io.c:178
    acec:	b100041f 	cmn	x0, #0x1
/home/pwnz/devel/optee/optee_os/lib/libmpa/mpa_io.c:179
    acf0:	39001c22 	strb	w2, [x1,#7]
/home/pwnz/devel/optee/optee_os/lib/libmpa/mpa_io.c:178
    acf4:	54ffff61 	b.ne	ace0 <__mpa_mpanum_to_hexstr+0xf0>
    acf8:	91002273 	add	x19, x19, #0x8
    acfc:	d10006d6 	sub	x22, x22, #0x1
    ad00:	17ffffdb 	b	ac6c <__mpa_mpanum_to_hexstr+0x7c>

000000000000ad04 <__mpa_isspace>:
__mpa_isspace():
/home/pwnz/devel/optee/optee_os/lib/libmpa/mpa_io.c:49
    ad04:	12001c02 	and	w2, w0, #0xff
/home/pwnz/devel/optee/optee_os/lib/libmpa/mpa_io.c:50
    ad08:	71017c5f 	cmp	w2, #0x5f
    ad0c:	1a9f17e1 	cset	w1, eq
/home/pwnz/devel/optee/optee_os/lib/libmpa/mpa_io.c:52
    ad10:	7100805f 	cmp	w2, #0x20
    ad14:	1a9f17e0 	cset	w0, eq
/home/pwnz/devel/optee/optee_os/lib/libmpa/mpa_io.c:50
    ad18:	2a000020 	orr	w0, w1, w0
/home/pwnz/devel/optee/optee_os/lib/libmpa/mpa_io.c:54
    ad1c:	35000100 	cbnz	w0, ad3c <__mpa_isspace+0x38>
    ad20:	51002440 	sub	w0, w2, #0x9
    ad24:	12001c00 	and	w0, w0, #0xff
    ad28:	7100041f 	cmp	w0, #0x1
    ad2c:	1a9f87e1 	cset	w1, ls
    ad30:	7100345f 	cmp	w2, #0xd
    ad34:	1a9f17e0 	cset	w0, eq
    ad38:	2a000020 	orr	w0, w1, w0
/home/pwnz/devel/optee/optee_os/lib/libmpa/mpa_io.c:56 (discriminator 5)
    ad3c:	d65f03c0 	ret

000000000000ad40 <mpa_get_str_size>:
mpa_get_str_size():
/home/pwnz/devel/optee/optee_os/lib/libmpa/mpa_io.c:237
    ad40:	52820040 	mov	w0, #0x1002                	// #4098
    ad44:	d65f03c0 	ret

000000000000ad48 <mpa_set_str>:
mpa_set_str():
/home/pwnz/devel/optee/optee_os/lib/libmpa/mpa_io.c:261
    ad48:	a9bc7bfd 	stp	x29, x30, [sp,#-64]!
    ad4c:	910003fd 	mov	x29, sp
    ad50:	a90153f3 	stp	x19, x20, [sp,#16]
    ad54:	aa0003f4 	mov	x20, x0
    ad58:	a90363f7 	stp	x23, x24, [sp,#48]
    ad5c:	aa0103f8 	mov	x24, x1
    ad60:	a9025bf5 	stp	x21, x22, [sp,#32]
/home/pwnz/devel/optee/optee_os/lib/libmpa/mpa_io.c:280
    ad64:	39400020 	ldrb	w0, [x1]
    ad68:	35000080 	cbnz	w0, ad78 <mpa_set_str+0x30>
/home/pwnz/devel/optee/optee_os/lib/libmpa/mpa_io.c:281
    ad6c:	52800013 	mov	w19, #0x0                   	// #0
    ad70:	14000013 	b	adbc <mpa_set_str+0x74>
    ad74:	aa1703f8 	mov	x24, x23
/home/pwnz/devel/optee/optee_os/lib/libmpa/mpa_io.c:285 (discriminator 1)
    ad78:	aa1803f7 	mov	x23, x24
    ad7c:	384016f5 	ldrb	w21, [x23],#1
/home/pwnz/devel/optee/optee_os/lib/libmpa/mpa_io.c:286 (discriminator 1)
    ad80:	2a1503e0 	mov	w0, w21
    ad84:	97ffffe0 	bl	ad04 <__mpa_isspace>
    ad88:	2a0003f3 	mov	w19, w0
    ad8c:	35ffff40 	cbnz	w0, ad74 <mpa_set_str+0x2c>
/home/pwnz/devel/optee/optee_os/lib/libmpa/mpa_io.c:285
    ad90:	2a1503f6 	mov	w22, w21
/home/pwnz/devel/optee/optee_os/lib/libmpa/mpa_io.c:289
    ad94:	52800015 	mov	w21, #0x0                   	// #0
/home/pwnz/devel/optee/optee_os/lib/libmpa/mpa_io.c:290
    ad98:	7100b6df 	cmp	w22, #0x2d
    ad9c:	54000081 	b.ne	adac <mpa_set_str+0x64>
/home/pwnz/devel/optee/optee_os/lib/libmpa/mpa_io.c:292
    ada0:	394002f6 	ldrb	w22, [x23]
    ada4:	91000b17 	add	x23, x24, #0x2
/home/pwnz/devel/optee/optee_os/lib/libmpa/mpa_io.c:291
    ada8:	52800035 	mov	w21, #0x1                   	// #1
/home/pwnz/devel/optee/optee_os/lib/libmpa/mpa_io.c:294
    adac:	35000156 	cbnz	w22, add4 <mpa_set_str+0x8c>
/home/pwnz/devel/optee/optee_os/lib/libmpa/mpa_io.c:295
    adb0:	52800001 	mov	w1, #0x0                   	// #0
    adb4:	aa1403e0 	mov	x0, x20
    adb8:	97fff540 	bl	82b8 <mpa_set_word>
/home/pwnz/devel/optee/optee_os/lib/libmpa/mpa_io.c:382
    adbc:	2a1303e0 	mov	w0, w19
    adc0:	a94153f3 	ldp	x19, x20, [sp,#16]
    adc4:	a9425bf5 	ldp	x21, x22, [sp,#32]
    adc8:	a94363f7 	ldp	x23, x24, [sp,#48]
    adcc:	a8c47bfd 	ldp	x29, x30, [sp],#64
    add0:	d65f03c0 	ret
/home/pwnz/devel/optee/optee_os/lib/libmpa/mpa_io.c:300
    add4:	7100c2df 	cmp	w22, #0x30
    add8:	540000e1 	b.ne	adf4 <mpa_set_str+0xac>
/home/pwnz/devel/optee/optee_os/lib/libmpa/mpa_io.c:301
    addc:	394002e3 	ldrb	w3, [x23]
/home/pwnz/devel/optee/optee_os/lib/libmpa/mpa_io.c:302
    ade0:	121a7860 	and	w0, w3, #0xffffffdf
    ade4:	7101601f 	cmp	w0, #0x58
    ade8:	54000540 	b.eq	ae90 <mpa_set_str+0x148>
/home/pwnz/devel/optee/optee_os/lib/libmpa/mpa_io.c:301
    adec:	910006f7 	add	x23, x23, #0x1
    adf0:	2a0303f6 	mov	w22, w3
/home/pwnz/devel/optee/optee_os/lib/libmpa/mpa_io.c:307
    adf4:	7100c2df 	cmp	w22, #0x30
    adf8:	54000520 	b.eq	ae9c <mpa_set_str+0x154>
/home/pwnz/devel/optee/optee_os/lib/libmpa/mpa_io.c:307 (discriminator 1)
    adfc:	2a1603e0 	mov	w0, w22
    ae00:	97ffffc1 	bl	ad04 <__mpa_isspace>
    ae04:	350004c0 	cbnz	w0, ae9c <mpa_set_str+0x154>
    ae08:	aa1703e5 	mov	x5, x23
/home/pwnz/devel/optee/optee_os/lib/libmpa/mpa_io.c:311
    ae0c:	34fffd36 	cbz	w22, adb0 <mpa_set_str+0x68>
/home/pwnz/devel/optee/optee_os/lib/libmpa/mpa_io.c:318
    ae10:	394000a0 	ldrb	w0, [x5]
    ae14:	35000480 	cbnz	w0, aea4 <mpa_set_str+0x15c>
/home/pwnz/devel/optee/optee_os/lib/libmpa/mpa_io.c:322
    ae18:	cb1700a5 	sub	x5, x5, x23
/home/pwnz/devel/optee/optee_os/lib/libmpa/mpa_io.c:323
    ae1c:	52820046 	mov	w6, #0x1002                	// #4098
/home/pwnz/devel/optee/optee_os/lib/libmpa/mpa_io.c:322
    ae20:	110004a5 	add	w5, w5, #0x1
/home/pwnz/devel/optee/optee_os/lib/libmpa/mpa_io.c:323
    ae24:	6b0600bf 	cmp	w5, w6
    ae28:	5400042c 	b.gt	aeac <mpa_set_str+0x164>
/home/pwnz/devel/optee/optee_os/lib/libmpa/mpa_io.c:333
    ae2c:	d0000065 	adrp	x5, 18000 <mempool_u32+0x1a10>
    ae30:	910660b8 	add	x24, x5, #0x198
/home/pwnz/devel/optee/optee_os/lib/libmpa/mpa_io.c:323
    ae34:	52800013 	mov	w19, #0x0                   	// #0
__mpa_is_char_in_base():
/home/pwnz/devel/optee/optee_os/lib/libmpa/mpa_io.c:66
    ae38:	2a1603e0 	mov	w0, w22
    ae3c:	97ffffb2 	bl	ad04 <__mpa_isspace>
    ae40:	350005c0 	cbnz	w0, aef8 <mpa_set_str+0x1b0>
/home/pwnz/devel/optee/optee_os/lib/libmpa/mpa_io.c:74
    ae44:	121a7ac1 	and	w1, w22, #0xffffffdf
/home/pwnz/devel/optee/optee_os/lib/libmpa/mpa_io.c:73
    ae48:	5100c2c0 	sub	w0, w22, #0x30
/home/pwnz/devel/optee/optee_os/lib/libmpa/mpa_io.c:74
    ae4c:	51010421 	sub	w1, w1, #0x41
    ae50:	7100143f 	cmp	w1, #0x5
    ae54:	7a498800 	ccmp	w0, #0x9, #0x0, hi
    ae58:	540003e9 	b.ls	aed4 <mpa_set_str+0x18c>
mpa_set_str():
/home/pwnz/devel/optee/optee_os/lib/libmpa/mpa_io.c:337
    ae5c:	34000393 	cbz	w19, aecc <mpa_set_str+0x184>
__mpa_digitstr_to_binary_wsize_base_16():
/home/pwnz/devel/optee/optee_os/lib/libmpa/mpa_io.c:107
    ae60:	11001e65 	add	w5, w19, #0x7
mpa_set_str():
/home/pwnz/devel/optee/optee_os/lib/libmpa/mpa_io.c:342
    ae64:	b9400286 	ldr	w6, [x20]
__mpa_digitstr_to_binary_wsize_base_16():
/home/pwnz/devel/optee/optee_os/lib/libmpa/mpa_io.c:107
    ae68:	13037ca0 	asr	w0, w5, #3
mpa_set_str():
/home/pwnz/devel/optee/optee_os/lib/libmpa/mpa_io.c:341
    ae6c:	6b06001f 	cmp	w0, w6
    ae70:	54000529 	b.ls	af14 <mpa_set_str+0x1cc>
/home/pwnz/devel/optee/optee_os/lib/libmpa/mpa_io.c:343
    ae74:	f0000004 	adrp	x4, d000 <__func__.3637+0xa28>
    ae78:	2a0003e5 	mov	w5, w0
    ae7c:	910d4884 	add	x4, x4, #0x352
    ae80:	52800023 	mov	w3, #0x1                   	// #1
    ae84:	52800022 	mov	w2, #0x1                   	// #1
    ae88:	52802b21 	mov	w1, #0x159                 	// #345
    ae8c:	1400000d 	b	aec0 <mpa_set_str+0x178>
/home/pwnz/devel/optee/optee_os/lib/libmpa/mpa_io.c:303
    ae90:	394006f6 	ldrb	w22, [x23,#1]
    ae94:	91000af7 	add	x23, x23, #0x2
    ae98:	17ffffd7 	b	adf4 <mpa_set_str+0xac>
/home/pwnz/devel/optee/optee_os/lib/libmpa/mpa_io.c:308
    ae9c:	384016f6 	ldrb	w22, [x23],#1
    aea0:	17ffffd5 	b	adf4 <mpa_set_str+0xac>
/home/pwnz/devel/optee/optee_os/lib/libmpa/mpa_io.c:319
    aea4:	910004a5 	add	x5, x5, #0x1
    aea8:	17ffffda 	b	ae10 <mpa_set_str+0xc8>
/home/pwnz/devel/optee/optee_os/lib/libmpa/mpa_io.c:324
    aeac:	f0000004 	adrp	x4, d000 <__func__.3637+0xa28>
    aeb0:	910cd084 	add	x4, x4, #0x334
    aeb4:	52800023 	mov	w3, #0x1                   	// #1
    aeb8:	52800022 	mov	w2, #0x1                   	// #1
    aebc:	52802881 	mov	w1, #0x144                 	// #324
/home/pwnz/devel/optee/optee_os/lib/libmpa/mpa_io.c:343
    aec0:	d0000000 	adrp	x0, c000 <PRIME_TABLE+0x770>
    aec4:	91172000 	add	x0, x0, #0x5c8
    aec8:	97fff1f1 	bl	768c <trace_printf>
/home/pwnz/devel/optee/optee_os/lib/libmpa/mpa_io.c:346
    aecc:	12800013 	mov	w19, #0xffffffff            	// #-1
/home/pwnz/devel/optee/optee_os/lib/libmpa/mpa_io.c:347
    aed0:	17ffffbb 	b	adbc <mpa_set_str+0x74>
/home/pwnz/devel/optee/optee_os/lib/libmpa/mpa_io.c:333
    aed4:	11000661 	add	w1, w19, #0x1
__mpa_digit_value():
/home/pwnz/devel/optee/optee_os/lib/libmpa/mpa_io.c:88
    aed8:	7100241f 	cmp	w0, #0x9
    aedc:	540000a9 	b.ls	aef0 <mpa_set_str+0x1a8>
/home/pwnz/devel/optee/optee_os/lib/libmpa/mpa_io.c:90
    aee0:	510106c0 	sub	w0, w22, #0x41
    aee4:	7100141f 	cmp	w0, #0x5
    aee8:	540000c8 	b.hi	af00 <mpa_set_str+0x1b8>
/home/pwnz/devel/optee/optee_os/lib/libmpa/mpa_io.c:91
    aeec:	5100dec0 	sub	w0, w22, #0x37
mpa_set_str():
/home/pwnz/devel/optee/optee_os/lib/libmpa/mpa_io.c:333
    aef0:	3833cb00 	strb	w0, [x24,w19,sxtw]
    aef4:	2a0103f3 	mov	w19, w1
/home/pwnz/devel/optee/optee_os/lib/libmpa/mpa_io.c:334
    aef8:	384016f6 	ldrb	w22, [x23],#1
    aefc:	17ffffcf 	b	ae38 <mpa_set_str+0xf0>
__mpa_digit_value():
/home/pwnz/devel/optee/optee_os/lib/libmpa/mpa_io.c:92
    af00:	510186c0 	sub	w0, w22, #0x61
/home/pwnz/devel/optee/optee_os/lib/libmpa/mpa_io.c:93
    af04:	51015ec3 	sub	w3, w22, #0x57
    af08:	7100141f 	cmp	w0, #0x5
    af0c:	1a9f9060 	csel	w0, w3, wzr, ls
    af10:	17fffff8 	b	aef0 <mpa_set_str+0x1a8>
mpa_set_str():
/home/pwnz/devel/optee/optee_os/lib/libmpa/mpa_io.c:352
    af14:	aa1403e0 	mov	x0, x20
    af18:	52800001 	mov	w1, #0x0                   	// #0
    af1c:	97fff4e7 	bl	82b8 <mpa_set_word>
/home/pwnz/devel/optee/optee_os/lib/libmpa/mpa_io.c:351
    af20:	91002296 	add	x22, x20, #0x8
/home/pwnz/devel/optee/optee_os/lib/libmpa/mpa_io.c:356
    af24:	52800020 	mov	w0, #0x1                   	// #1
/home/pwnz/devel/optee/optee_os/lib/libmpa/mpa_io.c:357
    af28:	51000666 	sub	w6, w19, #0x1
    af2c:	d0000064 	adrp	x4, 18000 <mempool_u32+0x1a10>
/home/pwnz/devel/optee/optee_os/lib/libmpa/mpa_io.c:354
    af30:	2900fe80 	stp	w0, wzr, [x20,#4]
    af34:	93407cc3 	sxtw	x3, w6
/home/pwnz/devel/optee/optee_os/lib/libmpa/mpa_io.c:355
    af38:	52800080 	mov	w0, #0x4                   	// #4
/home/pwnz/devel/optee/optee_os/lib/libmpa/mpa_io.c:359
    af3c:	91066087 	add	x7, x4, #0x198
/home/pwnz/devel/optee/optee_os/lib/libmpa/mpa_io.c:360
    af40:	2a0003e8 	mov	w8, w0
/home/pwnz/devel/optee/optee_os/lib/libmpa/mpa_io.c:358
    af44:	7100047f 	cmp	w3, #0x1
    af48:	b94002c2 	ldr	w2, [x22]
    af4c:	5400024c 	b.gt	af94 <mpa_set_str+0x24c>
/home/pwnz/devel/optee/optee_os/lib/libmpa/mpa_io.c:374
    af50:	39466081 	ldrb	w1, [x4,#408]
/home/pwnz/devel/optee/optee_os/lib/libmpa/mpa_io.c:370
    af54:	360000a6 	tbz	w6, #0, af68 <mpa_set_str+0x220>
/home/pwnz/devel/optee/optee_os/lib/libmpa/mpa_io.c:371
    af58:	91066083 	add	x3, x4, #0x198
    af5c:	39466081 	ldrb	w1, [x4,#408]
    af60:	39400463 	ldrb	w3, [x3,#1]
    af64:	4a011061 	eor	w1, w3, w1, lsl #4
/home/pwnz/devel/optee/optee_os/lib/libmpa/mpa_io.c:372
    af68:	52800083 	mov	w3, #0x4                   	// #4
    af6c:	4b000060 	sub	w0, w3, w0
    af70:	531d7000 	lsl	w0, w0, #3
/home/pwnz/devel/optee/optee_os/lib/libmpa/mpa_io.c:371
    af74:	1ac02020 	lsl	w0, w1, w0
    af78:	4a000040 	eor	w0, w2, w0
    af7c:	b90002c0 	str	w0, [x22]
/home/pwnz/devel/optee/optee_os/lib/libmpa/mpa_io.c:377
    af80:	34fff1f5 	cbz	w21, adbc <mpa_set_str+0x74>
/home/pwnz/devel/optee/optee_os/lib/libmpa/mpa_io.c:378
    af84:	b9400680 	ldr	w0, [x20,#4]
    af88:	4b0003e0 	neg	w0, w0
    af8c:	b9000680 	str	w0, [x20,#4]
    af90:	17ffff8b 	b	adbc <mpa_set_str+0x74>
/home/pwnz/devel/optee/optee_os/lib/libmpa/mpa_io.c:359
    af94:	8b0300e1 	add	x1, x7, x3
    af98:	38676865 	ldrb	w5, [x3,x7]
    af9c:	385ff021 	ldurb	w1, [x1,#-1]
    afa0:	4a0110a1 	eor	w1, w5, w1, lsl #4
/home/pwnz/devel/optee/optee_os/lib/libmpa/mpa_io.c:360
    afa4:	4b000105 	sub	w5, w8, w0
    afa8:	531d70a5 	lsl	w5, w5, #3
/home/pwnz/devel/optee/optee_os/lib/libmpa/mpa_io.c:363
    afac:	71000400 	subs	w0, w0, #0x1
/home/pwnz/devel/optee/optee_os/lib/libmpa/mpa_io.c:359
    afb0:	1ac52021 	lsl	w1, w1, w5
    afb4:	4a010041 	eor	w1, w2, w1
    afb8:	b90002c1 	str	w1, [x22]
/home/pwnz/devel/optee/optee_os/lib/libmpa/mpa_io.c:363
    afbc:	540000e1 	b.ne	afd8 <mpa_set_str+0x290>
/home/pwnz/devel/optee/optee_os/lib/libmpa/mpa_io.c:365
    afc0:	b90006df 	str	wzr, [x22,#4]
/home/pwnz/devel/optee/optee_os/lib/libmpa/mpa_io.c:364
    afc4:	910012d6 	add	x22, x22, #0x4
/home/pwnz/devel/optee/optee_os/lib/libmpa/mpa_io.c:367
    afc8:	b9400680 	ldr	w0, [x20,#4]
    afcc:	11000400 	add	w0, w0, #0x1
    afd0:	b9000680 	str	w0, [x20,#4]
/home/pwnz/devel/optee/optee_os/lib/libmpa/mpa_io.c:366
    afd4:	52800080 	mov	w0, #0x4                   	// #4
    afd8:	d1000863 	sub	x3, x3, #0x2
    afdc:	17ffffda 	b	af44 <mpa_set_str+0x1fc>

000000000000afe0 <mpa_get_str>:
mpa_get_str():
/home/pwnz/devel/optee/optee_os/lib/libmpa/mpa_io.c:398
    afe0:	a9be7bfd 	stp	x29, x30, [sp,#-32]!
    afe4:	910003fd 	mov	x29, sp
    afe8:	f9000bf3 	str	x19, [sp,#16]
/home/pwnz/devel/optee/optee_os/lib/libmpa/mpa_io.c:401
    afec:	b5000160 	cbnz	x0, b018 <mpa_get_str+0x38>
/home/pwnz/devel/optee/optee_os/lib/libmpa/mpa_io.c:401 (discriminator 1)
    aff0:	d0000003 	adrp	x3, c000 <PRIME_TABLE+0x770>
    aff4:	91172063 	add	x3, x3, #0x5c8
    aff8:	91004063 	add	x3, x3, #0x10
    affc:	f0000001 	adrp	x1, d000 <__func__.3637+0xa28>
    b000:	d0000000 	adrp	x0, d000 <__func__.3637+0xa28>
    b004:	910dec21 	add	x1, x1, #0x37b
    b008:	910e3c00 	add	x0, x0, #0x38f
    b00c:	52803222 	mov	w2, #0x191                 	// #401
    b010:	97ffe7ca 	bl	4f38 <_assert_log>
    b014:	97ffe7da 	bl	4f7c <_assert_break>
/home/pwnz/devel/optee/optee_os/lib/libmpa/mpa_io.c:404
    b018:	b9400443 	ldr	w3, [x2,#4]
    b01c:	aa0003f3 	mov	x19, x0
    b020:	36f80063 	tbz	w3, #31, b02c <mpa_get_str+0x4c>
/home/pwnz/devel/optee/optee_os/lib/libmpa/mpa_io.c:405
    b024:	528005a3 	mov	w3, #0x2d                  	// #45
    b028:	38001403 	strb	w3, [x0],#1
/home/pwnz/devel/optee/optee_os/lib/libmpa/mpa_io.c:408
    b02c:	7100403f 	cmp	w1, #0x10
    b030:	540000a0 	b.eq	b044 <mpa_get_str+0x64>
    b034:	7100443f 	cmp	w1, #0x11
    b038:	54000120 	b.eq	b05c <mpa_get_str+0x7c>
/home/pwnz/devel/optee/optee_os/lib/libmpa/mpa_io.c:416
    b03c:	d2800013 	mov	x19, #0x0                   	// #0
    b040:	14000003 	b	b04c <mpa_get_str+0x6c>
/home/pwnz/devel/optee/optee_os/lib/libmpa/mpa_io.c:410
    b044:	52800001 	mov	w1, #0x0                   	// #0
/home/pwnz/devel/optee/optee_os/lib/libmpa/mpa_io.c:413
    b048:	97fffeea 	bl	abf0 <__mpa_mpanum_to_hexstr>
/home/pwnz/devel/optee/optee_os/lib/libmpa/mpa_io.c:420
    b04c:	aa1303e0 	mov	x0, x19
    b050:	f9400bf3 	ldr	x19, [sp,#16]
    b054:	a8c27bfd 	ldp	x29, x30, [sp],#32
    b058:	d65f03c0 	ret
/home/pwnz/devel/optee/optee_os/lib/libmpa/mpa_io.c:413
    b05c:	52800021 	mov	w1, #0x1                   	// #1
    b060:	17fffffa 	b	b048 <mpa_get_str+0x68>

000000000000b064 <mpa_set_oct_str>:
mpa_set_oct_str():
/home/pwnz/devel/optee/optee_os/lib/libmpa/mpa_io.c:437
    b064:	a9bc7bfd 	stp	x29, x30, [sp,#-64]!
    b068:	910003fd 	mov	x29, sp
    b06c:	a90153f3 	stp	x19, x20, [sp,#16]
    b070:	aa0003f4 	mov	x20, x0
    b074:	a9025bf5 	stp	x21, x22, [sp,#32]
/home/pwnz/devel/optee/optee_os/lib/libmpa/mpa_io.c:439
    b078:	2a0203f3 	mov	w19, w2
/home/pwnz/devel/optee/optee_os/lib/libmpa/mpa_io.c:437
    b07c:	f9001bf7 	str	x23, [sp,#48]
    b080:	aa0103f5 	mov	x21, x1
    b084:	12001c77 	and	w23, w3, #0xff
/home/pwnz/devel/optee/optee_os/lib/libmpa/mpa_io.c:443
    b088:	7100027f 	cmp	w19, #0x0
    b08c:	5400016c 	b.gt	b0b8 <mpa_set_oct_str+0x54>
/home/pwnz/devel/optee/optee_os/lib/libmpa/mpa_io.c:450
    b090:	540001e1 	b.ne	b0cc <mpa_set_oct_str+0x68>
/home/pwnz/devel/optee/optee_os/lib/libmpa/mpa_io.c:451
    b094:	52800001 	mov	w1, #0x0                   	// #0
    b098:	aa1403e0 	mov	x0, x20
    b09c:	97fff487 	bl	82b8 <mpa_set_word>
/home/pwnz/devel/optee/optee_os/lib/libmpa/mpa_io.c:480
    b0a0:	2a1303e0 	mov	w0, w19
    b0a4:	f9401bf7 	ldr	x23, [sp,#48]
    b0a8:	a94153f3 	ldp	x19, x20, [sp,#16]
    b0ac:	a9425bf5 	ldp	x21, x22, [sp,#32]
    b0b0:	a8c47bfd 	ldp	x29, x30, [sp],#64
    b0b4:	d65f03c0 	ret
/home/pwnz/devel/optee/optee_os/lib/libmpa/mpa_io.c:444
    b0b8:	394002a0 	ldrb	w0, [x21]
    b0bc:	35000080 	cbnz	w0, b0cc <mpa_set_oct_str+0x68>
/home/pwnz/devel/optee/optee_os/lib/libmpa/mpa_io.c:446
    b0c0:	51000673 	sub	w19, w19, #0x1
/home/pwnz/devel/optee/optee_os/lib/libmpa/mpa_io.c:447
    b0c4:	910006b5 	add	x21, x21, #0x1
    b0c8:	17fffff0 	b	b088 <mpa_set_oct_str+0x24>
/home/pwnz/devel/optee/optee_os/lib/libmpa/mpa_io.c:460
    b0cc:	b9400280 	ldr	w0, [x20]
    b0d0:	51000661 	sub	w1, w19, #0x1
    b0d4:	d37e7400 	ubfiz	x0, x0, #2, #30
    b0d8:	eb21c01f 	cmp	x0, w1, sxtw
    b0dc:	54000483 	b.cc	b16c <mpa_set_oct_str+0x108>
/home/pwnz/devel/optee/optee_os/lib/libmpa/mpa_io.c:464
    b0e0:	52800001 	mov	w1, #0x0                   	// #0
    b0e4:	aa1403e0 	mov	x0, x20
/home/pwnz/devel/optee/optee_os/lib/libmpa/mpa_io.c:463
    b0e8:	91002296 	add	x22, x20, #0x8
/home/pwnz/devel/optee/optee_os/lib/libmpa/mpa_io.c:464
    b0ec:	97fff473 	bl	82b8 <mpa_set_word>
/home/pwnz/devel/optee/optee_os/lib/libmpa/mpa_io.c:468
    b0f0:	52800083 	mov	w3, #0x4                   	// #4
    b0f4:	12bc0005 	mov	w5, #0x1fffffff            	// #536870911
/home/pwnz/devel/optee/optee_os/lib/libmpa/mpa_io.c:466
    b0f8:	b900069f 	str	wzr, [x20,#4]
/home/pwnz/devel/optee/optee_os/lib/libmpa/mpa_io.c:467
    b0fc:	7100027f 	cmp	w19, #0x0
    b100:	540000ec 	b.gt	b11c <mpa_set_oct_str+0xb8>
/home/pwnz/devel/optee/optee_os/lib/libmpa/mpa_io.c:479
    b104:	52800013 	mov	w19, #0x0                   	// #0
/home/pwnz/devel/optee/optee_os/lib/libmpa/mpa_io.c:476
    b108:	34fffcd7 	cbz	w23, b0a0 <mpa_set_oct_str+0x3c>
/home/pwnz/devel/optee/optee_os/lib/libmpa/mpa_io.c:477
    b10c:	b9400680 	ldr	w0, [x20,#4]
    b110:	4b0003e0 	neg	w0, w0
    b114:	b9000680 	str	w0, [x20,#4]
    b118:	17ffffe2 	b	b0a0 <mpa_set_oct_str+0x3c>
/home/pwnz/devel/optee/optee_os/lib/libmpa/mpa_io.c:468
    b11c:	7100127f 	cmp	w19, #0x4
    b120:	110004a1 	add	w1, w5, #0x1
    b124:	1a83d260 	csel	w0, w19, w3, le
    b128:	531d7021 	lsl	w1, w1, #3
/home/pwnz/devel/optee/optee_os/lib/libmpa/mpa_io.c:470
    b12c:	4b000273 	sub	w19, w19, w0
    b130:	51000400 	sub	w0, w0, #0x1
set_word():
/home/pwnz/devel/optee/optee_os/lib/libmpa/mpa_io.c:431
    b134:	8b33c2a6 	add	x6, x21, w19, sxtw
/home/pwnz/devel/optee/optee_os/lib/libmpa/mpa_io.c:429
    b138:	52800002 	mov	w2, #0x0                   	// #0
/home/pwnz/devel/optee/optee_os/lib/libmpa/mpa_io.c:431
    b13c:	386068c4 	ldrb	w4, [x6,x0]
    b140:	d1000400 	sub	x0, x0, #0x1
/home/pwnz/devel/optee/optee_os/lib/libmpa/mpa_io.c:430
    b144:	3100041f 	cmn	w0, #0x1
/home/pwnz/devel/optee/optee_os/lib/libmpa/mpa_io.c:431
    b148:	1ac12084 	lsl	w4, w4, w1
    b14c:	11002021 	add	w1, w1, #0x8
    b150:	2a040042 	orr	w2, w2, w4
/home/pwnz/devel/optee/optee_os/lib/libmpa/mpa_io.c:430
    b154:	54ffff41 	b.ne	b13c <mpa_set_oct_str+0xd8>
mpa_set_oct_str():
/home/pwnz/devel/optee/optee_os/lib/libmpa/mpa_io.c:471
    b158:	b80046c2 	str	w2, [x22],#4
/home/pwnz/devel/optee/optee_os/lib/libmpa/mpa_io.c:473
    b15c:	b9400680 	ldr	w0, [x20,#4]
    b160:	11000400 	add	w0, w0, #0x1
    b164:	b9000680 	str	w0, [x20,#4]
    b168:	17ffffe5 	b	b0fc <mpa_set_oct_str+0x98>
/home/pwnz/devel/optee/optee_os/lib/libmpa/mpa_io.c:461
    b16c:	12800013 	mov	w19, #0xffffffff            	// #-1
    b170:	17ffffcc 	b	b0a0 <mpa_set_oct_str+0x3c>

000000000000b174 <mpa_get_oct_str>:
mpa_get_oct_str():
/home/pwnz/devel/optee/optee_os/lib/libmpa/mpa_io.c:493
    b174:	a9bb7bfd 	stp	x29, x30, [sp,#-80]!
    b178:	52800024 	mov	w4, #0x1                   	// #1
    b17c:	910003fd 	mov	x29, sp
    b180:	a90153f3 	stp	x19, x20, [sp,#16]
__mpa_size_in_base_255():
/home/pwnz/devel/optee/optee_os/lib/libmpa/mpa_io.c:219
    b184:	b9400443 	ldr	w3, [x2,#4]
mpa_get_oct_str():
/home/pwnz/devel/optee/optee_os/lib/libmpa/mpa_io.c:493
    b188:	a9025bf5 	stp	x21, x22, [sp,#32]
    b18c:	f9001bf7 	str	x23, [sp,#48]
__mpa_size_in_base_255():
/home/pwnz/devel/optee/optee_os/lib/libmpa/mpa_io.c:219
    b190:	7100007f 	cmp	w3, #0x0
    b194:	540001e0 	b.eq	b1d0 <mpa_get_oct_str+0x5c>
/home/pwnz/devel/optee/optee_os/lib/libmpa/mpa_io.c:223
    b198:	5a83a464 	cneg	w4, w3, lt
    b19c:	51000485 	sub	w5, w4, #0x1
/home/pwnz/devel/optee/optee_os/lib/libmpa/mpa_io.c:222
    b1a0:	8b25c845 	add	x5, x2, w5, sxtw #2
    b1a4:	b94008a7 	ldr	w7, [x5,#8]
__mpa_count_leading_zero_bits():
/home/pwnz/devel/optee/optee_os/lib/libmpa/mpa_io.c:198
    b1a8:	52800405 	mov	w5, #0x20                  	// #32
/home/pwnz/devel/optee/optee_os/lib/libmpa/mpa_io.c:197
    b1ac:	340000a7 	cbz	w7, b1c0 <mpa_get_oct_str+0x4c>
    b1b0:	52800005 	mov	w5, #0x0                   	// #0
    b1b4:	52b00006 	mov	w6, #0x80000000            	// #-2147483648
/home/pwnz/devel/optee/optee_os/lib/libmpa/mpa_io.c:201
    b1b8:	6a0600ff 	tst	w7, w6
    b1bc:	54000180 	b.eq	b1ec <mpa_get_oct_str+0x78>
__mpa_size_in_base_255():
/home/pwnz/devel/optee/optee_os/lib/libmpa/mpa_io.c:224
    b1c0:	531b6893 	lsl	w19, w4, #5
/home/pwnz/devel/optee/optee_os/lib/libmpa/mpa_io.c:226
    b1c4:	11001e73 	add	w19, w19, #0x7
    b1c8:	4b050273 	sub	w19, w19, w5
    b1cc:	53037e64 	lsr	w4, w19, #3
mpa_get_oct_str():
/home/pwnz/devel/optee/optee_os/lib/libmpa/mpa_io.c:500
    b1d0:	f9400025 	ldr	x5, [x1]
/home/pwnz/devel/optee/optee_os/lib/libmpa/mpa_io.c:494
    b1d4:	2a0403f3 	mov	w19, w4
/home/pwnz/devel/optee/optee_os/lib/libmpa/mpa_io.c:500
    b1d8:	eb05027f 	cmp	x19, x5
    b1dc:	540000e9 	b.ls	b1f8 <mpa_get_oct_str+0x84>
/home/pwnz/devel/optee/optee_os/lib/libmpa/mpa_io.c:501
    b1e0:	f9000033 	str	x19, [x1]
/home/pwnz/devel/optee/optee_os/lib/libmpa/mpa_io.c:526
    b1e4:	12800000 	mov	w0, #0xffffffff            	// #-1
    b1e8:	1400000e 	b	b220 <mpa_get_oct_str+0xac>
__mpa_count_leading_zero_bits():
/home/pwnz/devel/optee/optee_os/lib/libmpa/mpa_io.c:202
    b1ec:	110004a5 	add	w5, w5, #0x1
/home/pwnz/devel/optee/optee_os/lib/libmpa/mpa_io.c:203
    b1f0:	53017cc6 	lsr	w6, w6, #1
    b1f4:	17fffff1 	b	b1b8 <mpa_get_oct_str+0x44>
    b1f8:	aa0203f7 	mov	x23, x2
    b1fc:	aa0103f6 	mov	x22, x1
    b200:	aa0003e4 	mov	x4, x0
mpa_get_oct_str():
/home/pwnz/devel/optee/optee_os/lib/libmpa/mpa_io.c:506
    b204:	7100007f 	cmp	w3, #0x0
    b208:	54000161 	b.ne	b234 <mpa_get_oct_str+0xc0>
/home/pwnz/devel/optee/optee_os/lib/libmpa/mpa_io.c:507
    b20c:	aa0503e2 	mov	x2, x5
    b210:	52800001 	mov	w1, #0x0                   	// #0
    b214:	97ffedd7 	bl	6970 <memset>
/home/pwnz/devel/optee/optee_os/lib/libmpa/mpa_io.c:535
    b218:	52800000 	mov	w0, #0x0                   	// #0
/home/pwnz/devel/optee/optee_os/lib/libmpa/mpa_io.c:534
    b21c:	f90002d3 	str	x19, [x22]
/home/pwnz/devel/optee/optee_os/lib/libmpa/mpa_io.c:536
    b220:	a94153f3 	ldp	x19, x20, [sp,#16]
    b224:	a9425bf5 	ldp	x21, x22, [sp,#32]
    b228:	f9401bf7 	ldr	x23, [sp,#48]
    b22c:	a8c57bfd 	ldp	x29, x30, [sp],#80
    b230:	d65f03c0 	ret
/home/pwnz/devel/optee/optee_os/lib/libmpa/mpa_io.c:505
    b234:	5a83a474 	cneg	w20, w3, lt
/home/pwnz/devel/optee/optee_os/lib/libmpa/mpa_io.c:510
    b238:	51000680 	sub	w0, w20, #0x1
/home/pwnz/devel/optee/optee_os/lib/libmpa/mpa_io.c:513
    b23c:	8b20c840 	add	x0, x2, w0, sxtw #2
    b240:	b9400801 	ldr	w1, [x0,#8]
get_word():
/home/pwnz/devel/optee/optee_os/lib/libmpa/mpa_io.c:487
    b244:	39012fa1 	strb	w1, [x29,#75]
/home/pwnz/devel/optee/optee_os/lib/libmpa/mpa_io.c:488
    b248:	53087c20 	lsr	w0, w1, #8
    b24c:	53187c23 	lsr	w3, w1, #24
/home/pwnz/devel/optee/optee_os/lib/libmpa/mpa_io.c:487
    b250:	39012ba0 	strb	w0, [x29,#74]
/home/pwnz/devel/optee/optee_os/lib/libmpa/mpa_io.c:488
    b254:	53107c20 	lsr	w0, w1, #16
/home/pwnz/devel/optee/optee_os/lib/libmpa/mpa_io.c:487
    b258:	910143a1 	add	x1, x29, #0x50
    b25c:	390127a0 	strb	w0, [x29,#73]
    b260:	d2800000 	mov	x0, #0x0                   	// #0
    b264:	381f8c23 	strb	w3, [x1,#-8]!
mpa_get_oct_str():
/home/pwnz/devel/optee/optee_os/lib/libmpa/mpa_io.c:516
    b268:	38616802 	ldrb	w2, [x0,x1]
    b26c:	34000342 	cbz	w2, b2d4 <mpa_get_oct_str+0x160>
/home/pwnz/devel/optee/optee_os/lib/libmpa/mpa_io.c:517
    b270:	52800095 	mov	w21, #0x4                   	// #4
    b274:	4b0002b5 	sub	w21, w21, w0
    b278:	93407eb5 	sxtw	x21, w21
    b27c:	8b20c021 	add	x1, x1, w0, sxtw
    b280:	aa1503e2 	mov	x2, x21
    b284:	aa0403e0 	mov	x0, x4
    b288:	97ffed9f 	bl	6904 <memcpy>
    b28c:	aa0003e4 	mov	x4, x0
/home/pwnz/devel/optee/optee_os/lib/libmpa/mpa_io.c:522
    b290:	51000a83 	sub	w3, w20, #0x2
    b294:	93407c63 	sxtw	x3, w3
/home/pwnz/devel/optee/optee_os/lib/libmpa/mpa_io.c:524
    b298:	37fffc03 	tbnz	w3, #31, b218 <mpa_get_oct_str+0xa4>
/home/pwnz/devel/optee/optee_os/lib/libmpa/mpa_io.c:525
    b29c:	eb1302bf 	cmp	x21, x19
    b2a0:	54fffa28 	b.hi	b1e4 <mpa_get_oct_str+0x70>
/home/pwnz/devel/optee/optee_os/lib/libmpa/mpa_io.c:527
    b2a4:	8b030ae0 	add	x0, x23, x3, lsl #2
get_word():
/home/pwnz/devel/optee/optee_os/lib/libmpa/mpa_io.c:487
    b2a8:	8b150082 	add	x2, x4, x21
mpa_get_oct_str():
/home/pwnz/devel/optee/optee_os/lib/libmpa/mpa_io.c:527
    b2ac:	b9400801 	ldr	w1, [x0,#8]
    b2b0:	d2800060 	mov	x0, #0x3                   	// #3
get_word():
/home/pwnz/devel/optee/optee_os/lib/libmpa/mpa_io.c:487
    b2b4:	38206841 	strb	w1, [x2,x0]
    b2b8:	d1000400 	sub	x0, x0, #0x1
/home/pwnz/devel/optee/optee_os/lib/libmpa/mpa_io.c:488
    b2bc:	53087c21 	lsr	w1, w1, #8
/home/pwnz/devel/optee/optee_os/lib/libmpa/mpa_io.c:486
    b2c0:	b100041f 	cmn	x0, #0x1
    b2c4:	54ffff81 	b.ne	b2b4 <mpa_get_oct_str+0x140>
mpa_get_oct_str():
/home/pwnz/devel/optee/optee_os/lib/libmpa/mpa_io.c:529
    b2c8:	910012b5 	add	x21, x21, #0x4
    b2cc:	d1000463 	sub	x3, x3, #0x1
    b2d0:	17fffff2 	b	b298 <mpa_get_oct_str+0x124>
    b2d4:	91000400 	add	x0, x0, #0x1
/home/pwnz/devel/optee/optee_os/lib/libmpa/mpa_io.c:515 (discriminator 2)
    b2d8:	f100101f 	cmp	x0, #0x4
    b2dc:	54fffc61 	b.ne	b268 <mpa_get_oct_str+0xf4>
/home/pwnz/devel/optee/optee_os/lib/libmpa/mpa_io.c:496
    b2e0:	d2800015 	mov	x21, #0x0                   	// #0
    b2e4:	17ffffeb 	b	b290 <mpa_get_oct_str+0x11c>

000000000000b2e8 <mpa_mod>:
mpa_mod():
/home/pwnz/devel/optee/optee_os/lib/libmpa/mpa_modulus.c:42
    b2e8:	aa0303e4 	mov	x4, x3
    b2ec:	aa0203e3 	mov	x3, x2
    b2f0:	aa0103e2 	mov	x2, x1
    b2f4:	aa0003e1 	mov	x1, x0
    b2f8:	d2800000 	mov	x0, #0x0                   	// #0
    b2fc:	17fff602 	b	8b04 <mpa_div>

000000000000b300 <mpa_add_mod>:
mpa_add_mod():
/home/pwnz/devel/optee/optee_os/lib/libmpa/mpa_modulus.c:53
    b300:	a9bb7bfd 	stp	x29, x30, [sp,#-80]!
    b304:	910003fd 	mov	x29, sp
    b308:	a90153f3 	stp	x19, x20, [sp,#16]
/home/pwnz/devel/optee/optee_os/lib/libmpa/mpa_modulus.c:56
    b30c:	910123b3 	add	x19, x29, #0x48
/home/pwnz/devel/optee/optee_os/lib/libmpa/mpa_modulus.c:53
    b310:	aa0403f4 	mov	x20, x4
    b314:	a9025bf5 	stp	x21, x22, [sp,#32]
    b318:	a90363f7 	stp	x23, x24, [sp,#48]
    b31c:	aa0303f6 	mov	x22, x3
    b320:	aa0003f5 	mov	x21, x0
    b324:	aa0103f7 	mov	x23, x1
    b328:	aa0203f8 	mov	x24, x2
/home/pwnz/devel/optee/optee_os/lib/libmpa/mpa_modulus.c:56
    b32c:	aa0403e1 	mov	x1, x4
    b330:	aa1303e0 	mov	x0, x19
    b334:	97fff894 	bl	9584 <mpa_alloc_static_temp_var>
/home/pwnz/devel/optee/optee_os/lib/libmpa/mpa_modulus.c:58
    b338:	f94027a0 	ldr	x0, [x29,#72]
    b33c:	aa1403e3 	mov	x3, x20
    b340:	aa1803e2 	mov	x2, x24
    b344:	aa1703e1 	mov	x1, x23
    b348:	97fffba1 	bl	a1cc <mpa_add>
/home/pwnz/devel/optee/optee_os/lib/libmpa/mpa_modulus.c:59
    b34c:	f94027a2 	ldr	x2, [x29,#72]
    b350:	aa1403e4 	mov	x4, x20
    b354:	aa1603e3 	mov	x3, x22
    b358:	aa1503e1 	mov	x1, x21
    b35c:	d2800000 	mov	x0, #0x0                   	// #0
    b360:	97fff5e9 	bl	8b04 <mpa_div>
/home/pwnz/devel/optee/optee_os/lib/libmpa/mpa_modulus.c:61
    b364:	aa1403e1 	mov	x1, x20
    b368:	aa1303e0 	mov	x0, x19
    b36c:	97fff88a 	bl	9594 <mpa_free_static_temp_var>
/home/pwnz/devel/optee/optee_os/lib/libmpa/mpa_modulus.c:62
    b370:	a94153f3 	ldp	x19, x20, [sp,#16]
    b374:	a9425bf5 	ldp	x21, x22, [sp,#32]
    b378:	a94363f7 	ldp	x23, x24, [sp,#48]
    b37c:	a8c57bfd 	ldp	x29, x30, [sp],#80
    b380:	d65f03c0 	ret

000000000000b384 <mpa_sub_mod>:
mpa_sub_mod():
/home/pwnz/devel/optee/optee_os/lib/libmpa/mpa_modulus.c:72
    b384:	a9bb7bfd 	stp	x29, x30, [sp,#-80]!
    b388:	910003fd 	mov	x29, sp
    b38c:	a90153f3 	stp	x19, x20, [sp,#16]
/home/pwnz/devel/optee/optee_os/lib/libmpa/mpa_modulus.c:75
    b390:	910123b3 	add	x19, x29, #0x48
/home/pwnz/devel/optee/optee_os/lib/libmpa/mpa_modulus.c:72
    b394:	aa0403f4 	mov	x20, x4
    b398:	a9025bf5 	stp	x21, x22, [sp,#32]
    b39c:	a90363f7 	stp	x23, x24, [sp,#48]
    b3a0:	aa0303f6 	mov	x22, x3
    b3a4:	aa0003f5 	mov	x21, x0
    b3a8:	aa0103f7 	mov	x23, x1
    b3ac:	aa0203f8 	mov	x24, x2
/home/pwnz/devel/optee/optee_os/lib/libmpa/mpa_modulus.c:75
    b3b0:	aa0403e1 	mov	x1, x4
    b3b4:	aa1303e0 	mov	x0, x19
    b3b8:	97fff873 	bl	9584 <mpa_alloc_static_temp_var>
/home/pwnz/devel/optee/optee_os/lib/libmpa/mpa_modulus.c:77
    b3bc:	f94027a0 	ldr	x0, [x29,#72]
    b3c0:	aa1403e3 	mov	x3, x20
    b3c4:	aa1803e2 	mov	x2, x24
    b3c8:	aa1703e1 	mov	x1, x23
    b3cc:	97fffbe5 	bl	a360 <mpa_sub>
/home/pwnz/devel/optee/optee_os/lib/libmpa/mpa_modulus.c:78
    b3d0:	f94027a2 	ldr	x2, [x29,#72]
    b3d4:	aa1403e4 	mov	x4, x20
    b3d8:	aa1603e3 	mov	x3, x22
    b3dc:	aa1503e1 	mov	x1, x21
    b3e0:	d2800000 	mov	x0, #0x0                   	// #0
    b3e4:	97fff5c8 	bl	8b04 <mpa_div>
/home/pwnz/devel/optee/optee_os/lib/libmpa/mpa_modulus.c:80
    b3e8:	aa1403e1 	mov	x1, x20
    b3ec:	aa1303e0 	mov	x0, x19
    b3f0:	97fff869 	bl	9594 <mpa_free_static_temp_var>
/home/pwnz/devel/optee/optee_os/lib/libmpa/mpa_modulus.c:81
    b3f4:	a94153f3 	ldp	x19, x20, [sp,#16]
    b3f8:	a9425bf5 	ldp	x21, x22, [sp,#32]
    b3fc:	a94363f7 	ldp	x23, x24, [sp,#48]
    b400:	a8c57bfd 	ldp	x29, x30, [sp],#80
    b404:	d65f03c0 	ret

000000000000b408 <mpa_mul_mod>:
mpa_mul_mod():
/home/pwnz/devel/optee/optee_os/lib/libmpa/mpa_modulus.c:91
    b408:	a9bb7bfd 	stp	x29, x30, [sp,#-80]!
    b40c:	910003fd 	mov	x29, sp
    b410:	a90153f3 	stp	x19, x20, [sp,#16]
/home/pwnz/devel/optee/optee_os/lib/libmpa/mpa_modulus.c:94
    b414:	910123b3 	add	x19, x29, #0x48
/home/pwnz/devel/optee/optee_os/lib/libmpa/mpa_modulus.c:91
    b418:	aa0403f4 	mov	x20, x4
    b41c:	a9025bf5 	stp	x21, x22, [sp,#32]
    b420:	a90363f7 	stp	x23, x24, [sp,#48]
    b424:	aa0303f6 	mov	x22, x3
    b428:	aa0003f5 	mov	x21, x0
    b42c:	aa0103f7 	mov	x23, x1
    b430:	aa0203f8 	mov	x24, x2
/home/pwnz/devel/optee/optee_os/lib/libmpa/mpa_modulus.c:94
    b434:	aa0403e1 	mov	x1, x4
    b438:	aa1303e0 	mov	x0, x19
    b43c:	97fff852 	bl	9584 <mpa_alloc_static_temp_var>
/home/pwnz/devel/optee/optee_os/lib/libmpa/mpa_modulus.c:96
    b440:	f94027a0 	ldr	x0, [x29,#72]
    b444:	aa1403e3 	mov	x3, x20
    b448:	aa1803e2 	mov	x2, x24
    b44c:	aa1703e1 	mov	x1, x23
    b450:	97fff8d5 	bl	97a4 <mpa_mul>
/home/pwnz/devel/optee/optee_os/lib/libmpa/mpa_modulus.c:97
    b454:	f94027a2 	ldr	x2, [x29,#72]
    b458:	aa1403e4 	mov	x4, x20
    b45c:	aa1603e3 	mov	x3, x22
    b460:	aa1503e1 	mov	x1, x21
    b464:	d2800000 	mov	x0, #0x0                   	// #0
    b468:	97fff5a7 	bl	8b04 <mpa_div>
/home/pwnz/devel/optee/optee_os/lib/libmpa/mpa_modulus.c:99
    b46c:	aa1403e1 	mov	x1, x20
    b470:	aa1303e0 	mov	x0, x19
    b474:	97fff848 	bl	9594 <mpa_free_static_temp_var>
/home/pwnz/devel/optee/optee_os/lib/libmpa/mpa_modulus.c:100
    b478:	a94153f3 	ldp	x19, x20, [sp,#16]
    b47c:	a9425bf5 	ldp	x21, x22, [sp,#32]
    b480:	a94363f7 	ldp	x23, x24, [sp,#48]
    b484:	a8c57bfd 	ldp	x29, x30, [sp],#80
    b488:	d65f03c0 	ret

000000000000b48c <mpa_inv_mod>:
mpa_inv_mod():
/home/pwnz/devel/optee/optee_os/lib/libmpa/mpa_modulus.c:109
    b48c:	a9bb7bfd 	stp	x29, x30, [sp,#-80]!
    b490:	910003fd 	mov	x29, sp
    b494:	a9025bf5 	stp	x21, x22, [sp,#32]
    b498:	aa0103f6 	mov	x22, x1
    b49c:	a90153f3 	stp	x19, x20, [sp,#16]
/home/pwnz/devel/optee/optee_os/lib/libmpa/mpa_modulus.c:115
    b4a0:	52800021 	mov	w1, #0x1                   	// #1
/home/pwnz/devel/optee/optee_os/lib/libmpa/mpa_modulus.c:109
    b4a4:	a90363f7 	stp	x23, x24, [sp,#48]
    b4a8:	aa0003f3 	mov	x19, x0
    b4ac:	aa0203f7 	mov	x23, x2
    b4b0:	aa0303f4 	mov	x20, x3
/home/pwnz/devel/optee/optee_os/lib/libmpa/mpa_modulus.c:115
    b4b4:	aa1603e0 	mov	x0, x22
    b4b8:	97fffd0c 	bl	a8e8 <mpa_cmp_short>
    b4bc:	35000160 	cbnz	w0, b4e8 <mpa_inv_mod+0x5c>
/home/pwnz/devel/optee/optee_os/lib/libmpa/mpa_modulus.c:117
    b4c0:	52800015 	mov	w21, #0x0                   	// #0
/home/pwnz/devel/optee/optee_os/lib/libmpa/mpa_modulus.c:116
    b4c4:	52800021 	mov	w1, #0x1                   	// #1
    b4c8:	aa1303e0 	mov	x0, x19
    b4cc:	97fff353 	bl	8218 <mpa_set_S32>
/home/pwnz/devel/optee/optee_os/lib/libmpa/mpa_modulus.c:144
    b4d0:	2a1503e0 	mov	w0, w21
    b4d4:	a94153f3 	ldp	x19, x20, [sp,#16]
    b4d8:	a9425bf5 	ldp	x21, x22, [sp,#32]
    b4dc:	a94363f7 	ldp	x23, x24, [sp,#48]
    b4e0:	a8c57bfd 	ldp	x29, x30, [sp],#80
    b4e4:	d65f03c0 	ret
/home/pwnz/devel/optee/optee_os/lib/libmpa/mpa_modulus.c:121
    b4e8:	eb1302df 	cmp	x22, x19
    b4ec:	54000421 	b.ne	b570 <mpa_inv_mod+0xe4>
/home/pwnz/devel/optee/optee_os/lib/libmpa/mpa_modulus.c:122
    b4f0:	aa1403e1 	mov	x1, x20
    b4f4:	910123a0 	add	x0, x29, #0x48
    b4f8:	97fff823 	bl	9584 <mpa_alloc_static_temp_var>
/home/pwnz/devel/optee/optee_os/lib/libmpa/mpa_modulus.c:126
    b4fc:	910103b8 	add	x24, x29, #0x40
    b500:	aa1403e1 	mov	x1, x20
    b504:	aa1803e0 	mov	x0, x24
    b508:	97fff81f 	bl	9584 <mpa_alloc_static_temp_var>
/home/pwnz/devel/optee/optee_os/lib/libmpa/mpa_modulus.c:128
    b50c:	a94407a0 	ldp	x0, x1, [x29,#64]
    b510:	aa1403e5 	mov	x5, x20
    b514:	aa1703e4 	mov	x4, x23
    b518:	aa1603e3 	mov	x3, x22
    b51c:	d2800002 	mov	x2, #0x0                   	// #0
    b520:	97fff758 	bl	9280 <mpa_extended_gcd>
/home/pwnz/devel/optee/optee_os/lib/libmpa/mpa_modulus.c:129
    b524:	f94023a0 	ldr	x0, [x29,#64]
    b528:	52800021 	mov	w1, #0x1                   	// #1
    b52c:	97fffcef 	bl	a8e8 <mpa_cmp_short>
    b530:	2a0003f5 	mov	w21, w0
/home/pwnz/devel/optee/optee_os/lib/libmpa/mpa_modulus.c:131
    b534:	eb1302df 	cmp	x22, x19
    b538:	54000101 	b.ne	b558 <mpa_inv_mod+0xcc>
/home/pwnz/devel/optee/optee_os/lib/libmpa/mpa_modulus.c:132
    b53c:	910143b6 	add	x22, x29, #0x50
    b540:	aa1303e0 	mov	x0, x19
    b544:	f85f8ec1 	ldr	x1, [x22,#-8]!
    b548:	97fff0fd 	bl	793c <mpa_copy>
/home/pwnz/devel/optee/optee_os/lib/libmpa/mpa_modulus.c:133
    b54c:	aa1403e1 	mov	x1, x20
    b550:	aa1603e0 	mov	x0, x22
    b554:	97fff810 	bl	9594 <mpa_free_static_temp_var>
/home/pwnz/devel/optee/optee_os/lib/libmpa/mpa_modulus.c:136
    b558:	aa1403e1 	mov	x1, x20
    b55c:	aa1803e0 	mov	x0, x24
    b560:	97fff80d 	bl	9594 <mpa_free_static_temp_var>
/home/pwnz/devel/optee/optee_os/lib/libmpa/mpa_modulus.c:137
    b564:	34000155 	cbz	w21, b58c <mpa_inv_mod+0x100>
/home/pwnz/devel/optee/optee_os/lib/libmpa/mpa_modulus.c:142
    b568:	12800015 	mov	w21, #0xffffffff            	// #-1
    b56c:	17ffffd9 	b	b4d0 <mpa_inv_mod+0x44>
/home/pwnz/devel/optee/optee_os/lib/libmpa/mpa_modulus.c:124
    b570:	f90027b3 	str	x19, [x29,#72]
    b574:	17ffffe2 	b	b4fc <mpa_inv_mod+0x70>
/home/pwnz/devel/optee/optee_os/lib/libmpa/mpa_modulus.c:139
    b578:	aa1403e3 	mov	x3, x20
    b57c:	aa1703e2 	mov	x2, x23
    b580:	aa1303e1 	mov	x1, x19
    b584:	aa1303e0 	mov	x0, x19
    b588:	97fffb11 	bl	a1cc <mpa_add>
/home/pwnz/devel/optee/optee_os/lib/libmpa/mpa_modulus.c:138
    b58c:	52800001 	mov	w1, #0x0                   	// #0
    b590:	aa1303e0 	mov	x0, x19
    b594:	97fffcd5 	bl	a8e8 <mpa_cmp_short>
    b598:	37ffff00 	tbnz	w0, #31, b578 <mpa_inv_mod+0xec>
    b59c:	17ffffcd 	b	b4d0 <mpa_inv_mod+0x44>
