
3ca6cd99-23c2-4762-be12-f462fd55e581.elf:     file format elf64-littleaarch64
3ca6cd99-23c2-4762-be12-f462fd55e581.elf
architecture: aarch64, flags 0x00000150:
HAS_SYMS, DYNAMIC, D_PAGED
start address 0x0000000000000020

Program Header:
    LOAD off    0x0000000000010000 vaddr 0x0000000000000000 paddr 0x0000000000000000 align 2**16
         filesz 0x000000000000b5a0 memsz 0x000000000000b5a0 flags r-x
    LOAD off    0x000000000001b5a0 vaddr 0x000000000000b5a0 paddr 0x000000000000b5a0 align 2**16
         filesz 0x0000000000002604 memsz 0x0000000000002604 flags r--
    LOAD off    0x000000000001e000 vaddr 0x000000000000e000 paddr 0x000000000000e000 align 2**16
         filesz 0x0000000000000128 memsz 0x000000000000b1a8 flags rw-
 DYNAMIC off    0x000000000001d7d8 vaddr 0x000000000000d7d8 paddr 0x000000000000d7d8 align 2**3
         filesz 0x0000000000000100 memsz 0x0000000000000100 flags rw-

Dynamic Section:
  HASH                 0x000000000000db48
  STRTAB               0x000000000000da88
  SYMTAB               0x000000000000d8d8
  STRSZ                0x00000000000000bd
  SYMENT               0x0000000000000018
  DEBUG                0x0000000000000000
  RELA                 0x000000000000d398
  RELASZ               0x00000000000003a8
  RELAENT              0x0000000000000018
  FLAGS_1              0x0000000008000000
  RELACOUNT            0x0000000000000018
private flags = 0:

Sections:
Idx Name          Size      VMA               LMA               File off  Algn
  0 .ta_head      00000020  0000000000000000  0000000000000000  00010000  2**3
                  CONTENTS, ALLOC, LOAD, DATA
  1 .text         0000b580  0000000000000020  0000000000000020  00010020  2**2
                  CONTENTS, ALLOC, LOAD, READONLY, CODE
  2 .rodata       00001df3  000000000000b5a0  000000000000b5a0  0001b5a0  2**3
                  CONTENTS, ALLOC, LOAD, READONLY, DATA
  3 .dynsym       000001b0  000000000000d8d8  000000000000d8d8  0001d8d8  2**3
                  CONTENTS, ALLOC, LOAD, READONLY, DATA
  4 .rela.dyn     00000240  000000000000d398  000000000000d398  0001d398  2**3
                  CONTENTS, ALLOC, LOAD, READONLY, DATA
  5 .got          00000098  000000000000d5d8  000000000000d5d8  0001d5d8  2**3
                  CONTENTS, ALLOC, LOAD, DATA
  6 .rela.got     00000168  000000000000d670  000000000000d670  0001d670  2**3
                  CONTENTS, ALLOC, LOAD, READONLY, DATA
  7 .dynamic      00000100  000000000000d7d8  000000000000d7d8  0001d7d8  2**3
                  CONTENTS, ALLOC, LOAD, DATA
  8 .dynstr       000000bd  000000000000da88  000000000000da88  0001da88  2**0
                  CONTENTS, ALLOC, LOAD, READONLY, DATA
  9 .hash         0000005c  000000000000db48  000000000000db48  0001db48  2**3
                  CONTENTS, ALLOC, LOAD, READONLY, DATA
 10 .data         00000128  000000000000e000  000000000000e000  0001e000  2**3
                  CONTENTS, ALLOC, LOAD, DATA
 11 .bss          0000b080  000000000000e128  000000000000e128  0001e128  2**3
                  ALLOC
 12 .debug_info   00015997  0000000000000000  0000000000000000  0001e128  2**0
                  CONTENTS, READONLY, DEBUGGING
 13 .debug_abbrev 00004753  0000000000000000  0000000000000000  00033abf  2**0
                  CONTENTS, READONLY, DEBUGGING
 14 .debug_loc    0001d60d  0000000000000000  0000000000000000  00038212  2**0
                  CONTENTS, READONLY, DEBUGGING
 15 .debug_aranges 000007d0  0000000000000000  0000000000000000  00055820  2**4
                  CONTENTS, READONLY, DEBUGGING
 16 .debug_ranges 00000f50  0000000000000000  0000000000000000  00055ff0  2**0
                  CONTENTS, READONLY, DEBUGGING
 17 .debug_macro  0000536c  0000000000000000  0000000000000000  00056f40  2**0
                  CONTENTS, READONLY, DEBUGGING
 18 .debug_line   00006a7b  0000000000000000  0000000000000000  0005c2ac  2**0
                  CONTENTS, READONLY, DEBUGGING
 19 .debug_str    00010c26  0000000000000000  0000000000000000  00062d27  2**0
                  CONTENTS, READONLY, DEBUGGING
 20 .comment      0000002d  0000000000000000  0000000000000000  0007394d  2**0
                  CONTENTS, READONLY
 21 .debug_frame  00003188  0000000000000000  0000000000000000  00073980  2**3
                  CONTENTS, READONLY, DEBUGGING
SYMBOL TABLE:
0000000000000000 l    d  .ta_head	0000000000000000 .ta_head
0000000000000020 l    d  .text	0000000000000000 .text
000000000000b5a0 l    d  .rodata	0000000000000000 .rodata
000000000000d398 l    d  .rela.dyn	0000000000000000 .rela.dyn
000000000000d5d8 l    d  .got	0000000000000000 .got
000000000000d670 l    d  .rela.got	0000000000000000 .rela.got
000000000000d7d8 l    d  .dynamic	0000000000000000 .dynamic
000000000000d8d8 l    d  .dynsym	0000000000000000 .dynsym
000000000000da88 l    d  .dynstr	0000000000000000 .dynstr
000000000000db48 l    d  .hash	0000000000000000 .hash
000000000000e000 l    d  .data	0000000000000000 .data
000000000000e128 l    d  .bss	0000000000000000 .bss
0000000000000000 l    d  .debug_info	0000000000000000 .debug_info
0000000000000000 l    d  .debug_abbrev	0000000000000000 .debug_abbrev
0000000000000000 l    d  .debug_loc	0000000000000000 .debug_loc
0000000000000000 l    d  .debug_aranges	0000000000000000 .debug_aranges
0000000000000000 l    d  .debug_ranges	0000000000000000 .debug_ranges
0000000000000000 l    d  .debug_macro	0000000000000000 .debug_macro
0000000000000000 l    d  .debug_line	0000000000000000 .debug_line
0000000000000000 l    d  .debug_str	0000000000000000 .debug_str
0000000000000000 l    d  .comment	0000000000000000 .comment
0000000000000000 l    d  .debug_frame	0000000000000000 .debug_frame
0000000000000000 l    df *ABS*	0000000000000000 user_ta_header.c
000000000000b6a0 l     O .rodata	0000000000000004 __compound_literal.5
000000000000b6a4 l     O .rodata	0000000000000004 __compound_literal.4
000000000000b6a8 l     O .rodata	0000000000000004 __compound_literal.3
000000000000b6ac l     O .rodata	0000000000000001 __compound_literal.2
000000000000b6ad l     O .rodata	0000000000000001 __compound_literal.1
000000000000b6ae l     O .rodata	0000000000000001 __compound_literal.0
0000000000000000 l    df *ABS*	0000000000000000 hello_world_ta.c
0000000000000020 l     F .text	0000000000000170 createAndOpenObject.constprop.5
000000000000b5a8 l     O .rodata	0000000000000014 __func__.3852
000000000000b5c0 l     O .rodata	0000000000000014 __func__.3807
000000000000b5d8 l     O .rodata	0000000000000015 __func__.3811
000000000000b5f0 l     O .rodata	0000000000000019 __func__.3818
000000000000b610 l     O .rodata	000000000000001a __func__.3822
000000000000b630 l     O .rodata	000000000000000c __func__.3870
000000000000b640 l     O .rodata	0000000000000013 __func__.3838
000000000000b658 l     O .rodata	000000000000001b __func__.3924
000000000000b678 l     O .rodata	0000000000000016 __func__.3910
000000000000b690 l     O .rodata	0000000000000004 __func__.3887
0000000000000000 l    df *ABS*	0000000000000000 tee_api.c
0000000000016588 l     O .bss	0000000000000008 tee_api_instance_data
0000000000000000 l    df *ABS*	0000000000000000 tee_api_objects.c
0000000000000000 l    df *ABS*	0000000000000000 tee_api_operations.c
0000000000004128 l     F .text	000000000000021c tee_buffer_update
0000000000000000 l    df *ABS*	0000000000000000 tee_api_panic.c
0000000000000000 l    df *ABS*	0000000000000000 user_ta_entry.c
000000000000434c l     F .text	0000000000000028 ta_header_get_session
0000000000004374 l     F .text	000000000000007c ta_header_remove_session
000000000001919c l     O .bss	0000000000000004 ta_ref_count
00000000000191a0 l     O .bss	0000000000000001 context_init
000000000000e0e0 l     O .data	0000000000000010 ta_sessions
0000000000000000 l    df *ABS*	0000000000000000 utee_syscalls_a64.o
0000000000000000 l    df *ABS*	0000000000000000 gprof_a64.o
0000000000000000 l    df *ABS*	0000000000000000 tee_user_mem.c
0000000000004970 l     F .text	0000000000000058 print_buf
00000000000049c8 l     F .text	0000000000000104 check_elem
000000000000b6c0 l     O .rodata	000000000000000b __func__.3881
000000000000b6d0 l     O .rodata	000000000000000f __func__.3876
000000000000b6e0 l     O .rodata	0000000000000013 __func__.3901
000000000000b6f8 l     O .rodata	0000000000000012 __func__.3918
000000000000b710 l     O .rodata	0000000000000018 __func__.3926
000000000000b728 l     O .rodata	0000000000000010 __func__.3886
000000000000b738 l     O .rodata	0000000000000014 __func__.3931
00000000000165d8 l     O .bss	0000000000000008 heap_level
00000000000165e0 l     O .bss	0000000000000010 global_stats
0000000000000000 l    df *ABS*	0000000000000000 assert.c
0000000000000000 l    df *ABS*	0000000000000000 tee_api_arith.c
0000000000005624 l     F .text	0000000000000028 TEE_BigInt_Panic
00000000000165f0 l     O .bss	0000000000001b40 mempool_u32
0000000000000000 l    df *ABS*	0000000000000000 utee_misc.c
0000000000000000 l    df *ABS*	0000000000000000 trace_ext.c
0000000000000000 l    df *ABS*	0000000000000000 bget_malloc.c
00000000000057ec l     F .text	000000000000004c raw_malloc_return_hook
0000000000005838 l     F .text	0000000000000110 create_free_block
000000000000b750 l     O .rodata	0000000000000012 __func__.3429
000000000000b768 l     O .rodata	0000000000000005 __func__.3297
000000000000b770 l     O .rodata	0000000000000006 __func__.3311
000000000000b778 l     O .rodata	0000000000000005 __func__.3326
000000000000b780 l     O .rodata	0000000000000006 __func__.3319
000000000000b788 l     O .rodata	0000000000000006 __func__.3334
000000000000b790 l     O .rodata	0000000000000007 __func__.3343
000000000000b798 l     O .rodata	000000000000000d __func__.3462
000000000000b7a8 l     O .rodata	000000000000000c __func__.3438
000000000000b7b8 l     O .rodata	000000000000000b __func__.3448
000000000000b7c8 l     O .rodata	0000000000000010 __func__.3514
000000000000b7d8 l     O .rodata	000000000000000e __func__.3468
000000000000b7e8 l     O .rodata	0000000000000013 __func__.3382
0000000000018130 l     O .bss	0000000000000008 totalloc
0000000000018138 l     O .bss	0000000000000038 mstats
0000000000018170 l     O .bss	0000000000000008 numget
0000000000018178 l     O .bss	0000000000000008 numrel
0000000000018180 l     O .bss	0000000000000008 malloc_pool_len
0000000000018188 l     O .bss	0000000000000008 malloc_pool
000000000000e100 l     O .data	0000000000000020 freelist
0000000000000000 l    df *ABS*	0000000000000000 snprintf.c
0000000000000000 l    df *ABS*	0000000000000000 memcmp.c
0000000000000000 l    df *ABS*	0000000000000000 memcpy.c
0000000000000000 l    df *ABS*	0000000000000000 memmove.c
0000000000000000 l    df *ABS*	0000000000000000 memset.c
0000000000000000 l    df *ABS*	0000000000000000 strlen.c
0000000000000000 l    df *ABS*	0000000000000000 snprintk.c
000000000000b800 l     O .rodata	0000000000000011 HEXDIGITS
000000000000b818 l     O .rodata	0000000000000011 hexdigits
0000000000000000 l    df *ABS*	0000000000000000 buf_compare_ct.c
0000000000000000 l    df *ABS*	0000000000000000 trace.c
000000000000b830 l     O .rodata	000000000000002d lvl_strs.3168
0000000000000000 l    df *ABS*	0000000000000000 memchr.c
0000000000000000 l    df *ABS*	0000000000000000 mpa_misc.c
0000000000000000 l    df *ABS*	0000000000000000 mpa_montgomery.c
0000000000000000 l    df *ABS*	0000000000000000 mpa_primetest.c
000000000000c4c8 l     O .rodata	0000000000000010 const_miller_rabin_proof_limit
000000000000c4d8 l     O .rodata	000000000000001c proof_a.3549
000000000000c4f8 l     O .rodata	000000000000000c const_two
000000000000c508 l     O .rodata	00000000000000b8 const_small_prime_factors
0000000000000000 l    df *ABS*	0000000000000000 mpa_conv.c
0000000000000000 l    df *ABS*	0000000000000000 mpa_div.c
0000000000000000 l    df *ABS*	0000000000000000 mpa_gcd.c
0000000000008bf4 l     F .text	0000000000000080 __mpa_divby2
0000000000008c74 l     F .text	000000000000016c __mpa_gcd.part.0
0000000000008de0 l     F .text	0000000000000380 __mpa_egcd
0000000000000000 l    df *ABS*	0000000000000000 mpa_mem_static.c
0000000000000000 l    df *ABS*	0000000000000000 mpa_mul.c
0000000000000000 l    df *ABS*	0000000000000000 mpa_random.c
0000000000018190 l     O .bss	0000000000000008 get_rng_array
0000000000000000 l    df *ABS*	0000000000000000 mpa_shift.c
0000000000000000 l    df *ABS*	0000000000000000 mpa_addsub.c
0000000000000000 l    df *ABS*	0000000000000000 mpa_cmp.c
0000000000000000 l    df *ABS*	0000000000000000 mpa_expmod.c
0000000000000000 l    df *ABS*	0000000000000000 mpa_init.c
0000000000000000 l    df *ABS*	0000000000000000 mpa_io.c
000000000000abac l     F .text	0000000000000044 __mpa_word_to_hexstr
000000000000abf0 l     F .text	0000000000000114 __mpa_mpanum_to_hexstr
000000000000ad04 l     F .text	000000000000003c __mpa_isspace
000000000000c5c8 l     O .rodata	000000000000000c __func__.3623
000000000000c5d8 l     O .rodata	000000000000000c __func__.3637
0000000000018198 l     O .bss	0000000000001002 buf.3609
0000000000000000 l    df *ABS*	0000000000000000 mpa_modulus.c
0000000000000000 l    df *ABS*	0000000000000000 
000000000000d7d8 l     O *ABS*	0000000000000000 _DYNAMIC
000000000000d5f0 l     O *ABS*	0000000000000000 _GLOBAL_OFFSET_TABLE_
0000000000004948 g     F .text	000000000000000c utee_se_channel_transmit
00000000000057b0 g     F .text	000000000000003c putchar
000000000000ab28 g     F .text	000000000000001c mpa_init_static
000000000000169c g     F .text	00000000000000c0 TEE_PopulateTransientObject
000000000000793c g     F .text	0000000000000054 mpa_copy
0000000000005564 g     F .text	000000000000001c TEE_BigIntConvertToFMM
0000000000005444 g     F .text	000000000000000c TEE_BigIntSquareMod
00000000000050c4 g     F .text	0000000000000004 TEE_BigIntShiftRight
0000000000008244 g     F .text	0000000000000074 mpa_get_S32
00000000000079c0 g     F .text	0000000000000044 mpa_highest_bit_index
0000000000004810 g     F .text	000000000000000c utee_storage_obj_create
0000000000004924 g     F .text	000000000000000c utee_se_session_close
0000000000004618 g     F .text	000000000000000c utee_return
0000000000002d48 g     F .text	0000000000000070 TEE_DigestUpdate
00000000000048c4 g     F .text	000000000000000c utee_se_service_get_readers
0000000000001260 g     F .text	0000000000000008 TEE_Realloc
0000000000008334 g     F .text	0000000000000148 __mpa_div_q_r_internal_word
0000000000004d5c g     F .text	00000000000000bc tee_user_mem_realloc
0000000000002a98 g     F .text	0000000000000190 TEE_SetOperationKey2
000000000000a360 g     F .text	000000000000019c mpa_sub
00000000000056a4 g     F .text	00000000000000cc printf
0000000000004c18 g     F .text	0000000000000144 tee_user_mem_free
0000000000004624 g     F .text	000000000000000c utee_log
000000000000c5c0 g     O .rodata	0000000000000004 NR_STORED_PRIMES
000000000000175c g     F .text	0000000000000054 TEE_InitRefAttribute
0000000000000f90 g     F .text	00000000000000b4 TEE_InvokeTACommand
0000000000007a48 g     F .text	000000000000001c mpa_can_hold
0000000000009618 g     F .text	0000000000000098 __mpa_abs_mul_word
000000000000378c g     F .text	00000000000001a8 TEE_AEEncryptFinal
0000000000007de4 g     F .text	0000000000000088 mpa_montgomery_mul
0000000000007550 g     F .text	0000000000000054 vsnprintk
0000000000007a64 g     F .text	000000000000000c mpa_parity
0000000000006924 g     F .text	000000000000004c memmove
0000000000009ee8 g     F .text	0000000000000020 __mpa_full_adder_ackum
0000000000006804 g     F .text	0000000000000078 snprintf
00000000000050c0 g     F .text	0000000000000004 TEE_BigIntCmpS32
00000000000017b0 g     F .text	0000000000000050 TEE_InitValueAttribute
00000000000050fc g     F .text	000000000000000c TEE_BigIntAdd
0000000000004648 g     F .text	000000000000000c utee_get_property_name_to_index
000000000000b6b0 g     O .rodata	0000000000000008 ta_heap_size
000000000000c5c4 g     O .rodata	0000000000000004 MAX_TABULATED_PRIME
0000000000001648 g     F .text	0000000000000054 TEE_ResetTransientObject
0000000000005654 g     F .text	0000000000000004 utee_malloc
00000000000046cc g     F .text	000000000000000c utee_cryp_state_alloc
00000000000047d4 g     F .text	000000000000000c utee_authenc_enc_final
00000000000095f8 g     F .text	0000000000000020 __mpa_mul_add_word_cum
0000000000002e7c g     F .text	00000000000000a4 TEE_CipherInit
0000000000005114 g     F .text	0000000000000004 TEE_BigIntNeg
0000000000008b04 g     F .text	00000000000000f0 mpa_div
0000000000000020 g       .text	0000000000000000 __text_start
0000000000001c6c g     F .text	0000000000000050 TEE_StartPersistentObjectEnumerator
000000000000b860 g     O .rodata	000000000000000c const_one
0000000000006798 g     F .text	000000000000006c malloc_buffer_overlaps_heap
000000000000a868 g     F .text	0000000000000018 __mpa_abs_less_than
00000000000052d4 g     F .text	00000000000000a8 TEE_BigIntSubMod
00000000000034e4 g     F .text	00000000000000c4 TEE_AEInit
0000000000009958 g     F .text	0000000000000114 mpa_get_random
0000000000005670 g     F .text	0000000000000004 get_rng_array
000000000000768c g     F .text	000000000000022c trace_printf
00000000000048ac g     F .text	000000000000000c utee_se_service_open
0000000000006904 g     F .text	0000000000000020 memcpy
00000000000046e4 g     F .text	000000000000000c utee_cryp_state_free
000000000000790c g     F .text	0000000000000030 mpa_wipe
0000000000005580 g     F .text	0000000000000094 TEE_BigIntConvertFromFMM
0000000000004344 g     F .text	0000000000000008 TEE_Panic
000000000000493c g     F .text	000000000000000c utee_se_channel_get_select_resp
0000000000002c28 g     F .text	0000000000000120 TEE_CopyOperation
0000000000005770 g     F .text	0000000000000040 puts
0000000000005614 g     F .text	0000000000000010 TEE_BigIntComputeFMM
00000000000082b8 g     F .text	0000000000000014 mpa_set_word
0000000000006090 g     F .text	0000000000000038 malloc_get_stats
0000000000009bd4 g     F .text	0000000000000190 mpa_shift_left
000000000000472c g     F .text	000000000000000c utee_cipher_final
00000000000097a4 g     F .text	00000000000000e4 mpa_mul
0000000000001230 g     F .text	0000000000000028 TEE_GetREETime
0000000000001bc0 g     F .text	000000000000005c TEE_AllocatePersistentObjectEnumerator
000000000000e000 g     O .data	00000000000000d8 ta_props
0000000000003acc g     F .text	0000000000000144 TEE_AsymmetricEncrypt
00000000000060c8 g     F .text	0000000000000038 malloc
0000000000004768 g     F .text	000000000000000c utee_cryp_obj_close
00000000000048e8 g     F .text	000000000000000c utee_se_reader_open_session
000000000000687c g     F .text	0000000000000054 vsnprintf
0000000000001900 g     F .text	0000000000000084 TEE_GenerateKey
000000000000e124 g     O .data	0000000000000004 trace_level
000000000000e360 g     O .bss	0000000000000200 out
000000000000564c g     F .text	0000000000000008 utee_get_ta_exec_id
00000000000050bc g     F .text	0000000000000004 TEE_BigIntCmp
0000000000005658 g     F .text	0000000000000004 utee_realloc
000000000000b698 g     O .rodata	0000000000000008 ta_num_props
0000000000005e58 g     F .text	000000000000009c bgetr
00000000000047c8 g     F .text	000000000000000c utee_authenc_update_payload
0000000000002f20 g     F .text	000000000000015c TEE_CipherUpdate
0000000000005058 g     F .text	0000000000000040 TEE_BigIntConvertToOctetString
00000000000027e8 g     F .text	0000000000000148 TEE_GetOperationInfoMultiple
0000000000004960 g     F .text	000000000000000c utee_cache_operation
00000000000047b0 g     F .text	000000000000000c utee_authenc_init
00000000000050c8 g     F .text	000000000000001c TEE_BigIntGetBit
000000000000b6b8 g     O .rodata	0000000000000008 trace_ext_prefix
0000000000009f08 g     F .text	00000000000000f4 __mpa_abs_add
0000000000005b24 g     F .text	0000000000000088 bgetz
00000000000010e8 g     F .text	000000000000000c TEE_GetInstanceData
0000000000001134 g     F .text	000000000000003c TEE_Wait
000000000000487c g     F .text	000000000000000c utee_storage_obj_write
0000000000009594 g     F .text	000000000000004c mpa_free_static_temp_var
0000000000007e6c g     F .text	00000000000003ac mpa_is_prob_prime
0000000000004954 g     F .text	000000000000000c utee_se_channel_close
0000000000009888 g     F .text	00000000000000c4 mpa_mul_word
000000000000e350 g     O .bss	0000000000000010 iv
0000000000001274 g     F .text	0000000000000008 TEE_CacheFlush
00000000000001c8 g     F .text	0000000000000024 TA_DestroyEntryPoint
0000000000004f38 g     F .text	0000000000000044 _assert_log
000000000000501c g     F .text	0000000000000014 TEE_BigIntFMMContextSizeInU32
0000000000003424 g     F .text	00000000000000c0 TEE_MACCompareFinal
0000000000001b54 g     F .text	000000000000006c TEE_RenamePersistentObject
0000000000002db8 g     F .text	00000000000000c4 TEE_DigestDoFinal
000000000000847c g     F .text	0000000000000688 __mpa_div_q_r
0000000000004f90 g     F .text	000000000000002c _TEE_MathAPI_Init
0000000000004864 g     F .text	000000000000000c utee_storage_next_enum
000000000000e588 g     O .bss	0000000000008000 ta_heap
0000000000005450 g     F .text	000000000000006c TEE_BigIntInvMod
0000000000000238 g     F .text	0000000000000024 TA_CloseSessionEntryPoint
0000000000003c10 g     F .text	0000000000000148 TEE_AsymmetricDecrypt
0000000000001984 g     F .text	0000000000000098 TEE_OpenPersistentObject
0000000000004630 g     F .text	000000000000000c __utee_panic
00000000000046d8 g     F .text	000000000000000c utee_cryp_state_copy
000000000000025c g     F .text	0000000000000b90 TA_InvokeCommandEntryPoint
000000000000b064 g     F .text	0000000000000110 mpa_set_oct_str
0000000000004918 g     F .text	000000000000000c utee_se_session_open_channel
0000000000009ad8 g     F .text	0000000000000098 __mpa_shift_words_left
000000000000475c g     F .text	000000000000000c utee_cryp_obj_alloc
00000000000046c0 g     F .text	000000000000000c utee_set_ta_time
0000000000004750 g     F .text	000000000000000c utee_cryp_obj_get_attr
00000000000018ac g     F .text	0000000000000054 TEE_CopyObjectAttributes
0000000000007af4 g     F .text	0000000000000090 __mpa_montgomery_sub_ack
000000000000610c g     F .text	000000000000004c calloc
0000000000001258 g     F .text	0000000000000008 TEE_Malloc
000000000000469c g     F .text	000000000000000c utee_mask_cancellation
0000000000004774 g     F .text	000000000000000c utee_cryp_obj_reset
00000000000010c8 g     F .text	0000000000000014 TEE_CheckMemoryAccessRights
00000000000191a8 g       .bss	0000000000000000 __gprof_buf_end
000000000000a4fc g     F .text	000000000000002c mpa_neg
000000000000b890 g     O .rodata	0000000000000c38 PRIME_TABLE
0000000000001d40 g     F .text	0000000000000068 TEE_ReadObjectData
00000000000013ec g     F .text	00000000000000ac TEE_GetObjectBufferAttribute
00000000000001ec g     F .text	000000000000004c TA_OpenSessionEntryPoint
0000000000009160 g     F .text	0000000000000120 mpa_gcd
0000000000007990 g     F .text	0000000000000030 mpa_abs
0000000000004858 g     F .text	000000000000000c utee_storage_start_enum
0000000000001f38 g     F .text	0000000000000044 TEE_FreeOperation
000000000000ad48 g     F .text	0000000000000298 mpa_set_str
0000000000004828 g     F .text	000000000000000c utee_storage_obj_rename
0000000000016590 g     O .bss	0000000000000004 ta_param_types
0000000000001284 g     F .text	000000000000004c __utee_from_attr
0000000000005540 g     F .text	0000000000000024 TEE_BigIntIsProbablePrime
0000000000009584 g     F .text	0000000000000010 mpa_alloc_static_temp_var
0000000000001ae4 g     F .text	0000000000000044 TEE_CloseAndDeletePersistentObject1
000000000000994c g     F .text	000000000000000c mpa_set_random_generator
000000000000463c g     F .text	000000000000000c utee_get_property
0000000000003934 g     F .text	0000000000000198 TEE_AEDecryptFinal
0000000000004fbc g     F .text	0000000000000004 TEE_BigIntInit
00000000000010f4 g     F .text	0000000000000008 TEE_MemMove
0000000000005030 g     F .text	0000000000000028 TEE_BigIntConvertFromOctetString
000000000000e0d8 g     O .data	0000000000000008 _ref__utee_mcount
0000000000003224 g     F .text	00000000000000a4 TEE_MACInit
0000000000003d58 g     F .text	000000000000013c TEE_AsymmetricSignDigest
00000000000078bc g     F .text	000000000000002c memchr
0000000000001070 g     F .text	000000000000002c TEE_UnmaskCancellation
00000000000012d0 g     F .text	0000000000000048 TEE_GetObjectInfo
000000000000b408 g     F .text	0000000000000084 mpa_mul_mod
000000000000481c g     F .text	000000000000000c utee_storage_obj_del
000000000000363c g     F .text	0000000000000150 TEE_AEUpdate
0000000000004894 g     F .text	000000000000000c utee_storage_obj_seek
00000000000015f4 g     F .text	0000000000000054 TEE_FreeTransientObject
0000000000007ca8 g     F .text	000000000000013c mpa_compute_fmm_context
000000000000e560 g     O .bss	0000000000000008 keyBuf
00000000000046fc g     F .text	000000000000000c utee_hash_update
000000000000946c g     F .text	0000000000000018 mpa_init_scratch_mem_sync
000000000000496c  w    F .text	0000000000000004 __utee_mcount
00000000000027a0 g     F .text	0000000000000048 TEE_GetOperationInfo
0000000000005198 g     F .text	0000000000000094 TEE_BigIntMod
0000000000004930 g     F .text	000000000000000c utee_se_channel_select_next
0000000000004660 g     F .text	000000000000000c utee_close_ta_session
0000000000005134 g     F .text	0000000000000064 TEE_BigIntDiv
000000000000e348 g     O .bss	0000000000000008 handle
0000000000006078 g     F .text	0000000000000018 malloc_reset_stats
0000000000004720 g     F .text	000000000000000c utee_cipher_update
0000000000001358 g     F .text	0000000000000044 TEE_RestrictObjectUsage1
000000000000490c g     F .text	000000000000000c utee_se_session_get_atr
0000000000006158 g     F .text	0000000000000038 realloc
0000000000009ffc g     F .text	00000000000000cc __mpa_abs_add_ackum
00000000000047f8 g     F .text	000000000000000c utee_asymm_verify
0000000000005118 g     F .text	000000000000000c TEE_BigIntMul
0000000000002930 g     F .text	0000000000000078 TEE_ResetOperation
00000000000082cc g     F .text	0000000000000018 mpa_get_word
0000000000001104 g     F .text	0000000000000008 TEE_MemFill
00000000000068d0 g     F .text	0000000000000034 memcmp
0000000000006520 g     F .text	00000000000000f8 malloc_add_pool
00000000000032c8 g     F .text	00000000000000a0 TEE_MACUpdate
000000000000767c g     F .text	0000000000000010 trace_get_level
00000000000047a4 g     F .text	000000000000000c utee_cryp_random_number_generate
000000000000139c g     F .text	0000000000000050 TEE_RestrictObjectUsage
000000000000500c g     F .text	0000000000000010 TEE_BigIntFMMSizeInU32
000000000000e328 g     O .bss	000000000000001c key_info
0000000000004fc0 g     F .text	0000000000000014 TEE_BigIntInitFMM
00000000000047ec g     F .text	000000000000000c utee_asymm_operate
0000000000001568 g     F .text	0000000000000028 TEE_CloseObject
00000000000043f0 g     F .text	000000000000021c __utee_entry
000000000000b5a0 g       .text	0000000000000000 __text_end
00000000000054bc g     F .text	0000000000000078 TEE_BigIntRelativePrime
0000000000009a6c g     F .text	000000000000006c mpa_get_random_digits
000000000000e568 g     O .bss	0000000000000008 p_storage_obj
000000000000e120 g     O .data	0000000000000004 iv_len
0000000000005ef4 g     F .text	00000000000000dc bpool
0000000000008218 g     F .text	000000000000002c mpa_set_S32
000000000000ab44 g     F .text	0000000000000068 mpa_init_static_fmm_context
0000000000001044 g     F .text	000000000000002c TEE_GetCancellationFlag
00000000000048b8 g     F .text	000000000000000c utee_se_service_close
0000000000004acc g     F .text	000000000000014c tee_user_mem_alloc
000000000000e0f0 g     O .data	0000000000000010 user_mem_head
00000000000011f0 g     F .text	0000000000000040 TEE_SetTAPersistentTime
000000000000a528 g     F .text	000000000000013c mpa_add_word
00000000000048d0 g     F .text	000000000000000c utee_se_reader_get_prop
0000000000006970 g     F .text	000000000000001c memset
0000000000001170 g     F .text	0000000000000080 TEE_GetTAPersistentTime
00000000000078b8 g     F .text	0000000000000004 dhex_dump
0000000000001a1c g     F .text	00000000000000c8 TEE_CreatePersistentObject
000000000000109c g     F .text	000000000000002c TEE_MaskCancellation
0000000000009ec4 g     F .text	0000000000000024 __mpa_full_sub
00000000000035a8 g     F .text	0000000000000094 TEE_AEUpdateAAD
0000000000004870 g     F .text	000000000000000c utee_storage_obj_read
0000000000001e0c g     F .text	000000000000005c TEE_TruncateObjectData
000000000000565c g     F .text	0000000000000010 utee_calloc
0000000000004780 g     F .text	000000000000000c utee_cryp_obj_populate
000000000000a880 g     F .text	0000000000000068 mpa_cmp
000000000000b48c g     F .text	0000000000000114 mpa_inv_mod
000000000000a664 g     F .text	0000000000000138 mpa_sub_word
00000000000095e0 g     F .text	0000000000000018 __mpa_mul_add_word
000000000000a1cc g     F .text	0000000000000194 mpa_add
000000000000a96c g     F .text	00000000000001bc mpa_exp_mod
0000000000001318 g     F .text	0000000000000040 TEE_GetObjectInfo1
000000000000e570 g     O .bss	0000000000000008 key
0000000000009b70 g     F .text	0000000000000064 __mpa_shift_words_right
0000000000007658 g     F .text	0000000000000024 trace_set_level
0000000000004900 g     F .text	000000000000000c utee_se_session_is_closed
0000000000004738 g     F .text	000000000000000c utee_cryp_obj_get_info
0000000000001498 g     F .text	00000000000000d0 TEE_GetObjectValueAttribute
00000000000029a8 g     F .text	00000000000000f0 TEE_SetOperationKey
0000000000004834 g     F .text	000000000000000c utee_storage_alloc_enum
000000000000484c g     F .text	000000000000000c utee_storage_reset_enum
0000000000004888 g     F .text	000000000000000c utee_storage_obj_trunc
000000000000b2e8 g     F .text	0000000000000018 mpa_mod
000000000000a84c g     F .text	000000000000001c __mpa_abs_greater_than
000000000000509c g     F .text	0000000000000020 TEE_BigIntConvertToS32
0000000000005108 g     F .text	000000000000000c TEE_BigIntSub
0000000000004678 g     F .text	000000000000000c utee_get_cancellation_flag
000000000000e578 g     O .bss	0000000000000008 object
00000000000046f0 g     F .text	000000000000000c utee_hash_init
0000000000000dec g     F .text	0000000000000008 tahead_get_trace_level
0000000000000df4 g     F .text	0000000000000078 __utee_from_param
0000000000001e68 g     F .text	00000000000000d0 TEE_SeekObjectData
000000000000b870 g     O .rodata	0000000000000010 Const_1_LShift_Base
0000000000000e6c g     F .text	000000000000006c __utee_to_param
0000000000006190 g     F .text	0000000000000390 memalign
000000000000307c g     F .text	00000000000001a8 TEE_CipherDoFinal
0000000000005098 g     F .text	0000000000000004 TEE_BigIntConvertFromS32
000000000000b384 g     F .text	0000000000000084 mpa_sub_mod
0000000000004744 g     F .text	000000000000000c utee_cryp_obj_restrict_usage
0000000000006618 g     F .text	0000000000000180 malloc_buffer_is_within_alloced
000000000000478c g     F .text	000000000000000c utee_cryp_obj_copy
0000000000009d64 g     F .text	0000000000000144 mpa_shift_right
0000000000004fd4 g     F .text	0000000000000038 TEE_BigIntInitFMMContext
0000000000004798 g     F .text	000000000000000c utee_cryp_derive_key
0000000000007b84 g     F .text	0000000000000124 __mpa_montgomery_mul
000000000000b174 g     F .text	0000000000000174 mpa_get_oct_str
000000000000a8e8 g     F .text	0000000000000084 mpa_cmp_short
00000000000047e0 g     F .text	000000000000000c utee_authenc_dec_final
0000000000001da8 g     F .text	0000000000000064 TEE_WriteObjectData
0000000000001c44 g     F .text	0000000000000028 TEE_ResetPersistentObjectEnumerator
000000000000a79c g     F .text	00000000000000b0 __mpa_abs_cmp
0000000000005124 g     F .text	0000000000000010 TEE_BigIntSquare
0000000000000190 g     F .text	0000000000000038 TA_CreateEntryPoint
000000000000e128 g     O .bss	0000000000000200 buf
00000000000075a4 g     F .text	0000000000000074 snprintk
00000000000050e4 g     F .text	0000000000000018 TEE_BigIntGetBitCount
000000000000537c g     F .text	00000000000000c8 TEE_BigIntMulMod
0000000000003fc0 g     F .text	0000000000000144 TEE_DeriveKey
0000000000016598 g     O .bss	0000000000000040 ta_params
00000000000096b0 g     F .text	00000000000000f4 __mpa_abs_mul
0000000000005948 g     F .text	00000000000001dc bget
0000000000001590 g     F .text	0000000000000064 TEE_AllocateTransientObject
0000000000001268 g     F .text	0000000000000004 TEE_Free
00000000000048dc g     F .text	000000000000000c utee_se_reader_get_name
000000000000127c g     F .text	0000000000000008 TEE_CacheInvalidate
0000000000004714 g     F .text	000000000000000c utee_cipher_init
0000000000004f7c g     F .text	0000000000000014 _assert_break
000000000000522c g     F .text	00000000000000a8 TEE_BigIntAddMod
0000000000004840 g     F .text	000000000000000c utee_storage_free_enum
00000000000047bc g     F .text	000000000000000c utee_authenc_update_aad
0000000000007a04 g     F .text	0000000000000044 mpa_get_bit
0000000000001f7c g     F .text	0000000000000824 TEE_AllocateOperation
0000000000009484 g     F .text	0000000000000018 mpa_init_scratch_mem
0000000000004104 g     F .text	0000000000000024 TEE_GenerateRandom
00000000000010fc g     F .text	0000000000000008 TEE_MemCompare
000000000000e580 g     O .bss	0000000000000004 res
00000000000069a8 g     F .text	0000000000000ba8 __vsnprintf
0000000000001c1c g     F .text	0000000000000028 TEE_FreePersistentObjectEnumerator
000000000000460c g     F .text	000000000000000c utee_panic
0000000000000ed8 g     F .text	0000000000000090 TEE_OpenTASession
0000000000005674 g     F .text	0000000000000028 trace_ext_puts
0000000000004ec0 g     F .text	0000000000000078 tee_user_mem_garbage
000000000000569c g     F .text	0000000000000008 trace_ext_get_thread_id
0000000000001b28 g     F .text	000000000000002c TEE_CloseAndDeletePersistentObject
000000000000126c g     F .text	0000000000000008 TEE_CacheClean
0000000000004654 g     F .text	000000000000000c utee_open_ta_session
0000000000007618 g     F .text	0000000000000040 buf_compare_ct
00000000000082e4 g     F .text	0000000000000050 __mpa_div_dword
00000000000078e8 g     F .text	0000000000000024 __mpa_set_unused_digits_to_zero
000000000000b880 g     O .rodata	000000000000000c const_largest_deci_base
000000000000ad40 g     F .text	0000000000000008 mpa_get_str_size
0000000000004e24 g     F .text	000000000000009c tee_user_mem_check_heap
0000000000001800 g     F .text	00000000000000ac TEE_CopyObjectAttributes1
0000000000004708 g     F .text	000000000000000c utee_hash_final
000000000000698c g     F .text	000000000000001c strlen
0000000000005534 g     F .text	000000000000000c TEE_BigIntComputeExtendedGcd
0000000000009280 g     F .text	00000000000001ec mpa_extended_gcd
000000000000b300 g     F .text	0000000000000084 mpa_add_mod
0000000000004804 g     F .text	000000000000000c utee_storage_obj_open
000000000000466c g     F .text	000000000000000c utee_invoke_ta_command
000000000000afe0 g     F .text	0000000000000084 mpa_get_str
00000000000046a8 g     F .text	000000000000000c utee_wait
000000000000566c g     F .text	0000000000000004 utee_free
0000000000004e18 g     F .text	000000000000000c tee_user_mem_mark_heap
000000000000110c g     F .text	0000000000000028 TEE_GetSystemTime
0000000000000000 g     O .ta_head	0000000000000020 ta_head
0000000000005bac g     F .text	00000000000002ac brel
000000000000949c g     F .text	00000000000000e8 mpa_alloc_static_temp_var_size
00000000000046b4 g     F .text	000000000000000c utee_get_time
0000000000007a7c g     F .text	0000000000000078 __mpa_montgomery_mul_add
00000000000010dc g     F .text	000000000000000c TEE_SetInstanceData
0000000000004690 g     F .text	000000000000000c utee_unmask_cancellation
0000000000004684 g     F .text	000000000000000c utee_check_access_rights
00000000000048f4 g     F .text	000000000000000c utee_se_reader_close_sessions
0000000000001cbc g     F .text	0000000000000084 TEE_GetNextPersistentObject
00000000000048a0 g     F .text	000000000000000c utee_cryp_obj_generate_key
0000000000007a70 g     F .text	000000000000000c mpa_constant_one
0000000000000f68 g     F .text	0000000000000028 TEE_CloseTASession
0000000000003e94 g     F .text	000000000000012c TEE_AsymmetricVerifyDigest
0000000000009ea8 g     F .text	000000000000001c __mpa_full_adder
000000000000a0c8 g     F .text	0000000000000104 __mpa_abs_sub
00000000000191a8 g       .bss	0000000000000000 __gprof_buf_start
0000000000006100 g     F .text	000000000000000c free
0000000000005fd0 g     F .text	00000000000000a8 bstats
0000000000003368 g     F .text	00000000000000bc TEE_MACComputeFinal



Disassembly of section .text:

0000000000000020 <createAndOpenObject.constprop.5>:
createAndOpenObject():
/home/pwnz/devel/optee/optee_examples/crypto/ta/hello_world_ta.c:182
      20:	a9bd7bfd 	stp	x29, x30, [sp,#-48]!
/home/pwnz/devel/optee/optee_examples/crypto/ta/hello_world_ta.c:186
      24:	528000e3 	mov	w3, #0x7                   	// #7
/home/pwnz/devel/optee/optee_examples/crypto/ta/hello_world_ta.c:182
      28:	910003fd 	mov	x29, sp
      2c:	a90153f3 	stp	x19, x20, [sp,#16]
/home/pwnz/devel/optee/optee_examples/crypto/ta/hello_world_ta.c:186
      30:	b0000074 	adrp	x20, d000 <__func__.3637+0xa28>
/home/pwnz/devel/optee/optee_examples/crypto/ta/hello_world_ta.c:182
      34:	a9025bf5 	stp	x21, x22, [sp,#32]
      38:	2a0203f3 	mov	w19, w2
/home/pwnz/devel/optee/optee_examples/crypto/ta/hello_world_ta.c:186
      3c:	f9432a94 	ldr	x20, [x20,#1616]
/home/pwnz/devel/optee/optee_examples/crypto/ta/hello_world_ta.c:182
      40:	aa0003f5 	mov	x21, x0
      44:	aa0103f6 	mov	x22, x1
/home/pwnz/devel/optee/optee_examples/crypto/ta/hello_world_ta.c:186
      48:	52800802 	mov	w2, #0x40                  	// #64
      4c:	aa0003e1 	mov	x1, x0
      50:	aa1403e4 	mov	x4, x20
      54:	52800020 	mov	w0, #0x1                   	// #1
      58:	9400064b 	bl	1984 <TEE_OpenPersistentObject>
/home/pwnz/devel/optee/optee_examples/crypto/ta/hello_world_ta.c:187
      5c:	7100001f 	cmp	w0, #0x0
      60:	1a9f07e1 	cset	w1, ne
      64:	7100067f 	cmp	w19, #0x1
      68:	1a9f17e0 	cset	w0, eq
      6c:	6a00003f 	tst	w1, w0
      70:	f0000040 	adrp	x0, b000 <mpa_get_str+0x20>
      74:	54000680 	b.eq	144 <createAndOpenObject.constprop.5+0x124>
/home/pwnz/devel/optee/optee_examples/crypto/ta/hello_world_ta.c:188
      78:	9116a013 	add	x19, x0, #0x5a8
      7c:	52800023 	mov	w3, #0x1                   	// #1
      80:	52800042 	mov	w2, #0x2                   	// #2
      84:	52801781 	mov	w1, #0xbc                  	// #188
      88:	aa1303e0 	mov	x0, x19
      8c:	90000064 	adrp	x4, c000 <PRIME_TABLE+0x770>
      90:	9117cc84 	add	x4, x4, #0x5f3
      94:	94001d7e 	bl	768c <trace_printf>
/home/pwnz/devel/optee/optee_examples/crypto/ta/hello_world_ta.c:189
      98:	52800023 	mov	w3, #0x1                   	// #1
      9c:	52800022 	mov	w2, #0x1                   	// #1
      a0:	528017a1 	mov	w1, #0xbd                  	// #189
      a4:	aa1303e0 	mov	x0, x19
      a8:	90000064 	adrp	x4, c000 <PRIME_TABLE+0x770>
      ac:	91184c84 	add	x4, x4, #0x613
      b0:	94001d77 	bl	768c <trace_printf>
/home/pwnz/devel/optee/optee_examples/crypto/ta/hello_world_ta.c:190
      b4:	aa1603e5 	mov	x5, x22
      b8:	d2800007 	mov	x7, #0x0                   	// #0
      bc:	52800206 	mov	w6, #0x10                  	// #16
      c0:	d2800004 	mov	x4, #0x0                   	// #0
      c4:	52800083 	mov	w3, #0x4                   	// #4
      c8:	52800802 	mov	w2, #0x40                  	// #64
      cc:	aa1503e1 	mov	x1, x21
      d0:	52800020 	mov	w0, #0x1                   	// #1
      d4:	94000652 	bl	1a1c <TEE_CreatePersistentObject>
/home/pwnz/devel/optee/optee_examples/crypto/ta/hello_world_ta.c:195
      d8:	2a0003e5 	mov	w5, w0
      dc:	52800023 	mov	w3, #0x1                   	// #1
      e0:	52800022 	mov	w2, #0x1                   	// #1
      e4:	52801861 	mov	w1, #0xc3                  	// #195
      e8:	aa1303e0 	mov	x0, x19
      ec:	90000064 	adrp	x4, c000 <PRIME_TABLE+0x770>
      f0:	9118d484 	add	x4, x4, #0x635
      f4:	94001d66 	bl	768c <trace_printf>
/home/pwnz/devel/optee/optee_examples/crypto/ta/hello_world_ta.c:196
      f8:	aa1403e4 	mov	x4, x20
      fc:	528000e3 	mov	w3, #0x7                   	// #7
     100:	52800802 	mov	w2, #0x40                  	// #64
     104:	aa1503e1 	mov	x1, x21
     108:	52800020 	mov	w0, #0x1                   	// #1
     10c:	9400061e 	bl	1984 <TEE_OpenPersistentObject>
/home/pwnz/devel/optee/optee_examples/crypto/ta/hello_world_ta.c:199
     110:	90000064 	adrp	x4, c000 <PRIME_TABLE+0x770>
     114:	2a0003e5 	mov	w5, w0
     118:	91198884 	add	x4, x4, #0x662
     11c:	aa1303e0 	mov	x0, x19
     120:	52800023 	mov	w3, #0x1                   	// #1
     124:	52800022 	mov	w2, #0x1                   	// #1
     128:	528018e1 	mov	w1, #0xc7                  	// #199
     12c:	94001d58 	bl	768c <trace_printf>
/home/pwnz/devel/optee/optee_examples/crypto/ta/hello_world_ta.c:200
     130:	12800000 	mov	w0, #0xffffffff            	// #-1
/home/pwnz/devel/optee/optee_examples/crypto/ta/hello_world_ta.c:209
     134:	a94153f3 	ldp	x19, x20, [sp,#16]
     138:	a9425bf5 	ldp	x21, x22, [sp,#32]
     13c:	a8c37bfd 	ldp	x29, x30, [sp],#48
     140:	d65f03c0 	ret
/home/pwnz/devel/optee/optee_examples/crypto/ta/hello_world_ta.c:202
     144:	71000a7f 	cmp	w19, #0x2
     148:	1a9f17e2 	cset	w2, eq
     14c:	6a02003f 	tst	w1, w2
     150:	54000140 	b.eq	178 <createAndOpenObject.constprop.5+0x158>
/home/pwnz/devel/optee/optee_examples/crypto/ta/hello_world_ta.c:203
     154:	90000064 	adrp	x4, c000 <PRIME_TABLE+0x770>
     158:	911a3484 	add	x4, x4, #0x68d
     15c:	52800023 	mov	w3, #0x1                   	// #1
     160:	52800022 	mov	w2, #0x1                   	// #1
     164:	52801961 	mov	w1, #0xcb                  	// #203
/home/pwnz/devel/optee/optee_examples/crypto/ta/hello_world_ta.c:206
     168:	9116a000 	add	x0, x0, #0x5a8
     16c:	94001d48 	bl	768c <trace_printf>
/home/pwnz/devel/optee/optee_examples/crypto/ta/hello_world_ta.c:208
     170:	52800020 	mov	w0, #0x1                   	// #1
     174:	17fffff0 	b	134 <createAndOpenObject.constprop.5+0x114>
/home/pwnz/devel/optee/optee_examples/crypto/ta/hello_world_ta.c:206
     178:	90000064 	adrp	x4, c000 <PRIME_TABLE+0x770>
     17c:	52800023 	mov	w3, #0x1                   	// #1
     180:	911b3c84 	add	x4, x4, #0x6cf
     184:	52800022 	mov	w2, #0x1                   	// #1
     188:	528019c1 	mov	w1, #0xce                  	// #206
     18c:	17fffff7 	b	168 <createAndOpenObject.constprop.5+0x148>

0000000000000190 <TA_CreateEntryPoint>:
TA_CreateEntryPoint():
/home/pwnz/devel/optee/optee_examples/crypto/ta/hello_world_ta.c:57
     190:	a9bf7bfd 	stp	x29, x30, [sp,#-16]!
/home/pwnz/devel/optee/optee_examples/crypto/ta/hello_world_ta.c:58
     194:	f0000040 	adrp	x0, b000 <mpa_get_str+0x20>
     198:	9116a000 	add	x0, x0, #0x5a8
     19c:	52800023 	mov	w3, #0x1                   	// #1
/home/pwnz/devel/optee/optee_examples/crypto/ta/hello_world_ta.c:57
     1a0:	910003fd 	mov	x29, sp
/home/pwnz/devel/optee/optee_examples/crypto/ta/hello_world_ta.c:58
     1a4:	52800062 	mov	w2, #0x3                   	// #3
     1a8:	52800741 	mov	w1, #0x3a                  	// #58
     1ac:	91006000 	add	x0, x0, #0x18
     1b0:	90000064 	adrp	x4, c000 <PRIME_TABLE+0x770>
     1b4:	911bcc84 	add	x4, x4, #0x6f3
     1b8:	94001d35 	bl	768c <trace_printf>
/home/pwnz/devel/optee/optee_examples/crypto/ta/hello_world_ta.c:61
     1bc:	52800000 	mov	w0, #0x0                   	// #0
     1c0:	a8c17bfd 	ldp	x29, x30, [sp],#16
     1c4:	d65f03c0 	ret

00000000000001c8 <TA_DestroyEntryPoint>:
TA_DestroyEntryPoint():
/home/pwnz/devel/optee/optee_examples/crypto/ta/hello_world_ta.c:69
     1c8:	f0000040 	adrp	x0, b000 <mpa_get_str+0x20>
     1cc:	9116a000 	add	x0, x0, #0x5a8
     1d0:	90000064 	adrp	x4, c000 <PRIME_TABLE+0x770>
     1d4:	52800023 	mov	w3, #0x1                   	// #1
     1d8:	911bcc84 	add	x4, x4, #0x6f3
     1dc:	52800062 	mov	w2, #0x3                   	// #3
     1e0:	528008a1 	mov	w1, #0x45                  	// #69
     1e4:	9100c000 	add	x0, x0, #0x30
     1e8:	14001d29 	b	768c <trace_printf>

00000000000001ec <TA_OpenSessionEntryPoint>:
TA_OpenSessionEntryPoint():
/home/pwnz/devel/optee/optee_examples/crypto/ta/hello_world_ta.c:81
     1ec:	a9be7bfd 	stp	x29, x30, [sp,#-32]!
/home/pwnz/devel/optee/optee_examples/crypto/ta/hello_world_ta.c:87
     1f0:	52800023 	mov	w3, #0x1                   	// #1
     1f4:	52800062 	mov	w2, #0x3                   	// #3
     1f8:	52800ae1 	mov	w1, #0x57                  	// #87
/home/pwnz/devel/optee/optee_examples/crypto/ta/hello_world_ta.c:81
     1fc:	910003fd 	mov	x29, sp
     200:	f9000bf3 	str	x19, [sp,#16]
     204:	2a0003f3 	mov	w19, w0
/home/pwnz/devel/optee/optee_examples/crypto/ta/hello_world_ta.c:87
     208:	f0000040 	adrp	x0, b000 <mpa_get_str+0x20>
     20c:	9116a000 	add	x0, x0, #0x5a8
     210:	91012000 	add	x0, x0, #0x48
     214:	90000064 	adrp	x4, c000 <PRIME_TABLE+0x770>
     218:	911bcc84 	add	x4, x4, #0x6f3
     21c:	94001d1c 	bl	768c <trace_printf>
/home/pwnz/devel/optee/optee_examples/crypto/ta/hello_world_ta.c:103
     220:	7100027f 	cmp	w19, #0x0
/home/pwnz/devel/optee/optee_examples/crypto/ta/hello_world_ta.c:104
     224:	129fff20 	mov	w0, #0xffff0006            	// #-65530
     228:	f9400bf3 	ldr	x19, [sp,#16]
     22c:	1a9f1000 	csel	w0, w0, wzr, ne
     230:	a8c27bfd 	ldp	x29, x30, [sp],#32
     234:	d65f03c0 	ret

0000000000000238 <TA_CloseSessionEntryPoint>:
TA_CloseSessionEntryPoint():
/home/pwnz/devel/optee/optee_examples/crypto/ta/hello_world_ta.c:113
     238:	f0000040 	adrp	x0, b000 <mpa_get_str+0x20>
     23c:	9116a000 	add	x0, x0, #0x5a8
     240:	90000064 	adrp	x4, c000 <PRIME_TABLE+0x770>
     244:	52800023 	mov	w3, #0x1                   	// #1
     248:	911c0c84 	add	x4, x4, #0x703
     24c:	52800042 	mov	w2, #0x2                   	// #2
     250:	52800e21 	mov	w1, #0x71                  	// #113
     254:	9101a000 	add	x0, x0, #0x68
     258:	14001d0d 	b	768c <trace_printf>

000000000000025c <TA_InvokeCommandEntryPoint>:
TA_InvokeCommandEntryPoint():
/home/pwnz/devel/optee/optee_examples/crypto/ta/hello_world_ta.c:558
     25c:	a9b27bfd 	stp	x29, x30, [sp,#-224]!
/home/pwnz/devel/optee/optee_examples/crypto/ta/hello_world_ta.c:563
     260:	51000421 	sub	w1, w1, #0x1
     264:	71000c3f 	cmp	w1, #0x3
/home/pwnz/devel/optee/optee_examples/crypto/ta/hello_world_ta.c:558
     268:	910003fd 	mov	x29, sp
     26c:	a90153f3 	stp	x19, x20, [sp,#16]
     270:	f0000053 	adrp	x19, b000 <mpa_get_str+0x20>
     274:	a9025bf5 	stp	x21, x22, [sp,#32]
     278:	a90363f7 	stp	x23, x24, [sp,#48]
     27c:	a9046bf9 	stp	x25, x26, [sp,#64]
     280:	a90573fb 	stp	x27, x28, [sp,#80]
/home/pwnz/devel/optee/optee_examples/crypto/ta/hello_world_ta.c:563
     284:	540059c8 	b.hi	dbc <TA_InvokeCommandEntryPoint+0xb60>
     288:	f0000040 	adrp	x0, b000 <mpa_get_str+0x20>
     28c:	aa0303f6 	mov	x22, x3
     290:	91168000 	add	x0, x0, #0x5a0
     294:	78615800 	ldrh	w0, [x0,w1,uxtw #1]
     298:	10000061 	adr	x1, 2a4 <TA_InvokeCommandEntryPoint+0x48>
     29c:	8b20a820 	add	x0, x1, w0, sxth #2
     2a0:	d61f0000 	br	x0
hashUserKey():
/home/pwnz/devel/optee/optee_examples/crypto/ta/hello_world_ta.c:228
     2a4:	910042d5 	add	x21, x22, #0x10
/home/pwnz/devel/optee/optee_examples/crypto/ta/hello_world_ta.c:227
     2a8:	9116a277 	add	x23, x19, #0x5a8
/home/pwnz/devel/optee/optee_examples/crypto/ta/hello_world_ta.c:215
     2ac:	910263b9 	add	x25, x29, #0x98
/home/pwnz/devel/optee/optee_examples/crypto/ta/hello_world_ta.c:227
     2b0:	910222f4 	add	x20, x23, #0x88
/home/pwnz/devel/optee/optee_examples/crypto/ta/hello_world_ta.c:215
     2b4:	d2800822 	mov	x2, #0x41                  	// #65
     2b8:	90000061 	adrp	x1, c000 <PRIME_TABLE+0x770>
     2bc:	aa1903e0 	mov	x0, x25
     2c0:	91325c21 	add	x1, x1, #0xc97
     2c4:	94001990 	bl	6904 <memcpy>
/home/pwnz/devel/optee/optee_examples/crypto/ta/hello_world_ta.c:218
     2c8:	b90073bf 	str	wzr, [x29,#112]
/home/pwnz/devel/optee/optee_examples/crypto/ta/hello_world_ta.c:227
     2cc:	aa1403e0 	mov	x0, x20
     2d0:	52800023 	mov	w3, #0x1                   	// #1
     2d4:	52800042 	mov	w2, #0x2                   	// #2
     2d8:	52801c61 	mov	w1, #0xe3                  	// #227
     2dc:	90000064 	adrp	x4, c000 <PRIME_TABLE+0x770>
     2e0:	911c6484 	add	x4, x4, #0x719
     2e4:	94001cea 	bl	768c <trace_printf>
hashBufferWithSHA1():
/home/pwnz/devel/optee/optee_examples/crypto/ta/hello_world_ta.c:156
     2e8:	910383b8 	add	x24, x29, #0xe0
hashUserKey():
/home/pwnz/devel/optee/optee_examples/crypto/ta/hello_world_ta.c:228
     2ec:	b9400aa5 	ldr	w5, [x21,#8]
     2f0:	52800023 	mov	w3, #0x1                   	// #1
     2f4:	52800042 	mov	w2, #0x2                   	// #2
     2f8:	aa1403e0 	mov	x0, x20
     2fc:	52801c81 	mov	w1, #0xe4                  	// #228
     300:	90000064 	adrp	x4, c000 <PRIME_TABLE+0x770>
     304:	911cc084 	add	x4, x4, #0x730
/home/pwnz/devel/optee/optee_examples/crypto/ta/hello_world_ta.c:229
     308:	b0000074 	adrp	x20, d000 <__func__.3637+0xa28>
/home/pwnz/devel/optee/optee_examples/crypto/ta/hello_world_ta.c:228
     30c:	94001ce0 	bl	768c <trace_printf>
     310:	910262f7 	add	x23, x23, #0x98
/home/pwnz/devel/optee/optee_examples/crypto/ta/hello_world_ta.c:229
     314:	b9400aa0 	ldr	w0, [x21,#8]
     318:	52800001 	mov	w1, #0x0                   	// #0
     31c:	940003cf 	bl	1258 <TEE_Malloc>
     320:	f9431e81 	ldr	x1, [x20,#1592]
/home/pwnz/devel/optee/optee_examples/crypto/ta/hello_world_ta.c:230
     324:	b9400aa2 	ldr	w2, [x21,#8]
/home/pwnz/devel/optee/optee_examples/crypto/ta/hello_world_ta.c:229
     328:	f9000020 	str	x0, [x1]
/home/pwnz/devel/optee/optee_examples/crypto/ta/hello_world_ta.c:230
     32c:	f9400ac1 	ldr	x1, [x22,#16]
     330:	aa1403f6 	mov	x22, x20
     334:	94000370 	bl	10f4 <TEE_MemMove>
/home/pwnz/devel/optee/optee_examples/crypto/ta/hello_world_ta.c:231
     338:	b9400abb 	ldr	w27, [x21,#8]
/home/pwnz/devel/optee/optee_examples/crypto/ta/hello_world_ta.c:232
     33c:	52800280 	mov	w0, #0x14                  	// #20
/home/pwnz/devel/optee/optee_examples/crypto/ta/hello_world_ta.c:233
     340:	52800001 	mov	w1, #0x0                   	// #0
/home/pwnz/devel/optee/optee_examples/crypto/ta/hello_world_ta.c:232
     344:	b90077a0 	str	w0, [x29,#116]
/home/pwnz/devel/optee/optee_examples/crypto/ta/hello_world_ta.c:233
     348:	940003c4 	bl	1258 <TEE_Malloc>
hashBufferWithSHA1():
/home/pwnz/devel/optee/optee_examples/crypto/ta/hello_world_ta.c:156
     34c:	f8198f1f 	str	xzr, [x24,#-104]!
/home/pwnz/devel/optee/optee_examples/crypto/ta/hello_world_ta.c:158
     350:	52800041 	mov	w1, #0x2                   	// #2
hashUserKey():
/home/pwnz/devel/optee/optee_examples/crypto/ta/hello_world_ta.c:233
     354:	aa0003fa 	mov	x26, x0
hashBufferWithSHA1():
/home/pwnz/devel/optee/optee_examples/crypto/ta/hello_world_ta.c:158
     358:	52800003 	mov	w3, #0x0                   	// #0
     35c:	528000a2 	mov	w2, #0x5                   	// #5
     360:	72aa0001 	movk	w1, #0x5000, lsl #16
     364:	aa1803e0 	mov	x0, x24
     368:	94000705 	bl	1f7c <TEE_AllocateOperation>
/home/pwnz/devel/optee/optee_examples/crypto/ta/hello_world_ta.c:159
     36c:	34000940 	cbz	w0, 494 <TA_InvokeCommandEntryPoint+0x238>
/home/pwnz/devel/optee/optee_examples/crypto/ta/hello_world_ta.c:160
     370:	2a0003e5 	mov	w5, w0
     374:	90000064 	adrp	x4, c000 <PRIME_TABLE+0x770>
     378:	aa1703e0 	mov	x0, x23
     37c:	911d2884 	add	x4, x4, #0x74a
     380:	52800023 	mov	w3, #0x1                   	// #1
     384:	52800042 	mov	w2, #0x2                   	// #2
     388:	52801401 	mov	w1, #0xa0                  	// #160
/home/pwnz/devel/optee/optee_examples/crypto/ta/hello_world_ta.c:172
     38c:	94001cc0 	bl	768c <trace_printf>
/home/pwnz/devel/optee/optee_examples/crypto/ta/hello_world_ta.c:176
     390:	f9403fa0 	ldr	x0, [x29,#120]
     394:	940006e9 	bl	1f38 <TEE_FreeOperation>
hashUserKey():
/home/pwnz/devel/optee/optee_examples/crypto/ta/hello_world_ta.c:237
     398:	52800022 	mov	w2, #0x1                   	// #1
     39c:	aa1a03e1 	mov	x1, x26
     3a0:	aa1903e0 	mov	x0, x25
     3a4:	97ffff1f 	bl	20 <createAndOpenObject.constprop.5>
/home/pwnz/devel/optee/optee_examples/crypto/ta/hello_world_ta.c:238
     3a8:	7100041f 	cmp	w0, #0x1
     3ac:	540003e0 	b.eq	428 <TA_InvokeCommandEntryPoint+0x1cc>
/home/pwnz/devel/optee/optee_examples/crypto/ta/hello_world_ta.c:241
     3b0:	f9432ad7 	ldr	x23, [x22,#1616]
     3b4:	aa1803e1 	mov	x1, x24
/home/pwnz/devel/optee/optee_examples/crypto/ta/hello_world_ta.c:244
     3b8:	9116a274 	add	x20, x19, #0x5a8
     3bc:	91022294 	add	x20, x20, #0x88
/home/pwnz/devel/optee/optee_examples/crypto/ta/hello_world_ta.c:241
     3c0:	f94002e0 	ldr	x0, [x23]
     3c4:	940003c3 	bl	12d0 <TEE_GetObjectInfo>
/home/pwnz/devel/optee/optee_examples/crypto/ta/hello_world_ta.c:242
     3c8:	52800001 	mov	w1, #0x0                   	// #0
     3cc:	52800200 	mov	w0, #0x10                  	// #16
     3d0:	940003a2 	bl	1258 <TEE_Malloc>
     3d4:	aa0003f9 	mov	x25, x0
/home/pwnz/devel/optee/optee_examples/crypto/ta/hello_world_ta.c:244
     3d8:	52800023 	mov	w3, #0x1                   	// #1
     3dc:	52800042 	mov	w2, #0x2                   	// #2
     3e0:	52801e81 	mov	w1, #0xf4                  	// #244
     3e4:	aa1403e0 	mov	x0, x20
     3e8:	90000064 	adrp	x4, c000 <PRIME_TABLE+0x770>
     3ec:	911ef084 	add	x4, x4, #0x7bc
     3f0:	94001ca7 	bl	768c <trace_printf>
/home/pwnz/devel/optee/optee_examples/crypto/ta/hello_world_ta.c:245
     3f4:	f94002e0 	ldr	x0, [x23]
     3f8:	9101c3a3 	add	x3, x29, #0x70
     3fc:	52800202 	mov	w2, #0x10                  	// #16
     400:	aa1903e1 	mov	x1, x25
     404:	9400064f 	bl	1d40 <TEE_ReadObjectData>
/home/pwnz/devel/optee/optee_examples/crypto/ta/hello_world_ta.c:246
     408:	34000980 	cbz	w0, 538 <TA_InvokeCommandEntryPoint+0x2dc>
/home/pwnz/devel/optee/optee_examples/crypto/ta/hello_world_ta.c:247
     40c:	90000064 	adrp	x4, c000 <PRIME_TABLE+0x770>
     410:	52800023 	mov	w3, #0x1                   	// #1
     414:	911f6484 	add	x4, x4, #0x7d9
     418:	52800022 	mov	w2, #0x1                   	// #1
     41c:	52801ee1 	mov	w1, #0xf7                  	// #247
     420:	aa1403e0 	mov	x0, x20
     424:	94001c9a 	bl	768c <trace_printf>
/home/pwnz/devel/optee/optee_examples/crypto/ta/hello_world_ta.c:260
     428:	9116a273 	add	x19, x19, #0x5a8
     42c:	52800023 	mov	w3, #0x1                   	// #1
     430:	52800042 	mov	w2, #0x2                   	// #2
     434:	52802081 	mov	w1, #0x104                 	// #260
     438:	91022260 	add	x0, x19, #0x88
     43c:	90000064 	adrp	x4, c000 <PRIME_TABLE+0x770>
     440:	9120b484 	add	x4, x4, #0x82d
     444:	94001c92 	bl	768c <trace_printf>
/home/pwnz/devel/optee/optee_examples/crypto/ta/hello_world_ta.c:261
     448:	f9432ac0 	ldr	x0, [x22,#1616]
TA_InvokeCommandEntryPoint():
/home/pwnz/devel/optee/optee_examples/crypto/ta/hello_world_ta.c:568
     44c:	9102c273 	add	x19, x19, #0xb0
/home/pwnz/devel/optee/optee_examples/crypto/ta/hello_world_ta.c:570
     450:	90000078 	adrp	x24, c000 <PRIME_TABLE+0x770>
/home/pwnz/devel/optee/optee_examples/crypto/ta/hello_world_ta.c:569
     454:	52800017 	mov	w23, #0x0                   	// #0
/home/pwnz/devel/optee/optee_examples/crypto/ta/hello_world_ta.c:570
     458:	9121b718 	add	x24, x24, #0x86d
hashUserKey():
/home/pwnz/devel/optee/optee_examples/crypto/ta/hello_world_ta.c:261
     45c:	f9400000 	ldr	x0, [x0]
     460:	94000442 	bl	1568 <TEE_CloseObject>
TA_InvokeCommandEntryPoint():
/home/pwnz/devel/optee/optee_examples/crypto/ta/hello_world_ta.c:568
     464:	90000064 	adrp	x4, c000 <PRIME_TABLE+0x770>
     468:	52800023 	mov	w3, #0x1                   	// #1
     46c:	91212484 	add	x4, x4, #0x849
     470:	52800042 	mov	w2, #0x2                   	// #2
     474:	52804701 	mov	w1, #0x238                 	// #568
     478:	aa1303e0 	mov	x0, x19
     47c:	94001c84 	bl	768c <trace_printf>
/home/pwnz/devel/optee/optee_examples/crypto/ta/hello_world_ta.c:569 (discriminator 1)
     480:	b9400aa0 	ldr	w0, [x21,#8]
     484:	6b0002ff 	cmp	w23, w0
     488:	54000883 	b.cc	598 <TA_InvokeCommandEntryPoint+0x33c>
/home/pwnz/devel/optee/optee_examples/crypto/ta/hello_world_ta.c:584
     48c:	52800015 	mov	w21, #0x0                   	// #0
     490:	140000cd 	b	7c4 <TA_InvokeCommandEntryPoint+0x568>
hashBufferWithSHA1():
/home/pwnz/devel/optee/optee_examples/crypto/ta/hello_world_ta.c:165
     494:	90000064 	adrp	x4, c000 <PRIME_TABLE+0x770>
     498:	52800023 	mov	w3, #0x1                   	// #1
     49c:	911dc484 	add	x4, x4, #0x771
     4a0:	52800042 	mov	w2, #0x2                   	// #2
     4a4:	528014a1 	mov	w1, #0xa5                  	// #165
     4a8:	aa1703e0 	mov	x0, x23
     4ac:	94001c78 	bl	768c <trace_printf>
     4b0:	d280001c 	mov	x28, #0x0                   	// #0
/home/pwnz/devel/optee/optee_examples/crypto/ta/hello_world_ta.c:167
     4b4:	90000066 	adrp	x6, c000 <PRIME_TABLE+0x770>
     4b8:	911e20c6 	add	x6, x6, #0x788
     4bc:	f9431ec0 	ldr	x0, [x22,#1592]
/home/pwnz/devel/optee/optee_examples/crypto/ta/hello_world_ta.c:166
     4c0:	6b1c037f 	cmp	w27, w28
     4c4:	5400022c 	b.gt	508 <TA_InvokeCommandEntryPoint+0x2ac>
/home/pwnz/devel/optee/optee_examples/crypto/ta/hello_world_ta.c:170
     4c8:	f9400001 	ldr	x1, [x0]
     4cc:	9101d3a4 	add	x4, x29, #0x74
     4d0:	f9403fa0 	ldr	x0, [x29,#120]
     4d4:	aa1a03e3 	mov	x3, x26
     4d8:	2a1b03e2 	mov	w2, w27
     4dc:	94000a37 	bl	2db8 <TEE_DigestDoFinal>
/home/pwnz/devel/optee/optee_examples/crypto/ta/hello_world_ta.c:171
     4e0:	34fff580 	cbz	w0, 390 <TA_InvokeCommandEntryPoint+0x134>
/home/pwnz/devel/optee/optee_examples/crypto/ta/hello_world_ta.c:172
     4e4:	9116a266 	add	x6, x19, #0x5a8
     4e8:	2a0003e5 	mov	w5, w0
     4ec:	90000064 	adrp	x4, c000 <PRIME_TABLE+0x770>
     4f0:	52800023 	mov	w3, #0x1                   	// #1
     4f4:	911e6484 	add	x4, x4, #0x799
     4f8:	52800042 	mov	w2, #0x2                   	// #2
     4fc:	52801581 	mov	w1, #0xac                  	// #172
     500:	910260c0 	add	x0, x6, #0x98
     504:	17ffffa2 	b	38c <TA_InvokeCommandEntryPoint+0x130>
/home/pwnz/devel/optee/optee_examples/crypto/ta/hello_world_ta.c:167
     508:	f9400000 	ldr	x0, [x0]
     50c:	aa0603e4 	mov	x4, x6
     510:	f90037a6 	str	x6, [x29,#104]
     514:	52800023 	mov	w3, #0x1                   	// #1
     518:	52800042 	mov	w2, #0x2                   	// #2
     51c:	528014e1 	mov	w1, #0xa7                  	// #167
     520:	387c6805 	ldrb	w5, [x0,x28]
     524:	aa1703e0 	mov	x0, x23
     528:	9100079c 	add	x28, x28, #0x1
     52c:	94001c58 	bl	768c <trace_printf>
     530:	f94037a6 	ldr	x6, [x29,#104]
     534:	17ffffe2 	b	4bc <TA_InvokeCommandEntryPoint+0x260>
hashUserKey():
/home/pwnz/devel/optee/optee_examples/crypto/ta/hello_world_ta.c:250
     538:	b94073a5 	ldr	w5, [x29,#112]
     53c:	90000064 	adrp	x4, c000 <PRIME_TABLE+0x770>
/home/pwnz/devel/optee/optee_examples/crypto/ta/hello_world_ta.c:254
     540:	90000078 	adrp	x24, c000 <PRIME_TABLE+0x770>
/home/pwnz/devel/optee/optee_examples/crypto/ta/hello_world_ta.c:250
     544:	aa1903e6 	mov	x6, x25
     548:	911fd884 	add	x4, x4, #0x7f6
     54c:	52800023 	mov	w3, #0x1                   	// #1
     550:	52800022 	mov	w2, #0x1                   	// #1
     554:	52801f41 	mov	w1, #0xfa                  	// #250
     558:	aa1403e0 	mov	x0, x20
     55c:	d2800017 	mov	x23, #0x0                   	// #0
/home/pwnz/devel/optee/optee_examples/crypto/ta/hello_world_ta.c:254
     560:	91203f18 	add	x24, x24, #0x80f
/home/pwnz/devel/optee/optee_examples/crypto/ta/hello_world_ta.c:250
     564:	94001c4a 	bl	768c <trace_printf>
/home/pwnz/devel/optee/optee_examples/crypto/ta/hello_world_ta.c:254
     568:	38776b26 	ldrb	w6, [x25,x23]
     56c:	2a1703e5 	mov	w5, w23
     570:	aa1803e4 	mov	x4, x24
     574:	52800023 	mov	w3, #0x1                   	// #1
     578:	52800042 	mov	w2, #0x2                   	// #2
     57c:	52801fc1 	mov	w1, #0xfe                  	// #254
     580:	aa1403e0 	mov	x0, x20
     584:	910006f7 	add	x23, x23, #0x1
     588:	94001c41 	bl	768c <trace_printf>
/home/pwnz/devel/optee/optee_examples/crypto/ta/hello_world_ta.c:253
     58c:	f10042ff 	cmp	x23, #0x10
     590:	54fffec1 	b.ne	568 <TA_InvokeCommandEntryPoint+0x30c>
     594:	17ffffa5 	b	428 <TA_InvokeCommandEntryPoint+0x1cc>
TA_InvokeCommandEntryPoint():
/home/pwnz/devel/optee/optee_examples/crypto/ta/hello_world_ta.c:570 (discriminator 3)
     598:	f9431ec0 	ldr	x0, [x22,#1592]
     59c:	2a1703e5 	mov	w5, w23
     5a0:	aa1803e4 	mov	x4, x24
     5a4:	52800023 	mov	w3, #0x1                   	// #1
     5a8:	52800042 	mov	w2, #0x2                   	// #2
     5ac:	52804741 	mov	w1, #0x23a                 	// #570
     5b0:	f9400000 	ldr	x0, [x0]
     5b4:	38774806 	ldrb	w6, [x0,w23,uxtw]
     5b8:	aa1303e0 	mov	x0, x19
/home/pwnz/devel/optee/optee_examples/crypto/ta/hello_world_ta.c:569 (discriminator 3)
     5bc:	110006f7 	add	w23, w23, #0x1
/home/pwnz/devel/optee/optee_examples/crypto/ta/hello_world_ta.c:570 (discriminator 3)
     5c0:	94001c33 	bl	768c <trace_printf>
/home/pwnz/devel/optee/optee_examples/crypto/ta/hello_world_ta.c:571 (discriminator 3)
     5c4:	90000064 	adrp	x4, c000 <PRIME_TABLE+0x770>
     5c8:	52800023 	mov	w3, #0x1                   	// #1
     5cc:	9121ac84 	add	x4, x4, #0x86b
     5d0:	52800042 	mov	w2, #0x2                   	// #2
     5d4:	52804761 	mov	w1, #0x23b                 	// #571
     5d8:	aa1303e0 	mov	x0, x19
     5dc:	94001c2c 	bl	768c <trace_printf>
     5e0:	17ffffa8 	b	480 <TA_InvokeCommandEntryPoint+0x224>
/home/pwnz/devel/optee/optee_examples/crypto/ta/hello_world_ta.c:576
     5e4:	d0000077 	adrp	x23, e000 <ta_props>
     5e8:	90000064 	adrp	x4, c000 <PRIME_TABLE+0x770>
     5ec:	9104a2e5 	add	x5, x23, #0x128
     5f0:	91221084 	add	x4, x4, #0x884
     5f4:	52800023 	mov	w3, #0x1                   	// #1
     5f8:	52800042 	mov	w2, #0x2                   	// #2
     5fc:	9116a275 	add	x21, x19, #0x5a8
     600:	52804801 	mov	w1, #0x240                 	// #576
     604:	9102c2a0 	add	x0, x21, #0xb0
encryptWithPrivateKey():
/home/pwnz/devel/optee/optee_examples/crypto/ta/hello_world_ta.c:473
     608:	b0000074 	adrp	x20, d000 <__func__.3637+0xa28>
TA_InvokeCommandEntryPoint():
/home/pwnz/devel/optee/optee_examples/crypto/ta/hello_world_ta.c:576
     60c:	94001c20 	bl	768c <trace_printf>
encryptWithPrivateKey():
/home/pwnz/devel/optee/optee_examples/crypto/ta/hello_world_ta.c:465
     610:	52800219 	mov	w25, #0x10                  	// #16
/home/pwnz/devel/optee/optee_examples/crypto/ta/hello_world_ta.c:469
     614:	910263b8 	add	x24, x29, #0x98
/home/pwnz/devel/optee/optee_examples/crypto/ta/hello_world_ta.c:468
     618:	52800001 	mov	w1, #0x0                   	// #0
     61c:	2a1903e0 	mov	w0, w25
/home/pwnz/devel/optee/optee_examples/crypto/ta/hello_world_ta.c:465
     620:	b90077b9 	str	w25, [x29,#116]
/home/pwnz/devel/optee/optee_examples/crypto/ta/hello_world_ta.c:468
     624:	9400030d 	bl	1258 <TEE_Malloc>
     628:	aa0003fa 	mov	x26, x0
/home/pwnz/devel/optee/optee_examples/crypto/ta/hello_world_ta.c:469
     62c:	d2800822 	mov	x2, #0x41                  	// #65
     630:	aa1803e0 	mov	x0, x24
     634:	90000061 	adrp	x1, c000 <PRIME_TABLE+0x770>
     638:	91325c21 	add	x1, x1, #0xc97
     63c:	940018b2 	bl	6904 <memcpy>
/home/pwnz/devel/optee/optee_examples/crypto/ta/hello_world_ta.c:473
     640:	f9432a9b 	ldr	x27, [x20,#1616]
/home/pwnz/devel/optee/optee_examples/crypto/ta/hello_world_ta.c:475
     644:	2a1903e2 	mov	w2, w25
     648:	52800001 	mov	w1, #0x0                   	// #0
     64c:	aa1a03e0 	mov	x0, x26
/home/pwnz/devel/optee/optee_examples/crypto/ta/hello_world_ta.c:477
     650:	910342b5 	add	x21, x21, #0xd0
/home/pwnz/devel/optee/optee_examples/crypto/ta/hello_world_ta.c:473
     654:	f900037f 	str	xzr, [x27]
/home/pwnz/devel/optee/optee_examples/crypto/ta/hello_world_ta.c:475
     658:	940002ab 	bl	1104 <TEE_MemFill>
/home/pwnz/devel/optee/optee_examples/crypto/ta/hello_world_ta.c:477
     65c:	90000064 	adrp	x4, c000 <PRIME_TABLE+0x770>
     660:	91229484 	add	x4, x4, #0x8a5
     664:	52800023 	mov	w3, #0x1                   	// #1
     668:	52800042 	mov	w2, #0x2                   	// #2
     66c:	52803ba1 	mov	w1, #0x1dd                 	// #477
     670:	aa1503e0 	mov	x0, x21
     674:	94001c06 	bl	768c <trace_printf>
/home/pwnz/devel/optee/optee_examples/crypto/ta/hello_world_ta.c:478
     678:	aa1803e0 	mov	x0, x24
     67c:	52800042 	mov	w2, #0x2                   	// #2
     680:	d2800001 	mov	x1, #0x0                   	// #0
     684:	aa1403f8 	mov	x24, x20
     688:	97fffe66 	bl	20 <createAndOpenObject.constprop.5>
     68c:	3100041f 	cmn	w0, #0x1
     690:	54000121 	b.ne	6b4 <TA_InvokeCommandEntryPoint+0x458>
/home/pwnz/devel/optee/optee_examples/crypto/ta/hello_world_ta.c:479
     694:	90000064 	adrp	x4, c000 <PRIME_TABLE+0x770>
     698:	aa1503e0 	mov	x0, x21
     69c:	91230884 	add	x4, x4, #0x8c2
     6a0:	52800023 	mov	w3, #0x1                   	// #1
     6a4:	52800042 	mov	w2, #0x2                   	// #2
     6a8:	52803be1 	mov	w1, #0x1df                 	// #479
/home/pwnz/devel/optee/optee_examples/crypto/ta/hello_world_ta.c:517
     6ac:	94001bf8 	bl	768c <trace_printf>
     6b0:	1400007a 	b	898 <TA_InvokeCommandEntryPoint+0x63c>
/home/pwnz/devel/optee/optee_examples/crypto/ta/hello_world_ta.c:483
     6b4:	52800023 	mov	w3, #0x1                   	// #1
     6b8:	52800042 	mov	w2, #0x2                   	// #2
     6bc:	52803c61 	mov	w1, #0x1e3                 	// #483
     6c0:	aa1503e0 	mov	x0, x21
     6c4:	90000064 	adrp	x4, c000 <PRIME_TABLE+0x770>
     6c8:	91236084 	add	x4, x4, #0x8d8
     6cc:	94001bf0 	bl	768c <trace_printf>
/home/pwnz/devel/optee/optee_examples/crypto/ta/hello_world_ta.c:484
     6d0:	f9400360 	ldr	x0, [x27]
     6d4:	9101c3a3 	add	x3, x29, #0x70
     6d8:	2a1903e2 	mov	w2, w25
     6dc:	aa1a03e1 	mov	x1, x26
     6e0:	94000598 	bl	1d40 <TEE_ReadObjectData>
     6e4:	34000100 	cbz	w0, 704 <TA_InvokeCommandEntryPoint+0x4a8>
/home/pwnz/devel/optee/optee_examples/crypto/ta/hello_world_ta.c:485
     6e8:	90000064 	adrp	x4, c000 <PRIME_TABLE+0x770>
     6ec:	52800023 	mov	w3, #0x1                   	// #1
     6f0:	9123d084 	add	x4, x4, #0x8f4
     6f4:	52800022 	mov	w2, #0x1                   	// #1
     6f8:	52803ca1 	mov	w1, #0x1e5                 	// #485
     6fc:	aa1503e0 	mov	x0, x21
     700:	94001be3 	bl	768c <trace_printf>
/home/pwnz/devel/optee/optee_examples/crypto/ta/hello_world_ta.c:488
     704:	9116a273 	add	x19, x19, #0x5a8
     708:	52800023 	mov	w3, #0x1                   	// #1
     70c:	91034273 	add	x19, x19, #0xd0
     710:	52800042 	mov	w2, #0x2                   	// #2
     714:	52803d01 	mov	w1, #0x1e8                 	// #488
     718:	aa1303e0 	mov	x0, x19
     71c:	90000064 	adrp	x4, c000 <PRIME_TABLE+0x770>
     720:	91244084 	add	x4, x4, #0x910
     724:	94001bda 	bl	768c <trace_printf>
setAttribute():
/home/pwnz/devel/optee/optee_examples/crypto/ta/hello_world_ta.c:457
     728:	f90043ba 	str	x26, [x29,#128]
/home/pwnz/devel/optee/optee_examples/crypto/ta/hello_world_ta.c:456
     72c:	52b80000 	mov	w0, #0xc0000000            	// #-1073741824
encryptWithPrivateKey():
/home/pwnz/devel/optee/optee_examples/crypto/ta/hello_world_ta.c:491
     730:	52800023 	mov	w3, #0x1                   	// #1
     734:	52800042 	mov	w2, #0x2                   	// #2
     738:	52803d61 	mov	w1, #0x1eb                 	// #491
setAttribute():
/home/pwnz/devel/optee/optee_examples/crypto/ta/hello_world_ta.c:456
     73c:	b9007ba0 	str	w0, [x29,#120]
/home/pwnz/devel/optee/optee_examples/crypto/ta/hello_world_ta.c:458
     740:	5280021a 	mov	w26, #0x10                  	// #16
encryptWithPrivateKey():
/home/pwnz/devel/optee/optee_examples/crypto/ta/hello_world_ta.c:491
     744:	aa1303e0 	mov	x0, x19
     748:	90000064 	adrp	x4, c000 <PRIME_TABLE+0x770>
setAttribute():
/home/pwnz/devel/optee/optee_examples/crypto/ta/hello_world_ta.c:458
     74c:	b9008bba 	str	w26, [x29,#136]
encryptWithPrivateKey():
/home/pwnz/devel/optee/optee_examples/crypto/ta/hello_world_ta.c:491
     750:	91249884 	add	x4, x4, #0x926
     754:	94001bce 	bl	768c <trace_printf>
/home/pwnz/devel/optee/optee_examples/crypto/ta/hello_world_ta.c:492
     758:	f9432714 	ldr	x20, [x24,#1608]
     75c:	f9400280 	ldr	x0, [x20]
     760:	940003ba 	bl	1648 <TEE_ResetTransientObject>
/home/pwnz/devel/optee/optee_examples/crypto/ta/hello_world_ta.c:494
     764:	52800023 	mov	w3, #0x1                   	// #1
     768:	52800042 	mov	w2, #0x2                   	// #2
     76c:	52803dc1 	mov	w1, #0x1ee                 	// #494
     770:	aa1303e0 	mov	x0, x19
     774:	90000064 	adrp	x4, c000 <PRIME_TABLE+0x770>
     778:	91252084 	add	x4, x4, #0x948
     77c:	94001bc4 	bl	768c <trace_printf>
/home/pwnz/devel/optee/optee_examples/crypto/ta/hello_world_ta.c:495
     780:	2a1a03e0 	mov	w0, w26
     784:	aa1403e2 	mov	x2, x20
     788:	52801001 	mov	w1, #0x80                  	// #128
     78c:	72b40000 	movk	w0, #0xa000, lsl #16
     790:	94000380 	bl	1590 <TEE_AllocateTransientObject>
     794:	f9433715 	ldr	x21, [x24,#1640]
     798:	b90002a0 	str	w0, [x21]
/home/pwnz/devel/optee/optee_examples/crypto/ta/hello_world_ta.c:496
     79c:	34000240 	cbz	w0, 7e4 <TA_InvokeCommandEntryPoint+0x588>
/home/pwnz/devel/optee/optee_examples/crypto/ta/hello_world_ta.c:497
     7a0:	2a0003e5 	mov	w5, w0
     7a4:	90000064 	adrp	x4, c000 <PRIME_TABLE+0x770>
     7a8:	52800023 	mov	w3, #0x1                   	// #1
     7ac:	9125b484 	add	x4, x4, #0x96d
     7b0:	52800042 	mov	w2, #0x2                   	// #2
     7b4:	52803e21 	mov	w1, #0x1f1                 	// #497
     7b8:	aa1303e0 	mov	x0, x19
     7bc:	94001bb4 	bl	768c <trace_printf>
/home/pwnz/devel/optee/optee_examples/crypto/ta/hello_world_ta.c:498
     7c0:	b94002b5 	ldr	w21, [x21]
TA_InvokeCommandEntryPoint():
/home/pwnz/devel/optee/optee_examples/crypto/ta/hello_world_ta.c:594
     7c4:	2a1503e0 	mov	w0, w21
     7c8:	a94153f3 	ldp	x19, x20, [sp,#16]
     7cc:	a9425bf5 	ldp	x21, x22, [sp,#32]
     7d0:	a94363f7 	ldp	x23, x24, [sp,#48]
     7d4:	a9446bf9 	ldp	x25, x26, [sp,#64]
     7d8:	a94573fb 	ldp	x27, x28, [sp,#80]
     7dc:	a8ce7bfd 	ldp	x29, x30, [sp],#224
     7e0:	d65f03c0 	ret
encryptWithPrivateKey():
/home/pwnz/devel/optee/optee_examples/crypto/ta/hello_world_ta.c:501
     7e4:	52800023 	mov	w3, #0x1                   	// #1
     7e8:	52800042 	mov	w2, #0x2                   	// #2
     7ec:	52803ea1 	mov	w1, #0x1f5                 	// #501
     7f0:	aa1303e0 	mov	x0, x19
     7f4:	90000064 	adrp	x4, c000 <PRIME_TABLE+0x770>
     7f8:	91266884 	add	x4, x4, #0x99a
     7fc:	94001ba4 	bl	768c <trace_printf>
/home/pwnz/devel/optee/optee_examples/crypto/ta/hello_world_ta.c:505
     800:	9104a2f9 	add	x25, x23, #0x128
/home/pwnz/devel/optee/optee_examples/crypto/ta/hello_world_ta.c:502
     804:	f9400280 	ldr	x0, [x20]
     808:	52800022 	mov	w2, #0x1                   	// #1
     80c:	9101e3a1 	add	x1, x29, #0x78
     810:	940003a3 	bl	169c <TEE_PopulateTransientObject>
/home/pwnz/devel/optee/optee_examples/crypto/ta/hello_world_ta.c:504
     814:	52800023 	mov	w3, #0x1                   	// #1
     818:	52800042 	mov	w2, #0x2                   	// #2
     81c:	52803f01 	mov	w1, #0x1f8                 	// #504
     820:	aa1303e0 	mov	x0, x19
     824:	90000064 	adrp	x4, c000 <PRIME_TABLE+0x770>
     828:	9126fc84 	add	x4, x4, #0x9bf
     82c:	94001b98 	bl	768c <trace_printf>
/home/pwnz/devel/optee/optee_examples/crypto/ta/hello_world_ta.c:505
     830:	f9400280 	ldr	x0, [x20]
     834:	91080321 	add	x1, x25, #0x200
     838:	940002a6 	bl	12d0 <TEE_GetObjectInfo>
/home/pwnz/devel/optee/optee_examples/crypto/ta/hello_world_ta.c:508
     83c:	90000064 	adrp	x4, c000 <PRIME_TABLE+0x770>
     840:	91276884 	add	x4, x4, #0x9da
     844:	52800023 	mov	w3, #0x1                   	// #1
     848:	52800042 	mov	w2, #0x2                   	// #2
     84c:	52803f81 	mov	w1, #0x1fc                 	// #508
     850:	aa1303e0 	mov	x0, x19
     854:	94001b8e 	bl	768c <trace_printf>
/home/pwnz/devel/optee/optee_examples/crypto/ta/hello_world_ta.c:509
     858:	52802201 	mov	w1, #0x110                 	// #272
     85c:	52801003 	mov	w3, #0x80                  	// #128
     860:	52800002 	mov	w2, #0x0                   	// #0
     864:	72a20001 	movk	w1, #0x1000, lsl #16
     868:	91088320 	add	x0, x25, #0x220
     86c:	940005c4 	bl	1f7c <TEE_AllocateOperation>
     870:	34000180 	cbz	w0, 8a0 <TA_InvokeCommandEntryPoint+0x644>
/home/pwnz/devel/optee/optee_examples/crypto/ta/hello_world_ta.c:510
     874:	aa1303e0 	mov	x0, x19
     878:	90000064 	adrp	x4, c000 <PRIME_TABLE+0x770>
     87c:	52800023 	mov	w3, #0x1                   	// #1
     880:	9127e484 	add	x4, x4, #0x9f9
     884:	52800042 	mov	w2, #0x2                   	// #2
     888:	52803fc1 	mov	w1, #0x1fe                 	// #510
     88c:	94001b80 	bl	768c <trace_printf>
/home/pwnz/devel/optee/optee_examples/crypto/ta/hello_world_ta.c:511
     890:	f9400280 	ldr	x0, [x20]
     894:	94000358 	bl	15f4 <TEE_FreeTransientObject>
/home/pwnz/devel/optee/optee_examples/crypto/ta/hello_world_ta.c:512
     898:	129ffef5 	mov	w21, #0xffff0008            	// #-65528
     89c:	17ffffca 	b	7c4 <TA_InvokeCommandEntryPoint+0x568>
/home/pwnz/devel/optee/optee_examples/crypto/ta/hello_world_ta.c:515
     8a0:	52800023 	mov	w3, #0x1                   	// #1
     8a4:	52800042 	mov	w2, #0x2                   	// #2
     8a8:	52804061 	mov	w1, #0x203                 	// #515
     8ac:	aa1303e0 	mov	x0, x19
     8b0:	90000064 	adrp	x4, c000 <PRIME_TABLE+0x770>
     8b4:	91286084 	add	x4, x4, #0xa18
     8b8:	94001b75 	bl	768c <trace_printf>
/home/pwnz/devel/optee/optee_examples/crypto/ta/hello_world_ta.c:516
     8bc:	f9400281 	ldr	x1, [x20]
     8c0:	f9411320 	ldr	x0, [x25,#544]
     8c4:	94000839 	bl	29a8 <TEE_SetOperationKey>
     8c8:	2a0003f5 	mov	w21, w0
     8cc:	34000100 	cbz	w0, 8ec <TA_InvokeCommandEntryPoint+0x690>
/home/pwnz/devel/optee/optee_examples/crypto/ta/hello_world_ta.c:517
     8d0:	90000064 	adrp	x4, c000 <PRIME_TABLE+0x770>
     8d4:	52800023 	mov	w3, #0x1                   	// #1
     8d8:	9128d484 	add	x4, x4, #0xa35
     8dc:	52800042 	mov	w2, #0x2                   	// #2
     8e0:	528040a1 	mov	w1, #0x205                 	// #517
     8e4:	aa1303e0 	mov	x0, x19
     8e8:	17ffff71 	b	6ac <TA_InvokeCommandEntryPoint+0x450>
/home/pwnz/devel/optee/optee_examples/crypto/ta/hello_world_ta.c:521
     8ec:	52800023 	mov	w3, #0x1                   	// #1
     8f0:	52800042 	mov	w2, #0x2                   	// #2
     8f4:	52804121 	mov	w1, #0x209                 	// #521
     8f8:	aa1303e0 	mov	x0, x19
     8fc:	90000064 	adrp	x4, c000 <PRIME_TABLE+0x770>
     900:	91294884 	add	x4, x4, #0xa52
     904:	94001b62 	bl	768c <trace_printf>
/home/pwnz/devel/optee/optee_examples/crypto/ta/hello_world_ta.c:527
     908:	d2800014 	mov	x20, #0x0                   	// #0
/home/pwnz/devel/optee/optee_examples/crypto/ta/hello_world_ta.c:522
     90c:	d0000060 	adrp	x0, e000 <ta_props>
     910:	9108a321 	add	x1, x25, #0x228
/home/pwnz/devel/optee/optee_examples/crypto/ta/hello_world_ta.c:529
     914:	910042d6 	add	x22, x22, #0x10
/home/pwnz/devel/optee/optee_examples/crypto/ta/hello_world_ta.c:522
     918:	b9412002 	ldr	w2, [x0,#288]
     91c:	f9411320 	ldr	x0, [x25,#544]
/home/pwnz/devel/optee/optee_examples/crypto/ta/hello_world_ta.c:529
     920:	90000079 	adrp	x25, c000 <PRIME_TABLE+0x770>
     924:	912a0339 	add	x25, x25, #0xa80
/home/pwnz/devel/optee/optee_examples/crypto/ta/hello_world_ta.c:522
     928:	94000955 	bl	2e7c <TEE_CipherInit>
/home/pwnz/devel/optee/optee_examples/crypto/ta/hello_world_ta.c:525
     92c:	b90077ba 	str	w26, [x29,#116]
/home/pwnz/devel/optee/optee_examples/crypto/ta/hello_world_ta.c:527
     930:	90000064 	adrp	x4, c000 <PRIME_TABLE+0x770>
     934:	52800023 	mov	w3, #0x1                   	// #1
     938:	9129a884 	add	x4, x4, #0xa6a
     93c:	52800042 	mov	w2, #0x2                   	// #2
     940:	528041e1 	mov	w1, #0x20f                 	// #527
     944:	aa1303e0 	mov	x0, x19
     948:	94001b51 	bl	768c <trace_printf>
/home/pwnz/devel/optee/optee_examples/crypto/ta/hello_world_ta.c:529
     94c:	f94002c0 	ldr	x0, [x22]
     950:	2a1403e5 	mov	w5, w20
     954:	aa1903e4 	mov	x4, x25
     958:	52800023 	mov	w3, #0x1                   	// #1
     95c:	52800042 	mov	w2, #0x2                   	// #2
     960:	52804221 	mov	w1, #0x211                 	// #529
     964:	38746806 	ldrb	w6, [x0,x20]
     968:	aa1303e0 	mov	x0, x19
     96c:	91000694 	add	x20, x20, #0x1
     970:	94001b47 	bl	768c <trace_printf>
/home/pwnz/devel/optee/optee_examples/crypto/ta/hello_world_ta.c:528
     974:	f100429f 	cmp	x20, #0x10
     978:	54fffea1 	b.ne	94c <TA_InvokeCommandEntryPoint+0x6f0>
/home/pwnz/devel/optee/optee_examples/crypto/ta/hello_world_ta.c:532
     97c:	52800023 	mov	w3, #0x1                   	// #1
     980:	52800042 	mov	w2, #0x2                   	// #2
     984:	52804281 	mov	w1, #0x214                 	// #532
     988:	aa1303e0 	mov	x0, x19
     98c:	90000064 	adrp	x4, c000 <PRIME_TABLE+0x770>
     990:	912a6084 	add	x4, x4, #0xa98
     994:	94001b3e 	bl	768c <trace_printf>
/home/pwnz/devel/optee/optee_examples/crypto/ta/hello_world_ta.c:537
     998:	90000079 	adrp	x25, c000 <PRIME_TABLE+0x770>
/home/pwnz/devel/optee/optee_examples/crypto/ta/hello_world_ta.c:533
     99c:	9104a2e0 	add	x0, x23, #0x128
     9a0:	f94002c3 	ldr	x3, [x22]
     9a4:	2a1403e2 	mov	w2, w20
     9a8:	9101d3a4 	add	x4, x29, #0x74
     9ac:	aa0303e1 	mov	x1, x3
/home/pwnz/devel/optee/optee_examples/crypto/ta/hello_world_ta.c:535
     9b0:	d2800014 	mov	x20, #0x0                   	// #0
/home/pwnz/devel/optee/optee_examples/crypto/ta/hello_world_ta.c:533
     9b4:	f9411000 	ldr	x0, [x0,#544]
/home/pwnz/devel/optee/optee_examples/crypto/ta/hello_world_ta.c:537
     9b8:	912b3739 	add	x25, x25, #0xacd
/home/pwnz/devel/optee/optee_examples/crypto/ta/hello_world_ta.c:533
     9bc:	940009b0 	bl	307c <TEE_CipherDoFinal>
/home/pwnz/devel/optee/optee_examples/crypto/ta/hello_world_ta.c:535
     9c0:	90000064 	adrp	x4, c000 <PRIME_TABLE+0x770>
     9c4:	52800023 	mov	w3, #0x1                   	// #1
     9c8:	912acc84 	add	x4, x4, #0xab3
     9cc:	52800042 	mov	w2, #0x2                   	// #2
     9d0:	528042e1 	mov	w1, #0x217                 	// #535
     9d4:	aa1303e0 	mov	x0, x19
     9d8:	94001b2d 	bl	768c <trace_printf>
/home/pwnz/devel/optee/optee_examples/crypto/ta/hello_world_ta.c:537
     9dc:	f94002c0 	ldr	x0, [x22]
     9e0:	2a1403e5 	mov	w5, w20
     9e4:	aa1903e4 	mov	x4, x25
     9e8:	52800023 	mov	w3, #0x1                   	// #1
     9ec:	52800042 	mov	w2, #0x2                   	// #2
     9f0:	52804321 	mov	w1, #0x219                 	// #537
     9f4:	38746806 	ldrb	w6, [x0,x20]
     9f8:	aa1303e0 	mov	x0, x19
     9fc:	91000694 	add	x20, x20, #0x1
     a00:	94001b23 	bl	768c <trace_printf>
/home/pwnz/devel/optee/optee_examples/crypto/ta/hello_world_ta.c:536
     a04:	f100429f 	cmp	x20, #0x10
     a08:	54fffea1 	b.ne	9dc <TA_InvokeCommandEntryPoint+0x780>
/home/pwnz/devel/optee/optee_examples/crypto/ta/hello_world_ta.c:542
     a0c:	9104a2f7 	add	x23, x23, #0x128
     a10:	f94112e0 	ldr	x0, [x23,#544]
     a14:	94000549 	bl	1f38 <TEE_FreeOperation>
/home/pwnz/devel/optee/optee_examples/crypto/ta/hello_world_ta.c:543
     a18:	f9432700 	ldr	x0, [x24,#1608]
     a1c:	f9400000 	ldr	x0, [x0]
     a20:	940002f5 	bl	15f4 <TEE_FreeTransientObject>
/home/pwnz/devel/optee/optee_examples/crypto/ta/hello_world_ta.c:544
     a24:	f9432b00 	ldr	x0, [x24,#1616]
     a28:	f9400000 	ldr	x0, [x0]
     a2c:	940002cf 	bl	1568 <TEE_CloseObject>
TA_InvokeCommandEntryPoint():
/home/pwnz/devel/optee/optee_examples/crypto/ta/hello_world_ta.c:577
     a30:	17ffff65 	b	7c4 <TA_InvokeCommandEntryPoint+0x568>
/home/pwnz/devel/optee/optee_examples/crypto/ta/hello_world_ta.c:580
     a34:	d0000079 	adrp	x25, e000 <ta_props>
     a38:	9104a338 	add	x24, x25, #0x128
     a3c:	aa1803e5 	mov	x5, x24
     a40:	90000064 	adrp	x4, c000 <PRIME_TABLE+0x770>
     a44:	912ba484 	add	x4, x4, #0xae9
     a48:	52800023 	mov	w3, #0x1                   	// #1
     a4c:	9116a273 	add	x19, x19, #0x5a8
     a50:	52800042 	mov	w2, #0x2                   	// #2
     a54:	52804881 	mov	w1, #0x244                 	// #580
     a58:	9102c260 	add	x0, x19, #0xb0
dec():
/home/pwnz/devel/optee/optee_examples/crypto/ta/hello_world_ta.c:274
     a5c:	910263b4 	add	x20, x29, #0x98
TA_InvokeCommandEntryPoint():
/home/pwnz/devel/optee/optee_examples/crypto/ta/hello_world_ta.c:580
     a60:	94001b0b 	bl	768c <trace_printf>
dec():
/home/pwnz/devel/optee/optee_examples/crypto/ta/hello_world_ta.c:274
     a64:	d2800822 	mov	x2, #0x41                  	// #65
/home/pwnz/devel/optee/optee_examples/crypto/ta/hello_world_ta.c:269
     a68:	5280401a 	mov	w26, #0x200                 	// #512
/home/pwnz/devel/optee/optee_examples/crypto/ta/hello_world_ta.c:274
     a6c:	90000061 	adrp	x1, c000 <PRIME_TABLE+0x770>
     a70:	aa1403e0 	mov	x0, x20
     a74:	91325c21 	add	x1, x1, #0xc97
/home/pwnz/devel/optee/optee_examples/crypto/ta/hello_world_ta.c:269
     a78:	b90077ba 	str	w26, [x29,#116]
/home/pwnz/devel/optee/optee_examples/crypto/ta/hello_world_ta.c:274
     a7c:	940017a2 	bl	6904 <memcpy>
/home/pwnz/devel/optee/optee_examples/crypto/ta/hello_world_ta.c:280
     a80:	9103a277 	add	x23, x19, #0xe8
     a84:	f9400ac5 	ldr	x5, [x22,#16]
     a88:	52800023 	mov	w3, #0x1                   	// #1
     a8c:	52800042 	mov	w2, #0x2                   	// #2
     a90:	52802301 	mov	w1, #0x118                 	// #280
     a94:	aa1703e0 	mov	x0, x23
     a98:	90000064 	adrp	x4, c000 <PRIME_TABLE+0x770>
     a9c:	912c2884 	add	x4, x4, #0xb0a
     aa0:	94001afb 	bl	768c <trace_printf>
/home/pwnz/devel/optee/optee_examples/crypto/ta/hello_world_ta.c:283
     aa4:	b9401ac2 	ldr	w2, [x22,#24]
     aa8:	aa1803e0 	mov	x0, x24
     aac:	f9400ac1 	ldr	x1, [x22,#16]
     ab0:	94000191 	bl	10f4 <TEE_MemMove>
/home/pwnz/devel/optee/optee_examples/crypto/ta/hello_world_ta.c:291
     ab4:	52800042 	mov	w2, #0x2                   	// #2
     ab8:	9101e3a1 	add	x1, x29, #0x78
     abc:	aa1403e0 	mov	x0, x20
     ac0:	97fffd58 	bl	20 <createAndOpenObject.constprop.5>
     ac4:	2a0003f6 	mov	w22, w0
/home/pwnz/devel/optee/optee_examples/crypto/ta/hello_world_ta.c:292
     ac8:	7100041f 	cmp	w0, #0x1
     acc:	54000100 	b.eq	aec <TA_InvokeCommandEntryPoint+0x890>
/home/pwnz/devel/optee/optee_examples/crypto/ta/hello_world_ta.c:293
     ad0:	90000064 	adrp	x4, c000 <PRIME_TABLE+0x770>
     ad4:	52800023 	mov	w3, #0x1                   	// #1
     ad8:	91230884 	add	x4, x4, #0x8c2
     adc:	52800042 	mov	w2, #0x2                   	// #2
     ae0:	528024a1 	mov	w1, #0x125                 	// #293
     ae4:	aa1703e0 	mov	x0, x23
     ae8:	17fffef1 	b	6ac <TA_InvokeCommandEntryPoint+0x450>
/home/pwnz/devel/optee/optee_examples/crypto/ta/hello_world_ta.c:298
     aec:	b0000074 	adrp	x20, d000 <__func__.3637+0xa28>
/home/pwnz/devel/optee/optee_examples/crypto/ta/hello_world_ta.c:297
     af0:	2a0003e3 	mov	w3, w0
     af4:	90000064 	adrp	x4, c000 <PRIME_TABLE+0x770>
     af8:	912c6484 	add	x4, x4, #0xb19
     afc:	52800042 	mov	w2, #0x2                   	// #2
     b00:	52802521 	mov	w1, #0x129                 	// #297
     b04:	aa1703e0 	mov	x0, x23
     b08:	94001ae1 	bl	768c <trace_printf>
/home/pwnz/devel/optee/optee_examples/crypto/ta/hello_world_ta.c:298
     b0c:	f9432a95 	ldr	x21, [x20,#1616]
     b10:	52800200 	mov	w0, #0x10                  	// #16
     b14:	52801001 	mov	w1, #0x80                  	// #128
     b18:	72b40000 	movk	w0, #0xa000, lsl #16
     b1c:	aa1503e2 	mov	x2, x21
     b20:	9400029c 	bl	1590 <TEE_AllocateTransientObject>
     b24:	f9433694 	ldr	x20, [x20,#1640]
     b28:	b9000280 	str	w0, [x20]
/home/pwnz/devel/optee/optee_examples/crypto/ta/hello_world_ta.c:299
     b2c:	34000140 	cbz	w0, b54 <TA_InvokeCommandEntryPoint+0x8f8>
/home/pwnz/devel/optee/optee_examples/crypto/ta/hello_world_ta.c:300
     b30:	90000064 	adrp	x4, c000 <PRIME_TABLE+0x770>
     b34:	2a0003e5 	mov	w5, w0
     b38:	9125b484 	add	x4, x4, #0x96d
     b3c:	2a1603e3 	mov	w3, w22
     b40:	52800042 	mov	w2, #0x2                   	// #2
     b44:	52802581 	mov	w1, #0x12c                 	// #300
/home/pwnz/devel/optee/optee_examples/crypto/ta/hello_world_ta.c:329
     b48:	aa1703e0 	mov	x0, x23
     b4c:	94001ad0 	bl	768c <trace_printf>
     b50:	1400001a 	b	bb8 <TA_InvokeCommandEntryPoint+0x95c>
/home/pwnz/devel/optee/optee_examples/crypto/ta/hello_world_ta.c:304
     b54:	90000064 	adrp	x4, c000 <PRIME_TABLE+0x770>
     b58:	912cd884 	add	x4, x4, #0xb36
     b5c:	2a1603e3 	mov	w3, w22
     b60:	52800042 	mov	w2, #0x2                   	// #2
     b64:	52802601 	mov	w1, #0x130                 	// #304
     b68:	aa1703e0 	mov	x0, x23
     b6c:	94001ac8 	bl	768c <trace_printf>
/home/pwnz/devel/optee/optee_examples/crypto/ta/hello_world_ta.c:305
     b70:	52802201 	mov	w1, #0x110                 	// #272
     b74:	52801003 	mov	w3, #0x80                  	// #128
     b78:	2a1603e2 	mov	w2, w22
     b7c:	72a20001 	movk	w1, #0x1000, lsl #16
     b80:	91088300 	add	x0, x24, #0x220
     b84:	940004fe 	bl	1f7c <TEE_AllocateOperation>
     b88:	b9000280 	str	w0, [x20]
/home/pwnz/devel/optee/optee_examples/crypto/ta/hello_world_ta.c:306
     b8c:	340001a0 	cbz	w0, bc0 <TA_InvokeCommandEntryPoint+0x964>
/home/pwnz/devel/optee/optee_examples/crypto/ta/hello_world_ta.c:307
     b90:	2a0003e5 	mov	w5, w0
     b94:	90000064 	adrp	x4, c000 <PRIME_TABLE+0x770>
     b98:	aa1703e0 	mov	x0, x23
     b9c:	911d2884 	add	x4, x4, #0x74a
     ba0:	2a1603e3 	mov	w3, w22
     ba4:	52800042 	mov	w2, #0x2                   	// #2
     ba8:	52802661 	mov	w1, #0x133                 	// #307
     bac:	94001ab8 	bl	768c <trace_printf>
/home/pwnz/devel/optee/optee_examples/crypto/ta/hello_world_ta.c:308
     bb0:	f94002a0 	ldr	x0, [x21]
     bb4:	94000290 	bl	15f4 <TEE_FreeTransientObject>
/home/pwnz/devel/optee/optee_examples/crypto/ta/hello_world_ta.c:330
     bb8:	b9400295 	ldr	w21, [x20]
     bbc:	17ffff02 	b	7c4 <TA_InvokeCommandEntryPoint+0x568>
/home/pwnz/devel/optee/optee_examples/crypto/ta/hello_world_ta.c:313
     bc0:	2a1603e3 	mov	w3, w22
     bc4:	52800042 	mov	w2, #0x2                   	// #2
     bc8:	52802721 	mov	w1, #0x139                 	// #313
     bcc:	aa1703e0 	mov	x0, x23
     bd0:	90000064 	adrp	x4, c000 <PRIME_TABLE+0x770>
     bd4:	912d3484 	add	x4, x4, #0xb4d
     bd8:	94001aad 	bl	768c <trace_printf>
/home/pwnz/devel/optee/optee_examples/crypto/ta/hello_world_ta.c:315
     bdc:	2a1603e3 	mov	w3, w22
     be0:	52800042 	mov	w2, #0x2                   	// #2
     be4:	52802761 	mov	w1, #0x13b                 	// #315
     be8:	aa1703e0 	mov	x0, x23
     bec:	90000064 	adrp	x4, c000 <PRIME_TABLE+0x770>
     bf0:	912dc484 	add	x4, x4, #0xb71
     bf4:	94001aa6 	bl	768c <trace_printf>
/home/pwnz/devel/optee/optee_examples/crypto/ta/hello_world_ta.c:316
     bf8:	f94002a1 	ldr	x1, [x21]
     bfc:	f9411300 	ldr	x0, [x24,#544]
     c00:	9400076a 	bl	29a8 <TEE_SetOperationKey>
     c04:	b9000280 	str	w0, [x20]
/home/pwnz/devel/optee/optee_examples/crypto/ta/hello_world_ta.c:317
     c08:	34000100 	cbz	w0, c28 <TA_InvokeCommandEntryPoint+0x9cc>
/home/pwnz/devel/optee/optee_examples/crypto/ta/hello_world_ta.c:318
     c0c:	90000064 	adrp	x4, c000 <PRIME_TABLE+0x770>
     c10:	2a0003e5 	mov	w5, w0
     c14:	912e1884 	add	x4, x4, #0xb86
     c18:	2a1603e3 	mov	w3, w22
     c1c:	52800042 	mov	w2, #0x2                   	// #2
     c20:	528027c1 	mov	w1, #0x13e                 	// #318
     c24:	17ffffc9 	b	b48 <TA_InvokeCommandEntryPoint+0x8ec>
/home/pwnz/devel/optee/optee_examples/crypto/ta/hello_world_ta.c:323
     c28:	2a1603e3 	mov	w3, w22
     c2c:	52800042 	mov	w2, #0x2                   	// #2
     c30:	52802861 	mov	w1, #0x143                 	// #323
     c34:	aa1703e0 	mov	x0, x23
     c38:	90000064 	adrp	x4, c000 <PRIME_TABLE+0x770>
     c3c:	912eac84 	add	x4, x4, #0xbab
     c40:	94001a93 	bl	768c <trace_printf>
/home/pwnz/devel/optee/optee_examples/crypto/ta/hello_world_ta.c:325
     c44:	2a1603e3 	mov	w3, w22
     c48:	52800042 	mov	w2, #0x2                   	// #2
     c4c:	528028a1 	mov	w1, #0x145                 	// #325
     c50:	aa1703e0 	mov	x0, x23
     c54:	90000064 	adrp	x4, c000 <PRIME_TABLE+0x770>
     c58:	912f0c84 	add	x4, x4, #0xbc3
     c5c:	94001a8c 	bl	768c <trace_printf>
/home/pwnz/devel/optee/optee_examples/crypto/ta/hello_world_ta.c:327
     c60:	d0000060 	adrp	x0, e000 <ta_props>
     c64:	9108a301 	add	x1, x24, #0x228
     c68:	b9412002 	ldr	w2, [x0,#288]
     c6c:	f9411300 	ldr	x0, [x24,#544]
     c70:	94000883 	bl	2e7c <TEE_CipherInit>
/home/pwnz/devel/optee/optee_examples/crypto/ta/hello_world_ta.c:328
     c74:	b9400295 	ldr	w21, [x20]
     c78:	34000115 	cbz	w21, c98 <TA_InvokeCommandEntryPoint+0xa3c>
/home/pwnz/devel/optee/optee_examples/crypto/ta/hello_world_ta.c:329
     c7c:	90000064 	adrp	x4, c000 <PRIME_TABLE+0x770>
     c80:	2a1503e5 	mov	w5, w21
     c84:	912f4c84 	add	x4, x4, #0xbd3
     c88:	2a1603e3 	mov	w3, w22
     c8c:	52800042 	mov	w2, #0x2                   	// #2
     c90:	52802921 	mov	w1, #0x149                 	// #329
     c94:	17ffffad 	b	b48 <TA_InvokeCommandEntryPoint+0x8ec>
/home/pwnz/devel/optee/optee_examples/crypto/ta/hello_world_ta.c:334
     c98:	910383bc 	add	x28, x29, #0xe0
/home/pwnz/devel/optee/optee_examples/crypto/ta/hello_world_ta.c:332
     c9c:	2a1603e3 	mov	w3, w22
     ca0:	52800042 	mov	w2, #0x2                   	// #2
     ca4:	52802981 	mov	w1, #0x14c                 	// #332
     ca8:	aa1703e0 	mov	x0, x23
     cac:	90000064 	adrp	x4, c000 <PRIME_TABLE+0x770>
     cb0:	912fcc84 	add	x4, x4, #0xbf3
     cb4:	94001a76 	bl	768c <trace_printf>
/home/pwnz/devel/optee/optee_examples/crypto/ta/hello_world_ta.c:336
     cb8:	2a1603e3 	mov	w3, w22
/home/pwnz/devel/optee/optee_examples/crypto/ta/hello_world_ta.c:334
     cbc:	b8194f9a 	str	w26, [x28,#-108]!
/home/pwnz/devel/optee/optee_examples/crypto/ta/hello_world_ta.c:336
     cc0:	52800042 	mov	w2, #0x2                   	// #2
     cc4:	52802a01 	mov	w1, #0x150                 	// #336
     cc8:	aa1703e0 	mov	x0, x23
     ccc:	90000064 	adrp	x4, c000 <PRIME_TABLE+0x770>
     cd0:	91301084 	add	x4, x4, #0xc04
     cd4:	94001a6e 	bl	768c <trace_printf>
/home/pwnz/devel/optee/optee_examples/crypto/ta/hello_world_ta.c:337
     cd8:	f9411300 	ldr	x0, [x24,#544]
     cdc:	9108e31b 	add	x27, x24, #0x238
     ce0:	aa1c03e4 	mov	x4, x28
     ce4:	aa1b03e3 	mov	x3, x27
     ce8:	2a1a03e2 	mov	w2, w26
     cec:	aa1803e1 	mov	x1, x24
     cf0:	9400088c 	bl	2f20 <TEE_CipherUpdate>
     cf4:	b9000280 	str	w0, [x20]
/home/pwnz/devel/optee/optee_examples/crypto/ta/hello_world_ta.c:338
     cf8:	2a1603e3 	mov	w3, w22
     cfc:	52800042 	mov	w2, #0x2                   	// #2
     d00:	52802a41 	mov	w1, #0x152                 	// #338
     d04:	aa1703e0 	mov	x0, x23
     d08:	90000064 	adrp	x4, c000 <PRIME_TABLE+0x770>
     d0c:	91307084 	add	x4, x4, #0xc1c
     d10:	94001a5f 	bl	768c <trace_printf>
/home/pwnz/devel/optee/optee_examples/crypto/ta/hello_world_ta.c:344
     d14:	d2800014 	mov	x20, #0x0                   	// #0
     d18:	2a1603e3 	mov	w3, w22
/home/pwnz/devel/optee/optee_examples/crypto/ta/hello_world_ta.c:346
     d1c:	90000076 	adrp	x22, c000 <PRIME_TABLE+0x770>
     d20:	9130ced6 	add	x22, x22, #0xc33
/home/pwnz/devel/optee/optee_examples/crypto/ta/hello_world_ta.c:344
     d24:	90000064 	adrp	x4, c000 <PRIME_TABLE+0x770>
     d28:	52800042 	mov	w2, #0x2                   	// #2
     d2c:	912acc84 	add	x4, x4, #0xab3
     d30:	52802b01 	mov	w1, #0x158                 	// #344
     d34:	aa1703e0 	mov	x0, x23
     d38:	94001a55 	bl	768c <trace_printf>
/home/pwnz/devel/optee/optee_examples/crypto/ta/hello_world_ta.c:345
     d3c:	b94077a0 	ldr	w0, [x29,#116]
     d40:	6b00029f 	cmp	w20, w0
     d44:	54000123 	b.cc	d68 <TA_InvokeCommandEntryPoint+0xb0c>
/home/pwnz/devel/optee/optee_examples/crypto/ta/hello_world_ta.c:351
     d48:	9104a339 	add	x25, x25, #0x128
/home/pwnz/devel/optee/optee_examples/crypto/ta/hello_world_ta.c:352
     d4c:	b0000074 	adrp	x20, d000 <__func__.3637+0xa28>
/home/pwnz/devel/optee/optee_examples/crypto/ta/hello_world_ta.c:351
     d50:	f9411320 	ldr	x0, [x25,#544]
     d54:	94000479 	bl	1f38 <TEE_FreeOperation>
/home/pwnz/devel/optee/optee_examples/crypto/ta/hello_world_ta.c:352
     d58:	f9432694 	ldr	x20, [x20,#1608]
     d5c:	f9400280 	ldr	x0, [x20]
     d60:	94000225 	bl	15f4 <TEE_FreeTransientObject>
TA_InvokeCommandEntryPoint():
/home/pwnz/devel/optee/optee_examples/crypto/ta/hello_world_ta.c:581
     d64:	17fffe98 	b	7c4 <TA_InvokeCommandEntryPoint+0x568>
dec():
/home/pwnz/devel/optee/optee_examples/crypto/ta/hello_world_ta.c:346
     d68:	38746b66 	ldrb	w6, [x27,x20]
     d6c:	2a1403e5 	mov	w5, w20
     d70:	aa1603e4 	mov	x4, x22
     d74:	52800023 	mov	w3, #0x1                   	// #1
     d78:	52800042 	mov	w2, #0x2                   	// #2
     d7c:	52802b41 	mov	w1, #0x15a                 	// #346
     d80:	9103a260 	add	x0, x19, #0xe8
     d84:	91000694 	add	x20, x20, #0x1
     d88:	94001a41 	bl	768c <trace_printf>
     d8c:	17ffffec 	b	d3c <TA_InvokeCommandEntryPoint+0xae0>
TA_InvokeCommandEntryPoint():
/home/pwnz/devel/optee/optee_examples/crypto/ta/hello_world_ta.c:583
     d90:	9116a260 	add	x0, x19, #0x5a8
     d94:	d0000065 	adrp	x5, e000 <ta_props>
     d98:	90000064 	adrp	x4, c000 <PRIME_TABLE+0x770>
     d9c:	9104a0a5 	add	x5, x5, #0x128
     da0:	91311484 	add	x4, x4, #0xc45
     da4:	52800023 	mov	w3, #0x1                   	// #1
     da8:	52800042 	mov	w2, #0x2                   	// #2
     dac:	528048e1 	mov	w1, #0x247                 	// #583
     db0:	9102c000 	add	x0, x0, #0xb0
     db4:	94001a36 	bl	768c <trace_printf>
     db8:	17fffdb5 	b	48c <TA_InvokeCommandEntryPoint+0x230>
/home/pwnz/devel/optee/optee_examples/crypto/ta/hello_world_ta.c:587
     dbc:	9116a260 	add	x0, x19, #0x5a8
     dc0:	d0000065 	adrp	x5, e000 <ta_props>
     dc4:	90000064 	adrp	x4, c000 <PRIME_TABLE+0x770>
     dc8:	9104a0a5 	add	x5, x5, #0x128
     dcc:	91319484 	add	x4, x4, #0xc65
     dd0:	52800023 	mov	w3, #0x1                   	// #1
     dd4:	52800042 	mov	w2, #0x2                   	// #2
     dd8:	52804961 	mov	w1, #0x24b                 	// #587
     ddc:	9102c000 	add	x0, x0, #0xb0
/home/pwnz/devel/optee/optee_examples/crypto/ta/hello_world_ta.c:588
     de0:	129fff35 	mov	w21, #0xffff0006            	// #-65530
/home/pwnz/devel/optee/optee_examples/crypto/ta/hello_world_ta.c:587
     de4:	94001a2a 	bl	768c <trace_printf>
/home/pwnz/devel/optee/optee_examples/crypto/ta/hello_world_ta.c:588
     de8:	17fffe77 	b	7c4 <TA_InvokeCommandEntryPoint+0x568>

0000000000000dec <tahead_get_trace_level>:
tahead_get_trace_level():
/home/pwnz/devel/optee/optee_os/out/arm/export-ta_arm64/src/user_ta_header.c:133
     dec:	52800080 	mov	w0, #0x4                   	// #4
     df0:	d65f03c0 	ret

0000000000000df4 <__utee_from_param>:
__utee_from_param():
/home/pwnz/devel/optee/optee_os/lib/libutee/tee_api.c:47
     df4:	90000065 	adrp	x5, c000 <PRIME_TABLE+0x770>
     df8:	911790a5 	add	x5, x5, #0x5e4
/home/pwnz/devel/optee/optee_os/lib/libutee/tee_api.c:45
     dfc:	2a0103e3 	mov	w3, w1
     e00:	52800004 	mov	w4, #0x0                   	// #0
     e04:	f8008403 	str	x3, [x0],#8
/home/pwnz/devel/optee/optee_os/lib/libutee/tee_api.c:47
     e08:	1ac42423 	lsr	w3, w1, w4
     e0c:	12000c63 	and	w3, w3, #0xf
     e10:	51000463 	sub	w3, w3, #0x1
     e14:	7100187f 	cmp	w3, #0x6
     e18:	54000268 	b.hi	e64 <__utee_from_param+0x70>
     e1c:	386348a3 	ldrb	w3, [x5,w3,uxtw]
     e20:	10000066 	adr	x6, e2c <__utee_from_param+0x38>
     e24:	8b2388c3 	add	x3, x6, w3, sxtb #2
     e28:	d61f0060 	br	x3
/home/pwnz/devel/optee/optee_os/lib/libutee/tee_api.c:51
     e2c:	b9400043 	ldr	w3, [x2]
     e30:	f9000003 	str	x3, [x0]
/home/pwnz/devel/optee/optee_os/lib/libutee/tee_api.c:52
     e34:	b9400443 	ldr	w3, [x2,#4]
/home/pwnz/devel/optee/optee_os/lib/libutee/tee_api.c:58
     e38:	f9000403 	str	x3, [x0,#8]
     e3c:	11001084 	add	w4, w4, #0x4
     e40:	91004042 	add	x2, x2, #0x10
     e44:	91004000 	add	x0, x0, #0x10
/home/pwnz/devel/optee/optee_os/lib/libutee/tee_api.c:46 (discriminator 2)
     e48:	7100409f 	cmp	w4, #0x10
     e4c:	54fffde1 	b.ne	e08 <__utee_from_param+0x14>
/home/pwnz/devel/optee/optee_os/lib/libutee/tee_api.c:66
     e50:	d65f03c0 	ret
/home/pwnz/devel/optee/optee_os/lib/libutee/tee_api.c:57
     e54:	f9400043 	ldr	x3, [x2]
     e58:	f9000003 	str	x3, [x0]
/home/pwnz/devel/optee/optee_os/lib/libutee/tee_api.c:58
     e5c:	b9400843 	ldr	w3, [x2,#8]
     e60:	17fffff6 	b	e38 <__utee_from_param+0x44>
/home/pwnz/devel/optee/optee_os/lib/libutee/tee_api.c:62
     e64:	a9007c1f 	stp	xzr, xzr, [x0]
/home/pwnz/devel/optee/optee_os/lib/libutee/tee_api.c:63
     e68:	17fffff5 	b	e3c <__utee_from_param+0x48>

0000000000000e6c <__utee_to_param>:
__utee_to_param():
/home/pwnz/devel/optee/optee_os/lib/libutee/tee_api.c:72
     e6c:	f8408446 	ldr	x6, [x2],#8
/home/pwnz/devel/optee/optee_os/lib/libutee/tee_api.c:78
     e70:	90000065 	adrp	x5, c000 <PRIME_TABLE+0x770>
     e74:	9117b0a5 	add	x5, x5, #0x5ec
/home/pwnz/devel/optee/optee_os/lib/libutee/tee_api.c:72
     e78:	52800004 	mov	w4, #0x0                   	// #0
     e7c:	2a0603e9 	mov	w9, w6
/home/pwnz/devel/optee/optee_os/lib/libutee/tee_api.c:78
     e80:	1ac42523 	lsr	w3, w9, w4
     e84:	12000c63 	and	w3, w3, #0xf
     e88:	51000463 	sub	w3, w3, #0x1
     e8c:	7100187f 	cmp	w3, #0x6
/home/pwnz/devel/optee/optee_os/lib/libutee/tee_api.c:76
     e90:	a9401c48 	ldp	x8, x7, [x2]
/home/pwnz/devel/optee/optee_os/lib/libutee/tee_api.c:78
     e94:	540000c8 	b.hi	eac <__utee_to_param+0x40>
     e98:	386348a3 	ldrb	w3, [x5,w3,uxtw]
     e9c:	1000006a 	adr	x10, ea8 <__utee_to_param+0x3c>
     ea0:	8b238943 	add	x3, x10, w3, sxtb #2
     ea4:	d61f0060 	br	x3
/home/pwnz/devel/optee/optee_os/lib/libutee/tee_api.c:83
     ea8:	29001c08 	stp	w8, w7, [x0]
     eac:	11001084 	add	w4, w4, #0x4
     eb0:	91004042 	add	x2, x2, #0x10
     eb4:	91004000 	add	x0, x0, #0x10
/home/pwnz/devel/optee/optee_os/lib/libutee/tee_api.c:74 (discriminator 2)
     eb8:	7100409f 	cmp	w4, #0x10
     ebc:	54fffe21 	b.ne	e80 <__utee_to_param+0x14>
/home/pwnz/devel/optee/optee_os/lib/libutee/tee_api.c:96
     ec0:	b4000041 	cbz	x1, ec8 <__utee_to_param+0x5c>
/home/pwnz/devel/optee/optee_os/lib/libutee/tee_api.c:97
     ec4:	b9000026 	str	w6, [x1]
     ec8:	d65f03c0 	ret
/home/pwnz/devel/optee/optee_os/lib/libutee/tee_api.c:88
     ecc:	f9000008 	str	x8, [x0]
/home/pwnz/devel/optee/optee_os/lib/libutee/tee_api.c:89
     ed0:	b9000807 	str	w7, [x0,#8]
/home/pwnz/devel/optee/optee_os/lib/libutee/tee_api.c:90
     ed4:	17fffff6 	b	eac <__utee_to_param+0x40>

0000000000000ed8 <TEE_OpenTASession>:
TEE_OpenTASession():
/home/pwnz/devel/optee/optee_os/lib/libutee/tee_api.c:106
     ed8:	a9b77bfd 	stp	x29, x30, [sp,#-144]!
     edc:	910003fd 	mov	x29, sp
     ee0:	a90153f3 	stp	x19, x20, [sp,#16]
/home/pwnz/devel/optee/optee_os/lib/libutee/tee_api.c:111
     ee4:	910123b3 	add	x19, x29, #0x48
/home/pwnz/devel/optee/optee_os/lib/libutee/tee_api.c:106
     ee8:	a9025bf5 	stp	x21, x22, [sp,#32]
     eec:	aa0303f4 	mov	x20, x3
     ef0:	a90363f7 	stp	x23, x24, [sp,#48]
     ef4:	aa0003f6 	mov	x22, x0
     ef8:	aa0503f8 	mov	x24, x5
     efc:	2a0103f7 	mov	w23, w1
     f00:	aa0403f5 	mov	x21, x4
     f04:	2a0203e1 	mov	w1, w2
/home/pwnz/devel/optee/optee_os/lib/libutee/tee_api.c:111
     f08:	aa1303e0 	mov	x0, x19
     f0c:	aa0303e2 	mov	x2, x3
     f10:	97ffffb9 	bl	df4 <__utee_from_param>
/home/pwnz/devel/optee/optee_os/lib/libutee/tee_api.c:112
     f14:	aa1803e4 	mov	x4, x24
     f18:	910113a3 	add	x3, x29, #0x44
     f1c:	aa1303e2 	mov	x2, x19
     f20:	2a1703e1 	mov	w1, w23
     f24:	aa1603e0 	mov	x0, x22
     f28:	94000dcb 	bl	4654 <utee_open_ta_session>
/home/pwnz/devel/optee/optee_os/lib/libutee/tee_api.c:114
     f2c:	aa1303e2 	mov	x2, x19
/home/pwnz/devel/optee/optee_os/lib/libutee/tee_api.c:112
     f30:	2a0003f6 	mov	w22, w0
/home/pwnz/devel/optee/optee_os/lib/libutee/tee_api.c:114
     f34:	d2800001 	mov	x1, #0x0                   	// #0
     f38:	aa1403e0 	mov	x0, x20
     f3c:	97ffffcc 	bl	e6c <__utee_to_param>
/home/pwnz/devel/optee/optee_os/lib/libutee/tee_api.c:120
     f40:	34000056 	cbz	w22, f48 <TEE_OpenTASession+0x70>
/home/pwnz/devel/optee/optee_os/lib/libutee/tee_api.c:121
     f44:	b90047bf 	str	wzr, [x29,#68]
/home/pwnz/devel/optee/optee_os/lib/libutee/tee_api.c:123
     f48:	b94047a0 	ldr	w0, [x29,#68]
/home/pwnz/devel/optee/optee_os/lib/libutee/tee_api.c:125
     f4c:	a94153f3 	ldp	x19, x20, [sp,#16]
     f50:	a94363f7 	ldp	x23, x24, [sp,#48]
/home/pwnz/devel/optee/optee_os/lib/libutee/tee_api.c:123
     f54:	f90002a0 	str	x0, [x21]
/home/pwnz/devel/optee/optee_os/lib/libutee/tee_api.c:125
     f58:	2a1603e0 	mov	w0, w22
     f5c:	a9425bf5 	ldp	x21, x22, [sp,#32]
     f60:	a8c97bfd 	ldp	x29, x30, [sp],#144
     f64:	d65f03c0 	ret

0000000000000f68 <TEE_CloseTASession>:
TEE_CloseTASession():
/home/pwnz/devel/optee/optee_os/lib/libutee/tee_api.c:129
     f68:	b4000120 	cbz	x0, f8c <TEE_CloseTASession+0x24>
/home/pwnz/devel/optee/optee_os/lib/libutee/tee_api.c:128
     f6c:	a9bf7bfd 	stp	x29, x30, [sp,#-16]!
     f70:	910003fd 	mov	x29, sp
/home/pwnz/devel/optee/optee_os/lib/libutee/tee_api.c:130
     f74:	94000dbb 	bl	4660 <utee_close_ta_session>
/home/pwnz/devel/optee/optee_os/lib/libutee/tee_api.c:132
     f78:	34000060 	cbz	w0, f84 <TEE_CloseTASession+0x1c>
/home/pwnz/devel/optee/optee_os/lib/libutee/tee_api.c:135
     f7c:	a8c17bfd 	ldp	x29, x30, [sp],#16
/home/pwnz/devel/optee/optee_os/lib/libutee/tee_api.c:133
     f80:	14000cf1 	b	4344 <TEE_Panic>
/home/pwnz/devel/optee/optee_os/lib/libutee/tee_api.c:135
     f84:	a8c17bfd 	ldp	x29, x30, [sp],#16
     f88:	d65f03c0 	ret
     f8c:	d65f03c0 	ret

0000000000000f90 <TEE_InvokeTACommand>:
TEE_InvokeTACommand():
/home/pwnz/devel/optee/optee_os/lib/libutee/tee_api.c:142
     f90:	a9b77bfd 	stp	x29, x30, [sp,#-144]!
     f94:	910003fd 	mov	x29, sp
     f98:	a90153f3 	stp	x19, x20, [sp,#16]
/home/pwnz/devel/optee/optee_os/lib/libutee/tee_api.c:147
     f9c:	910123b4 	add	x20, x29, #0x48
/home/pwnz/devel/optee/optee_os/lib/libutee/tee_api.c:142
     fa0:	a9025bf5 	stp	x21, x22, [sp,#32]
     fa4:	aa0003f3 	mov	x19, x0
     fa8:	a90363f7 	stp	x23, x24, [sp,#48]
     fac:	aa0403f6 	mov	x22, x4
     fb0:	aa0503f5 	mov	x21, x5
     fb4:	2a0103f7 	mov	w23, w1
     fb8:	2a0203f8 	mov	w24, w2
/home/pwnz/devel/optee/optee_os/lib/libutee/tee_api.c:147
     fbc:	2a0303e1 	mov	w1, w3
     fc0:	aa0403e2 	mov	x2, x4
     fc4:	aa1403e0 	mov	x0, x20
     fc8:	97ffff8b 	bl	df4 <__utee_from_param>
/home/pwnz/devel/optee/optee_os/lib/libutee/tee_api.c:148
     fcc:	910113a4 	add	x4, x29, #0x44
     fd0:	aa1403e3 	mov	x3, x20
     fd4:	2a1803e2 	mov	w2, w24
     fd8:	2a1703e1 	mov	w1, w23
     fdc:	aa1303e0 	mov	x0, x19
     fe0:	94000da3 	bl	466c <utee_invoke_ta_command>
/home/pwnz/devel/optee/optee_os/lib/libutee/tee_api.c:151
     fe4:	aa1403e2 	mov	x2, x20
/home/pwnz/devel/optee/optee_os/lib/libutee/tee_api.c:148
     fe8:	2a0003f3 	mov	w19, w0
/home/pwnz/devel/optee/optee_os/lib/libutee/tee_api.c:151
     fec:	d2800001 	mov	x1, #0x0                   	// #0
     ff0:	aa1603e0 	mov	x0, x22
     ff4:	97ffff9e 	bl	e6c <__utee_to_param>
     ff8:	b94047a0 	ldr	w0, [x29,#68]
/home/pwnz/devel/optee/optee_os/lib/libutee/tee_api.c:153
     ffc:	b4000055 	cbz	x21, 1004 <TEE_InvokeTACommand+0x74>
/home/pwnz/devel/optee/optee_os/lib/libutee/tee_api.c:154
    1000:	b90002a0 	str	w0, [x21]
/home/pwnz/devel/optee/optee_os/lib/libutee/tee_api.c:156
    1004:	7100101f 	cmp	w0, #0x4
    1008:	54000120 	b.eq	102c <TEE_InvokeTACommand+0x9c>
/home/pwnz/devel/optee/optee_os/lib/libutee/tee_api.c:160
    100c:	7100027f 	cmp	w19, #0x0
    1010:	129ffe60 	mov	w0, #0xffff000c            	// #-65524
    1014:	7a401264 	ccmp	w19, w0, #0x4, ne
    1018:	1299fb60 	mov	w0, #0xffff3024            	// #-53212
    101c:	7a401264 	ccmp	w19, w0, #0x4, ne
    1020:	54000060 	b.eq	102c <TEE_InvokeTACommand+0x9c>
/home/pwnz/devel/optee/optee_os/lib/libutee/tee_api.c:162
    1024:	2a1303e0 	mov	w0, w19
    1028:	94000cc7 	bl	4344 <TEE_Panic>
/home/pwnz/devel/optee/optee_os/lib/libutee/tee_api.c:165
    102c:	2a1303e0 	mov	w0, w19
    1030:	a94153f3 	ldp	x19, x20, [sp,#16]
    1034:	a9425bf5 	ldp	x21, x22, [sp,#32]
    1038:	a94363f7 	ldp	x23, x24, [sp,#48]
    103c:	a8c97bfd 	ldp	x29, x30, [sp],#144
    1040:	d65f03c0 	ret

0000000000001044 <TEE_GetCancellationFlag>:
TEE_GetCancellationFlag():
/home/pwnz/devel/optee/optee_os/lib/libutee/tee_api.c:170
    1044:	a9be7bfd 	stp	x29, x30, [sp,#-32]!
    1048:	910003fd 	mov	x29, sp
/home/pwnz/devel/optee/optee_os/lib/libutee/tee_api.c:172
    104c:	910073a0 	add	x0, x29, #0x1c
    1050:	94000d8a 	bl	4678 <utee_get_cancellation_flag>
/home/pwnz/devel/optee/optee_os/lib/libutee/tee_api.c:174
    1054:	34000040 	cbz	w0, 105c <TEE_GetCancellationFlag+0x18>
/home/pwnz/devel/optee/optee_os/lib/libutee/tee_api.c:175
    1058:	b9001fbf 	str	wzr, [x29,#28]
/home/pwnz/devel/optee/optee_os/lib/libutee/tee_api.c:176
    105c:	b9401fa0 	ldr	w0, [x29,#28]
/home/pwnz/devel/optee/optee_os/lib/libutee/tee_api.c:177
    1060:	a8c27bfd 	ldp	x29, x30, [sp],#32
/home/pwnz/devel/optee/optee_os/lib/libutee/tee_api.c:176
    1064:	7100001f 	cmp	w0, #0x0
/home/pwnz/devel/optee/optee_os/lib/libutee/tee_api.c:177
    1068:	1a9f07e0 	cset	w0, ne
    106c:	d65f03c0 	ret

0000000000001070 <TEE_UnmaskCancellation>:
TEE_UnmaskCancellation():
/home/pwnz/devel/optee/optee_os/lib/libutee/tee_api.c:180
    1070:	a9be7bfd 	stp	x29, x30, [sp,#-32]!
    1074:	910003fd 	mov	x29, sp
/home/pwnz/devel/optee/optee_os/lib/libutee/tee_api.c:182
    1078:	910073a0 	add	x0, x29, #0x1c
    107c:	94000d85 	bl	4690 <utee_unmask_cancellation>
/home/pwnz/devel/optee/optee_os/lib/libutee/tee_api.c:184
    1080:	34000040 	cbz	w0, 1088 <TEE_UnmaskCancellation+0x18>
/home/pwnz/devel/optee/optee_os/lib/libutee/tee_api.c:185
    1084:	94000cb0 	bl	4344 <TEE_Panic>
/home/pwnz/devel/optee/optee_os/lib/libutee/tee_api.c:186
    1088:	b9401fa0 	ldr	w0, [x29,#28]
/home/pwnz/devel/optee/optee_os/lib/libutee/tee_api.c:187
    108c:	a8c27bfd 	ldp	x29, x30, [sp],#32
/home/pwnz/devel/optee/optee_os/lib/libutee/tee_api.c:186
    1090:	7100001f 	cmp	w0, #0x0
/home/pwnz/devel/optee/optee_os/lib/libutee/tee_api.c:187
    1094:	1a9f07e0 	cset	w0, ne
    1098:	d65f03c0 	ret

000000000000109c <TEE_MaskCancellation>:
TEE_MaskCancellation():
/home/pwnz/devel/optee/optee_os/lib/libutee/tee_api.c:190
    109c:	a9be7bfd 	stp	x29, x30, [sp,#-32]!
    10a0:	910003fd 	mov	x29, sp
/home/pwnz/devel/optee/optee_os/lib/libutee/tee_api.c:192
    10a4:	910073a0 	add	x0, x29, #0x1c
    10a8:	94000d7d 	bl	469c <utee_mask_cancellation>
/home/pwnz/devel/optee/optee_os/lib/libutee/tee_api.c:194
    10ac:	34000040 	cbz	w0, 10b4 <TEE_MaskCancellation+0x18>
/home/pwnz/devel/optee/optee_os/lib/libutee/tee_api.c:195
    10b0:	94000ca5 	bl	4344 <TEE_Panic>
/home/pwnz/devel/optee/optee_os/lib/libutee/tee_api.c:196
    10b4:	b9401fa0 	ldr	w0, [x29,#28]
/home/pwnz/devel/optee/optee_os/lib/libutee/tee_api.c:197
    10b8:	a8c27bfd 	ldp	x29, x30, [sp],#32
/home/pwnz/devel/optee/optee_os/lib/libutee/tee_api.c:196
    10bc:	7100001f 	cmp	w0, #0x0
/home/pwnz/devel/optee/optee_os/lib/libutee/tee_api.c:197
    10c0:	1a9f07e0 	cset	w0, ne
    10c4:	d65f03c0 	ret

00000000000010c8 <TEE_CheckMemoryAccessRights>:
TEE_CheckMemoryAccessRights():
/home/pwnz/devel/optee/optee_os/lib/libutee/tee_api.c:206
    10c8:	34000062 	cbz	w2, 10d4 <TEE_CheckMemoryAccessRights+0xc>
/home/pwnz/devel/optee/optee_os/lib/libutee/tee_api.c:210
    10cc:	2a0203e2 	mov	w2, w2
    10d0:	14000d6d 	b	4684 <utee_check_access_rights>
/home/pwnz/devel/optee/optee_os/lib/libutee/tee_api.c:222
    10d4:	52800000 	mov	w0, #0x0                   	// #0
    10d8:	d65f03c0 	ret

00000000000010dc <TEE_SetInstanceData>:
TEE_SetInstanceData():
/home/pwnz/devel/optee/optee_os/lib/libutee/tee_api.c:226
    10dc:	b00000a1 	adrp	x1, 16000 <ta_heap+0x7a78>
    10e0:	f902c420 	str	x0, [x1,#1416]
    10e4:	d65f03c0 	ret

00000000000010e8 <TEE_GetInstanceData>:
TEE_GetInstanceData():
/home/pwnz/devel/optee/optee_os/lib/libutee/tee_api.c:232
    10e8:	b00000a0 	adrp	x0, 16000 <ta_heap+0x7a78>
    10ec:	f942c400 	ldr	x0, [x0,#1416]
    10f0:	d65f03c0 	ret

00000000000010f4 <TEE_MemMove>:
TEE_MemMove():
/home/pwnz/devel/optee/optee_os/lib/libutee/tee_api.c:236
    10f4:	2a0203e2 	mov	w2, w2
    10f8:	1400160b 	b	6924 <memmove>

00000000000010fc <TEE_MemCompare>:
TEE_MemCompare():
/home/pwnz/devel/optee/optee_os/lib/libutee/tee_api.c:241
    10fc:	2a0203e2 	mov	w2, w2
    1100:	140015f4 	b	68d0 <memcmp>

0000000000001104 <TEE_MemFill>:
TEE_MemFill():
/home/pwnz/devel/optee/optee_os/lib/libutee/tee_api.c:246
    1104:	2a0203e2 	mov	w2, w2
    1108:	1400161a 	b	6970 <memset>

000000000000110c <TEE_GetSystemTime>:
TEE_GetSystemTime():
/home/pwnz/devel/optee/optee_os/lib/libutee/tee_api.c:252
    110c:	a9bf7bfd 	stp	x29, x30, [sp,#-16]!
/home/pwnz/devel/optee/optee_os/lib/libutee/tee_api.c:253
    1110:	aa0003e1 	mov	x1, x0
    1114:	d2800000 	mov	x0, #0x0                   	// #0
/home/pwnz/devel/optee/optee_os/lib/libutee/tee_api.c:252
    1118:	910003fd 	mov	x29, sp
/home/pwnz/devel/optee/optee_os/lib/libutee/tee_api.c:253
    111c:	94000d66 	bl	46b4 <utee_get_time>
/home/pwnz/devel/optee/optee_os/lib/libutee/tee_api.c:255
    1120:	34000060 	cbz	w0, 112c <TEE_GetSystemTime+0x20>
/home/pwnz/devel/optee/optee_os/lib/libutee/tee_api.c:257
    1124:	a8c17bfd 	ldp	x29, x30, [sp],#16
/home/pwnz/devel/optee/optee_os/lib/libutee/tee_api.c:256
    1128:	14000c87 	b	4344 <TEE_Panic>
/home/pwnz/devel/optee/optee_os/lib/libutee/tee_api.c:257
    112c:	a8c17bfd 	ldp	x29, x30, [sp],#16
    1130:	d65f03c0 	ret

0000000000001134 <TEE_Wait>:
TEE_Wait():
/home/pwnz/devel/optee/optee_os/lib/libutee/tee_api.c:260
    1134:	a9be7bfd 	stp	x29, x30, [sp,#-32]!
/home/pwnz/devel/optee/optee_os/lib/libutee/tee_api.c:261
    1138:	2a0003e0 	mov	w0, w0
/home/pwnz/devel/optee/optee_os/lib/libutee/tee_api.c:260
    113c:	910003fd 	mov	x29, sp
    1140:	f9000bf3 	str	x19, [sp,#16]
/home/pwnz/devel/optee/optee_os/lib/libutee/tee_api.c:261
    1144:	94000d59 	bl	46a8 <utee_wait>
/home/pwnz/devel/optee/optee_os/lib/libutee/tee_api.c:263
    1148:	7100001f 	cmp	w0, #0x0
    114c:	129fffa1 	mov	w1, #0xffff0002            	// #-65534
/home/pwnz/devel/optee/optee_os/lib/libutee/tee_api.c:261
    1150:	2a0003f3 	mov	w19, w0
/home/pwnz/devel/optee/optee_os/lib/libutee/tee_api.c:263
    1154:	7a411004 	ccmp	w0, w1, #0x4, ne
    1158:	54000040 	b.eq	1160 <TEE_Wait+0x2c>
/home/pwnz/devel/optee/optee_os/lib/libutee/tee_api.c:264
    115c:	94000c7a 	bl	4344 <TEE_Panic>
/home/pwnz/devel/optee/optee_os/lib/libutee/tee_api.c:267
    1160:	2a1303e0 	mov	w0, w19
    1164:	f9400bf3 	ldr	x19, [sp,#16]
    1168:	a8c27bfd 	ldp	x29, x30, [sp],#32
    116c:	d65f03c0 	ret

0000000000001170 <TEE_GetTAPersistentTime>:
TEE_GetTAPersistentTime():
/home/pwnz/devel/optee/optee_os/lib/libutee/tee_api.c:270
    1170:	a9be7bfd 	stp	x29, x30, [sp,#-32]!
/home/pwnz/devel/optee/optee_os/lib/libutee/tee_api.c:273
    1174:	aa0003e1 	mov	x1, x0
/home/pwnz/devel/optee/optee_os/lib/libutee/tee_api.c:270
    1178:	910003fd 	mov	x29, sp
    117c:	a90153f3 	stp	x19, x20, [sp,#16]
    1180:	aa0003f4 	mov	x20, x0
/home/pwnz/devel/optee/optee_os/lib/libutee/tee_api.c:273
    1184:	d2800020 	mov	x0, #0x1                   	// #1
    1188:	94000d4b 	bl	46b4 <utee_get_time>
/home/pwnz/devel/optee/optee_os/lib/libutee/tee_api.c:275
    118c:	7100001f 	cmp	w0, #0x0
/home/pwnz/devel/optee/optee_os/lib/libutee/tee_api.c:273
    1190:	2a0003f3 	mov	w19, w0
/home/pwnz/devel/optee/optee_os/lib/libutee/tee_api.c:275
    1194:	1a9f07e1 	cset	w1, ne
    1198:	1299fe00 	mov	w0, #0xffff300f            	// #-53233
    119c:	6b00027f 	cmp	w19, w0
    11a0:	1a9f07e0 	cset	w0, ne
    11a4:	6a00003f 	tst	w1, w0
    11a8:	54000040 	b.eq	11b0 <TEE_GetTAPersistentTime+0x40>
/home/pwnz/devel/optee/optee_os/lib/libutee/tee_api.c:277
    11ac:	29007e9f 	stp	wzr, wzr, [x20]
/home/pwnz/devel/optee/optee_os/lib/libutee/tee_api.c:281
    11b0:	11402e62 	add	w2, w19, #0xb, lsl #12
    11b4:	7100045f 	cmp	w2, #0x1
    11b8:	1a9f97e2 	cset	w2, hi
/home/pwnz/devel/optee/optee_os/lib/libutee/tee_api.c:280
    11bc:	6a02003f 	tst	w1, w2
    11c0:	54000100 	b.eq	11e0 <TEE_GetTAPersistentTime+0x70>
/home/pwnz/devel/optee/optee_os/lib/libutee/tee_api.c:283
    11c4:	129ffe61 	mov	w1, #0xffff000c            	// #-65524
    11c8:	6b01027f 	cmp	w19, w1
    11cc:	1a9f07e1 	cset	w1, ne
    11d0:	6a01001f 	tst	w0, w1
    11d4:	54000060 	b.eq	11e0 <TEE_GetTAPersistentTime+0x70>
/home/pwnz/devel/optee/optee_os/lib/libutee/tee_api.c:285
    11d8:	2a1303e0 	mov	w0, w19
    11dc:	94000c5a 	bl	4344 <TEE_Panic>
/home/pwnz/devel/optee/optee_os/lib/libutee/tee_api.c:288
    11e0:	2a1303e0 	mov	w0, w19
    11e4:	a94153f3 	ldp	x19, x20, [sp,#16]
    11e8:	a8c27bfd 	ldp	x29, x30, [sp],#32
    11ec:	d65f03c0 	ret

00000000000011f0 <TEE_SetTAPersistentTime>:
TEE_SetTAPersistentTime():
/home/pwnz/devel/optee/optee_os/lib/libutee/tee_api.c:291
    11f0:	a9be7bfd 	stp	x29, x30, [sp,#-32]!
    11f4:	910003fd 	mov	x29, sp
    11f8:	f9000bf3 	str	x19, [sp,#16]
/home/pwnz/devel/optee/optee_os/lib/libutee/tee_api.c:294
    11fc:	94000d31 	bl	46c0 <utee_set_ta_time>
/home/pwnz/devel/optee/optee_os/lib/libutee/tee_api.c:297
    1200:	7100001f 	cmp	w0, #0x0
    1204:	129ffe61 	mov	w1, #0xffff000c            	// #-65524
    1208:	7a411004 	ccmp	w0, w1, #0x4, ne
/home/pwnz/devel/optee/optee_os/lib/libutee/tee_api.c:294
    120c:	2a0003f3 	mov	w19, w0
/home/pwnz/devel/optee/optee_os/lib/libutee/tee_api.c:297
    1210:	1299f7c1 	mov	w1, #0xffff3041            	// #-53183
    1214:	7a411004 	ccmp	w0, w1, #0x4, ne
    1218:	54000040 	b.eq	1220 <TEE_SetTAPersistentTime+0x30>
/home/pwnz/devel/optee/optee_os/lib/libutee/tee_api.c:299
    121c:	94000c4a 	bl	4344 <TEE_Panic>
/home/pwnz/devel/optee/optee_os/lib/libutee/tee_api.c:302
    1220:	2a1303e0 	mov	w0, w19
    1224:	f9400bf3 	ldr	x19, [sp,#16]
    1228:	a8c27bfd 	ldp	x29, x30, [sp],#32
    122c:	d65f03c0 	ret

0000000000001230 <TEE_GetREETime>:
TEE_GetREETime():
/home/pwnz/devel/optee/optee_os/lib/libutee/tee_api.c:305
    1230:	a9bf7bfd 	stp	x29, x30, [sp,#-16]!
/home/pwnz/devel/optee/optee_os/lib/libutee/tee_api.c:306
    1234:	aa0003e1 	mov	x1, x0
    1238:	d2800040 	mov	x0, #0x2                   	// #2
/home/pwnz/devel/optee/optee_os/lib/libutee/tee_api.c:305
    123c:	910003fd 	mov	x29, sp
/home/pwnz/devel/optee/optee_os/lib/libutee/tee_api.c:306
    1240:	94000d1d 	bl	46b4 <utee_get_time>
/home/pwnz/devel/optee/optee_os/lib/libutee/tee_api.c:308
    1244:	34000060 	cbz	w0, 1250 <TEE_GetREETime+0x20>
/home/pwnz/devel/optee/optee_os/lib/libutee/tee_api.c:310
    1248:	a8c17bfd 	ldp	x29, x30, [sp],#16
/home/pwnz/devel/optee/optee_os/lib/libutee/tee_api.c:309
    124c:	14000c3e 	b	4344 <TEE_Panic>
/home/pwnz/devel/optee/optee_os/lib/libutee/tee_api.c:310
    1250:	a8c17bfd 	ldp	x29, x30, [sp],#16
    1254:	d65f03c0 	ret

0000000000001258 <TEE_Malloc>:
TEE_Malloc():
/home/pwnz/devel/optee/optee_os/lib/libutee/tee_api.c:314
    1258:	2a0003e0 	mov	w0, w0
    125c:	14000e1c 	b	4acc <tee_user_mem_alloc>

0000000000001260 <TEE_Realloc>:
TEE_Realloc():
/home/pwnz/devel/optee/optee_os/lib/libutee/tee_api.c:323
    1260:	2a0103e1 	mov	w1, w1
    1264:	14000ebe 	b	4d5c <tee_user_mem_realloc>

0000000000001268 <TEE_Free>:
TEE_Free():
/home/pwnz/devel/optee/optee_os/lib/libutee/tee_api.c:328
    1268:	14000e6c 	b	4c18 <tee_user_mem_free>

000000000000126c <TEE_CacheClean>:
TEE_CacheClean():
/home/pwnz/devel/optee/optee_os/lib/libutee/tee_api.c:334
    126c:	d2800002 	mov	x2, #0x0                   	// #0
    1270:	14000dbc 	b	4960 <utee_cache_operation>

0000000000001274 <TEE_CacheFlush>:
TEE_CacheFlush():
/home/pwnz/devel/optee/optee_os/lib/libutee/tee_api.c:338
    1274:	d2800022 	mov	x2, #0x1                   	// #1
    1278:	14000dba 	b	4960 <utee_cache_operation>

000000000000127c <TEE_CacheInvalidate>:
TEE_CacheInvalidate():
/home/pwnz/devel/optee/optee_os/lib/libutee/tee_api.c:343
    127c:	d2800042 	mov	x2, #0x2                   	// #2
    1280:	14000db8 	b	4960 <utee_cache_operation>

0000000000001284 <__utee_from_attr>:
__utee_from_attr():
/home/pwnz/devel/optee/optee_os/lib/libutee/tee_api_objects.c:41
    1284:	52800303 	mov	w3, #0x18                  	// #24
    1288:	9ba30442 	umaddl	x2, w2, w3, x1
/home/pwnz/devel/optee/optee_os/lib/libutee/tee_api_objects.c:44 (discriminator 1)
    128c:	eb02003f 	cmp	x1, x2
    1290:	54000041 	b.ne	1298 <__utee_from_attr+0x14>
/home/pwnz/devel/optee/optee_os/lib/libutee/tee_api_objects.c:54
    1294:	d65f03c0 	ret
/home/pwnz/devel/optee/optee_os/lib/libutee/tee_api_objects.c:45
    1298:	b9400023 	ldr	w3, [x1]
    129c:	b9001003 	str	w3, [x0,#16]
/home/pwnz/devel/optee/optee_os/lib/libutee/tee_api_objects.c:46
    12a0:	36e80103 	tbz	w3, #29, 12c0 <__utee_from_attr+0x3c>
/home/pwnz/devel/optee/optee_os/lib/libutee/tee_api_objects.c:47
    12a4:	b9400823 	ldr	w3, [x1,#8]
    12a8:	f9000003 	str	x3, [x0]
/home/pwnz/devel/optee/optee_os/lib/libutee/tee_api_objects.c:48
    12ac:	b9400c23 	ldr	w3, [x1,#12]
/home/pwnz/devel/optee/optee_os/lib/libutee/tee_api_objects.c:51
    12b0:	f9000403 	str	x3, [x0,#8]
    12b4:	91006021 	add	x1, x1, #0x18
    12b8:	91006000 	add	x0, x0, #0x18
    12bc:	17fffff4 	b	128c <__utee_from_attr+0x8>
/home/pwnz/devel/optee/optee_os/lib/libutee/tee_api_objects.c:50
    12c0:	f9400423 	ldr	x3, [x1,#8]
    12c4:	f9000003 	str	x3, [x0]
/home/pwnz/devel/optee/optee_os/lib/libutee/tee_api_objects.c:51
    12c8:	b9401023 	ldr	w3, [x1,#16]
    12cc:	17fffff9 	b	12b0 <__utee_from_attr+0x2c>

00000000000012d0 <TEE_GetObjectInfo>:
TEE_GetObjectInfo():
/home/pwnz/devel/optee/optee_os/lib/libutee/tee_api_objects.c:64
    12d0:	a9be7bfd 	stp	x29, x30, [sp,#-32]!
    12d4:	910003fd 	mov	x29, sp
    12d8:	f9000bf3 	str	x19, [sp,#16]
    12dc:	aa0103f3 	mov	x19, x1
/home/pwnz/devel/optee/optee_os/lib/libutee/tee_api_objects.c:67
    12e0:	94000d16 	bl	4738 <utee_cryp_obj_get_info>
/home/pwnz/devel/optee/optee_os/lib/libutee/tee_api_objects.c:69
    12e4:	34000040 	cbz	w0, 12ec <TEE_GetObjectInfo+0x1c>
/home/pwnz/devel/optee/optee_os/lib/libutee/tee_api_objects.c:70
    12e8:	94000c17 	bl	4344 <TEE_Panic>
/home/pwnz/devel/optee/optee_os/lib/libutee/tee_api_objects.c:72
    12ec:	b9400261 	ldr	w1, [x19]
    12f0:	528017c0 	mov	w0, #0xbe                  	// #190
    12f4:	72b40000 	movk	w0, #0xa000, lsl #16
    12f8:	6b00003f 	cmp	w1, w0
    12fc:	54000081 	b.ne	130c <TEE_GetObjectInfo+0x3c>
/home/pwnz/devel/optee/optee_os/lib/libutee/tee_api_objects.c:74
    1300:	2900fe7f 	stp	wzr, wzr, [x19,#4]
/home/pwnz/devel/optee/optee_os/lib/libutee/tee_api_objects.c:76
    1304:	2901fe7f 	stp	wzr, wzr, [x19,#12]
/home/pwnz/devel/optee/optee_os/lib/libutee/tee_api_objects.c:78
    1308:	2902fe7f 	stp	wzr, wzr, [x19,#20]
/home/pwnz/devel/optee/optee_os/lib/libutee/tee_api_objects.c:80
    130c:	f9400bf3 	ldr	x19, [sp,#16]
    1310:	a8c27bfd 	ldp	x29, x30, [sp],#32
    1314:	d65f03c0 	ret

0000000000001318 <TEE_GetObjectInfo1>:
TEE_GetObjectInfo1():
/home/pwnz/devel/optee/optee_os/lib/libutee/tee_api_objects.c:83
    1318:	a9be7bfd 	stp	x29, x30, [sp,#-32]!
    131c:	910003fd 	mov	x29, sp
    1320:	f9000bf3 	str	x19, [sp,#16]
/home/pwnz/devel/optee/optee_os/lib/libutee/tee_api_objects.c:86
    1324:	94000d05 	bl	4738 <utee_cryp_obj_get_info>
/home/pwnz/devel/optee/optee_os/lib/libutee/tee_api_objects.c:89
    1328:	52800021 	mov	w1, #0x1                   	// #1
    132c:	121e7802 	and	w2, w0, #0xfffffffd
    1330:	7100001f 	cmp	w0, #0x0
    1334:	72be0201 	movk	w1, #0xf010, lsl #16
/home/pwnz/devel/optee/optee_os/lib/libutee/tee_api_objects.c:86
    1338:	2a0003f3 	mov	w19, w0
/home/pwnz/devel/optee/optee_os/lib/libutee/tee_api_objects.c:89
    133c:	7a411044 	ccmp	w2, w1, #0x4, ne
    1340:	54000040 	b.eq	1348 <TEE_GetObjectInfo1+0x30>
/home/pwnz/devel/optee/optee_os/lib/libutee/tee_api_objects.c:91
    1344:	94000c00 	bl	4344 <TEE_Panic>
/home/pwnz/devel/optee/optee_os/lib/libutee/tee_api_objects.c:94
    1348:	2a1303e0 	mov	w0, w19
    134c:	f9400bf3 	ldr	x19, [sp,#16]
    1350:	a8c27bfd 	ldp	x29, x30, [sp],#32
    1354:	d65f03c0 	ret

0000000000001358 <TEE_RestrictObjectUsage1>:
TEE_RestrictObjectUsage1():
/home/pwnz/devel/optee/optee_os/lib/libutee/tee_api_objects.c:118
    1358:	a9be7bfd 	stp	x29, x30, [sp,#-32]!
/home/pwnz/devel/optee/optee_os/lib/libutee/tee_api_objects.c:121
    135c:	2a0103e1 	mov	w1, w1
/home/pwnz/devel/optee/optee_os/lib/libutee/tee_api_objects.c:118
    1360:	910003fd 	mov	x29, sp
    1364:	f9000bf3 	str	x19, [sp,#16]
/home/pwnz/devel/optee/optee_os/lib/libutee/tee_api_objects.c:121
    1368:	94000cf7 	bl	4744 <utee_cryp_obj_restrict_usage>
/home/pwnz/devel/optee/optee_os/lib/libutee/tee_api_objects.c:124
    136c:	52800021 	mov	w1, #0x1                   	// #1
    1370:	121e7802 	and	w2, w0, #0xfffffffd
    1374:	7100001f 	cmp	w0, #0x0
    1378:	72be0201 	movk	w1, #0xf010, lsl #16
/home/pwnz/devel/optee/optee_os/lib/libutee/tee_api_objects.c:121
    137c:	2a0003f3 	mov	w19, w0
/home/pwnz/devel/optee/optee_os/lib/libutee/tee_api_objects.c:124
    1380:	7a411044 	ccmp	w2, w1, #0x4, ne
    1384:	54000040 	b.eq	138c <TEE_RestrictObjectUsage1+0x34>
/home/pwnz/devel/optee/optee_os/lib/libutee/tee_api_objects.c:126
    1388:	94000bef 	bl	4344 <TEE_Panic>
/home/pwnz/devel/optee/optee_os/lib/libutee/tee_api_objects.c:129
    138c:	2a1303e0 	mov	w0, w19
    1390:	f9400bf3 	ldr	x19, [sp,#16]
    1394:	a8c27bfd 	ldp	x29, x30, [sp],#32
    1398:	d65f03c0 	ret

000000000000139c <TEE_RestrictObjectUsage>:
TEE_RestrictObjectUsage():
/home/pwnz/devel/optee/optee_os/lib/libutee/tee_api_objects.c:103
    139c:	a9bc7bfd 	stp	x29, x30, [sp,#-64]!
    13a0:	910003fd 	mov	x29, sp
    13a4:	a90153f3 	stp	x19, x20, [sp,#16]
    13a8:	aa0003f3 	mov	x19, x0
    13ac:	2a0103f4 	mov	w20, w1
/home/pwnz/devel/optee/optee_os/lib/libutee/tee_api_objects.c:107
    13b0:	910083a1 	add	x1, x29, #0x20
    13b4:	94000ce1 	bl	4738 <utee_cryp_obj_get_info>
/home/pwnz/devel/optee/optee_os/lib/libutee/tee_api_objects.c:108
    13b8:	b94023a1 	ldr	w1, [x29,#32]
    13bc:	528017c0 	mov	w0, #0xbe                  	// #190
    13c0:	72b40000 	movk	w0, #0xa000, lsl #16
    13c4:	6b00003f 	cmp	w1, w0
    13c8:	540000c0 	b.eq	13e0 <TEE_RestrictObjectUsage+0x44>
/home/pwnz/devel/optee/optee_os/lib/libutee/tee_api_objects.c:111
    13cc:	2a1403e1 	mov	w1, w20
    13d0:	aa1303e0 	mov	x0, x19
    13d4:	97ffffe1 	bl	1358 <TEE_RestrictObjectUsage1>
/home/pwnz/devel/optee/optee_os/lib/libutee/tee_api_objects.c:113
    13d8:	34000040 	cbz	w0, 13e0 <TEE_RestrictObjectUsage+0x44>
/home/pwnz/devel/optee/optee_os/lib/libutee/tee_api_objects.c:114
    13dc:	94000bda 	bl	4344 <TEE_Panic>
/home/pwnz/devel/optee/optee_os/lib/libutee/tee_api_objects.c:115
    13e0:	a94153f3 	ldp	x19, x20, [sp,#16]
    13e4:	a8c47bfd 	ldp	x29, x30, [sp],#64
    13e8:	d65f03c0 	ret

00000000000013ec <TEE_GetObjectBufferAttribute>:
TEE_GetObjectBufferAttribute():
/home/pwnz/devel/optee/optee_os/lib/libutee/tee_api_objects.c:134
    13ec:	a9b97bfd 	stp	x29, x30, [sp,#-112]!
    13f0:	910003fd 	mov	x29, sp
    13f4:	a90153f3 	stp	x19, x20, [sp,#16]
    13f8:	aa0303f4 	mov	x20, x3
    13fc:	a9025bf5 	stp	x21, x22, [sp,#32]
    1400:	aa0003f6 	mov	x22, x0
    1404:	f9001bf7 	str	x23, [sp,#48]
    1408:	2a0103f5 	mov	w21, w1
    140c:	aa0203f7 	mov	x23, x2
/home/pwnz/devel/optee/optee_os/lib/libutee/tee_api_objects.c:139
    1410:	910143a1 	add	x1, x29, #0x50
    1414:	94000cc9 	bl	4738 <utee_cryp_obj_get_info>
    1418:	2a0003f3 	mov	w19, w0
/home/pwnz/devel/optee/optee_os/lib/libutee/tee_api_objects.c:140
    141c:	350001a0 	cbnz	w0, 1450 <TEE_GetObjectBufferAttribute+0x64>
/home/pwnz/devel/optee/optee_os/lib/libutee/tee_api_objects.c:145
    1420:	129fff33 	mov	w19, #0xffff0006            	// #-65530
/home/pwnz/devel/optee/optee_os/lib/libutee/tee_api_objects.c:144
    1424:	37e80175 	tbnz	w21, #29, 1450 <TEE_GetObjectBufferAttribute+0x64>
/home/pwnz/devel/optee/optee_os/lib/libutee/tee_api_objects.c:149
    1428:	9101c3a3 	add	x3, x29, #0x70
    142c:	b9400280 	ldr	w0, [x20]
/home/pwnz/devel/optee/optee_os/lib/libutee/tee_api_objects.c:150
    1430:	aa1703e2 	mov	x2, x23
    1434:	2a1503e1 	mov	w1, w21
/home/pwnz/devel/optee/optee_os/lib/libutee/tee_api_objects.c:149
    1438:	f81d8c60 	str	x0, [x3,#-40]!
/home/pwnz/devel/optee/optee_os/lib/libutee/tee_api_objects.c:150
    143c:	aa1603e0 	mov	x0, x22
    1440:	94000cc4 	bl	4750 <utee_cryp_obj_get_attr>
    1444:	2a0003f3 	mov	w19, w0
/home/pwnz/devel/optee/optee_os/lib/libutee/tee_api_objects.c:152
    1448:	f94027a0 	ldr	x0, [x29,#72]
    144c:	b9000280 	str	w0, [x20]
/home/pwnz/devel/optee/optee_os/lib/libutee/tee_api_objects.c:156
    1450:	529fff00 	mov	w0, #0xfff8                	// #65528
    1454:	0b000260 	add	w0, w19, w0
/home/pwnz/devel/optee/optee_os/lib/libutee/tee_api_objects.c:155
    1458:	721c781f 	tst	w0, #0xfffffff7
    145c:	7a401a64 	ccmp	w19, #0x0, #0x4, ne
    1460:	54000100 	b.eq	1480 <TEE_GetObjectBufferAttribute+0x94>
/home/pwnz/devel/optee/optee_os/lib/libutee/tee_api_objects.c:158
    1464:	121e7a61 	and	w1, w19, #0xfffffffd
    1468:	52800020 	mov	w0, #0x1                   	// #1
    146c:	72be0200 	movk	w0, #0xf010, lsl #16
    1470:	6b00003f 	cmp	w1, w0
    1474:	54000060 	b.eq	1480 <TEE_GetObjectBufferAttribute+0x94>
/home/pwnz/devel/optee/optee_os/lib/libutee/tee_api_objects.c:160
    1478:	2a1303e0 	mov	w0, w19
    147c:	94000bb2 	bl	4344 <TEE_Panic>
/home/pwnz/devel/optee/optee_os/lib/libutee/tee_api_objects.c:163
    1480:	2a1303e0 	mov	w0, w19
    1484:	f9401bf7 	ldr	x23, [sp,#48]
    1488:	a94153f3 	ldp	x19, x20, [sp,#16]
    148c:	a9425bf5 	ldp	x21, x22, [sp,#32]
    1490:	a8c77bfd 	ldp	x29, x30, [sp],#112
    1494:	d65f03c0 	ret

0000000000001498 <TEE_GetObjectValueAttribute>:
TEE_GetObjectValueAttribute():
/home/pwnz/devel/optee/optee_os/lib/libutee/tee_api_objects.c:168
    1498:	a9b97bfd 	stp	x29, x30, [sp,#-112]!
    149c:	910003fd 	mov	x29, sp
    14a0:	a9025bf5 	stp	x21, x22, [sp,#32]
    14a4:	2a0103f6 	mov	w22, w1
/home/pwnz/devel/optee/optee_os/lib/libutee/tee_api_objects.c:172
    14a8:	d2800101 	mov	x1, #0x8                   	// #8
/home/pwnz/devel/optee/optee_os/lib/libutee/tee_api_objects.c:168
    14ac:	a90153f3 	stp	x19, x20, [sp,#16]
/home/pwnz/devel/optee/optee_os/lib/libutee/tee_api_objects.c:172
    14b0:	f90027a1 	str	x1, [x29,#72]
/home/pwnz/devel/optee/optee_os/lib/libutee/tee_api_objects.c:168
    14b4:	aa0203f5 	mov	x21, x2
    14b8:	f9001bf7 	str	x23, [sp,#48]
    14bc:	aa0303f4 	mov	x20, x3
/home/pwnz/devel/optee/optee_os/lib/libutee/tee_api_objects.c:174
    14c0:	910143a1 	add	x1, x29, #0x50
/home/pwnz/devel/optee/optee_os/lib/libutee/tee_api_objects.c:168
    14c4:	aa0003f7 	mov	x23, x0
/home/pwnz/devel/optee/optee_os/lib/libutee/tee_api_objects.c:174
    14c8:	94000c9c 	bl	4738 <utee_cryp_obj_get_info>
    14cc:	2a0003f3 	mov	w19, w0
/home/pwnz/devel/optee/optee_os/lib/libutee/tee_api_objects.c:175
    14d0:	35000120 	cbnz	w0, 14f4 <TEE_GetObjectValueAttribute+0x5c>
/home/pwnz/devel/optee/optee_os/lib/libutee/tee_api_objects.c:180
    14d4:	129fff33 	mov	w19, #0xffff0006            	// #-65530
/home/pwnz/devel/optee/optee_os/lib/libutee/tee_api_objects.c:179
    14d8:	36e800f6 	tbz	w22, #29, 14f4 <TEE_GetObjectValueAttribute+0x5c>
/home/pwnz/devel/optee/optee_os/lib/libutee/tee_api_objects.c:184
    14dc:	910123a3 	add	x3, x29, #0x48
    14e0:	910103a2 	add	x2, x29, #0x40
    14e4:	2a1603e1 	mov	w1, w22
    14e8:	aa1703e0 	mov	x0, x23
    14ec:	94000c99 	bl	4750 <utee_cryp_obj_get_attr>
    14f0:	2a0003f3 	mov	w19, w0
/home/pwnz/devel/optee/optee_os/lib/libutee/tee_api_objects.c:188
    14f4:	7100027f 	cmp	w19, #0x0
    14f8:	129ffee0 	mov	w0, #0xffff0008            	// #-65528
    14fc:	7a401264 	ccmp	w19, w0, #0x4, ne
    1500:	54000100 	b.eq	1520 <TEE_GetObjectValueAttribute+0x88>
/home/pwnz/devel/optee/optee_os/lib/libutee/tee_api_objects.c:190
    1504:	121e7a61 	and	w1, w19, #0xfffffffd
    1508:	52800020 	mov	w0, #0x1                   	// #1
    150c:	72be0200 	movk	w0, #0xf010, lsl #16
    1510:	6b00003f 	cmp	w1, w0
    1514:	54000060 	b.eq	1520 <TEE_GetObjectValueAttribute+0x88>
/home/pwnz/devel/optee/optee_os/lib/libutee/tee_api_objects.c:192
    1518:	2a1303e0 	mov	w0, w19
    151c:	94000b8a 	bl	4344 <TEE_Panic>
/home/pwnz/devel/optee/optee_os/lib/libutee/tee_api_objects.c:194
    1520:	f94027a0 	ldr	x0, [x29,#72]
    1524:	f100201f 	cmp	x0, #0x8
    1528:	54000060 	b.eq	1534 <TEE_GetObjectValueAttribute+0x9c>
/home/pwnz/devel/optee/optee_os/lib/libutee/tee_api_objects.c:195
    152c:	52800000 	mov	w0, #0x0                   	// #0
    1530:	94000b85 	bl	4344 <TEE_Panic>
/home/pwnz/devel/optee/optee_os/lib/libutee/tee_api_objects.c:197
    1534:	350000f3 	cbnz	w19, 1550 <TEE_GetObjectValueAttribute+0xb8>
/home/pwnz/devel/optee/optee_os/lib/libutee/tee_api_objects.c:198
    1538:	b4000075 	cbz	x21, 1544 <TEE_GetObjectValueAttribute+0xac>
/home/pwnz/devel/optee/optee_os/lib/libutee/tee_api_objects.c:199
    153c:	b94043a0 	ldr	w0, [x29,#64]
    1540:	b90002a0 	str	w0, [x21]
/home/pwnz/devel/optee/optee_os/lib/libutee/tee_api_objects.c:200
    1544:	b4000074 	cbz	x20, 1550 <TEE_GetObjectValueAttribute+0xb8>
/home/pwnz/devel/optee/optee_os/lib/libutee/tee_api_objects.c:201
    1548:	b94047a0 	ldr	w0, [x29,#68]
    154c:	b9000280 	str	w0, [x20]
/home/pwnz/devel/optee/optee_os/lib/libutee/tee_api_objects.c:205
    1550:	2a1303e0 	mov	w0, w19
    1554:	f9401bf7 	ldr	x23, [sp,#48]
    1558:	a94153f3 	ldp	x19, x20, [sp,#16]
    155c:	a9425bf5 	ldp	x21, x22, [sp,#32]
    1560:	a8c77bfd 	ldp	x29, x30, [sp],#112
    1564:	d65f03c0 	ret

0000000000001568 <TEE_CloseObject>:
TEE_CloseObject():
/home/pwnz/devel/optee/optee_os/lib/libutee/tee_api_objects.c:211
    1568:	b4000120 	cbz	x0, 158c <TEE_CloseObject+0x24>
/home/pwnz/devel/optee/optee_os/lib/libutee/tee_api_objects.c:208
    156c:	a9bf7bfd 	stp	x29, x30, [sp,#-16]!
    1570:	910003fd 	mov	x29, sp
/home/pwnz/devel/optee/optee_os/lib/libutee/tee_api_objects.c:214
    1574:	94000c7d 	bl	4768 <utee_cryp_obj_close>
/home/pwnz/devel/optee/optee_os/lib/libutee/tee_api_objects.c:215
    1578:	34000060 	cbz	w0, 1584 <TEE_CloseObject+0x1c>
/home/pwnz/devel/optee/optee_os/lib/libutee/tee_api_objects.c:217
    157c:	a8c17bfd 	ldp	x29, x30, [sp],#16
/home/pwnz/devel/optee/optee_os/lib/libutee/tee_api_objects.c:216
    1580:	14000b71 	b	4344 <TEE_Panic>
/home/pwnz/devel/optee/optee_os/lib/libutee/tee_api_objects.c:217
    1584:	a8c17bfd 	ldp	x29, x30, [sp],#16
    1588:	d65f03c0 	ret
    158c:	d65f03c0 	ret

0000000000001590 <TEE_AllocateTransientObject>:
TEE_AllocateTransientObject():
/home/pwnz/devel/optee/optee_os/lib/libutee/tee_api_objects.c:224
    1590:	a9bd7bfd 	stp	x29, x30, [sp,#-48]!
/home/pwnz/devel/optee/optee_os/lib/libutee/tee_api_objects.c:228
    1594:	2a0103e1 	mov	w1, w1
    1598:	2a0003e0 	mov	w0, w0
/home/pwnz/devel/optee/optee_os/lib/libutee/tee_api_objects.c:224
    159c:	910003fd 	mov	x29, sp
    15a0:	a90153f3 	stp	x19, x20, [sp,#16]
    15a4:	aa0203f4 	mov	x20, x2
/home/pwnz/devel/optee/optee_os/lib/libutee/tee_api_objects.c:228
    15a8:	9100b3a2 	add	x2, x29, #0x2c
    15ac:	94000c6c 	bl	475c <utee_cryp_obj_alloc>
/home/pwnz/devel/optee/optee_os/lib/libutee/tee_api_objects.c:230
    15b0:	7100001f 	cmp	w0, #0x0
    15b4:	129ffe61 	mov	w1, #0xffff000c            	// #-65524
/home/pwnz/devel/optee/optee_os/lib/libutee/tee_api_objects.c:228
    15b8:	2a0003f3 	mov	w19, w0
/home/pwnz/devel/optee/optee_os/lib/libutee/tee_api_objects.c:230
    15bc:	7a411004 	ccmp	w0, w1, #0x4, ne
    15c0:	54000120 	b.eq	15e4 <TEE_AllocateTransientObject+0x54>
/home/pwnz/devel/optee/optee_os/lib/libutee/tee_api_objects.c:231
    15c4:	129ffea1 	mov	w1, #0xffff000a            	// #-65526
    15c8:	6b01001f 	cmp	w0, w1
    15cc:	54000040 	b.eq	15d4 <TEE_AllocateTransientObject+0x44>
/home/pwnz/devel/optee/optee_os/lib/libutee/tee_api_objects.c:233
    15d0:	94000b5d 	bl	4344 <TEE_Panic>
/home/pwnz/devel/optee/optee_os/lib/libutee/tee_api_objects.c:239
    15d4:	2a1303e0 	mov	w0, w19
    15d8:	a94153f3 	ldp	x19, x20, [sp,#16]
    15dc:	a8c37bfd 	ldp	x29, x30, [sp],#48
    15e0:	d65f03c0 	ret
/home/pwnz/devel/optee/optee_os/lib/libutee/tee_api_objects.c:235
    15e4:	35ffff80 	cbnz	w0, 15d4 <TEE_AllocateTransientObject+0x44>
/home/pwnz/devel/optee/optee_os/lib/libutee/tee_api_objects.c:236
    15e8:	b9402fa0 	ldr	w0, [x29,#44]
    15ec:	f9000280 	str	x0, [x20]
/home/pwnz/devel/optee/optee_os/lib/libutee/tee_api_objects.c:238
    15f0:	17fffff9 	b	15d4 <TEE_AllocateTransientObject+0x44>

00000000000015f4 <TEE_FreeTransientObject>:
TEE_FreeTransientObject():
/home/pwnz/devel/optee/optee_os/lib/libutee/tee_api_objects.c:246
    15f4:	b4000280 	cbz	x0, 1644 <TEE_FreeTransientObject+0x50>
/home/pwnz/devel/optee/optee_os/lib/libutee/tee_api_objects.c:242
    15f8:	a9bc7bfd 	stp	x29, x30, [sp,#-64]!
    15fc:	910003fd 	mov	x29, sp
    1600:	f9000bf3 	str	x19, [sp,#16]
/home/pwnz/devel/optee/optee_os/lib/libutee/tee_api_objects.c:249
    1604:	910083a1 	add	x1, x29, #0x20
    1608:	aa0003f3 	mov	x19, x0
    160c:	94000c4b 	bl	4738 <utee_cryp_obj_get_info>
/home/pwnz/devel/optee/optee_os/lib/libutee/tee_api_objects.c:250
    1610:	34000040 	cbz	w0, 1618 <TEE_FreeTransientObject+0x24>
/home/pwnz/devel/optee/optee_os/lib/libutee/tee_api_objects.c:251
    1614:	94000b4c 	bl	4344 <TEE_Panic>
/home/pwnz/devel/optee/optee_os/lib/libutee/tee_api_objects.c:253
    1618:	b9403ba0 	ldr	w0, [x29,#56]
    161c:	36800060 	tbz	w0, #16, 1628 <TEE_FreeTransientObject+0x34>
/home/pwnz/devel/optee/optee_os/lib/libutee/tee_api_objects.c:254
    1620:	52800000 	mov	w0, #0x0                   	// #0
    1624:	94000b48 	bl	4344 <TEE_Panic>
/home/pwnz/devel/optee/optee_os/lib/libutee/tee_api_objects.c:256
    1628:	aa1303e0 	mov	x0, x19
    162c:	94000c4f 	bl	4768 <utee_cryp_obj_close>
/home/pwnz/devel/optee/optee_os/lib/libutee/tee_api_objects.c:257
    1630:	34000040 	cbz	w0, 1638 <TEE_FreeTransientObject+0x44>
/home/pwnz/devel/optee/optee_os/lib/libutee/tee_api_objects.c:258
    1634:	94000b44 	bl	4344 <TEE_Panic>
/home/pwnz/devel/optee/optee_os/lib/libutee/tee_api_objects.c:259
    1638:	f9400bf3 	ldr	x19, [sp,#16]
    163c:	a8c47bfd 	ldp	x29, x30, [sp],#64
    1640:	d65f03c0 	ret
    1644:	d65f03c0 	ret

0000000000001648 <TEE_ResetTransientObject>:
TEE_ResetTransientObject():
/home/pwnz/devel/optee/optee_os/lib/libutee/tee_api_objects.c:266
    1648:	b4000280 	cbz	x0, 1698 <TEE_ResetTransientObject+0x50>
/home/pwnz/devel/optee/optee_os/lib/libutee/tee_api_objects.c:262
    164c:	a9bc7bfd 	stp	x29, x30, [sp,#-64]!
    1650:	910003fd 	mov	x29, sp
    1654:	f9000bf3 	str	x19, [sp,#16]
/home/pwnz/devel/optee/optee_os/lib/libutee/tee_api_objects.c:269
    1658:	910083a1 	add	x1, x29, #0x20
    165c:	aa0003f3 	mov	x19, x0
    1660:	94000c36 	bl	4738 <utee_cryp_obj_get_info>
/home/pwnz/devel/optee/optee_os/lib/libutee/tee_api_objects.c:270
    1664:	34000040 	cbz	w0, 166c <TEE_ResetTransientObject+0x24>
/home/pwnz/devel/optee/optee_os/lib/libutee/tee_api_objects.c:271
    1668:	94000b37 	bl	4344 <TEE_Panic>
/home/pwnz/devel/optee/optee_os/lib/libutee/tee_api_objects.c:273
    166c:	b9403ba0 	ldr	w0, [x29,#56]
    1670:	36800060 	tbz	w0, #16, 167c <TEE_ResetTransientObject+0x34>
/home/pwnz/devel/optee/optee_os/lib/libutee/tee_api_objects.c:274
    1674:	52800000 	mov	w0, #0x0                   	// #0
    1678:	94000b33 	bl	4344 <TEE_Panic>
/home/pwnz/devel/optee/optee_os/lib/libutee/tee_api_objects.c:276
    167c:	aa1303e0 	mov	x0, x19
    1680:	94000c3d 	bl	4774 <utee_cryp_obj_reset>
/home/pwnz/devel/optee/optee_os/lib/libutee/tee_api_objects.c:277
    1684:	34000040 	cbz	w0, 168c <TEE_ResetTransientObject+0x44>
/home/pwnz/devel/optee/optee_os/lib/libutee/tee_api_objects.c:278
    1688:	94000b2f 	bl	4344 <TEE_Panic>
/home/pwnz/devel/optee/optee_os/lib/libutee/tee_api_objects.c:279
    168c:	f9400bf3 	ldr	x19, [sp,#16]
    1690:	a8c47bfd 	ldp	x29, x30, [sp],#64
    1694:	d65f03c0 	ret
    1698:	d65f03c0 	ret

000000000000169c <TEE_PopulateTransientObject>:
TEE_PopulateTransientObject():
/home/pwnz/devel/optee/optee_os/lib/libutee/tee_api_objects.c:284
    169c:	a9ba7bfd 	stp	x29, x30, [sp,#-96]!
    16a0:	910003fd 	mov	x29, sp
    16a4:	a9025bf5 	stp	x21, x22, [sp,#32]
    16a8:	2a0203f6 	mov	w22, w2
    16ac:	f9001bf7 	str	x23, [sp,#48]
    16b0:	aa0103f7 	mov	x23, x1
/home/pwnz/devel/optee/optee_os/lib/libutee/tee_api_objects.c:287
    16b4:	52800301 	mov	w1, #0x18                  	// #24
/home/pwnz/devel/optee/optee_os/lib/libutee/tee_api_objects.c:284
    16b8:	a90153f3 	stp	x19, x20, [sp,#16]
    16bc:	aa0003f5 	mov	x21, x0
    16c0:	aa1603f3 	mov	x19, x22
/home/pwnz/devel/optee/optee_os/lib/libutee/tee_api_objects.c:287
    16c4:	9ba17ec1 	umull	x1, w22, w1
    16c8:	91005821 	add	x1, x1, #0x16
    16cc:	927c8421 	and	x1, x1, #0x3ffffffff0
    16d0:	cb2163ff 	sub	sp, sp, x1
/home/pwnz/devel/optee/optee_os/lib/libutee/tee_api_objects.c:289
    16d4:	910103a1 	add	x1, x29, #0x40
/home/pwnz/devel/optee/optee_os/lib/libutee/tee_api_objects.c:287
    16d8:	910003f4 	mov	x20, sp
/home/pwnz/devel/optee/optee_os/lib/libutee/tee_api_objects.c:289
    16dc:	94000c17 	bl	4738 <utee_cryp_obj_get_info>
/home/pwnz/devel/optee/optee_os/lib/libutee/tee_api_objects.c:290
    16e0:	34000040 	cbz	w0, 16e8 <TEE_PopulateTransientObject+0x4c>
/home/pwnz/devel/optee/optee_os/lib/libutee/tee_api_objects.c:291
    16e4:	94000b18 	bl	4344 <TEE_Panic>
/home/pwnz/devel/optee/optee_os/lib/libutee/tee_api_objects.c:294
    16e8:	b9405ba0 	ldr	w0, [x29,#88]
    16ec:	36800060 	tbz	w0, #16, 16f8 <TEE_PopulateTransientObject+0x5c>
/home/pwnz/devel/optee/optee_os/lib/libutee/tee_api_objects.c:295
    16f0:	52800000 	mov	w0, #0x0                   	// #0
    16f4:	94000b14 	bl	4344 <TEE_Panic>
/home/pwnz/devel/optee/optee_os/lib/libutee/tee_api_objects.c:298
    16f8:	b9405ba0 	ldr	w0, [x29,#88]
    16fc:	36880060 	tbz	w0, #17, 1708 <TEE_PopulateTransientObject+0x6c>
/home/pwnz/devel/optee/optee_os/lib/libutee/tee_api_objects.c:299
    1700:	52800000 	mov	w0, #0x0                   	// #0
    1704:	94000b10 	bl	4344 <TEE_Panic>
/home/pwnz/devel/optee/optee_os/lib/libutee/tee_api_objects.c:301
    1708:	2a1303e2 	mov	w2, w19
    170c:	aa1703e1 	mov	x1, x23
    1710:	aa1403e0 	mov	x0, x20
    1714:	97fffedc 	bl	1284 <__utee_from_attr>
/home/pwnz/devel/optee/optee_os/lib/libutee/tee_api_objects.c:302
    1718:	aa1403e1 	mov	x1, x20
    171c:	aa1603e2 	mov	x2, x22
    1720:	aa1503e0 	mov	x0, x21
    1724:	94000c17 	bl	4780 <utee_cryp_obj_populate>
/home/pwnz/devel/optee/optee_os/lib/libutee/tee_api_objects.c:303
    1728:	7100001f 	cmp	w0, #0x0
    172c:	129fff21 	mov	w1, #0xffff0006            	// #-65530
/home/pwnz/devel/optee/optee_os/lib/libutee/tee_api_objects.c:302
    1730:	2a0003f3 	mov	w19, w0
/home/pwnz/devel/optee/optee_os/lib/libutee/tee_api_objects.c:303
    1734:	7a411004 	ccmp	w0, w1, #0x4, ne
    1738:	54000040 	b.eq	1740 <TEE_PopulateTransientObject+0xa4>
/home/pwnz/devel/optee/optee_os/lib/libutee/tee_api_objects.c:304
    173c:	94000b02 	bl	4344 <TEE_Panic>
/home/pwnz/devel/optee/optee_os/lib/libutee/tee_api_objects.c:306
    1740:	910003bf 	mov	sp, x29
    1744:	2a1303e0 	mov	w0, w19
    1748:	f9401bf7 	ldr	x23, [sp,#48]
    174c:	a94153f3 	ldp	x19, x20, [sp,#16]
    1750:	a9425bf5 	ldp	x21, x22, [sp,#32]
    1754:	a8c67bfd 	ldp	x29, x30, [sp],#96
    1758:	d65f03c0 	ret

000000000000175c <TEE_InitRefAttribute>:
TEE_InitRefAttribute():
/home/pwnz/devel/optee/optee_os/lib/libutee/tee_api_objects.c:310
    175c:	a9bd7bfd 	stp	x29, x30, [sp,#-48]!
    1760:	910003fd 	mov	x29, sp
    1764:	a90153f3 	stp	x19, x20, [sp,#16]
    1768:	aa0003f3 	mov	x19, x0
    176c:	a9025bf5 	stp	x21, x22, [sp,#32]
    1770:	2a0103f4 	mov	w20, w1
    1774:	aa0203f6 	mov	x22, x2
    1778:	2a0303f5 	mov	w21, w3
/home/pwnz/devel/optee/optee_os/lib/libutee/tee_api_objects.c:311
    177c:	b5000060 	cbnz	x0, 1788 <TEE_InitRefAttribute+0x2c>
/home/pwnz/devel/optee/optee_os/lib/libutee/tee_api_objects.c:312
    1780:	52800000 	mov	w0, #0x0                   	// #0
    1784:	94000af0 	bl	4344 <TEE_Panic>
/home/pwnz/devel/optee/optee_os/lib/libutee/tee_api_objects.c:313
    1788:	36e80074 	tbz	w20, #29, 1794 <TEE_InitRefAttribute+0x38>
/home/pwnz/devel/optee/optee_os/lib/libutee/tee_api_objects.c:314
    178c:	52800000 	mov	w0, #0x0                   	// #0
    1790:	94000aed 	bl	4344 <TEE_Panic>
/home/pwnz/devel/optee/optee_os/lib/libutee/tee_api_objects.c:316
    1794:	f9000676 	str	x22, [x19,#8]
/home/pwnz/devel/optee/optee_os/lib/libutee/tee_api_objects.c:317
    1798:	b9001275 	str	w21, [x19,#16]
/home/pwnz/devel/optee/optee_os/lib/libutee/tee_api_objects.c:315
    179c:	b9000274 	str	w20, [x19]
/home/pwnz/devel/optee/optee_os/lib/libutee/tee_api_objects.c:318
    17a0:	a9425bf5 	ldp	x21, x22, [sp,#32]
    17a4:	a94153f3 	ldp	x19, x20, [sp,#16]
    17a8:	a8c37bfd 	ldp	x29, x30, [sp],#48
    17ac:	d65f03c0 	ret

00000000000017b0 <TEE_InitValueAttribute>:
TEE_InitValueAttribute():
/home/pwnz/devel/optee/optee_os/lib/libutee/tee_api_objects.c:322
    17b0:	a9bd7bfd 	stp	x29, x30, [sp,#-48]!
    17b4:	910003fd 	mov	x29, sp
    17b8:	a90153f3 	stp	x19, x20, [sp,#16]
    17bc:	aa0003f3 	mov	x19, x0
    17c0:	a9025bf5 	stp	x21, x22, [sp,#32]
    17c4:	2a0103f4 	mov	w20, w1
    17c8:	2a0203f6 	mov	w22, w2
    17cc:	2a0303f5 	mov	w21, w3
/home/pwnz/devel/optee/optee_os/lib/libutee/tee_api_objects.c:323
    17d0:	b5000060 	cbnz	x0, 17dc <TEE_InitValueAttribute+0x2c>
/home/pwnz/devel/optee/optee_os/lib/libutee/tee_api_objects.c:324
    17d4:	52800000 	mov	w0, #0x0                   	// #0
    17d8:	94000adb 	bl	4344 <TEE_Panic>
/home/pwnz/devel/optee/optee_os/lib/libutee/tee_api_objects.c:325
    17dc:	37e80074 	tbnz	w20, #29, 17e8 <TEE_InitValueAttribute+0x38>
/home/pwnz/devel/optee/optee_os/lib/libutee/tee_api_objects.c:326
    17e0:	52800000 	mov	w0, #0x0                   	// #0
    17e4:	94000ad8 	bl	4344 <TEE_Panic>
/home/pwnz/devel/optee/optee_os/lib/libutee/tee_api_objects.c:329
    17e8:	29015676 	stp	w22, w21, [x19,#8]
/home/pwnz/devel/optee/optee_os/lib/libutee/tee_api_objects.c:327
    17ec:	b9000274 	str	w20, [x19]
/home/pwnz/devel/optee/optee_os/lib/libutee/tee_api_objects.c:330
    17f0:	a9425bf5 	ldp	x21, x22, [sp,#32]
    17f4:	a94153f3 	ldp	x19, x20, [sp,#16]
    17f8:	a8c37bfd 	ldp	x29, x30, [sp],#48
    17fc:	d65f03c0 	ret

0000000000001800 <TEE_CopyObjectAttributes1>:
TEE_CopyObjectAttributes1():
/home/pwnz/devel/optee/optee_os/lib/libutee/tee_api_objects.c:355
    1800:	a9b97bfd 	stp	x29, x30, [sp,#-112]!
    1804:	910003fd 	mov	x29, sp
    1808:	a90153f3 	stp	x19, x20, [sp,#16]
    180c:	aa0103f4 	mov	x20, x1
    1810:	f90013f5 	str	x21, [sp,#32]
/home/pwnz/devel/optee/optee_os/lib/libutee/tee_api_objects.c:360
    1814:	9100c3a1 	add	x1, x29, #0x30
/home/pwnz/devel/optee/optee_os/lib/libutee/tee_api_objects.c:355
    1818:	aa0003f5 	mov	x21, x0
/home/pwnz/devel/optee/optee_os/lib/libutee/tee_api_objects.c:360
    181c:	94000bc7 	bl	4738 <utee_cryp_obj_get_info>
    1820:	2a0003f3 	mov	w19, w0
/home/pwnz/devel/optee/optee_os/lib/libutee/tee_api_objects.c:361
    1824:	350002a0 	cbnz	w0, 1878 <TEE_CopyObjectAttributes1+0x78>
/home/pwnz/devel/optee/optee_os/lib/libutee/tee_api_objects.c:364
    1828:	910143a1 	add	x1, x29, #0x50
    182c:	aa1403e0 	mov	x0, x20
    1830:	94000bc2 	bl	4738 <utee_cryp_obj_get_info>
    1834:	2a0003f3 	mov	w19, w0
/home/pwnz/devel/optee/optee_os/lib/libutee/tee_api_objects.c:365
    1838:	35000200 	cbnz	w0, 1878 <TEE_CopyObjectAttributes1+0x78>
/home/pwnz/devel/optee/optee_os/lib/libutee/tee_api_objects.c:368
    183c:	b9406ba1 	ldr	w1, [x29,#104]
    1840:	37880041 	tbnz	w1, #17, 1848 <TEE_CopyObjectAttributes1+0x48>
/home/pwnz/devel/optee/optee_os/lib/libutee/tee_api_objects.c:369
    1844:	94000ac0 	bl	4344 <TEE_Panic>
/home/pwnz/devel/optee/optee_os/lib/libutee/tee_api_objects.c:371
    1848:	b9404ba0 	ldr	w0, [x29,#72]
    184c:	36800060 	tbz	w0, #16, 1858 <TEE_CopyObjectAttributes1+0x58>
/home/pwnz/devel/optee/optee_os/lib/libutee/tee_api_objects.c:372
    1850:	52800000 	mov	w0, #0x0                   	// #0
    1854:	94000abc 	bl	4344 <TEE_Panic>
/home/pwnz/devel/optee/optee_os/lib/libutee/tee_api_objects.c:374
    1858:	b9404ba0 	ldr	w0, [x29,#72]
    185c:	36880060 	tbz	w0, #17, 1868 <TEE_CopyObjectAttributes1+0x68>
/home/pwnz/devel/optee/optee_os/lib/libutee/tee_api_objects.c:375
    1860:	52800000 	mov	w0, #0x0                   	// #0
    1864:	94000ab8 	bl	4344 <TEE_Panic>
/home/pwnz/devel/optee/optee_os/lib/libutee/tee_api_objects.c:377
    1868:	aa1403e1 	mov	x1, x20
    186c:	aa1503e0 	mov	x0, x21
    1870:	94000bc7 	bl	478c <utee_cryp_obj_copy>
    1874:	2a0003f3 	mov	w19, w0
/home/pwnz/devel/optee/optee_os/lib/libutee/tee_api_objects.c:382
    1878:	121e7a60 	and	w0, w19, #0xfffffffd
    187c:	7100027f 	cmp	w19, #0x0
    1880:	52800021 	mov	w1, #0x1                   	// #1
    1884:	72be0201 	movk	w1, #0xf010, lsl #16
    1888:	7a411004 	ccmp	w0, w1, #0x4, ne
    188c:	54000060 	b.eq	1898 <TEE_CopyObjectAttributes1+0x98>
/home/pwnz/devel/optee/optee_os/lib/libutee/tee_api_objects.c:384
    1890:	2a1303e0 	mov	w0, w19
    1894:	94000aac 	bl	4344 <TEE_Panic>
/home/pwnz/devel/optee/optee_os/lib/libutee/tee_api_objects.c:387
    1898:	2a1303e0 	mov	w0, w19
    189c:	f94013f5 	ldr	x21, [sp,#32]
    18a0:	a94153f3 	ldp	x19, x20, [sp,#16]
    18a4:	a8c77bfd 	ldp	x29, x30, [sp],#112
    18a8:	d65f03c0 	ret

00000000000018ac <TEE_CopyObjectAttributes>:
TEE_CopyObjectAttributes():
/home/pwnz/devel/optee/optee_os/lib/libutee/tee_api_objects.c:340
    18ac:	a9bc7bfd 	stp	x29, x30, [sp,#-64]!
    18b0:	910003fd 	mov	x29, sp
    18b4:	a90153f3 	stp	x19, x20, [sp,#16]
    18b8:	aa0103f3 	mov	x19, x1
    18bc:	aa0003f4 	mov	x20, x0
/home/pwnz/devel/optee/optee_os/lib/libutee/tee_api_objects.c:344
    18c0:	910083a1 	add	x1, x29, #0x20
    18c4:	aa1303e0 	mov	x0, x19
    18c8:	94000b9c 	bl	4738 <utee_cryp_obj_get_info>
/home/pwnz/devel/optee/optee_os/lib/libutee/tee_api_objects.c:345
    18cc:	b94023a1 	ldr	w1, [x29,#32]
    18d0:	528017c0 	mov	w0, #0xbe                  	// #190
    18d4:	72b40000 	movk	w0, #0xa000, lsl #16
    18d8:	6b00003f 	cmp	w1, w0
    18dc:	540000c0 	b.eq	18f4 <TEE_CopyObjectAttributes+0x48>
/home/pwnz/devel/optee/optee_os/lib/libutee/tee_api_objects.c:348
    18e0:	aa1303e1 	mov	x1, x19
    18e4:	aa1403e0 	mov	x0, x20
    18e8:	97ffffc6 	bl	1800 <TEE_CopyObjectAttributes1>
/home/pwnz/devel/optee/optee_os/lib/libutee/tee_api_objects.c:349
    18ec:	34000040 	cbz	w0, 18f4 <TEE_CopyObjectAttributes+0x48>
/home/pwnz/devel/optee/optee_os/lib/libutee/tee_api_objects.c:350
    18f0:	94000a95 	bl	4344 <TEE_Panic>
/home/pwnz/devel/optee/optee_os/lib/libutee/tee_api_objects.c:351
    18f4:	a94153f3 	ldp	x19, x20, [sp,#16]
    18f8:	a8c47bfd 	ldp	x29, x30, [sp],#64
    18fc:	d65f03c0 	ret

0000000000001900 <TEE_GenerateKey>:
TEE_GenerateKey():
/home/pwnz/devel/optee/optee_os/lib/libutee/tee_api_objects.c:391
    1900:	a9bd7bfd 	stp	x29, x30, [sp,#-48]!
    1904:	910003fd 	mov	x29, sp
    1908:	a9025bf5 	stp	x21, x22, [sp,#32]
    190c:	aa0003f5 	mov	x21, x0
/home/pwnz/devel/optee/optee_os/lib/libutee/tee_api_objects.c:393
    1910:	52800300 	mov	w0, #0x18                  	// #24
/home/pwnz/devel/optee/optee_os/lib/libutee/tee_api_objects.c:391
    1914:	a90153f3 	stp	x19, x20, [sp,#16]
    1918:	2a0103f6 	mov	w22, w1
    191c:	2a0303f3 	mov	w19, w3
/home/pwnz/devel/optee/optee_os/lib/libutee/tee_api_objects.c:393
    1920:	9ba07c60 	umull	x0, w3, w0
/home/pwnz/devel/optee/optee_os/lib/libutee/tee_api_objects.c:391
    1924:	aa0203e1 	mov	x1, x2
/home/pwnz/devel/optee/optee_os/lib/libutee/tee_api_objects.c:395
    1928:	2a0303e2 	mov	w2, w3
/home/pwnz/devel/optee/optee_os/lib/libutee/tee_api_objects.c:393
    192c:	91005800 	add	x0, x0, #0x16
    1930:	927c8400 	and	x0, x0, #0x3ffffffff0
    1934:	cb2063ff 	sub	sp, sp, x0
/home/pwnz/devel/optee/optee_os/lib/libutee/tee_api_objects.c:395
    1938:	910003e0 	mov	x0, sp
    193c:	97fffe52 	bl	1284 <__utee_from_attr>
/home/pwnz/devel/optee/optee_os/lib/libutee/tee_api_objects.c:396
    1940:	2a1303e3 	mov	w3, w19
    1944:	2a1603e1 	mov	w1, w22
    1948:	910003e2 	mov	x2, sp
    194c:	aa1503e0 	mov	x0, x21
    1950:	94000bd4 	bl	48a0 <utee_cryp_obj_generate_key>
/home/pwnz/devel/optee/optee_os/lib/libutee/tee_api_objects.c:399
    1954:	7100001f 	cmp	w0, #0x0
    1958:	129fff21 	mov	w1, #0xffff0006            	// #-65530
/home/pwnz/devel/optee/optee_os/lib/libutee/tee_api_objects.c:396
    195c:	2a0003f3 	mov	w19, w0
/home/pwnz/devel/optee/optee_os/lib/libutee/tee_api_objects.c:399
    1960:	7a411004 	ccmp	w0, w1, #0x4, ne
    1964:	54000040 	b.eq	196c <TEE_GenerateKey+0x6c>
/home/pwnz/devel/optee/optee_os/lib/libutee/tee_api_objects.c:400
    1968:	94000a77 	bl	4344 <TEE_Panic>
/home/pwnz/devel/optee/optee_os/lib/libutee/tee_api_objects.c:403
    196c:	910003bf 	mov	sp, x29
    1970:	2a1303e0 	mov	w0, w19
    1974:	a94153f3 	ldp	x19, x20, [sp,#16]
    1978:	a9425bf5 	ldp	x21, x22, [sp,#32]
    197c:	a8c37bfd 	ldp	x29, x30, [sp],#48
    1980:	d65f03c0 	ret

0000000000001984 <TEE_OpenPersistentObject>:
TEE_OpenPersistentObject():
/home/pwnz/devel/optee/optee_os/lib/libutee/tee_api_objects.c:410
    1984:	a9bd7bfd 	stp	x29, x30, [sp,#-48]!
    1988:	910003fd 	mov	x29, sp
    198c:	a90153f3 	stp	x19, x20, [sp,#16]
/home/pwnz/devel/optee/optee_os/lib/libutee/tee_api_objects.c:415
    1990:	129ffef3 	mov	w19, #0xffff0008            	// #-65528
/home/pwnz/devel/optee/optee_os/lib/libutee/tee_api_objects.c:414
    1994:	b40001e1 	cbz	x1, 19d0 <TEE_OpenPersistentObject+0x4c>
/home/pwnz/devel/optee/optee_os/lib/libutee/tee_api_objects.c:424
    1998:	7101005f 	cmp	w2, #0x40
    199c:	aa0403f4 	mov	x20, x4
/home/pwnz/devel/optee/optee_os/lib/libutee/tee_api_objects.c:425
    19a0:	129fff33 	mov	w19, #0xffff0006            	// #-65530
/home/pwnz/devel/optee/optee_os/lib/libutee/tee_api_objects.c:424
    19a4:	fa409884 	ccmp	x4, #0x0, #0x4, ls
    19a8:	54000140 	b.eq	19d0 <TEE_OpenPersistentObject+0x4c>
/home/pwnz/devel/optee/optee_os/lib/libutee/tee_api_objects.c:429
    19ac:	9100b3a4 	add	x4, x29, #0x2c
    19b0:	2a0303e3 	mov	w3, w3
    19b4:	2a0203e2 	mov	w2, w2
    19b8:	2a0003e0 	mov	w0, w0
    19bc:	94000b92 	bl	4804 <utee_storage_obj_open>
    19c0:	2a0003f3 	mov	w19, w0
/home/pwnz/devel/optee/optee_os/lib/libutee/tee_api_objects.c:431
    19c4:	35000060 	cbnz	w0, 19d0 <TEE_OpenPersistentObject+0x4c>
/home/pwnz/devel/optee/optee_os/lib/libutee/tee_api_objects.c:432
    19c8:	b9402fa0 	ldr	w0, [x29,#44]
    19cc:	f9000280 	str	x0, [x20]
/home/pwnz/devel/optee/optee_os/lib/libutee/tee_api_objects.c:436
    19d0:	121d7a60 	and	w0, w19, #0xfffffffb
/home/pwnz/devel/optee/optee_os/lib/libutee/tee_api_objects.c:435
    19d4:	7100027f 	cmp	w19, #0x0
    19d8:	129ffee1 	mov	w1, #0xffff0008            	// #-65528
    19dc:	7a411004 	ccmp	w0, w1, #0x4, ne
    19e0:	54000160 	b.eq	1a0c <TEE_OpenPersistentObject+0x88>
/home/pwnz/devel/optee/optee_os/lib/libutee/tee_api_objects.c:437
    19e4:	129fff80 	mov	w0, #0xffff0003            	// #-65533
    19e8:	6b00027f 	cmp	w19, w0
    19ec:	54000100 	b.eq	1a0c <TEE_OpenPersistentObject+0x88>
/home/pwnz/devel/optee/optee_os/lib/libutee/tee_api_objects.c:439
    19f0:	121e7a61 	and	w1, w19, #0xfffffffd
    19f4:	52800020 	mov	w0, #0x1                   	// #1
    19f8:	72be0200 	movk	w0, #0xf010, lsl #16
    19fc:	6b00003f 	cmp	w1, w0
    1a00:	54000060 	b.eq	1a0c <TEE_OpenPersistentObject+0x88>
/home/pwnz/devel/optee/optee_os/lib/libutee/tee_api_objects.c:441
    1a04:	2a1303e0 	mov	w0, w19
    1a08:	94000a4f 	bl	4344 <TEE_Panic>
/home/pwnz/devel/optee/optee_os/lib/libutee/tee_api_objects.c:444
    1a0c:	2a1303e0 	mov	w0, w19
    1a10:	a94153f3 	ldp	x19, x20, [sp,#16]
    1a14:	a8c37bfd 	ldp	x29, x30, [sp],#48
    1a18:	d65f03c0 	ret

0000000000001a1c <TEE_CreatePersistentObject>:
TEE_CreatePersistentObject():
/home/pwnz/devel/optee/optee_os/lib/libutee/tee_api_objects.c:452
    1a1c:	a9bd7bfd 	stp	x29, x30, [sp,#-48]!
    1a20:	910003fd 	mov	x29, sp
    1a24:	f9000bf3 	str	x19, [sp,#16]
    1a28:	aa0703f3 	mov	x19, x7
/home/pwnz/devel/optee/optee_os/lib/libutee/tee_api_objects.c:456
    1a2c:	b4000501 	cbz	x1, 1acc <TEE_CreatePersistentObject+0xb0>
/home/pwnz/devel/optee/optee_os/lib/libutee/tee_api_objects.c:461
    1a30:	7101005f 	cmp	w2, #0x40
    1a34:	54000528 	b.hi	1ad8 <TEE_CreatePersistentObject+0xbc>
/home/pwnz/devel/optee/optee_os/lib/libutee/tee_api_objects.c:466
    1a38:	9100b3a7 	add	x7, x29, #0x2c
    1a3c:	2a0603e6 	mov	w6, w6
    1a40:	2a0303e3 	mov	w3, w3
    1a44:	2a0203e2 	mov	w2, w2
    1a48:	2a0003e0 	mov	w0, w0
    1a4c:	94000b71 	bl	4810 <utee_storage_obj_create>
/home/pwnz/devel/optee/optee_os/lib/libutee/tee_api_objects.c:469
    1a50:	35000380 	cbnz	w0, 1ac0 <TEE_CreatePersistentObject+0xa4>
    1a54:	b9402fa1 	ldr	w1, [x29,#44]
/home/pwnz/devel/optee/optee_os/lib/libutee/tee_api_objects.c:470
    1a58:	b40000b3 	cbz	x19, 1a6c <TEE_CreatePersistentObject+0x50>
/home/pwnz/devel/optee/optee_os/lib/libutee/tee_api_objects.c:471
    1a5c:	f9000261 	str	x1, [x19]
/home/pwnz/devel/optee/optee_os/lib/libutee/tee_api_objects.c:490
    1a60:	f9400bf3 	ldr	x19, [sp,#16]
    1a64:	a8c37bfd 	ldp	x29, x30, [sp],#48
    1a68:	d65f03c0 	ret
/home/pwnz/devel/optee/optee_os/lib/libutee/tee_api_objects.c:473
    1a6c:	aa0103e0 	mov	x0, x1
    1a70:	94000b3e 	bl	4768 <utee_cryp_obj_close>
/home/pwnz/devel/optee/optee_os/lib/libutee/tee_api_objects.c:474
    1a74:	34ffff60 	cbz	w0, 1a60 <TEE_CreatePersistentObject+0x44>
/home/pwnz/devel/optee/optee_os/lib/libutee/tee_api_objects.c:480
    1a78:	129ffee1 	mov	w1, #0xffff0008            	// #-65528
    1a7c:	6b01001f 	cmp	w0, w1
    1a80:	129fff81 	mov	w1, #0xffff0003            	// #-65533
    1a84:	7a411004 	ccmp	w0, w1, #0x4, ne
    1a88:	54fffec0 	b.eq	1a60 <TEE_CreatePersistentObject+0x44>
/home/pwnz/devel/optee/optee_os/lib/libutee/tee_api_objects.c:482
    1a8c:	129ffe61 	mov	w1, #0xffff000c            	// #-65524
    1a90:	6b01001f 	cmp	w0, w1
    1a94:	1299f7c1 	mov	w1, #0xffff3041            	// #-53183
    1a98:	7a411004 	ccmp	w0, w1, #0x4, ne
    1a9c:	54fffe20 	b.eq	1a60 <TEE_CreatePersistentObject+0x44>
/home/pwnz/devel/optee/optee_os/lib/libutee/tee_api_objects.c:484
    1aa0:	121e7802 	and	w2, w0, #0xfffffffd
    1aa4:	52800021 	mov	w1, #0x1                   	// #1
    1aa8:	72be0201 	movk	w1, #0xf010, lsl #16
    1aac:	6b01005f 	cmp	w2, w1
    1ab0:	54fffd80 	b.eq	1a60 <TEE_CreatePersistentObject+0x44>
/home/pwnz/devel/optee/optee_os/lib/libutee/tee_api_objects.c:487
    1ab4:	94000a24 	bl	4344 <TEE_Panic>
/home/pwnz/devel/optee/optee_os/lib/libutee/tee_api_objects.c:489
    1ab8:	52800000 	mov	w0, #0x0                   	// #0
    1abc:	17ffffe9 	b	1a60 <TEE_CreatePersistentObject+0x44>
/home/pwnz/devel/optee/optee_os/lib/libutee/tee_api_objects.c:478
    1ac0:	b4fffdd3 	cbz	x19, 1a78 <TEE_CreatePersistentObject+0x5c>
/home/pwnz/devel/optee/optee_os/lib/libutee/tee_api_objects.c:479
    1ac4:	f900027f 	str	xzr, [x19]
    1ac8:	17ffffec 	b	1a78 <TEE_CreatePersistentObject+0x5c>
/home/pwnz/devel/optee/optee_os/lib/libutee/tee_api_objects.c:457
    1acc:	129ffee0 	mov	w0, #0xffff0008            	// #-65528
/home/pwnz/devel/optee/optee_os/lib/libutee/tee_api_objects.c:478
    1ad0:	b5ffffa7 	cbnz	x7, 1ac4 <TEE_CreatePersistentObject+0xa8>
    1ad4:	17ffffe3 	b	1a60 <TEE_CreatePersistentObject+0x44>
/home/pwnz/devel/optee/optee_os/lib/libutee/tee_api_objects.c:462
    1ad8:	129fff20 	mov	w0, #0xffff0006            	// #-65530
/home/pwnz/devel/optee/optee_os/lib/libutee/tee_api_objects.c:478
    1adc:	b5ffff47 	cbnz	x7, 1ac4 <TEE_CreatePersistentObject+0xa8>
    1ae0:	17ffffeb 	b	1a8c <TEE_CreatePersistentObject+0x70>

0000000000001ae4 <TEE_CloseAndDeletePersistentObject1>:
TEE_CloseAndDeletePersistentObject1():
/home/pwnz/devel/optee/optee_os/lib/libutee/tee_api_objects.c:512
    1ae4:	a9be7bfd 	stp	x29, x30, [sp,#-32]!
    1ae8:	910003fd 	mov	x29, sp
    1aec:	a90153f3 	stp	x19, x20, [sp,#16]
    1af0:	52800074 	mov	w20, #0x3                   	// #3
    1af4:	72be0214 	movk	w20, #0xf010, lsl #16
/home/pwnz/devel/optee/optee_os/lib/libutee/tee_api_objects.c:516
    1af8:	2a1403f3 	mov	w19, w20
/home/pwnz/devel/optee/optee_os/lib/libutee/tee_api_objects.c:515
    1afc:	b40000e0 	cbz	x0, 1b18 <TEE_CloseAndDeletePersistentObject1+0x34>
/home/pwnz/devel/optee/optee_os/lib/libutee/tee_api_objects.c:518
    1b00:	94000b47 	bl	481c <utee_storage_obj_del>
/home/pwnz/devel/optee/optee_os/lib/libutee/tee_api_objects.c:520
    1b04:	7100001f 	cmp	w0, #0x0
/home/pwnz/devel/optee/optee_os/lib/libutee/tee_api_objects.c:518
    1b08:	2a0003f3 	mov	w19, w0
/home/pwnz/devel/optee/optee_os/lib/libutee/tee_api_objects.c:520
    1b0c:	7a541004 	ccmp	w0, w20, #0x4, ne
    1b10:	54000040 	b.eq	1b18 <TEE_CloseAndDeletePersistentObject1+0x34>
/home/pwnz/devel/optee/optee_os/lib/libutee/tee_api_objects.c:521
    1b14:	94000a0c 	bl	4344 <TEE_Panic>
/home/pwnz/devel/optee/optee_os/lib/libutee/tee_api_objects.c:524
    1b18:	2a1303e0 	mov	w0, w19
    1b1c:	a94153f3 	ldp	x19, x20, [sp,#16]
    1b20:	a8c27bfd 	ldp	x29, x30, [sp],#32
    1b24:	d65f03c0 	ret

0000000000001b28 <TEE_CloseAndDeletePersistentObject>:
TEE_CloseAndDeletePersistentObject():
/home/pwnz/devel/optee/optee_os/lib/libutee/tee_api_objects.c:502
    1b28:	b4000140 	cbz	x0, 1b50 <TEE_CloseAndDeletePersistentObject+0x28>
/home/pwnz/devel/optee/optee_os/lib/libutee/tee_api_objects.c:499
    1b2c:	a9bf7bfd 	stp	x29, x30, [sp,#-16]!
    1b30:	910003fd 	mov	x29, sp
/home/pwnz/devel/optee/optee_os/lib/libutee/tee_api_objects.c:505
    1b34:	97ffffec 	bl	1ae4 <TEE_CloseAndDeletePersistentObject1>
/home/pwnz/devel/optee/optee_os/lib/libutee/tee_api_objects.c:507
    1b38:	34000080 	cbz	w0, 1b48 <TEE_CloseAndDeletePersistentObject+0x20>
/home/pwnz/devel/optee/optee_os/lib/libutee/tee_api_objects.c:509
    1b3c:	a8c17bfd 	ldp	x29, x30, [sp],#16
/home/pwnz/devel/optee/optee_os/lib/libutee/tee_api_objects.c:508
    1b40:	52800000 	mov	w0, #0x0                   	// #0
    1b44:	14000a00 	b	4344 <TEE_Panic>
/home/pwnz/devel/optee/optee_os/lib/libutee/tee_api_objects.c:509
    1b48:	a8c17bfd 	ldp	x29, x30, [sp],#16
    1b4c:	d65f03c0 	ret
    1b50:	d65f03c0 	ret

0000000000001b54 <TEE_RenamePersistentObject>:
TEE_RenamePersistentObject():
/home/pwnz/devel/optee/optee_os/lib/libutee/tee_api_objects.c:530
    1b54:	a9be7bfd 	stp	x29, x30, [sp,#-32]!
    1b58:	910003fd 	mov	x29, sp
    1b5c:	f9000bf3 	str	x19, [sp,#16]
/home/pwnz/devel/optee/optee_os/lib/libutee/tee_api_objects.c:534
    1b60:	129ffef3 	mov	w19, #0xffff0008            	// #-65528
/home/pwnz/devel/optee/optee_os/lib/libutee/tee_api_objects.c:533
    1b64:	b4000100 	cbz	x0, 1b84 <TEE_RenamePersistentObject+0x30>
/home/pwnz/devel/optee/optee_os/lib/libutee/tee_api_objects.c:543
    1b68:	7101005f 	cmp	w2, #0x40
/home/pwnz/devel/optee/optee_os/lib/libutee/tee_api_objects.c:544
    1b6c:	129fff33 	mov	w19, #0xffff0006            	// #-65530
/home/pwnz/devel/optee/optee_os/lib/libutee/tee_api_objects.c:543
    1b70:	fa409824 	ccmp	x1, #0x0, #0x4, ls
    1b74:	54000080 	b.eq	1b84 <TEE_RenamePersistentObject+0x30>
/home/pwnz/devel/optee/optee_os/lib/libutee/tee_api_objects.c:548
    1b78:	2a0203e2 	mov	w2, w2
    1b7c:	94000b2b 	bl	4828 <utee_storage_obj_rename>
    1b80:	2a0003f3 	mov	w19, w0
/home/pwnz/devel/optee/optee_os/lib/libutee/tee_api_objects.c:552
    1b84:	7100027f 	cmp	w19, #0x0
    1b88:	129fff80 	mov	w0, #0xffff0003            	// #-65533
    1b8c:	7a401264 	ccmp	w19, w0, #0x4, ne
    1b90:	54000100 	b.eq	1bb0 <TEE_RenamePersistentObject+0x5c>
/home/pwnz/devel/optee/optee_os/lib/libutee/tee_api_objects.c:554
    1b94:	121e7a61 	and	w1, w19, #0xfffffffd
    1b98:	52800020 	mov	w0, #0x1                   	// #1
    1b9c:	72be0200 	movk	w0, #0xf010, lsl #16
    1ba0:	6b00003f 	cmp	w1, w0
    1ba4:	54000060 	b.eq	1bb0 <TEE_RenamePersistentObject+0x5c>
/home/pwnz/devel/optee/optee_os/lib/libutee/tee_api_objects.c:556
    1ba8:	2a1303e0 	mov	w0, w19
    1bac:	940009e6 	bl	4344 <TEE_Panic>
/home/pwnz/devel/optee/optee_os/lib/libutee/tee_api_objects.c:559
    1bb0:	2a1303e0 	mov	w0, w19
    1bb4:	f9400bf3 	ldr	x19, [sp,#16]
    1bb8:	a8c27bfd 	ldp	x29, x30, [sp],#32
    1bbc:	d65f03c0 	ret

0000000000001bc0 <TEE_AllocatePersistentObjectEnumerator>:
TEE_AllocatePersistentObjectEnumerator():
/home/pwnz/devel/optee/optee_os/lib/libutee/tee_api_objects.c:563
    1bc0:	a9bd7bfd 	stp	x29, x30, [sp,#-48]!
    1bc4:	910003fd 	mov	x29, sp
    1bc8:	a90153f3 	stp	x19, x20, [sp,#16]
/home/pwnz/devel/optee/optee_os/lib/libutee/tee_api_objects.c:568
    1bcc:	129fff33 	mov	w19, #0xffff0006            	// #-65530
/home/pwnz/devel/optee/optee_os/lib/libutee/tee_api_objects.c:567
    1bd0:	b40001e0 	cbz	x0, 1c0c <TEE_AllocatePersistentObjectEnumerator+0x4c>
    1bd4:	aa0003f4 	mov	x20, x0
/home/pwnz/devel/optee/optee_os/lib/libutee/tee_api_objects.c:570
    1bd8:	9100b3a0 	add	x0, x29, #0x2c
    1bdc:	94000b16 	bl	4834 <utee_storage_alloc_enum>
    1be0:	2a0003f3 	mov	w19, w0
/home/pwnz/devel/optee/optee_os/lib/libutee/tee_api_objects.c:572
    1be4:	34000040 	cbz	w0, 1bec <TEE_AllocatePersistentObjectEnumerator+0x2c>
/home/pwnz/devel/optee/optee_os/lib/libutee/tee_api_objects.c:573
    1be8:	b9002fbf 	str	wzr, [x29,#44]
/home/pwnz/devel/optee/optee_os/lib/libutee/tee_api_objects.c:575
    1bec:	b9402fa0 	ldr	w0, [x29,#44]
/home/pwnz/devel/optee/optee_os/lib/libutee/tee_api_objects.c:577
    1bf0:	7100027f 	cmp	w19, #0x0
/home/pwnz/devel/optee/optee_os/lib/libutee/tee_api_objects.c:575
    1bf4:	f9000280 	str	x0, [x20]
/home/pwnz/devel/optee/optee_os/lib/libutee/tee_api_objects.c:577
    1bf8:	129fff80 	mov	w0, #0xffff0003            	// #-65533
    1bfc:	7a401264 	ccmp	w19, w0, #0x4, ne
    1c00:	54000060 	b.eq	1c0c <TEE_AllocatePersistentObjectEnumerator+0x4c>
/home/pwnz/devel/optee/optee_os/lib/libutee/tee_api_objects.c:579
    1c04:	2a1303e0 	mov	w0, w19
    1c08:	940009cf 	bl	4344 <TEE_Panic>
/home/pwnz/devel/optee/optee_os/lib/libutee/tee_api_objects.c:582
    1c0c:	2a1303e0 	mov	w0, w19
    1c10:	a94153f3 	ldp	x19, x20, [sp,#16]
    1c14:	a8c37bfd 	ldp	x29, x30, [sp],#48
    1c18:	d65f03c0 	ret

0000000000001c1c <TEE_FreePersistentObjectEnumerator>:
TEE_FreePersistentObjectEnumerator():
/home/pwnz/devel/optee/optee_os/lib/libutee/tee_api_objects.c:588
    1c1c:	b4000120 	cbz	x0, 1c40 <TEE_FreePersistentObjectEnumerator+0x24>
/home/pwnz/devel/optee/optee_os/lib/libutee/tee_api_objects.c:585
    1c20:	a9bf7bfd 	stp	x29, x30, [sp,#-16]!
    1c24:	910003fd 	mov	x29, sp
/home/pwnz/devel/optee/optee_os/lib/libutee/tee_api_objects.c:591
    1c28:	94000b06 	bl	4840 <utee_storage_free_enum>
/home/pwnz/devel/optee/optee_os/lib/libutee/tee_api_objects.c:593
    1c2c:	34000060 	cbz	w0, 1c38 <TEE_FreePersistentObjectEnumerator+0x1c>
/home/pwnz/devel/optee/optee_os/lib/libutee/tee_api_objects.c:595
    1c30:	a8c17bfd 	ldp	x29, x30, [sp],#16
/home/pwnz/devel/optee/optee_os/lib/libutee/tee_api_objects.c:594
    1c34:	140009c4 	b	4344 <TEE_Panic>
/home/pwnz/devel/optee/optee_os/lib/libutee/tee_api_objects.c:595
    1c38:	a8c17bfd 	ldp	x29, x30, [sp],#16
    1c3c:	d65f03c0 	ret
    1c40:	d65f03c0 	ret

0000000000001c44 <TEE_ResetPersistentObjectEnumerator>:
TEE_ResetPersistentObjectEnumerator():
/home/pwnz/devel/optee/optee_os/lib/libutee/tee_api_objects.c:601
    1c44:	b4000120 	cbz	x0, 1c68 <TEE_ResetPersistentObjectEnumerator+0x24>
/home/pwnz/devel/optee/optee_os/lib/libutee/tee_api_objects.c:598
    1c48:	a9bf7bfd 	stp	x29, x30, [sp,#-16]!
    1c4c:	910003fd 	mov	x29, sp
/home/pwnz/devel/optee/optee_os/lib/libutee/tee_api_objects.c:604
    1c50:	94000aff 	bl	484c <utee_storage_reset_enum>
/home/pwnz/devel/optee/optee_os/lib/libutee/tee_api_objects.c:606
    1c54:	34000060 	cbz	w0, 1c60 <TEE_ResetPersistentObjectEnumerator+0x1c>
/home/pwnz/devel/optee/optee_os/lib/libutee/tee_api_objects.c:608
    1c58:	a8c17bfd 	ldp	x29, x30, [sp],#16
/home/pwnz/devel/optee/optee_os/lib/libutee/tee_api_objects.c:607
    1c5c:	140009ba 	b	4344 <TEE_Panic>
/home/pwnz/devel/optee/optee_os/lib/libutee/tee_api_objects.c:608
    1c60:	a8c17bfd 	ldp	x29, x30, [sp],#16
    1c64:	d65f03c0 	ret
    1c68:	d65f03c0 	ret

0000000000001c6c <TEE_StartPersistentObjectEnumerator>:
TEE_StartPersistentObjectEnumerator():
/home/pwnz/devel/optee/optee_os/lib/libutee/tee_api_objects.c:613
    1c6c:	a9be7bfd 	stp	x29, x30, [sp,#-32]!
/home/pwnz/devel/optee/optee_os/lib/libutee/tee_api_objects.c:616
    1c70:	2a0103e1 	mov	w1, w1
/home/pwnz/devel/optee/optee_os/lib/libutee/tee_api_objects.c:613
    1c74:	910003fd 	mov	x29, sp
    1c78:	f9000bf3 	str	x19, [sp,#16]
/home/pwnz/devel/optee/optee_os/lib/libutee/tee_api_objects.c:616
    1c7c:	94000af7 	bl	4858 <utee_storage_start_enum>
/home/pwnz/devel/optee/optee_os/lib/libutee/tee_api_objects.c:619
    1c80:	7100001f 	cmp	w0, #0x0
    1c84:	129ffee1 	mov	w1, #0xffff0008            	// #-65528
/home/pwnz/devel/optee/optee_os/lib/libutee/tee_api_objects.c:616
    1c88:	2a0003f3 	mov	w19, w0
/home/pwnz/devel/optee/optee_os/lib/libutee/tee_api_objects.c:619
    1c8c:	7a411004 	ccmp	w0, w1, #0x4, ne
    1c90:	540000e0 	b.eq	1cac <TEE_StartPersistentObjectEnumerator+0x40>
/home/pwnz/devel/optee/optee_os/lib/libutee/tee_api_objects.c:621
    1c94:	121e7802 	and	w2, w0, #0xfffffffd
    1c98:	52800021 	mov	w1, #0x1                   	// #1
    1c9c:	72be0201 	movk	w1, #0xf010, lsl #16
    1ca0:	6b01005f 	cmp	w2, w1
    1ca4:	54000040 	b.eq	1cac <TEE_StartPersistentObjectEnumerator+0x40>
/home/pwnz/devel/optee/optee_os/lib/libutee/tee_api_objects.c:623
    1ca8:	940009a7 	bl	4344 <TEE_Panic>
/home/pwnz/devel/optee/optee_os/lib/libutee/tee_api_objects.c:626
    1cac:	2a1303e0 	mov	w0, w19
    1cb0:	f9400bf3 	ldr	x19, [sp,#16]
    1cb4:	a8c27bfd 	ldp	x29, x30, [sp],#32
    1cb8:	d65f03c0 	ret

0000000000001cbc <TEE_GetNextPersistentObject>:
TEE_GetNextPersistentObject():
/home/pwnz/devel/optee/optee_os/lib/libutee/tee_api_objects.c:631
    1cbc:	a9bb7bfd 	stp	x29, x30, [sp,#-80]!
/home/pwnz/devel/optee/optee_os/lib/libutee/tee_api_objects.c:642
    1cc0:	f100005f 	cmp	x2, #0x0
    1cc4:	fa401864 	ccmp	x3, #0x0, #0x4, ne
/home/pwnz/devel/optee/optee_os/lib/libutee/tee_api_objects.c:631
    1cc8:	910003fd 	mov	x29, sp
    1ccc:	a90153f3 	stp	x19, x20, [sp,#16]
    1cd0:	129fff33 	mov	w19, #0xffff0006            	// #-65530
/home/pwnz/devel/optee/optee_os/lib/libutee/tee_api_objects.c:642
    1cd4:	54000180 	b.eq	1d04 <TEE_GetNextPersistentObject+0x48>
    1cd8:	aa0303f4 	mov	x20, x3
/home/pwnz/devel/optee/optee_os/lib/libutee/tee_api_objects.c:651
    1cdc:	910143a3 	add	x3, x29, #0x50
/home/pwnz/devel/optee/optee_os/lib/libutee/tee_api_objects.c:650
    1ce0:	f100003f 	cmp	x1, #0x0
/home/pwnz/devel/optee/optee_os/lib/libutee/tee_api_objects.c:651
    1ce4:	b9400284 	ldr	w4, [x20]
    1ce8:	f81d8c64 	str	x4, [x3,#-40]!
/home/pwnz/devel/optee/optee_os/lib/libutee/tee_api_objects.c:652
    1cec:	9100c3a4 	add	x4, x29, #0x30
    1cf0:	9a810081 	csel	x1, x4, x1, eq
    1cf4:	94000adc 	bl	4864 <utee_storage_next_enum>
    1cf8:	2a0003f3 	mov	w19, w0
/home/pwnz/devel/optee/optee_os/lib/libutee/tee_api_objects.c:654
    1cfc:	f94017a0 	ldr	x0, [x29,#40]
    1d00:	b9000280 	str	w0, [x20]
/home/pwnz/devel/optee/optee_os/lib/libutee/tee_api_objects.c:657
    1d04:	7100027f 	cmp	w19, #0x0
    1d08:	129ffee0 	mov	w0, #0xffff0008            	// #-65528
    1d0c:	7a401264 	ccmp	w19, w0, #0x4, ne
    1d10:	54000100 	b.eq	1d30 <TEE_GetNextPersistentObject+0x74>
/home/pwnz/devel/optee/optee_os/lib/libutee/tee_api_objects.c:659
    1d14:	121e7a61 	and	w1, w19, #0xfffffffd
    1d18:	52800020 	mov	w0, #0x1                   	// #1
    1d1c:	72be0200 	movk	w0, #0xf010, lsl #16
    1d20:	6b00003f 	cmp	w1, w0
    1d24:	54000060 	b.eq	1d30 <TEE_GetNextPersistentObject+0x74>
/home/pwnz/devel/optee/optee_os/lib/libutee/tee_api_objects.c:661
    1d28:	2a1303e0 	mov	w0, w19
    1d2c:	94000986 	bl	4344 <TEE_Panic>
/home/pwnz/devel/optee/optee_os/lib/libutee/tee_api_objects.c:664
    1d30:	2a1303e0 	mov	w0, w19
    1d34:	a94153f3 	ldp	x19, x20, [sp,#16]
    1d38:	a8c57bfd 	ldp	x29, x30, [sp],#80
    1d3c:	d65f03c0 	ret

0000000000001d40 <TEE_ReadObjectData>:
TEE_ReadObjectData():
/home/pwnz/devel/optee/optee_os/lib/libutee/tee_api_objects.c:670
    1d40:	a9bd7bfd 	stp	x29, x30, [sp,#-48]!
    1d44:	910003fd 	mov	x29, sp
    1d48:	a90153f3 	stp	x19, x20, [sp,#16]
    1d4c:	129fff33 	mov	w19, #0xffff0006            	// #-65530
/home/pwnz/devel/optee/optee_os/lib/libutee/tee_api_objects.c:674
    1d50:	b4000140 	cbz	x0, 1d78 <TEE_ReadObjectData+0x38>
    1d54:	aa0303f4 	mov	x20, x3
/home/pwnz/devel/optee/optee_os/lib/libutee/tee_api_objects.c:679
    1d58:	9100c3a3 	add	x3, x29, #0x30
/home/pwnz/devel/optee/optee_os/lib/libutee/tee_api_objects.c:680
    1d5c:	2a0203e2 	mov	w2, w2
/home/pwnz/devel/optee/optee_os/lib/libutee/tee_api_objects.c:679
    1d60:	b9400284 	ldr	w4, [x20]
    1d64:	f81f8c64 	str	x4, [x3,#-8]!
/home/pwnz/devel/optee/optee_os/lib/libutee/tee_api_objects.c:680
    1d68:	94000ac2 	bl	4870 <utee_storage_obj_read>
    1d6c:	2a0003f3 	mov	w19, w0
/home/pwnz/devel/optee/optee_os/lib/libutee/tee_api_objects.c:682
    1d70:	f94017a0 	ldr	x0, [x29,#40]
    1d74:	b9000280 	str	w0, [x20]
/home/pwnz/devel/optee/optee_os/lib/libutee/tee_api_objects.c:686
    1d78:	121e7a60 	and	w0, w19, #0xfffffffd
    1d7c:	7100027f 	cmp	w19, #0x0
    1d80:	52800021 	mov	w1, #0x1                   	// #1
    1d84:	72be0201 	movk	w1, #0xf010, lsl #16
    1d88:	7a411004 	ccmp	w0, w1, #0x4, ne
    1d8c:	54000060 	b.eq	1d98 <TEE_ReadObjectData+0x58>
/home/pwnz/devel/optee/optee_os/lib/libutee/tee_api_objects.c:688
    1d90:	2a1303e0 	mov	w0, w19
    1d94:	9400096c 	bl	4344 <TEE_Panic>
/home/pwnz/devel/optee/optee_os/lib/libutee/tee_api_objects.c:691
    1d98:	2a1303e0 	mov	w0, w19
    1d9c:	a94153f3 	ldp	x19, x20, [sp,#16]
    1da0:	a8c37bfd 	ldp	x29, x30, [sp],#48
    1da4:	d65f03c0 	ret

0000000000001da8 <TEE_WriteObjectData>:
TEE_WriteObjectData():
/home/pwnz/devel/optee/optee_os/lib/libutee/tee_api_objects.c:695
    1da8:	a9be7bfd 	stp	x29, x30, [sp,#-32]!
    1dac:	910003fd 	mov	x29, sp
    1db0:	f9000bf3 	str	x19, [sp,#16]
    1db4:	129fff33 	mov	w19, #0xffff0006            	// #-65530
/home/pwnz/devel/optee/optee_os/lib/libutee/tee_api_objects.c:698
    1db8:	b4000080 	cbz	x0, 1dc8 <TEE_WriteObjectData+0x20>
/home/pwnz/devel/optee/optee_os/lib/libutee/tee_api_objects.c:708
    1dbc:	2a0203e2 	mov	w2, w2
    1dc0:	94000aaf 	bl	487c <utee_storage_obj_write>
    1dc4:	2a0003f3 	mov	w19, w0
/home/pwnz/devel/optee/optee_os/lib/libutee/tee_api_objects.c:711
    1dc8:	7100027f 	cmp	w19, #0x0
    1dcc:	1299f7c0 	mov	w0, #0xffff3041            	// #-53183
    1dd0:	7a401264 	ccmp	w19, w0, #0x4, ne
    1dd4:	54000140 	b.eq	1dfc <TEE_WriteObjectData+0x54>
/home/pwnz/devel/optee/optee_os/lib/libutee/tee_api_objects.c:714
    1dd8:	121e7a61 	and	w1, w19, #0xfffffffd
    1ddc:	52800020 	mov	w0, #0x1                   	// #1
    1de0:	72be0200 	movk	w0, #0xf010, lsl #16
    1de4:	6b00003f 	cmp	w1, w0
    1de8:	1299fe00 	mov	w0, #0xffff300f            	// #-53233
    1dec:	7a401264 	ccmp	w19, w0, #0x4, ne
    1df0:	54000060 	b.eq	1dfc <TEE_WriteObjectData+0x54>
/home/pwnz/devel/optee/optee_os/lib/libutee/tee_api_objects.c:716
    1df4:	2a1303e0 	mov	w0, w19
    1df8:	94000953 	bl	4344 <TEE_Panic>
/home/pwnz/devel/optee/optee_os/lib/libutee/tee_api_objects.c:719
    1dfc:	2a1303e0 	mov	w0, w19
    1e00:	f9400bf3 	ldr	x19, [sp,#16]
    1e04:	a8c27bfd 	ldp	x29, x30, [sp],#32
    1e08:	d65f03c0 	ret

0000000000001e0c <TEE_TruncateObjectData>:
TEE_TruncateObjectData():
/home/pwnz/devel/optee/optee_os/lib/libutee/tee_api_objects.c:722
    1e0c:	a9be7bfd 	stp	x29, x30, [sp,#-32]!
    1e10:	910003fd 	mov	x29, sp
    1e14:	f9000bf3 	str	x19, [sp,#16]
    1e18:	129fff33 	mov	w19, #0xffff0006            	// #-65530
/home/pwnz/devel/optee/optee_os/lib/libutee/tee_api_objects.c:725
    1e1c:	b4000080 	cbz	x0, 1e2c <TEE_TruncateObjectData+0x20>
/home/pwnz/devel/optee/optee_os/lib/libutee/tee_api_objects.c:730
    1e20:	2a0103e1 	mov	w1, w1
    1e24:	94000a99 	bl	4888 <utee_storage_obj_trunc>
    1e28:	2a0003f3 	mov	w19, w0
/home/pwnz/devel/optee/optee_os/lib/libutee/tee_api_objects.c:733
    1e2c:	7100027f 	cmp	w19, #0x0
    1e30:	1299f7c0 	mov	w0, #0xffff3041            	// #-53183
    1e34:	7a401264 	ccmp	w19, w0, #0x4, ne
    1e38:	54000100 	b.eq	1e58 <TEE_TruncateObjectData+0x4c>
/home/pwnz/devel/optee/optee_os/lib/libutee/tee_api_objects.c:735
    1e3c:	121e7a61 	and	w1, w19, #0xfffffffd
    1e40:	52800020 	mov	w0, #0x1                   	// #1
    1e44:	72be0200 	movk	w0, #0xf010, lsl #16
    1e48:	6b00003f 	cmp	w1, w0
    1e4c:	54000060 	b.eq	1e58 <TEE_TruncateObjectData+0x4c>
/home/pwnz/devel/optee/optee_os/lib/libutee/tee_api_objects.c:737
    1e50:	2a1303e0 	mov	w0, w19
    1e54:	9400093c 	bl	4344 <TEE_Panic>
/home/pwnz/devel/optee/optee_os/lib/libutee/tee_api_objects.c:740
    1e58:	2a1303e0 	mov	w0, w19
    1e5c:	f9400bf3 	ldr	x19, [sp,#16]
    1e60:	a8c27bfd 	ldp	x29, x30, [sp],#32
    1e64:	d65f03c0 	ret

0000000000001e68 <TEE_SeekObjectData>:
TEE_SeekObjectData():
/home/pwnz/devel/optee/optee_os/lib/libutee/tee_api_objects.c:744
    1e68:	a9bb7bfd 	stp	x29, x30, [sp,#-80]!
    1e6c:	910003fd 	mov	x29, sp
    1e70:	a90153f3 	stp	x19, x20, [sp,#16]
/home/pwnz/devel/optee/optee_os/lib/libutee/tee_api_objects.c:749
    1e74:	129fff33 	mov	w19, #0xffff0006            	// #-65530
/home/pwnz/devel/optee/optee_os/lib/libutee/tee_api_objects.c:744
    1e78:	a9025bf5 	stp	x21, x22, [sp,#32]
/home/pwnz/devel/optee/optee_os/lib/libutee/tee_api_objects.c:748
    1e7c:	b40003e0 	cbz	x0, 1ef8 <TEE_SeekObjectData+0x90>
    1e80:	aa0003f6 	mov	x22, x0
    1e84:	2a0103f4 	mov	w20, w1
    1e88:	2a0203f5 	mov	w21, w2
/home/pwnz/devel/optee/optee_os/lib/libutee/tee_api_objects.c:753
    1e8c:	9100c3a1 	add	x1, x29, #0x30
    1e90:	94000a2a 	bl	4738 <utee_cryp_obj_get_info>
    1e94:	2a0003f3 	mov	w19, w0
/home/pwnz/devel/optee/optee_os/lib/libutee/tee_api_objects.c:754
    1e98:	35000300 	cbnz	w0, 1ef8 <TEE_SeekObjectData+0x90>
/home/pwnz/devel/optee/optee_os/lib/libutee/tee_api_objects.c:757
    1e9c:	710006bf 	cmp	w21, #0x1
    1ea0:	540000c0 	b.eq	1eb8 <TEE_SeekObjectData+0x50>
    1ea4:	34000115 	cbz	w21, 1ec4 <TEE_SeekObjectData+0x5c>
    1ea8:	71000abf 	cmp	w21, #0x2
    1eac:	54000180 	b.eq	1edc <TEE_SeekObjectData+0x74>
/home/pwnz/devel/optee/optee_os/lib/libutee/tee_api_objects.c:783
    1eb0:	129ffef3 	mov	w19, #0xffff0008            	// #-65528
    1eb4:	14000011 	b	1ef8 <TEE_SeekObjectData+0x90>
/home/pwnz/devel/optee/optee_os/lib/libutee/tee_api_objects.c:768
    1eb8:	b94047a0 	ldr	w0, [x29,#68]
/home/pwnz/devel/optee/optee_os/lib/libutee/tee_api_objects.c:765
    1ebc:	7100029f 	cmp	w20, #0x0
    1ec0:	5400014c 	b.gt	1ee8 <TEE_SeekObjectData+0x80>
/home/pwnz/devel/optee/optee_os/lib/libutee/tee_api_objects.c:787
    1ec4:	2a1503e2 	mov	w2, w21
    1ec8:	2a1403e1 	mov	w1, w20
    1ecc:	aa1603e0 	mov	x0, x22
    1ed0:	94000a71 	bl	4894 <utee_storage_obj_seek>
    1ed4:	2a0003f3 	mov	w19, w0
    1ed8:	14000008 	b	1ef8 <TEE_SeekObjectData+0x90>
/home/pwnz/devel/optee/optee_os/lib/libutee/tee_api_objects.c:775
    1edc:	7100029f 	cmp	w20, #0x0
    1ee0:	54ffff2d 	b.le	1ec4 <TEE_SeekObjectData+0x5c>
/home/pwnz/devel/optee/optee_os/lib/libutee/tee_api_objects.c:777 (discriminator 1)
    1ee4:	b94043a0 	ldr	w0, [x29,#64]
    1ee8:	0b000281 	add	w1, w20, w0
/home/pwnz/devel/optee/optee_os/lib/libutee/tee_api_objects.c:770 (discriminator 1)
    1eec:	1299fe13 	mov	w19, #0xffff300f            	// #-53233
/home/pwnz/devel/optee/optee_os/lib/libutee/tee_api_objects.c:775 (discriminator 1)
    1ef0:	6b01001f 	cmp	w0, w1
    1ef4:	54fffe89 	b.ls	1ec4 <TEE_SeekObjectData+0x5c>
/home/pwnz/devel/optee/optee_os/lib/libutee/tee_api_objects.c:790
    1ef8:	7100027f 	cmp	w19, #0x0
    1efc:	1299fe00 	mov	w0, #0xffff300f            	// #-53233
    1f00:	7a401264 	ccmp	w19, w0, #0x4, ne
    1f04:	54000100 	b.eq	1f24 <TEE_SeekObjectData+0xbc>
/home/pwnz/devel/optee/optee_os/lib/libutee/tee_api_objects.c:792
    1f08:	121e7a61 	and	w1, w19, #0xfffffffd
    1f0c:	52800020 	mov	w0, #0x1                   	// #1
    1f10:	72be0200 	movk	w0, #0xf010, lsl #16
    1f14:	6b00003f 	cmp	w1, w0
    1f18:	54000060 	b.eq	1f24 <TEE_SeekObjectData+0xbc>
/home/pwnz/devel/optee/optee_os/lib/libutee/tee_api_objects.c:794
    1f1c:	2a1303e0 	mov	w0, w19
    1f20:	94000909 	bl	4344 <TEE_Panic>
/home/pwnz/devel/optee/optee_os/lib/libutee/tee_api_objects.c:797
    1f24:	2a1303e0 	mov	w0, w19
    1f28:	a94153f3 	ldp	x19, x20, [sp,#16]
    1f2c:	a9425bf5 	ldp	x21, x22, [sp,#32]
    1f30:	a8c57bfd 	ldp	x29, x30, [sp],#80
    1f34:	d65f03c0 	ret

0000000000001f38 <TEE_FreeOperation>:
TEE_FreeOperation():
/home/pwnz/devel/optee/optee_os/lib/libutee/tee_api_operations.c:366
    1f38:	a9be7bfd 	stp	x29, x30, [sp,#-32]!
    1f3c:	910003fd 	mov	x29, sp
    1f40:	f9000bf3 	str	x19, [sp,#16]
    1f44:	aa0003f3 	mov	x19, x0
/home/pwnz/devel/optee/optee_os/lib/libutee/tee_api_operations.c:369
    1f48:	b5000060 	cbnz	x0, 1f54 <TEE_FreeOperation+0x1c>
/home/pwnz/devel/optee/optee_os/lib/libutee/tee_api_operations.c:370
    1f4c:	52800000 	mov	w0, #0x0                   	// #0
    1f50:	940008fd 	bl	4344 <TEE_Panic>
/home/pwnz/devel/optee/optee_os/lib/libutee/tee_api_operations.c:377
    1f54:	b9405a60 	ldr	w0, [x19,#88]
    1f58:	940009e3 	bl	46e4 <utee_cryp_state_free>
/home/pwnz/devel/optee/optee_os/lib/libutee/tee_api_operations.c:378
    1f5c:	34000040 	cbz	w0, 1f64 <TEE_FreeOperation+0x2c>
/home/pwnz/devel/optee/optee_os/lib/libutee/tee_api_operations.c:379
    1f60:	940008f9 	bl	4344 <TEE_Panic>
/home/pwnz/devel/optee/optee_os/lib/libutee/tee_api_operations.c:381
    1f64:	f9401e60 	ldr	x0, [x19,#56]
    1f68:	97fffcc0 	bl	1268 <TEE_Free>
/home/pwnz/devel/optee/optee_os/lib/libutee/tee_api_operations.c:382
    1f6c:	aa1303e0 	mov	x0, x19
/home/pwnz/devel/optee/optee_os/lib/libutee/tee_api_operations.c:383
    1f70:	f9400bf3 	ldr	x19, [sp,#16]
    1f74:	a8c27bfd 	ldp	x29, x30, [sp],#32
/home/pwnz/devel/optee/optee_os/lib/libutee/tee_api_operations.c:382
    1f78:	17fffcbc 	b	1268 <TEE_Free>

0000000000001f7c <TEE_AllocateOperation>:
TEE_AllocateOperation():
/home/pwnz/devel/optee/optee_os/lib/libutee/tee_api_operations.c:59
    1f7c:	a9b97bfd 	stp	x29, x30, [sp,#-112]!
    1f80:	910003fd 	mov	x29, sp
    1f84:	a90363f7 	stp	x23, x24, [sp,#48]
    1f88:	2a0203f8 	mov	w24, w2
    1f8c:	a90153f3 	stp	x19, x20, [sp,#16]
    1f90:	2a0303f7 	mov	w23, w3
    1f94:	a9025bf5 	stp	x21, x22, [sp,#32]
    1f98:	2a0103f3 	mov	w19, w1
    1f9c:	a9046bf9 	stp	x25, x26, [sp,#64]
    1fa0:	a90573fb 	stp	x27, x28, [sp,#80]
    1fa4:	f90037a0 	str	x0, [x29,#104]
/home/pwnz/devel/optee/optee_os/lib/libutee/tee_api_operations.c:68
    1fa8:	b5000040 	cbnz	x0, 1fb0 <TEE_AllocateOperation+0x34>
/home/pwnz/devel/optee/optee_os/lib/libutee/tee_api_operations.c:69
    1fac:	940008e6 	bl	4344 <TEE_Panic>
/home/pwnz/devel/optee/optee_os/lib/libutee/tee_api_operations.c:71
    1fb0:	52808200 	mov	w0, #0x410                 	// #1040
    1fb4:	72a20000 	movk	w0, #0x1000, lsl #16
    1fb8:	6b00027f 	cmp	w19, w0
    1fbc:	54002cc0 	b.eq	2554 <TEE_AllocateOperation+0x5d8>
/home/pwnz/devel/optee/optee_os/lib/libutee/tee_api_operations.c:75
    1fc0:	52882620 	mov	w0, #0x4131                	// #16689
    1fc4:	72ae0000 	movk	w0, #0x7000, lsl #16
    1fc8:	6b00027f 	cmp	w19, w0
    1fcc:	54000e60 	b.eq	2198 <TEE_AllocateOperation+0x21c>
    1fd0:	540007c8 	b.hi	20c8 <TEE_AllocateOperation+0x14c>
    1fd4:	52842620 	mov	w0, #0x2131                	// #8497
    1fd8:	72ae0000 	movk	w0, #0x7000, lsl #16
    1fdc:	6b00027f 	cmp	w19, w0
    1fe0:	54000aa0 	b.eq	2134 <TEE_AllocateOperation+0x1b8>
    1fe4:	54000568 	b.hi	2090 <TEE_AllocateOperation+0x114>
    1fe8:	52820820 	mov	w0, #0x1041                	// #4161
    1fec:	72ae0000 	movk	w0, #0x7000, lsl #16
    1ff0:	6b00027f 	cmp	w19, w0
    1ff4:	54000840 	b.eq	20fc <TEE_AllocateOperation+0x180>
    1ff8:	11400400 	add	w0, w0, #0x1, lsl #12
    1ffc:	6b00027f 	cmp	w19, w0
    2000:	54000d40 	b.eq	21a8 <TEE_AllocateOperation+0x22c>
/home/pwnz/devel/optee/optee_os/lib/libutee/tee_api_operations.c:130
    2004:	52842620 	mov	w0, #0x2131                	// #8497
    2008:	72ae0000 	movk	w0, #0x7000, lsl #16
    200c:	6b00027f 	cmp	w19, w0
    2010:	540009e0 	b.eq	214c <TEE_AllocateOperation+0x1d0>
    2014:	54001ae8 	b.hi	2370 <TEE_AllocateOperation+0x3f4>
    2018:	5280a260 	mov	w0, #0x513                 	// #1299
    201c:	72a60000 	movk	w0, #0x3000, lsl #16
    2020:	6b00027f 	cmp	w19, w0
    2024:	54001000 	b.eq	2224 <TEE_AllocateOperation+0x2a8>
    2028:	54001208 	b.hi	2268 <TEE_AllocateOperation+0x2ec>
    202c:	52806200 	mov	w0, #0x310                 	// #784
    2030:	72a20000 	movk	w0, #0x1000, lsl #16
    2034:	6b00027f 	cmp	w19, w0
    2038:	54002a80 	b.eq	2588 <TEE_AllocateOperation+0x60c>
    203c:	52802220 	mov	w0, #0x111                 	// #273
    2040:	54000dc8 	b.hi	21f8 <TEE_AllocateOperation+0x27c>
    2044:	72a20000 	movk	w0, #0x1000, lsl #16
    2048:	6b00027f 	cmp	w19, w0
    204c:	54000c08 	b.hi	21cc <TEE_AllocateOperation+0x250>
    2050:	52802200 	mov	w0, #0x110                 	// #272
    2054:	72a20000 	movk	w0, #0x1000, lsl #16
    2058:	6b00027f 	cmp	w19, w0
    205c:	540029a2 	b.cs	2590 <TEE_AllocateOperation+0x614>
    2060:	52800200 	mov	w0, #0x10                  	// #16
    2064:	72a20000 	movk	w0, #0x1000, lsl #16
    2068:	6b00027f 	cmp	w19, w0
    206c:	540000e3 	b.cc	2088 <TEE_AllocateOperation+0x10c>
    2070:	11000400 	add	w0, w0, #0x1
    2074:	6b00027f 	cmp	w19, w0
    2078:	540028c9 	b.ls	2590 <TEE_AllocateOperation+0x614>
    207c:	11000800 	add	w0, w0, #0x2
    2080:	6b00027f 	cmp	w19, w0
    2084:	54002860 	b.eq	2590 <TEE_AllocateOperation+0x614>
/home/pwnz/devel/optee/optee_os/lib/libutee/tee_api_operations.c:269
    2088:	129ffeb4 	mov	w20, #0xffff000a            	// #-65526
    208c:	1400003b 	b	2178 <TEE_AllocateOperation+0x1fc>
/home/pwnz/devel/optee/optee_os/lib/libutee/tee_api_operations.c:75
    2090:	52862620 	mov	w0, #0x3131                	// #12593
    2094:	72ae0000 	movk	w0, #0x7000, lsl #16
    2098:	6b00027f 	cmp	w19, w0
    209c:	54000680 	b.eq	216c <TEE_AllocateOperation+0x1f0>
    20a0:	113c4000 	add	w0, w0, #0xf10
    20a4:	6b00027f 	cmp	w19, w0
    20a8:	54000860 	b.eq	21b4 <TEE_AllocateOperation+0x238>
    20ac:	52860820 	mov	w0, #0x3041                	// #12353
    20b0:	72ae0000 	movk	w0, #0x7000, lsl #16
    20b4:	6b00027f 	cmp	w19, w0
    20b8:	54fffa61 	b.ne	2004 <TEE_AllocateOperation+0x88>
/home/pwnz/devel/optee/optee_os/lib/libutee/tee_api_operations.c:80
    20bc:	129ffeb4 	mov	w20, #0xffff000a            	// #-65526
/home/pwnz/devel/optee/optee_os/lib/libutee/tee_api_operations.c:109
    20c0:	710402ff 	cmp	w23, #0x100
    20c4:	14000010 	b	2104 <TEE_AllocateOperation+0x188>
/home/pwnz/devel/optee/optee_os/lib/libutee/tee_api_operations.c:75
    20c8:	52840840 	mov	w0, #0x2042                	// #8258
    20cc:	72b00000 	movk	w0, #0x8000, lsl #16
    20d0:	6b00027f 	cmp	w19, w0
    20d4:	540006a0 	b.eq	21a8 <TEE_AllocateOperation+0x22c>
    20d8:	540001a8 	b.hi	210c <TEE_AllocateOperation+0x190>
    20dc:	528a0820 	mov	w0, #0x5041                	// #20545
    20e0:	72ae0000 	movk	w0, #0x7000, lsl #16
    20e4:	6b00027f 	cmp	w19, w0
    20e8:	540006c0 	b.eq	21c0 <TEE_AllocateOperation+0x244>
    20ec:	52820840 	mov	w0, #0x1042                	// #4162
    20f0:	72b00000 	movk	w0, #0x8000, lsl #16
    20f4:	6b00027f 	cmp	w19, w0
    20f8:	54fff861 	b.ne	2004 <TEE_AllocateOperation+0x88>
/home/pwnz/devel/optee/optee_os/lib/libutee/tee_api_operations.c:97
    20fc:	710302ff 	cmp	w23, #0xc0
/home/pwnz/devel/optee/optee_os/lib/libutee/tee_api_operations.c:80
    2100:	129ffeb4 	mov	w20, #0xffff000a            	// #-65526
/home/pwnz/devel/optee/optee_os/lib/libutee/tee_api_operations.c:121
    2104:	540003a1 	b.ne	2178 <TEE_AllocateOperation+0x1fc>
    2108:	17ffffbf 	b	2004 <TEE_AllocateOperation+0x88>
/home/pwnz/devel/optee/optee_os/lib/libutee/tee_api_operations.c:75
    210c:	52880840 	mov	w0, #0x4042                	// #16450
    2110:	72b00000 	movk	w0, #0x8000, lsl #16
    2114:	6b00027f 	cmp	w19, w0
    2118:	540004e0 	b.eq	21b4 <TEE_AllocateOperation+0x238>
    211c:	11400400 	add	w0, w0, #0x1, lsl #12
    2120:	6b00027f 	cmp	w19, w0
    2124:	540004e0 	b.eq	21c0 <TEE_AllocateOperation+0x244>
    2128:	52860840 	mov	w0, #0x3042                	// #12354
    212c:	72b00000 	movk	w0, #0x8000, lsl #16
    2130:	17ffffe1 	b	20b4 <TEE_AllocateOperation+0x138>
/home/pwnz/devel/optee/optee_os/lib/libutee/tee_api_operations.c:79
    2134:	510802e0 	sub	w0, w23, #0x200
/home/pwnz/devel/optee/optee_os/lib/libutee/tee_api_operations.c:80
    2138:	129ffeb4 	mov	w20, #0xffff000a            	// #-65526
/home/pwnz/devel/optee/optee_os/lib/libutee/tee_api_operations.c:79
    213c:	7108001f 	cmp	w0, #0x200
    2140:	540001c8 	b.hi	2178 <TEE_AllocateOperation+0x1fc>
/home/pwnz/devel/optee/optee_os/lib/libutee/tee_api_operations.c:81
    2144:	f24016ff 	tst	x23, #0x3f
    2148:	54000181 	b.ne	2178 <TEE_AllocateOperation+0x1fc>
/home/pwnz/devel/optee/optee_os/lib/libutee/tee_api_operations.c:176
    214c:	71000b1f 	cmp	w24, #0x2
    2150:	540029c0 	b.eq	2688 <TEE_AllocateOperation+0x70c>
/home/pwnz/devel/optee/optee_os/lib/libutee/tee_api_operations.c:179
    2154:	71000f1f 	cmp	w24, #0x3
    2158:	54fff981 	b.ne	2088 <TEE_AllocateOperation+0x10c>
/home/pwnz/devel/optee/optee_os/lib/libutee/tee_api_operations.c:66
    215c:	52800019 	mov	w25, #0x0                   	// #0
/home/pwnz/devel/optee/optee_os/lib/libutee/tee_api_operations.c:65
    2160:	5280001a 	mov	w26, #0x0                   	// #0
/home/pwnz/devel/optee/optee_os/lib/libutee/tee_api_operations.c:180
    2164:	52800403 	mov	w3, #0x20                  	// #32
    2168:	140000d6 	b	24c0 <TEE_AllocateOperation+0x544>
/home/pwnz/devel/optee/optee_os/lib/libutee/tee_api_operations.c:86
    216c:	712002ff 	cmp	w23, #0x800
/home/pwnz/devel/optee/optee_os/lib/libutee/tee_api_operations.c:80
    2170:	129ffeb4 	mov	w20, #0xffff000a            	// #-65526
/home/pwnz/devel/optee/optee_os/lib/libutee/tee_api_operations.c:91
    2174:	54fffec0 	b.eq	214c <TEE_AllocateOperation+0x1d0>
/home/pwnz/devel/optee/optee_os/lib/libutee/tee_api_operations.c:363
    2178:	2a1403e0 	mov	w0, w20
    217c:	a94153f3 	ldp	x19, x20, [sp,#16]
    2180:	a9425bf5 	ldp	x21, x22, [sp,#32]
    2184:	a94363f7 	ldp	x23, x24, [sp,#48]
    2188:	a9446bf9 	ldp	x25, x26, [sp,#64]
    218c:	a94573fb 	ldp	x27, x28, [sp,#80]
    2190:	a8c77bfd 	ldp	x29, x30, [sp],#112
    2194:	d65f03c0 	ret
/home/pwnz/devel/optee/optee_os/lib/libutee/tee_api_operations.c:91
    2198:	12157ae0 	and	w0, w23, #0xfffffbff
/home/pwnz/devel/optee/optee_os/lib/libutee/tee_api_operations.c:80
    219c:	129ffeb4 	mov	w20, #0xffff000a            	// #-65526
/home/pwnz/devel/optee/optee_os/lib/libutee/tee_api_operations.c:91
    21a0:	7120001f 	cmp	w0, #0x800
    21a4:	17fffff4 	b	2174 <TEE_AllocateOperation+0x1f8>
/home/pwnz/devel/optee/optee_os/lib/libutee/tee_api_operations.c:80
    21a8:	129ffeb4 	mov	w20, #0xffff000a            	// #-65526
/home/pwnz/devel/optee/optee_os/lib/libutee/tee_api_operations.c:103
    21ac:	710382ff 	cmp	w23, #0xe0
    21b0:	17ffffd5 	b	2104 <TEE_AllocateOperation+0x188>
/home/pwnz/devel/optee/optee_os/lib/libutee/tee_api_operations.c:80
    21b4:	129ffeb4 	mov	w20, #0xffff000a            	// #-65526
/home/pwnz/devel/optee/optee_os/lib/libutee/tee_api_operations.c:115
    21b8:	710602ff 	cmp	w23, #0x180
    21bc:	17ffffd2 	b	2104 <TEE_AllocateOperation+0x188>
/home/pwnz/devel/optee/optee_os/lib/libutee/tee_api_operations.c:80
    21c0:	129ffeb4 	mov	w20, #0xffff000a            	// #-65526
/home/pwnz/devel/optee/optee_os/lib/libutee/tee_api_operations.c:121
    21c4:	710826ff 	cmp	w23, #0x209
    21c8:	17ffffcf 	b	2104 <TEE_AllocateOperation+0x188>
/home/pwnz/devel/optee/optee_os/lib/libutee/tee_api_operations.c:130
    21cc:	52802260 	mov	w0, #0x113                 	// #275
    21d0:	72a20000 	movk	w0, #0x1000, lsl #16
    21d4:	6b00027f 	cmp	w19, w0
    21d8:	54001dc0 	b.eq	2590 <TEE_AllocateOperation+0x614>
    21dc:	1103f400 	add	w0, w0, #0xfd
    21e0:	6b00027f 	cmp	w19, w0
    21e4:	54fff521 	b.ne	2088 <TEE_AllocateOperation+0x10c>
    21e8:	5280001c 	mov	w28, #0x0                   	// #0
/home/pwnz/devel/optee/optee_os/lib/libutee/tee_api_operations.c:66
    21ec:	52800019 	mov	w25, #0x0                   	// #0
/home/pwnz/devel/optee/optee_os/lib/libutee/tee_api_operations.c:63
    21f0:	d2800036 	mov	x22, #0x1                   	// #1
    21f4:	140000df 	b	2570 <TEE_AllocateOperation+0x5f4>
/home/pwnz/devel/optee/optee_os/lib/libutee/tee_api_operations.c:130
    21f8:	72a60000 	movk	w0, #0x3000, lsl #16
    21fc:	6b00027f 	cmp	w19, w0
    2200:	54000208 	b.hi	2240 <TEE_AllocateOperation+0x2c4>
    2204:	52802200 	mov	w0, #0x110                 	// #272
    2208:	72a60000 	movk	w0, #0x3000, lsl #16
    220c:	6b00027f 	cmp	w19, w0
    2210:	540000a2 	b.cs	2224 <TEE_AllocateOperation+0x2a8>
    2214:	12a60000 	mov	w0, #0xcfffffff            	// #-805306369
    2218:	0b000260 	add	w0, w19, w0
    221c:	7100141f 	cmp	w0, #0x5
    2220:	54fff348 	b.hi	2088 <TEE_AllocateOperation+0x10c>
/home/pwnz/devel/optee/optee_os/lib/libutee/tee_api_operations.c:80
    2224:	129ffeb4 	mov	w20, #0xffff000a            	// #-65526
/home/pwnz/devel/optee/optee_os/lib/libutee/tee_api_operations.c:263
    2228:	7100131f 	cmp	w24, #0x4
    222c:	54fffa61 	b.ne	2178 <TEE_AllocateOperation+0x1fc>
/home/pwnz/devel/optee/optee_os/lib/libutee/tee_api_operations.c:66
    2230:	52800019 	mov	w25, #0x0                   	// #0
/home/pwnz/devel/optee/optee_os/lib/libutee/tee_api_operations.c:65
    2234:	5280001a 	mov	w26, #0x0                   	// #0
/home/pwnz/devel/optee/optee_os/lib/libutee/tee_api_operations.c:265
    2238:	52800103 	mov	w3, #0x8                   	// #8
    223c:	140000a1 	b	24c0 <TEE_AllocateOperation+0x544>
/home/pwnz/devel/optee/optee_os/lib/libutee/tee_api_operations.c:130
    2240:	52802260 	mov	w0, #0x113                 	// #275
    2244:	72a60000 	movk	w0, #0x3000, lsl #16
    2248:	6b00027f 	cmp	w19, w0
    224c:	54fffec0 	b.eq	2224 <TEE_AllocateOperation+0x2a8>
    2250:	54fff1c3 	b.cc	2088 <TEE_AllocateOperation+0x10c>
    2254:	529f5e00 	mov	w0, #0xfaf0                	// #64240
    2258:	72b9ffe0 	movk	w0, #0xcfff, lsl #16
    225c:	0b000260 	add	w0, w19, w0
    2260:	7100041f 	cmp	w0, #0x1
    2264:	17ffffef 	b	2220 <TEE_AllocateOperation+0x2a4>
    2268:	52804600 	mov	w0, #0x230                 	// #560
    226c:	72ac0420 	movk	w0, #0x6021, lsl #16
    2270:	6b00027f 	cmp	w19, w0
    2274:	540003a0 	b.eq	22e8 <TEE_AllocateOperation+0x36c>
    2278:	54000468 	b.hi	2304 <TEE_AllocateOperation+0x388>
    227c:	528000c0 	mov	w0, #0x6                   	// #6
    2280:	72aa0000 	movk	w0, #0x5000, lsl #16
    2284:	6b00027f 	cmp	w19, w0
    2288:	54000228 	b.hi	22cc <TEE_AllocateOperation+0x350>
    228c:	52800020 	mov	w0, #0x1                   	// #1
    2290:	72aa0000 	movk	w0, #0x5000, lsl #16
    2294:	6b00027f 	cmp	w19, w0
    2298:	54001902 	b.cs	25b8 <TEE_AllocateOperation+0x63c>
    229c:	5280e200 	mov	w0, #0x710                 	// #1808
    22a0:	72a80000 	movk	w0, #0x4000, lsl #16
    22a4:	6b00027f 	cmp	w19, w0
    22a8:	54001740 	b.eq	2590 <TEE_AllocateOperation+0x614>
    22ac:	11040000 	add	w0, w0, #0x100
    22b0:	6b00027f 	cmp	w19, w0
    22b4:	54fff9a0 	b.eq	21e8 <TEE_AllocateOperation+0x26c>
    22b8:	5280c200 	mov	w0, #0x610                 	// #1552
    22bc:	72a60000 	movk	w0, #0x3000, lsl #16
    22c0:	6b00027f 	cmp	w19, w0
    22c4:	54ffee21 	b.ne	2088 <TEE_AllocateOperation+0x10c>
    22c8:	17ffffd7 	b	2224 <TEE_AllocateOperation+0x2a8>
    22cc:	52800600 	mov	w0, #0x30                  	// #48
    22d0:	72ac0000 	movk	w0, #0x6000, lsl #16
    22d4:	6b00027f 	cmp	w19, w0
    22d8:	54001620 	b.eq	259c <TEE_AllocateOperation+0x620>
    22dc:	11040000 	add	w0, w0, #0x100
    22e0:	6b00027f 	cmp	w19, w0
    22e4:	54ffed21 	b.ne	2088 <TEE_AllocateOperation+0x10c>
/home/pwnz/devel/optee/optee_os/lib/libutee/tee_api_operations.c:192
    22e8:	34001d98 	cbz	w24, 2698 <TEE_AllocateOperation+0x71c>
/home/pwnz/devel/optee/optee_os/lib/libutee/tee_api_operations.c:194
    22ec:	7100071f 	cmp	w24, #0x1
    22f0:	54ffecc1 	b.ne	2088 <TEE_AllocateOperation+0x10c>
/home/pwnz/devel/optee/optee_os/lib/libutee/tee_api_operations.c:66
    22f4:	52800019 	mov	w25, #0x0                   	// #0
/home/pwnz/devel/optee/optee_os/lib/libutee/tee_api_operations.c:195
    22f8:	2a1803fa 	mov	w26, w24
/home/pwnz/devel/optee/optee_os/lib/libutee/tee_api_operations.c:196
    22fc:	52800083 	mov	w3, #0x4                   	// #4
    2300:	14000070 	b	24c0 <TEE_AllocateOperation+0x544>
/home/pwnz/devel/optee/optee_os/lib/libutee/tee_api_operations.c:130
    2304:	52804600 	mov	w0, #0x230                 	// #560
    2308:	72ac0c20 	movk	w0, #0x6061, lsl #16
    230c:	6b00027f 	cmp	w19, w0
    2310:	54fffec0 	b.eq	22e8 <TEE_AllocateOperation+0x36c>
    2314:	54000168 	b.hi	2340 <TEE_AllocateOperation+0x3c4>
    2318:	52804600 	mov	w0, #0x230                 	// #560
    231c:	72ac0820 	movk	w0, #0x6041, lsl #16
    2320:	6b00027f 	cmp	w19, w0
    2324:	54fffe20 	b.eq	22e8 <TEE_AllocateOperation+0x36c>
    2328:	11440000 	add	w0, w0, #0x100, lsl #12
    232c:	6b00027f 	cmp	w19, w0
    2330:	54fffdc0 	b.eq	22e8 <TEE_AllocateOperation+0x36c>
    2334:	52804600 	mov	w0, #0x230                 	// #560
    2338:	72ac0620 	movk	w0, #0x6031, lsl #16
    233c:	17ffffe9 	b	22e0 <TEE_AllocateOperation+0x364>
    2340:	52830600 	mov	w0, #0x1830                	// #6192
    2344:	72ae0000 	movk	w0, #0x7000, lsl #16
    2348:	6b00027f 	cmp	w19, w0
    234c:	54fff000 	b.eq	214c <TEE_AllocateOperation+0x1d0>
    2350:	11204400 	add	w0, w0, #0x811
    2354:	6b00027f 	cmp	w19, w0
    2358:	54ffefa0 	b.eq	214c <TEE_AllocateOperation+0x1d0>
    235c:	52820820 	mov	w0, #0x1041                	// #4161
    2360:	72ae0000 	movk	w0, #0x7000, lsl #16
    2364:	6b00027f 	cmp	w19, w0
    2368:	54ffe901 	b.ne	2088 <TEE_AllocateOperation+0x10c>
    236c:	17ffff78 	b	214c <TEE_AllocateOperation+0x1d0>
    2370:	52800640 	mov	w0, #0x32                  	// #50
    2374:	72b00000 	movk	w0, #0x8000, lsl #16
    2378:	6b00027f 	cmp	w19, w0
    237c:	54000960 	b.eq	24a8 <TEE_AllocateOperation+0x52c>
    2380:	540006c8 	b.hi	2458 <TEE_AllocateOperation+0x4dc>
    2384:	528a0820 	mov	w0, #0x5041                	// #20545
    2388:	72ae0000 	movk	w0, #0x7000, lsl #16
    238c:	6b00027f 	cmp	w19, w0
    2390:	54ffede0 	b.eq	214c <TEE_AllocateOperation+0x1d0>
    2394:	54000308 	b.hi	23f4 <TEE_AllocateOperation+0x478>
    2398:	52870600 	mov	w0, #0x3830                	// #14384
    239c:	72ae0000 	movk	w0, #0x7000, lsl #16
    23a0:	6b00027f 	cmp	w19, w0
    23a4:	54ffed40 	b.eq	214c <TEE_AllocateOperation+0x1d0>
    23a8:	54000148 	b.hi	23d0 <TEE_AllocateOperation+0x454>
    23ac:	52860820 	mov	w0, #0x3041                	// #12353
    23b0:	72ae0000 	movk	w0, #0x7000, lsl #16
    23b4:	6b00027f 	cmp	w19, w0
    23b8:	54ffeca0 	b.eq	214c <TEE_AllocateOperation+0x1d0>
    23bc:	1103c000 	add	w0, w0, #0xf0
    23c0:	6b00027f 	cmp	w19, w0
    23c4:	54ffec40 	b.eq	214c <TEE_AllocateOperation+0x1d0>
    23c8:	52850600 	mov	w0, #0x2830                	// #10288
    23cc:	17ffffe5 	b	2360 <TEE_AllocateOperation+0x3e4>
    23d0:	52882620 	mov	w0, #0x4131                	// #16689
    23d4:	72ae0000 	movk	w0, #0x7000, lsl #16
    23d8:	6b00027f 	cmp	w19, w0
    23dc:	54ffeb80 	b.eq	214c <TEE_AllocateOperation+0x1d0>
    23e0:	111bfc00 	add	w0, w0, #0x6ff
    23e4:	6b00027f 	cmp	w19, w0
    23e8:	54ffeb20 	b.eq	214c <TEE_AllocateOperation+0x1d0>
    23ec:	52880820 	mov	w0, #0x4041                	// #16449
    23f0:	17ffffdc 	b	2360 <TEE_AllocateOperation+0x3e4>
    23f4:	52872600 	mov	w0, #0x3930                	// #14640
    23f8:	72ae0620 	movk	w0, #0x7031, lsl #16
    23fc:	6b00027f 	cmp	w19, w0
    2400:	54ffea60 	b.eq	214c <TEE_AllocateOperation+0x1d0>
    2404:	54000168 	b.hi	2430 <TEE_AllocateOperation+0x4b4>
    2408:	528d0600 	mov	w0, #0x6830                	// #26672
    240c:	72ae0000 	movk	w0, #0x7000, lsl #16
    2410:	6b00027f 	cmp	w19, w0
    2414:	54ffe9c0 	b.eq	214c <TEE_AllocateOperation+0x1d0>
    2418:	52852600 	mov	w0, #0x2930                	// #10544
    241c:	72ae0420 	movk	w0, #0x7021, lsl #16
    2420:	6b00027f 	cmp	w19, w0
    2424:	54ffe940 	b.eq	214c <TEE_AllocateOperation+0x1d0>
    2428:	528b0600 	mov	w0, #0x5830                	// #22576
    242c:	17ffffcd 	b	2360 <TEE_AllocateOperation+0x3e4>
    2430:	528b2600 	mov	w0, #0x5930                	// #22832
    2434:	72ae0a20 	movk	w0, #0x7051, lsl #16
    2438:	6b00027f 	cmp	w19, w0
    243c:	54ffe880 	b.eq	214c <TEE_AllocateOperation+0x1d0>
    2440:	11440400 	add	w0, w0, #0x101, lsl #12
    2444:	6b00027f 	cmp	w19, w0
    2448:	54ffe820 	b.eq	214c <TEE_AllocateOperation+0x1d0>
    244c:	52892600 	mov	w0, #0x4930                	// #18736
    2450:	72ae0820 	movk	w0, #0x7041, lsl #16
    2454:	17ffffc4 	b	2364 <TEE_AllocateOperation+0x3e8>
    2458:	52861820 	mov	w0, #0x30c1                	// #12481
    245c:	72b00000 	movk	w0, #0x8000, lsl #16
    2460:	6b00027f 	cmp	w19, w0
    2464:	54000468 	b.hi	24f0 <TEE_AllocateOperation+0x574>
    2468:	52861800 	mov	w0, #0x30c0                	// #12480
    246c:	72b00000 	movk	w0, #0x8000, lsl #16
    2470:	6b00027f 	cmp	w19, w0
    2474:	540001a2 	b.cs	24a8 <TEE_AllocateOperation+0x52c>
    2478:	52840840 	mov	w0, #0x2042                	// #8258
    247c:	72b00000 	movk	w0, #0x8000, lsl #16
    2480:	6b00027f 	cmp	w19, w0
    2484:	54000120 	b.eq	24a8 <TEE_AllocateOperation+0x52c>
    2488:	54000228 	b.hi	24cc <TEE_AllocateOperation+0x550>
    248c:	52820840 	mov	w0, #0x1042                	// #4162
    2490:	72b00000 	movk	w0, #0x8000, lsl #16
    2494:	6b00027f 	cmp	w19, w0
    2498:	54000080 	b.eq	24a8 <TEE_AllocateOperation+0x52c>
    249c:	1101f800 	add	w0, w0, #0x7e
    24a0:	6b00027f 	cmp	w19, w0
    24a4:	54ffdf21 	b.ne	2088 <TEE_AllocateOperation+0x10c>
/home/pwnz/devel/optee/optee_os/lib/libutee/tee_api_operations.c:80
    24a8:	129ffeb4 	mov	w20, #0xffff000a            	// #-65526
/home/pwnz/devel/optee/optee_os/lib/libutee/tee_api_operations.c:231
    24ac:	71001b1f 	cmp	w24, #0x6
    24b0:	54ffe641 	b.ne	2178 <TEE_AllocateOperation+0x1fc>
/home/pwnz/devel/optee/optee_os/lib/libutee/tee_api_operations.c:66
    24b4:	52800019 	mov	w25, #0x0                   	// #0
/home/pwnz/devel/optee/optee_os/lib/libutee/tee_api_operations.c:233
    24b8:	5280003a 	mov	w26, #0x1                   	// #1
/home/pwnz/devel/optee/optee_os/lib/libutee/tee_api_operations.c:234
    24bc:	52800803 	mov	w3, #0x40                  	// #64
/home/pwnz/devel/optee/optee_os/lib/libutee/tee_api_operations.c:63
    24c0:	d2800036 	mov	x22, #0x1                   	// #1
    24c4:	5280001c 	mov	w28, #0x0                   	// #0
    24c8:	14000044 	b	25d8 <TEE_AllocateOperation+0x65c>
/home/pwnz/devel/optee/optee_os/lib/libutee/tee_api_operations.c:130
    24cc:	52841800 	mov	w0, #0x20c0                	// #8384
    24d0:	72b00000 	movk	w0, #0x8000, lsl #16
    24d4:	6b00027f 	cmp	w19, w0
    24d8:	54ffdd83 	b.cc	2088 <TEE_AllocateOperation+0x10c>
    24dc:	11000800 	add	w0, w0, #0x2
    24e0:	6b00027f 	cmp	w19, w0
    24e4:	54fffe29 	b.ls	24a8 <TEE_AllocateOperation+0x52c>
    24e8:	113e0000 	add	w0, w0, #0xf80
    24ec:	17ffffed 	b	24a0 <TEE_AllocateOperation+0x524>
    24f0:	528a0840 	mov	w0, #0x5042                	// #20546
    24f4:	72b00000 	movk	w0, #0x8000, lsl #16
    24f8:	6b00027f 	cmp	w19, w0
    24fc:	54fffd60 	b.eq	24a8 <TEE_AllocateOperation+0x52c>
    2500:	54000188 	b.hi	2530 <TEE_AllocateOperation+0x5b4>
    2504:	52880840 	mov	w0, #0x4042                	// #16450
    2508:	72b00000 	movk	w0, #0x8000, lsl #16
    250c:	6b00027f 	cmp	w19, w0
    2510:	54fffcc0 	b.eq	24a8 <TEE_AllocateOperation+0x52c>
    2514:	5297e800 	mov	w0, #0xbf40                	// #48960
    2518:	54ffdb83 	b.cc	2088 <TEE_AllocateOperation+0x10c>
    251c:	72afffe0 	movk	w0, #0x7fff, lsl #16
    2520:	0b000260 	add	w0, w19, w0
    2524:	7100041f 	cmp	w0, #0x1
    2528:	54fffc09 	b.ls	24a8 <TEE_AllocateOperation+0x52c>
    252c:	17fffed7 	b	2088 <TEE_AllocateOperation+0x10c>
    2530:	528a1800 	mov	w0, #0x50c0                	// #20672
    2534:	72b00000 	movk	w0, #0x8000, lsl #16
    2538:	6b00027f 	cmp	w19, w0
    253c:	54ffda63 	b.cc	2088 <TEE_AllocateOperation+0x10c>
    2540:	11000400 	add	w0, w0, #0x1
    2544:	6b00027f 	cmp	w19, w0
    2548:	54fffb09 	b.ls	24a8 <TEE_AllocateOperation+0x52c>
    254c:	5293e800 	mov	w0, #0x9f40                	// #40768
    2550:	17fffff3 	b	251c <TEE_AllocateOperation+0x5a0>
/home/pwnz/devel/optee/optee_os/lib/libutee/tee_api_operations.c:72
    2554:	52a0011c 	mov	w28, #0x80000               	// #524288
/home/pwnz/devel/optee/optee_os/lib/libutee/tee_api_operations.c:133
    2558:	52800039 	mov	w25, #0x1                   	// #1
/home/pwnz/devel/optee/optee_os/lib/libutee/tee_api_operations.c:142
    255c:	12001e60 	and	w0, w19, #0xff
/home/pwnz/devel/optee/optee_os/lib/libutee/tee_api_operations.c:145
    2560:	d2800216 	mov	x22, #0x10                  	// #16
    2564:	7100401f 	cmp	w0, #0x10
    2568:	d2800100 	mov	x0, #0x8                   	// #8
    256c:	9a8002d6 	csel	x22, x22, x0, eq
/home/pwnz/devel/optee/optee_os/lib/libutee/tee_api_operations.c:149
    2570:	34000878 	cbz	w24, 267c <TEE_AllocateOperation+0x700>
/home/pwnz/devel/optee/optee_os/lib/libutee/tee_api_operations.c:151
    2574:	7100071f 	cmp	w24, #0x1
    2578:	54ffd881 	b.ne	2088 <TEE_AllocateOperation+0x10c>
/home/pwnz/devel/optee/optee_os/lib/libutee/tee_api_operations.c:65
    257c:	5280001a 	mov	w26, #0x0                   	// #0
/home/pwnz/devel/optee/optee_os/lib/libutee/tee_api_operations.c:152
    2580:	52800083 	mov	w3, #0x4                   	// #4
    2584:	14000015 	b	25d8 <TEE_AllocateOperation+0x65c>
/home/pwnz/devel/optee/optee_os/lib/libutee/tee_api_operations.c:130
    2588:	5280001c 	mov	w28, #0x0                   	// #0
    258c:	17fffff3 	b	2558 <TEE_AllocateOperation+0x5dc>
    2590:	5280001c 	mov	w28, #0x0                   	// #0
/home/pwnz/devel/optee/optee_os/lib/libutee/tee_api_operations.c:66
    2594:	52800019 	mov	w25, #0x0                   	// #0
    2598:	17fffff1 	b	255c <TEE_AllocateOperation+0x5e0>
/home/pwnz/devel/optee/optee_os/lib/libutee/tee_api_operations.c:203
    259c:	340008b8 	cbz	w24, 26b0 <TEE_AllocateOperation+0x734>
/home/pwnz/devel/optee/optee_os/lib/libutee/tee_api_operations.c:205
    25a0:	7100071f 	cmp	w24, #0x1
    25a4:	54ffd721 	b.ne	2088 <TEE_AllocateOperation+0x10c>
/home/pwnz/devel/optee/optee_os/lib/libutee/tee_api_operations.c:66
    25a8:	52800019 	mov	w25, #0x0                   	// #0
/home/pwnz/devel/optee/optee_os/lib/libutee/tee_api_operations.c:206
    25ac:	5280003a 	mov	w26, #0x1                   	// #1
/home/pwnz/devel/optee/optee_os/lib/libutee/tee_api_operations.c:207
    25b0:	52800283 	mov	w3, #0x14                  	// #20
    25b4:	17ffffc3 	b	24c0 <TEE_AllocateOperation+0x544>
/home/pwnz/devel/optee/optee_os/lib/libutee/tee_api_operations.c:80
    25b8:	129ffeb4 	mov	w20, #0xffff000a            	// #-65526
/home/pwnz/devel/optee/optee_os/lib/libutee/tee_api_operations.c:243
    25bc:	7100171f 	cmp	w24, #0x5
    25c0:	54ffddc1 	b.ne	2178 <TEE_AllocateOperation+0x1fc>
/home/pwnz/devel/optee/optee_os/lib/libutee/tee_api_operations.c:66
    25c4:	52800019 	mov	w25, #0x0                   	// #0
/home/pwnz/devel/optee/optee_os/lib/libutee/tee_api_operations.c:65
    25c8:	5280001a 	mov	w26, #0x0                   	// #0
/home/pwnz/devel/optee/optee_os/lib/libutee/tee_api_operations.c:247
    25cc:	52800003 	mov	w3, #0x0                   	// #0
/home/pwnz/devel/optee/optee_os/lib/libutee/tee_api_operations.c:63
    25d0:	d2800036 	mov	x22, #0x1                   	// #1
/home/pwnz/devel/optee/optee_os/lib/libutee/tee_api_operations.c:246
    25d4:	52a0009c 	mov	w28, #0x40000               	// #262144
/home/pwnz/devel/optee/optee_os/lib/libutee/tee_api_operations.c:272
    25d8:	52800001 	mov	w1, #0x0                   	// #0
    25dc:	52800c00 	mov	w0, #0x60                  	// #96
    25e0:	b90067a3 	str	w3, [x29,#100]
/home/pwnz/devel/optee/optee_os/lib/libutee/tee_api_operations.c:274
    25e4:	129ffe74 	mov	w20, #0xffff000c            	// #-65524
/home/pwnz/devel/optee/optee_os/lib/libutee/tee_api_operations.c:272
    25e8:	97fffb1c 	bl	1258 <TEE_Malloc>
    25ec:	aa0003f5 	mov	x21, x0
/home/pwnz/devel/optee/optee_os/lib/libutee/tee_api_operations.c:273
    25f0:	b4ffdc40 	cbz	x0, 2178 <TEE_AllocateOperation+0x1fc>
/home/pwnz/devel/optee/optee_os/lib/libutee/tee_api_operations.c:280
    25f4:	b94067a3 	ldr	w3, [x29,#100]
/home/pwnz/devel/optee/optee_os/lib/libutee/tee_api_operations.c:277
    25f8:	531c7e7b 	lsr	w27, w19, #28
/home/pwnz/devel/optee/optee_os/lib/libutee/tee_api_operations.c:278
    25fc:	b9000818 	str	w24, [x0,#8]
/home/pwnz/devel/optee/optee_os/lib/libutee/tee_api_operations.c:283
    2600:	f10006df 	cmp	x22, #0x1
/home/pwnz/devel/optee/optee_os/lib/libutee/tee_api_operations.c:277
    2604:	29006c13 	stp	w19, w27, [x0]
/home/pwnz/devel/optee/optee_os/lib/libutee/tee_api_operations.c:279
    2608:	b9001017 	str	w23, [x0,#16]
/home/pwnz/devel/optee/optee_os/lib/libutee/tee_api_operations.c:281
    260c:	29037003 	stp	w3, w28, [x0,#24]
/home/pwnz/devel/optee/optee_os/lib/libutee/tee_api_operations.c:283
    2610:	540005a1 	b.ne	26c4 <TEE_AllocateOperation+0x748>
/home/pwnz/devel/optee/optee_os/lib/libutee/tee_api_operations.c:297
    2614:	390102b9 	strb	w25, [x21,#64]
/home/pwnz/devel/optee/optee_os/lib/libutee/tee_api_operations.c:299
    2618:	7100177f 	cmp	w27, #0x5
/home/pwnz/devel/optee/optee_os/lib/libutee/tee_api_operations.c:296
    261c:	f90026b6 	str	x22, [x21,#72]
/home/pwnz/devel/optee/optee_os/lib/libutee/tee_api_operations.c:299
    2620:	54000641 	b.ne	26e8 <TEE_AllocateOperation+0x76c>
/home/pwnz/devel/optee/optee_os/lib/libutee/tee_api_operations.c:323
    2624:	a9420ea2 	ldp	x2, x3, [x21,#32]
    2628:	910162a4 	add	x4, x21, #0x58
    262c:	2a1803e1 	mov	w1, w24
    2630:	2a1303e0 	mov	w0, w19
    2634:	94000826 	bl	46cc <utee_cryp_state_alloc>
/home/pwnz/devel/optee/optee_os/lib/libutee/tee_api_operations.c:325
    2638:	35000b00 	cbnz	w0, 2798 <TEE_AllocateOperation+0x81c>
/home/pwnz/devel/optee/optee_os/lib/libutee/tee_api_operations.c:333
    263c:	7100177f 	cmp	w27, #0x5
    2640:	54000141 	b.ne	2668 <TEE_AllocateOperation+0x6ec>
/home/pwnz/devel/optee/optee_os/lib/libutee/tee_api_operations.c:334
    2644:	b9405aa0 	ldr	w0, [x21,#88]
    2648:	d2800002 	mov	x2, #0x0                   	// #0
    264c:	d2800001 	mov	x1, #0x0                   	// #0
    2650:	94000828 	bl	46f0 <utee_hash_init>
    2654:	2a0003f4 	mov	w20, w0
/home/pwnz/devel/optee/optee_os/lib/libutee/tee_api_operations.c:335
    2658:	35000780 	cbnz	w0, 2748 <TEE_AllocateOperation+0x7cc>
/home/pwnz/devel/optee/optee_os/lib/libutee/tee_api_operations.c:338
    265c:	b9401ea0 	ldr	w0, [x21,#28]
    2660:	320f0000 	orr	w0, w0, #0x20000
    2664:	b9001ea0 	str	w0, [x21,#28]
/home/pwnz/devel/optee/optee_os/lib/libutee/tee_api_operations.c:343
    2668:	f94037a0 	ldr	x0, [x29,#104]
    266c:	52800014 	mov	w20, #0x0                   	// #0
/home/pwnz/devel/optee/optee_os/lib/libutee/tee_api_operations.c:341
    2670:	b90032bf 	str	wzr, [x21,#48]
/home/pwnz/devel/optee/optee_os/lib/libutee/tee_api_operations.c:343
    2674:	f9000015 	str	x21, [x0]
    2678:	17fffec0 	b	2178 <TEE_AllocateOperation+0x1fc>
/home/pwnz/devel/optee/optee_os/lib/libutee/tee_api_operations.c:65
    267c:	5280001a 	mov	w26, #0x0                   	// #0
/home/pwnz/devel/optee/optee_os/lib/libutee/tee_api_operations.c:150
    2680:	52800043 	mov	w3, #0x2                   	// #2
    2684:	17ffffd5 	b	25d8 <TEE_AllocateOperation+0x65c>
/home/pwnz/devel/optee/optee_os/lib/libutee/tee_api_operations.c:66
    2688:	52800019 	mov	w25, #0x0                   	// #0
/home/pwnz/devel/optee/optee_os/lib/libutee/tee_api_operations.c:177
    268c:	5280003a 	mov	w26, #0x1                   	// #1
/home/pwnz/devel/optee/optee_os/lib/libutee/tee_api_operations.c:178
    2690:	52800203 	mov	w3, #0x10                  	// #16
    2694:	17ffff8b 	b	24c0 <TEE_AllocateOperation+0x544>
    2698:	5280001c 	mov	w28, #0x0                   	// #0
/home/pwnz/devel/optee/optee_os/lib/libutee/tee_api_operations.c:66
    269c:	52800019 	mov	w25, #0x0                   	// #0
/home/pwnz/devel/optee/optee_os/lib/libutee/tee_api_operations.c:65
    26a0:	5280001a 	mov	w26, #0x0                   	// #0
/home/pwnz/devel/optee/optee_os/lib/libutee/tee_api_operations.c:193
    26a4:	52800043 	mov	w3, #0x2                   	// #2
/home/pwnz/devel/optee/optee_os/lib/libutee/tee_api_operations.c:63
    26a8:	d2800036 	mov	x22, #0x1                   	// #1
    26ac:	17ffffcb 	b	25d8 <TEE_AllocateOperation+0x65c>
    26b0:	5280001c 	mov	w28, #0x0                   	// #0
/home/pwnz/devel/optee/optee_os/lib/libutee/tee_api_operations.c:66
    26b4:	52800019 	mov	w25, #0x0                   	// #0
/home/pwnz/devel/optee/optee_os/lib/libutee/tee_api_operations.c:65
    26b8:	5280001a 	mov	w26, #0x0                   	// #0
/home/pwnz/devel/optee/optee_os/lib/libutee/tee_api_operations.c:204
    26bc:	52800443 	mov	w3, #0x22                  	// #34
    26c0:	17fffffa 	b	26a8 <TEE_AllocateOperation+0x72c>
/home/pwnz/devel/optee/optee_os/lib/libutee/tee_api_operations.c:287
    26c4:	7100033f 	cmp	w25, #0x0
    26c8:	d37ffac0 	lsl	x0, x22, #1
/home/pwnz/devel/optee/optee_os/lib/libutee/tee_api_operations.c:289
    26cc:	52b00001 	mov	w1, #0x80000000            	// #-2147483648
    26d0:	9a961000 	csel	x0, x0, x22, ne
    26d4:	97fffae1 	bl	1258 <TEE_Malloc>
    26d8:	f9001ea0 	str	x0, [x21,#56]
/home/pwnz/devel/optee/optee_os/lib/libutee/tee_api_operations.c:291
    26dc:	b5fff9c0 	cbnz	x0, 2614 <TEE_AllocateOperation+0x698>
/home/pwnz/devel/optee/optee_os/lib/libutee/tee_api_operations.c:292
    26e0:	129ffe74 	mov	w20, #0xffff000c            	// #-65524
    26e4:	14000019 	b	2748 <TEE_AllocateOperation+0x7cc>
/home/pwnz/devel/optee/optee_os/lib/libutee/tee_api_operations.c:301
    26e8:	7100035f 	cmp	w26, #0x0
    26ec:	52b40001 	mov	w1, #0xa0000000            	// #-1610612736
    26f0:	52b42000 	mov	w0, #0xa1000000            	// #-1593835520
    26f4:	1a811000 	csel	w0, w0, w1, ne
/home/pwnz/devel/optee/optee_os/lib/libutee/tee_api_operations.c:308
    26f8:	b9401ea1 	ldr	w1, [x21,#28]
/home/pwnz/devel/optee/optee_os/lib/libutee/tee_api_operations.c:301
    26fc:	12001e76 	and	w22, w19, #0xff
    2700:	2a160016 	orr	w22, w0, w22
/home/pwnz/devel/optee/optee_os/lib/libutee/tee_api_operations.c:309
    2704:	53017ee0 	lsr	w0, w23, #1
/home/pwnz/devel/optee/optee_os/lib/libutee/tee_api_operations.c:311
    2708:	910082a2 	add	x2, x21, #0x20
/home/pwnz/devel/optee/optee_os/lib/libutee/tee_api_operations.c:309
    270c:	f26d003f 	tst	x1, #0x80000
    2710:	1a971017 	csel	w23, w0, w23, ne
/home/pwnz/devel/optee/optee_os/lib/libutee/tee_api_operations.c:311
    2714:	2a1603e0 	mov	w0, w22
    2718:	2a1703e1 	mov	w1, w23
    271c:	97fffb9d 	bl	1590 <TEE_AllocateTransientObject>
    2720:	2a0003f4 	mov	w20, w0
/home/pwnz/devel/optee/optee_os/lib/libutee/tee_api_operations.c:312
    2724:	35000120 	cbnz	w0, 2748 <TEE_AllocateOperation+0x7cc>
/home/pwnz/devel/optee/optee_os/lib/libutee/tee_api_operations.c:315
    2728:	b9401ea0 	ldr	w0, [x21,#28]
    272c:	369ff7c0 	tbz	w0, #19, 2624 <TEE_AllocateOperation+0x6a8>
/home/pwnz/devel/optee/optee_os/lib/libutee/tee_api_operations.c:316
    2730:	9100a2a2 	add	x2, x21, #0x28
    2734:	2a1703e1 	mov	w1, w23
    2738:	2a1603e0 	mov	w0, w22
    273c:	97fffb95 	bl	1590 <TEE_AllocateTransientObject>
    2740:	2a0003f4 	mov	w20, w0
/home/pwnz/devel/optee/optee_os/lib/libutee/tee_api_operations.c:318
    2744:	34fff700 	cbz	w0, 2624 <TEE_AllocateOperation+0x6a8>
/home/pwnz/devel/optee/optee_os/lib/libutee/tee_api_operations.c:348
    2748:	529ffec0 	mov	w0, #0xfff6                	// #65526
    274c:	0b000280 	add	w0, w20, w0
/home/pwnz/devel/optee/optee_os/lib/libutee/tee_api_operations.c:347
    2750:	721e781f 	tst	w0, #0xfffffffd
    2754:	54000060 	b.eq	2760 <TEE_AllocateOperation+0x7e4>
/home/pwnz/devel/optee/optee_os/lib/libutee/tee_api_operations.c:349
    2758:	2a1403e0 	mov	w0, w20
    275c:	940006fa 	bl	4344 <TEE_Panic>
/home/pwnz/devel/optee/optee_os/lib/libutee/tee_api_operations.c:351
    2760:	b9405aa0 	ldr	w0, [x21,#88]
    2764:	34000080 	cbz	w0, 2774 <TEE_AllocateOperation+0x7f8>
/home/pwnz/devel/optee/optee_os/lib/libutee/tee_api_operations.c:352
    2768:	aa1503e0 	mov	x0, x21
    276c:	97fffdf3 	bl	1f38 <TEE_FreeOperation>
    2770:	17fffe82 	b	2178 <TEE_AllocateOperation+0x1fc>
/home/pwnz/devel/optee/optee_os/lib/libutee/tee_api_operations.c:354
    2774:	f9401ea0 	ldr	x0, [x21,#56]
    2778:	97fffabc 	bl	1268 <TEE_Free>
/home/pwnz/devel/optee/optee_os/lib/libutee/tee_api_operations.c:355
    277c:	f94012a0 	ldr	x0, [x21,#32]
    2780:	97fffb9d 	bl	15f4 <TEE_FreeTransientObject>
/home/pwnz/devel/optee/optee_os/lib/libutee/tee_api_operations.c:356
    2784:	f94016a0 	ldr	x0, [x21,#40]
    2788:	97fffb9b 	bl	15f4 <TEE_FreeTransientObject>
/home/pwnz/devel/optee/optee_os/lib/libutee/tee_api_operations.c:357
    278c:	aa1503e0 	mov	x0, x21
    2790:	97fffab6 	bl	1268 <TEE_Free>
    2794:	17fffe79 	b	2178 <TEE_AllocateOperation+0x1fc>
    2798:	2a0003f4 	mov	w20, w0
    279c:	17ffffeb 	b	2748 <TEE_AllocateOperation+0x7cc>

00000000000027a0 <TEE_GetOperationInfo>:
TEE_GetOperationInfo():
/home/pwnz/devel/optee/optee_os/lib/libutee/tee_api_operations.c:387
    27a0:	a9be7bfd 	stp	x29, x30, [sp,#-32]!
    27a4:	910003fd 	mov	x29, sp
    27a8:	a90153f3 	stp	x19, x20, [sp,#16]
    27ac:	aa0003f4 	mov	x20, x0
    27b0:	aa0103f3 	mov	x19, x1
/home/pwnz/devel/optee/optee_os/lib/libutee/tee_api_operations.c:388
    27b4:	b5000060 	cbnz	x0, 27c0 <TEE_GetOperationInfo+0x20>
/home/pwnz/devel/optee/optee_os/lib/libutee/tee_api_operations.c:389
    27b8:	52800000 	mov	w0, #0x0                   	// #0
    27bc:	940006e2 	bl	4344 <TEE_Panic>
/home/pwnz/devel/optee/optee_os/lib/libutee/tee_api_operations.c:391
    27c0:	b5000073 	cbnz	x19, 27cc <TEE_GetOperationInfo+0x2c>
/home/pwnz/devel/optee/optee_os/lib/libutee/tee_api_operations.c:392
    27c4:	52800000 	mov	w0, #0x0                   	// #0
    27c8:	940006df 	bl	4344 <TEE_Panic>
/home/pwnz/devel/optee/optee_os/lib/libutee/tee_api_operations.c:394
    27cc:	aa1403e1 	mov	x1, x20
    27d0:	d2800402 	mov	x2, #0x20                  	// #32
    27d4:	aa1303e0 	mov	x0, x19
    27d8:	9400104b 	bl	6904 <memcpy>
/home/pwnz/devel/optee/optee_os/lib/libutee/tee_api_operations.c:395
    27dc:	a94153f3 	ldp	x19, x20, [sp,#16]
    27e0:	a8c27bfd 	ldp	x29, x30, [sp],#32
    27e4:	d65f03c0 	ret

00000000000027e8 <TEE_GetOperationInfoMultiple>:
TEE_GetOperationInfoMultiple():
/home/pwnz/devel/optee/optee_os/lib/libutee/tee_api_operations.c:400
    27e8:	a9b97bfd 	stp	x29, x30, [sp,#-112]!
/home/pwnz/devel/optee/optee_os/lib/libutee/tee_api_operations.c:417
    27ec:	f100005f 	cmp	x2, #0x0
    27f0:	fa401824 	ccmp	x1, #0x0, #0x4, ne
/home/pwnz/devel/optee/optee_os/lib/libutee/tee_api_operations.c:400
    27f4:	910003fd 	mov	x29, sp
    27f8:	a9025bf5 	stp	x21, x22, [sp,#32]
/home/pwnz/devel/optee/optee_os/lib/libutee/tee_api_operations.c:417
    27fc:	fa401804 	ccmp	x0, #0x0, #0x4, ne
/home/pwnz/devel/optee/optee_os/lib/libutee/tee_api_operations.c:400
    2800:	a90153f3 	stp	x19, x20, [sp,#16]
/home/pwnz/devel/optee/optee_os/lib/libutee/tee_api_operations.c:418
    2804:	129fff35 	mov	w21, #0xffff0006            	// #-65530
/home/pwnz/devel/optee/optee_os/lib/libutee/tee_api_operations.c:417
    2808:	540004a0 	b.eq	289c <TEE_GetOperationInfoMultiple+0xb4>
/home/pwnz/devel/optee/optee_os/lib/libutee/tee_api_operations.c:422
    280c:	b9400056 	ldr	w22, [x2]
    2810:	d10082d6 	sub	x22, x22, #0x20
    2814:	d343fed6 	lsr	x22, x22, #3
/home/pwnz/devel/optee/optee_os/lib/libutee/tee_api_operations.c:425
    2818:	71000adf 	cmp	w22, #0x2
    281c:	54000408 	b.hi	289c <TEE_GetOperationInfoMultiple+0xb4>
    2820:	aa0003f4 	mov	x20, x0
/home/pwnz/devel/optee/optee_os/lib/libutee/tee_api_operations.c:431
    2824:	b9401c00 	ldr	w0, [x0,#28]
/home/pwnz/devel/optee/optee_os/lib/libutee/tee_api_operations.c:434
    2828:	129ffdf5 	mov	w21, #0xffff0010            	// #-65520
/home/pwnz/devel/optee/optee_os/lib/libutee/tee_api_operations.c:432
    282c:	f26d001f 	tst	x0, #0x80000
    2830:	7a421ac4 	ccmp	w22, #0x2, #0x4, ne
    2834:	54000341 	b.ne	289c <TEE_GetOperationInfoMultiple+0xb4>
/home/pwnz/devel/optee/optee_os/lib/libutee/tee_api_operations.c:439
    2838:	92407ec2 	and	x2, x22, #0xffffffff
    283c:	aa0103f3 	mov	x19, x1
    2840:	91008020 	add	x0, x1, #0x20
/home/pwnz/devel/optee/optee_os/lib/libutee/tee_api_operations.c:432
    2844:	d2800001 	mov	x1, #0x0                   	// #0
/home/pwnz/devel/optee/optee_os/lib/libutee/tee_api_operations.c:439 (discriminator 1)
    2848:	eb02003f 	cmp	x1, x2
    284c:	540003e3 	b.cc	28c8 <TEE_GetOperationInfoMultiple+0xe0>
/home/pwnz/devel/optee/optee_os/lib/libutee/tee_api_operations.c:444
    2850:	71000adf 	cmp	w22, #0x2
    2854:	54000421 	b.ne	28d8 <TEE_GetOperationInfoMultiple+0xf0>
/home/pwnz/devel/optee/optee_os/lib/libutee/tee_api_operations.c:445
    2858:	f9401680 	ldr	x0, [x20,#40]
    285c:	910143a1 	add	x1, x29, #0x50
    2860:	97fffaae 	bl	1318 <TEE_GetObjectInfo1>
    2864:	2a0003f5 	mov	w21, w0
/home/pwnz/devel/optee/optee_os/lib/libutee/tee_api_operations.c:447
    2868:	350001a0 	cbnz	w0, 289c <TEE_GetOperationInfoMultiple+0xb4>
/home/pwnz/devel/optee/optee_os/lib/libutee/tee_api_operations.c:450
    286c:	b94057a0 	ldr	w0, [x29,#84]
    2870:	b9002a60 	str	w0, [x19,#40]
/home/pwnz/devel/optee/optee_os/lib/libutee/tee_api_operations.c:452
    2874:	b9401a80 	ldr	w0, [x20,#24]
    2878:	b9002e60 	str	w0, [x19,#44]
/home/pwnz/devel/optee/optee_os/lib/libutee/tee_api_operations.c:457
    287c:	f9401280 	ldr	x0, [x20,#32]
    2880:	9100c3a1 	add	x1, x29, #0x30
    2884:	97fffaa5 	bl	1318 <TEE_GetObjectInfo1>
    2888:	2a0003f5 	mov	w21, w0
/home/pwnz/devel/optee/optee_os/lib/libutee/tee_api_operations.c:459
    288c:	34000480 	cbz	w0, 291c <TEE_GetOperationInfoMultiple+0x134>
/home/pwnz/devel/optee/optee_os/lib/libutee/tee_api_operations.c:460
    2890:	71000adf 	cmp	w22, #0x2
    2894:	54000041 	b.ne	289c <TEE_GetOperationInfoMultiple+0xb4>
/home/pwnz/devel/optee/optee_os/lib/libutee/tee_api_operations.c:464
    2898:	29057e7f 	stp	wzr, wzr, [x19,#40]
/home/pwnz/devel/optee/optee_os/lib/libutee/tee_api_operations.c:486
    289c:	710002bf 	cmp	w21, #0x0
    28a0:	129ffde0 	mov	w0, #0xffff0010            	// #-65520
    28a4:	7a4012a4 	ccmp	w21, w0, #0x4, ne
    28a8:	54000060 	b.eq	28b4 <TEE_GetOperationInfoMultiple+0xcc>
/home/pwnz/devel/optee/optee_os/lib/libutee/tee_api_operations.c:488
    28ac:	2a1503e0 	mov	w0, w21
    28b0:	940006a5 	bl	4344 <TEE_Panic>
/home/pwnz/devel/optee/optee_os/lib/libutee/tee_api_operations.c:491
    28b4:	2a1503e0 	mov	w0, w21
    28b8:	a94153f3 	ldp	x19, x20, [sp,#16]
    28bc:	a9425bf5 	ldp	x21, x22, [sp,#32]
    28c0:	a8c77bfd 	ldp	x29, x30, [sp],#112
    28c4:	d65f03c0 	ret
/home/pwnz/devel/optee/optee_os/lib/libutee/tee_api_operations.c:441 (discriminator 3)
    28c8:	29007c1f 	stp	wzr, wzr, [x0]
/home/pwnz/devel/optee/optee_os/lib/libutee/tee_api_operations.c:439 (discriminator 3)
    28cc:	91000421 	add	x1, x1, #0x1
    28d0:	91002000 	add	x0, x0, #0x8
    28d4:	17ffffdd 	b	2848 <TEE_GetOperationInfoMultiple+0x60>
/home/pwnz/devel/optee/optee_os/lib/libutee/tee_api_operations.c:456
    28d8:	35fffd36 	cbnz	w22, 287c <TEE_GetOperationInfoMultiple+0x94>
/home/pwnz/devel/optee/optee_os/lib/libutee/tee_api_operations.c:476
    28dc:	b9400280 	ldr	w0, [x20]
/home/pwnz/devel/optee/optee_os/lib/libutee/tee_api_operations.c:483
    28e0:	52800015 	mov	w21, #0x0                   	// #0
/home/pwnz/devel/optee/optee_os/lib/libutee/tee_api_operations.c:476
    28e4:	b9000260 	str	w0, [x19]
/home/pwnz/devel/optee/optee_os/lib/libutee/tee_api_operations.c:477
    28e8:	b9400680 	ldr	w0, [x20,#4]
    28ec:	b9000660 	str	w0, [x19,#4]
/home/pwnz/devel/optee/optee_os/lib/libutee/tee_api_operations.c:478
    28f0:	b9400a80 	ldr	w0, [x20,#8]
    28f4:	b9000a60 	str	w0, [x19,#8]
/home/pwnz/devel/optee/optee_os/lib/libutee/tee_api_operations.c:479
    28f8:	b9400e80 	ldr	w0, [x20,#12]
    28fc:	b9000e60 	str	w0, [x19,#12]
/home/pwnz/devel/optee/optee_os/lib/libutee/tee_api_operations.c:480
    2900:	b9401280 	ldr	w0, [x20,#16]
    2904:	b9001260 	str	w0, [x19,#16]
/home/pwnz/devel/optee/optee_os/lib/libutee/tee_api_operations.c:481
    2908:	b9401e80 	ldr	w0, [x20,#28]
    290c:	b9001660 	str	w0, [x19,#20]
/home/pwnz/devel/optee/optee_os/lib/libutee/tee_api_operations.c:482
    2910:	b9403280 	ldr	w0, [x20,#48]
/home/pwnz/devel/optee/optee_os/lib/libutee/tee_api_operations.c:483
    2914:	29035a60 	stp	w0, w22, [x19,#24]
    2918:	17ffffe1 	b	289c <TEE_GetOperationInfoMultiple+0xb4>
/home/pwnz/devel/optee/optee_os/lib/libutee/tee_api_operations.c:469
    291c:	b94037a0 	ldr	w0, [x29,#52]
    2920:	b9002260 	str	w0, [x19,#32]
/home/pwnz/devel/optee/optee_os/lib/libutee/tee_api_operations.c:471
    2924:	b9401a80 	ldr	w0, [x20,#24]
    2928:	b9002660 	str	w0, [x19,#36]
    292c:	17ffffec 	b	28dc <TEE_GetOperationInfoMultiple+0xf4>

0000000000002930 <TEE_ResetOperation>:
TEE_ResetOperation():
/home/pwnz/devel/optee/optee_os/lib/libutee/tee_api_operations.c:494
    2930:	a9be7bfd 	stp	x29, x30, [sp,#-32]!
    2934:	910003fd 	mov	x29, sp
    2938:	f9000bf3 	str	x19, [sp,#16]
    293c:	aa0003f3 	mov	x19, x0
/home/pwnz/devel/optee/optee_os/lib/libutee/tee_api_operations.c:497
    2940:	b5000060 	cbnz	x0, 294c <TEE_ResetOperation+0x1c>
/home/pwnz/devel/optee/optee_os/lib/libutee/tee_api_operations.c:498
    2944:	52800000 	mov	w0, #0x0                   	// #0
    2948:	9400067f 	bl	4344 <TEE_Panic>
/home/pwnz/devel/optee/optee_os/lib/libutee/tee_api_operations.c:500
    294c:	b9401e60 	ldr	w0, [x19,#28]
    2950:	37900060 	tbnz	w0, #18, 295c <TEE_ResetOperation+0x2c>
/home/pwnz/devel/optee/optee_os/lib/libutee/tee_api_operations.c:501
    2954:	52800000 	mov	w0, #0x0                   	// #0
    2958:	9400067b 	bl	4344 <TEE_Panic>
/home/pwnz/devel/optee/optee_os/lib/libutee/tee_api_operations.c:505
    295c:	b9400660 	ldr	w0, [x19,#4]
/home/pwnz/devel/optee/optee_os/lib/libutee/tee_api_operations.c:503
    2960:	b900327f 	str	wzr, [x19,#48]
/home/pwnz/devel/optee/optee_os/lib/libutee/tee_api_operations.c:505
    2964:	7100141f 	cmp	w0, #0x5
    2968:	540001a1 	b.ne	299c <TEE_ResetOperation+0x6c>
/home/pwnz/devel/optee/optee_os/lib/libutee/tee_api_operations.c:506
    296c:	b9405a60 	ldr	w0, [x19,#88]
    2970:	d2800002 	mov	x2, #0x0                   	// #0
    2974:	d2800001 	mov	x1, #0x0                   	// #0
    2978:	9400075e 	bl	46f0 <utee_hash_init>
/home/pwnz/devel/optee/optee_os/lib/libutee/tee_api_operations.c:507
    297c:	34000040 	cbz	w0, 2984 <TEE_ResetOperation+0x54>
/home/pwnz/devel/optee/optee_os/lib/libutee/tee_api_operations.c:508
    2980:	94000671 	bl	4344 <TEE_Panic>
/home/pwnz/devel/optee/optee_os/lib/libutee/tee_api_operations.c:509
    2984:	b9401e60 	ldr	w0, [x19,#28]
    2988:	320f0000 	orr	w0, w0, #0x20000
/home/pwnz/devel/optee/optee_os/lib/libutee/tee_api_operations.c:511
    298c:	b9001e60 	str	w0, [x19,#28]
/home/pwnz/devel/optee/optee_os/lib/libutee/tee_api_operations.c:513
    2990:	f9400bf3 	ldr	x19, [sp,#16]
    2994:	a8c27bfd 	ldp	x29, x30, [sp],#32
    2998:	d65f03c0 	ret
/home/pwnz/devel/optee/optee_os/lib/libutee/tee_api_operations.c:511
    299c:	b9401e60 	ldr	w0, [x19,#28]
    29a0:	120e7800 	and	w0, w0, #0xfffdffff
    29a4:	17fffffa 	b	298c <TEE_ResetOperation+0x5c>

00000000000029a8 <TEE_SetOperationKey>:
TEE_SetOperationKey():
/home/pwnz/devel/optee/optee_os/lib/libutee/tee_api_operations.c:517
    29a8:	a9bb7bfd 	stp	x29, x30, [sp,#-80]!
    29ac:	910003fd 	mov	x29, sp
    29b0:	a90153f3 	stp	x19, x20, [sp,#16]
    29b4:	a9025bf5 	stp	x21, x22, [sp,#32]
/home/pwnz/devel/optee/optee_os/lib/libutee/tee_api_operations.c:522
    29b8:	b50001e0 	cbnz	x0, 29f4 <TEE_SetOperationKey+0x4c>
/home/pwnz/devel/optee/optee_os/lib/libutee/tee_api_operations.c:535
    29bc:	129fff34 	mov	w20, #0xffff0006            	// #-65530
/home/pwnz/devel/optee/optee_os/lib/libutee/tee_api_operations.c:584
    29c0:	121e7a80 	and	w0, w20, #0xfffffffd
    29c4:	7100029f 	cmp	w20, #0x0
    29c8:	52800021 	mov	w1, #0x1                   	// #1
    29cc:	72be0201 	movk	w1, #0xf010, lsl #16
    29d0:	7a411004 	ccmp	w0, w1, #0x4, ne
    29d4:	54000060 	b.eq	29e0 <TEE_SetOperationKey+0x38>
/home/pwnz/devel/optee/optee_os/lib/libutee/tee_api_operations.c:586
    29d8:	2a1403e0 	mov	w0, w20
    29dc:	9400065a 	bl	4344 <TEE_Panic>
/home/pwnz/devel/optee/optee_os/lib/libutee/tee_api_operations.c:589
    29e0:	2a1403e0 	mov	w0, w20
    29e4:	a94153f3 	ldp	x19, x20, [sp,#16]
    29e8:	a9425bf5 	ldp	x21, x22, [sp,#32]
    29ec:	a8c57bfd 	ldp	x29, x30, [sp],#80
    29f0:	d65f03c0 	ret
    29f4:	aa0003f3 	mov	x19, x0
/home/pwnz/devel/optee/optee_os/lib/libutee/tee_api_operations.c:527
    29f8:	b9403000 	ldr	w0, [x0,#48]
    29fc:	35fffe00 	cbnz	w0, 29bc <TEE_SetOperationKey+0x14>
    2a00:	aa0103f5 	mov	x21, x1
/home/pwnz/devel/optee/optee_os/lib/libutee/tee_api_operations.c:532
    2a04:	b5000081 	cbnz	x1, 2a14 <TEE_SetOperationKey+0x6c>
/home/pwnz/devel/optee/optee_os/lib/libutee/tee_api_operations.c:534
    2a08:	f9401260 	ldr	x0, [x19,#32]
    2a0c:	97fffb0f 	bl	1648 <TEE_ResetTransientObject>
    2a10:	17ffffeb 	b	29bc <TEE_SetOperationKey+0x14>
/home/pwnz/devel/optee/optee_os/lib/libutee/tee_api_operations.c:540
    2a14:	b9400660 	ldr	w0, [x19,#4]
    2a18:	7100141f 	cmp	w0, #0x5
    2a1c:	54fffd00 	b.eq	29bc <TEE_SetOperationKey+0x14>
/home/pwnz/devel/optee/optee_os/lib/libutee/tee_api_operations.c:546
    2a20:	b9401e60 	ldr	w0, [x19,#28]
    2a24:	379ffcc0 	tbnz	w0, #19, 29bc <TEE_SetOperationKey+0x14>
/home/pwnz/devel/optee/optee_os/lib/libutee/tee_api_operations.c:552
    2a28:	9100c3a1 	add	x1, x29, #0x30
    2a2c:	aa1503e0 	mov	x0, x21
    2a30:	97fffa3a 	bl	1318 <TEE_GetObjectInfo1>
    2a34:	2a0003f4 	mov	w20, w0
/home/pwnz/devel/optee/optee_os/lib/libutee/tee_api_operations.c:554
    2a38:	35fffc40 	cbnz	w0, 29c0 <TEE_SetOperationKey+0x18>
/home/pwnz/devel/optee/optee_os/lib/libutee/tee_api_operations.c:558
    2a3c:	b9401a60 	ldr	w0, [x19,#24]
    2a40:	b9403fa1 	ldr	w1, [x29,#60]
    2a44:	6a21001f 	bics	wzr, w0, w1
    2a48:	54fffba1 	b.ne	29bc <TEE_SetOperationKey+0x14>
/home/pwnz/devel/optee/optee_os/lib/libutee/tee_api_operations.c:564
    2a4c:	b9401260 	ldr	w0, [x19,#16]
    2a50:	b94037b6 	ldr	w22, [x29,#52]
    2a54:	6b16001f 	cmp	w0, w22
    2a58:	54fffb23 	b.cc	29bc <TEE_SetOperationKey+0x14>
/home/pwnz/devel/optee/optee_os/lib/libutee/tee_api_operations.c:571
    2a5c:	f9401260 	ldr	x0, [x19,#32]
    2a60:	97fffafa 	bl	1648 <TEE_ResetTransientObject>
/home/pwnz/devel/optee/optee_os/lib/libutee/tee_api_operations.c:572
    2a64:	b9401e60 	ldr	w0, [x19,#28]
/home/pwnz/devel/optee/optee_os/lib/libutee/tee_api_operations.c:574
    2a68:	aa1503e1 	mov	x1, x21
/home/pwnz/devel/optee/optee_os/lib/libutee/tee_api_operations.c:572
    2a6c:	120d7800 	and	w0, w0, #0xfffbffff
    2a70:	b9001e60 	str	w0, [x19,#28]
/home/pwnz/devel/optee/optee_os/lib/libutee/tee_api_operations.c:574
    2a74:	f9401260 	ldr	x0, [x19,#32]
    2a78:	97fffb62 	bl	1800 <TEE_CopyObjectAttributes1>
    2a7c:	2a0003f4 	mov	w20, w0
/home/pwnz/devel/optee/optee_os/lib/libutee/tee_api_operations.c:575
    2a80:	35fffa00 	cbnz	w0, 29c0 <TEE_SetOperationKey+0x18>
/home/pwnz/devel/optee/optee_os/lib/libutee/tee_api_operations.c:578
    2a84:	b9401e60 	ldr	w0, [x19,#28]
/home/pwnz/devel/optee/optee_os/lib/libutee/tee_api_operations.c:580
    2a88:	b9001676 	str	w22, [x19,#20]
/home/pwnz/devel/optee/optee_os/lib/libutee/tee_api_operations.c:578
    2a8c:	320e0000 	orr	w0, w0, #0x40000
    2a90:	b9001e60 	str	w0, [x19,#28]
    2a94:	17ffffcb 	b	29c0 <TEE_SetOperationKey+0x18>

0000000000002a98 <TEE_SetOperationKey2>:
TEE_SetOperationKey2():
/home/pwnz/devel/optee/optee_os/lib/libutee/tee_api_operations.c:593
    2a98:	a9b87bfd 	stp	x29, x30, [sp,#-128]!
    2a9c:	910003fd 	mov	x29, sp
    2aa0:	a90153f3 	stp	x19, x20, [sp,#16]
    2aa4:	a9025bf5 	stp	x21, x22, [sp,#32]
    2aa8:	f9001bf7 	str	x23, [sp,#48]
/home/pwnz/devel/optee/optee_os/lib/libutee/tee_api_operations.c:599
    2aac:	b50001e0 	cbnz	x0, 2ae8 <TEE_SetOperationKey2+0x50>
/home/pwnz/devel/optee/optee_os/lib/libutee/tee_api_operations.c:620
    2ab0:	129fff34 	mov	w20, #0xffff0006            	// #-65530
/home/pwnz/devel/optee/optee_os/lib/libutee/tee_api_operations.c:707
    2ab4:	12be0200 	mov	w0, #0xfefffff             	// #267386879
/home/pwnz/devel/optee/optee_os/lib/libutee/tee_api_operations.c:706
    2ab8:	7100029f 	cmp	w20, #0x0
/home/pwnz/devel/optee/optee_os/lib/libutee/tee_api_operations.c:707
    2abc:	0b000280 	add	w0, w20, w0
/home/pwnz/devel/optee/optee_os/lib/libutee/tee_api_operations.c:706
    2ac0:	7a431800 	ccmp	w0, #0x3, #0x0, ne
    2ac4:	54000069 	b.ls	2ad0 <TEE_SetOperationKey2+0x38>
/home/pwnz/devel/optee/optee_os/lib/libutee/tee_api_operations.c:711
    2ac8:	2a1403e0 	mov	w0, w20
    2acc:	9400061e 	bl	4344 <TEE_Panic>
/home/pwnz/devel/optee/optee_os/lib/libutee/tee_api_operations.c:714
    2ad0:	2a1403e0 	mov	w0, w20
    2ad4:	f9401bf7 	ldr	x23, [sp,#48]
    2ad8:	a94153f3 	ldp	x19, x20, [sp,#16]
    2adc:	a9425bf5 	ldp	x21, x22, [sp,#32]
    2ae0:	a8c87bfd 	ldp	x29, x30, [sp],#128
    2ae4:	d65f03c0 	ret
    2ae8:	aa0003f3 	mov	x19, x0
/home/pwnz/devel/optee/optee_os/lib/libutee/tee_api_operations.c:604
    2aec:	b9403000 	ldr	w0, [x0,#48]
    2af0:	35fffe00 	cbnz	w0, 2ab0 <TEE_SetOperationKey2+0x18>
/home/pwnz/devel/optee/optee_os/lib/libutee/tee_api_operations.c:613
    2af4:	f100003f 	cmp	x1, #0x0
    2af8:	aa0103f6 	mov	x22, x1
    2afc:	aa0203f5 	mov	x21, x2
    2b00:	fa401844 	ccmp	x2, #0x0, #0x4, ne
    2b04:	54000121 	b.ne	2b28 <TEE_SetOperationKey2+0x90>
/home/pwnz/devel/optee/optee_os/lib/libutee/tee_api_operations.c:615
    2b08:	b4000081 	cbz	x1, 2b18 <TEE_SetOperationKey2+0x80>
/home/pwnz/devel/optee/optee_os/lib/libutee/tee_api_operations.c:619
    2b0c:	f9401660 	ldr	x0, [x19,#40]
    2b10:	97ffface 	bl	1648 <TEE_ResetTransientObject>
    2b14:	17ffffe7 	b	2ab0 <TEE_SetOperationKey2+0x18>
/home/pwnz/devel/optee/optee_os/lib/libutee/tee_api_operations.c:616
    2b18:	f9401260 	ldr	x0, [x19,#32]
    2b1c:	97fffacb 	bl	1648 <TEE_ResetTransientObject>
/home/pwnz/devel/optee/optee_os/lib/libutee/tee_api_operations.c:618
    2b20:	b5fffc95 	cbnz	x21, 2ab0 <TEE_SetOperationKey2+0x18>
    2b24:	17fffffa 	b	2b0c <TEE_SetOperationKey2+0x74>
/home/pwnz/devel/optee/optee_os/lib/libutee/tee_api_operations.c:625
    2b28:	b9400660 	ldr	w0, [x19,#4]
    2b2c:	7100141f 	cmp	w0, #0x5
    2b30:	54fffc00 	b.eq	2ab0 <TEE_SetOperationKey2+0x18>
/home/pwnz/devel/optee/optee_os/lib/libutee/tee_api_operations.c:631
    2b34:	b9401e60 	ldr	w0, [x19,#28]
    2b38:	369ffbc0 	tbz	w0, #19, 2ab0 <TEE_SetOperationKey2+0x18>
/home/pwnz/devel/optee/optee_os/lib/libutee/tee_api_operations.c:637
    2b3c:	910103a1 	add	x1, x29, #0x40
    2b40:	aa1603e0 	mov	x0, x22
    2b44:	97fff9f5 	bl	1318 <TEE_GetObjectInfo1>
    2b48:	2a0003f4 	mov	w20, w0
/home/pwnz/devel/optee/optee_os/lib/libutee/tee_api_operations.c:639
    2b4c:	35fffb40 	cbnz	w0, 2ab4 <TEE_SetOperationKey2+0x1c>
/home/pwnz/devel/optee/optee_os/lib/libutee/tee_api_operations.c:643
    2b50:	b9401a60 	ldr	w0, [x19,#24]
    2b54:	b9404fa1 	ldr	w1, [x29,#76]
    2b58:	6a21001f 	bics	wzr, w0, w1
    2b5c:	54fffaa1 	b.ne	2ab0 <TEE_SetOperationKey2+0x18>
/home/pwnz/devel/optee/optee_os/lib/libutee/tee_api_operations.c:649
    2b60:	910183a1 	add	x1, x29, #0x60
    2b64:	aa1503e0 	mov	x0, x21
    2b68:	97fff9ec 	bl	1318 <TEE_GetObjectInfo1>
    2b6c:	2a0003f4 	mov	w20, w0
/home/pwnz/devel/optee/optee_os/lib/libutee/tee_api_operations.c:651
    2b70:	34000100 	cbz	w0, 2b90 <TEE_SetOperationKey2+0xf8>
/home/pwnz/devel/optee/optee_os/lib/libutee/tee_api_operations.c:652
    2b74:	52800020 	mov	w0, #0x1                   	// #1
    2b78:	72be0200 	movk	w0, #0xf010, lsl #16
    2b7c:	6b00029f 	cmp	w20, w0
    2b80:	54fff9a1 	b.ne	2ab4 <TEE_SetOperationKey2+0x1c>
/home/pwnz/devel/optee/optee_os/lib/libutee/tee_api_operations.c:653
    2b84:	52800054 	mov	w20, #0x2                   	// #2
    2b88:	72be0214 	movk	w20, #0xf010, lsl #16
    2b8c:	17ffffca 	b	2ab4 <TEE_SetOperationKey2+0x1c>
/home/pwnz/devel/optee/optee_os/lib/libutee/tee_api_operations.c:658
    2b90:	b9401a60 	ldr	w0, [x19,#24]
    2b94:	b9406fa1 	ldr	w1, [x29,#108]
    2b98:	6a21001f 	bics	wzr, w0, w1
    2b9c:	54fff8a1 	b.ne	2ab0 <TEE_SetOperationKey2+0x18>
/home/pwnz/devel/optee/optee_os/lib/libutee/tee_api_operations.c:668
    2ba0:	b9400261 	ldr	w1, [x19]
    2ba4:	52808200 	mov	w0, #0x410                 	// #1040
    2ba8:	72a20000 	movk	w0, #0x1000, lsl #16
    2bac:	b94047b7 	ldr	w23, [x29,#68]
    2bb0:	6b00003f 	cmp	w1, w0
    2bb4:	54000081 	b.ne	2bc4 <TEE_SetOperationKey2+0x12c>
/home/pwnz/devel/optee/optee_os/lib/libutee/tee_api_operations.c:668 (discriminator 1)
    2bb8:	b94067a0 	ldr	w0, [x29,#100]
    2bbc:	6b0002ff 	cmp	w23, w0
    2bc0:	54fff781 	b.ne	2ab0 <TEE_SetOperationKey2+0x18>
/home/pwnz/devel/optee/optee_os/lib/libutee/tee_api_operations.c:675
    2bc4:	b9401260 	ldr	w0, [x19,#16]
    2bc8:	6b17001f 	cmp	w0, w23
    2bcc:	54fff723 	b.cc	2ab0 <TEE_SetOperationKey2+0x18>
/home/pwnz/devel/optee/optee_os/lib/libutee/tee_api_operations.c:686
    2bd0:	f9401260 	ldr	x0, [x19,#32]
    2bd4:	97fffa9d 	bl	1648 <TEE_ResetTransientObject>
/home/pwnz/devel/optee/optee_os/lib/libutee/tee_api_operations.c:687
    2bd8:	f9401660 	ldr	x0, [x19,#40]
    2bdc:	97fffa9b 	bl	1648 <TEE_ResetTransientObject>
/home/pwnz/devel/optee/optee_os/lib/libutee/tee_api_operations.c:688
    2be0:	b9401e60 	ldr	w0, [x19,#28]
/home/pwnz/devel/optee/optee_os/lib/libutee/tee_api_operations.c:690
    2be4:	aa1603e1 	mov	x1, x22
/home/pwnz/devel/optee/optee_os/lib/libutee/tee_api_operations.c:688
    2be8:	120d7800 	and	w0, w0, #0xfffbffff
    2bec:	b9001e60 	str	w0, [x19,#28]
/home/pwnz/devel/optee/optee_os/lib/libutee/tee_api_operations.c:690
    2bf0:	f9401260 	ldr	x0, [x19,#32]
    2bf4:	97fffb03 	bl	1800 <TEE_CopyObjectAttributes1>
    2bf8:	2a0003f4 	mov	w20, w0
/home/pwnz/devel/optee/optee_os/lib/libutee/tee_api_operations.c:691
    2bfc:	35fff5c0 	cbnz	w0, 2ab4 <TEE_SetOperationKey2+0x1c>
/home/pwnz/devel/optee/optee_os/lib/libutee/tee_api_operations.c:694
    2c00:	f9401660 	ldr	x0, [x19,#40]
    2c04:	aa1503e1 	mov	x1, x21
    2c08:	97fffafe 	bl	1800 <TEE_CopyObjectAttributes1>
    2c0c:	2a0003f4 	mov	w20, w0
/home/pwnz/devel/optee/optee_os/lib/libutee/tee_api_operations.c:695
    2c10:	35fffb20 	cbnz	w0, 2b74 <TEE_SetOperationKey2+0xdc>
/home/pwnz/devel/optee/optee_os/lib/libutee/tee_api_operations.c:701
    2c14:	b9401e60 	ldr	w0, [x19,#28]
/home/pwnz/devel/optee/optee_os/lib/libutee/tee_api_operations.c:703
    2c18:	b9001677 	str	w23, [x19,#20]
/home/pwnz/devel/optee/optee_os/lib/libutee/tee_api_operations.c:701
    2c1c:	320e0000 	orr	w0, w0, #0x40000
    2c20:	b9001e60 	str	w0, [x19,#28]
    2c24:	17ffffa4 	b	2ab4 <TEE_SetOperationKey2+0x1c>

0000000000002c28 <TEE_CopyOperation>:
TEE_CopyOperation():
/home/pwnz/devel/optee/optee_os/lib/libutee/tee_api_operations.c:717
    2c28:	a9be7bfd 	stp	x29, x30, [sp,#-32]!
/home/pwnz/devel/optee/optee_os/lib/libutee/tee_api_operations.c:720
    2c2c:	f100001f 	cmp	x0, #0x0
    2c30:	fa401824 	ccmp	x1, #0x0, #0x4, ne
/home/pwnz/devel/optee/optee_os/lib/libutee/tee_api_operations.c:717
    2c34:	910003fd 	mov	x29, sp
    2c38:	a90153f3 	stp	x19, x20, [sp,#16]
    2c3c:	aa0003f4 	mov	x20, x0
    2c40:	aa0103f3 	mov	x19, x1
/home/pwnz/devel/optee/optee_os/lib/libutee/tee_api_operations.c:720
    2c44:	54000061 	b.ne	2c50 <TEE_CopyOperation+0x28>
/home/pwnz/devel/optee/optee_os/lib/libutee/tee_api_operations.c:721
    2c48:	52800000 	mov	w0, #0x0                   	// #0
    2c4c:	940005be 	bl	4344 <TEE_Panic>
/home/pwnz/devel/optee/optee_os/lib/libutee/tee_api_operations.c:722
    2c50:	b9400260 	ldr	w0, [x19]
    2c54:	b9400281 	ldr	w1, [x20]
    2c58:	6b00003f 	cmp	w1, w0
    2c5c:	54000060 	b.eq	2c68 <TEE_CopyOperation+0x40>
/home/pwnz/devel/optee/optee_os/lib/libutee/tee_api_operations.c:723
    2c60:	52800000 	mov	w0, #0x0                   	// #0
    2c64:	940005b8 	bl	4344 <TEE_Panic>
/home/pwnz/devel/optee/optee_os/lib/libutee/tee_api_operations.c:724
    2c68:	b9400660 	ldr	w0, [x19,#4]
    2c6c:	7100141f 	cmp	w0, #0x5
    2c70:	540000e0 	b.eq	2c8c <TEE_CopyOperation+0x64>
/home/pwnz/devel/optee/optee_os/lib/libutee/tee_api_operations.c:728
    2c74:	b9401e60 	ldr	w0, [x19,#28]
    2c78:	369004e0 	tbz	w0, #18, 2d14 <TEE_CopyOperation+0xec>
/home/pwnz/devel/optee/optee_os/lib/libutee/tee_api_operations.c:730
    2c7c:	a9420a61 	ldp	x1, x2, [x19,#32]
/home/pwnz/devel/optee/optee_os/lib/libutee/tee_api_operations.c:733
    2c80:	37980500 	tbnz	w0, #19, 2d20 <TEE_CopyOperation+0xf8>
/home/pwnz/devel/optee/optee_os/lib/libutee/tee_api_operations.c:735
    2c84:	aa1403e0 	mov	x0, x20
    2c88:	97ffff48 	bl	29a8 <TEE_SetOperationKey>
/home/pwnz/devel/optee/optee_os/lib/libutee/tee_api_operations.c:740
    2c8c:	b9401e60 	ldr	w0, [x19,#28]
    2c90:	b9001e80 	str	w0, [x20,#28]
/home/pwnz/devel/optee/optee_os/lib/libutee/tee_api_operations.c:741
    2c94:	b9401660 	ldr	w0, [x19,#20]
    2c98:	b9001680 	str	w0, [x20,#20]
/home/pwnz/devel/optee/optee_os/lib/libutee/tee_api_operations.c:742
    2c9c:	b9403260 	ldr	w0, [x19,#48]
/home/pwnz/devel/optee/optee_os/lib/libutee/tee_api_operations.c:744
    2ca0:	39410281 	ldrb	w1, [x20,#64]
/home/pwnz/devel/optee/optee_os/lib/libutee/tee_api_operations.c:742
    2ca4:	b9003280 	str	w0, [x20,#48]
/home/pwnz/devel/optee/optee_os/lib/libutee/tee_api_operations.c:744
    2ca8:	39410260 	ldrb	w0, [x19,#64]
    2cac:	6b00003f 	cmp	w1, w0
    2cb0:	540000a1 	b.ne	2cc4 <TEE_CopyOperation+0x9c>
/home/pwnz/devel/optee/optee_os/lib/libutee/tee_api_operations.c:744 (discriminator 1)
    2cb4:	f9402660 	ldr	x0, [x19,#72]
    2cb8:	f9402681 	ldr	x1, [x20,#72]
    2cbc:	eb00003f 	cmp	x1, x0
    2cc0:	54000060 	b.eq	2ccc <TEE_CopyOperation+0xa4>
/home/pwnz/devel/optee/optee_os/lib/libutee/tee_api_operations.c:746
    2cc4:	52800000 	mov	w0, #0x0                   	// #0
    2cc8:	9400059f 	bl	4344 <TEE_Panic>
/home/pwnz/devel/optee/optee_os/lib/libutee/tee_api_operations.c:748
    2ccc:	f9401e81 	ldr	x1, [x20,#56]
    2cd0:	f9401e60 	ldr	x0, [x19,#56]
    2cd4:	b40002c1 	cbz	x1, 2d2c <TEE_CopyOperation+0x104>
/home/pwnz/devel/optee/optee_os/lib/libutee/tee_api_operations.c:749
    2cd8:	b5000040 	cbnz	x0, 2ce0 <TEE_CopyOperation+0xb8>
/home/pwnz/devel/optee/optee_os/lib/libutee/tee_api_operations.c:750
    2cdc:	9400059a 	bl	4344 <TEE_Panic>
/home/pwnz/devel/optee/optee_os/lib/libutee/tee_api_operations.c:752
    2ce0:	f9401e61 	ldr	x1, [x19,#56]
    2ce4:	f9402a62 	ldr	x2, [x19,#80]
    2ce8:	f9401e80 	ldr	x0, [x20,#56]
    2cec:	94000f06 	bl	6904 <memcpy>
/home/pwnz/devel/optee/optee_os/lib/libutee/tee_api_operations.c:753
    2cf0:	f9402a60 	ldr	x0, [x19,#80]
    2cf4:	f9002a80 	str	x0, [x20,#80]
/home/pwnz/devel/optee/optee_os/lib/libutee/tee_api_operations.c:758
    2cf8:	b9405a61 	ldr	w1, [x19,#88]
    2cfc:	b9405a80 	ldr	w0, [x20,#88]
    2d00:	94000676 	bl	46d8 <utee_cryp_state_copy>
/home/pwnz/devel/optee/optee_os/lib/libutee/tee_api_operations.c:759
    2d04:	340001c0 	cbz	w0, 2d3c <TEE_CopyOperation+0x114>
/home/pwnz/devel/optee/optee_os/lib/libutee/tee_api_operations.c:761
    2d08:	a94153f3 	ldp	x19, x20, [sp,#16]
    2d0c:	a8c27bfd 	ldp	x29, x30, [sp],#32
/home/pwnz/devel/optee/optee_os/lib/libutee/tee_api_operations.c:760
    2d10:	1400058d 	b	4344 <TEE_Panic>
/home/pwnz/devel/optee/optee_os/lib/libutee/tee_api_operations.c:726
    2d14:	d2800002 	mov	x2, #0x0                   	// #0
/home/pwnz/devel/optee/optee_os/lib/libutee/tee_api_operations.c:725
    2d18:	d2800001 	mov	x1, #0x0                   	// #0
    2d1c:	17ffffd9 	b	2c80 <TEE_CopyOperation+0x58>
/home/pwnz/devel/optee/optee_os/lib/libutee/tee_api_operations.c:737
    2d20:	aa1403e0 	mov	x0, x20
    2d24:	97ffff5d 	bl	2a98 <TEE_SetOperationKey2>
    2d28:	17ffffd9 	b	2c8c <TEE_CopyOperation+0x64>
/home/pwnz/devel/optee/optee_os/lib/libutee/tee_api_operations.c:754
    2d2c:	b4fffe60 	cbz	x0, 2cf8 <TEE_CopyOperation+0xd0>
/home/pwnz/devel/optee/optee_os/lib/libutee/tee_api_operations.c:755
    2d30:	52800000 	mov	w0, #0x0                   	// #0
    2d34:	94000584 	bl	4344 <TEE_Panic>
    2d38:	17fffff0 	b	2cf8 <TEE_CopyOperation+0xd0>
/home/pwnz/devel/optee/optee_os/lib/libutee/tee_api_operations.c:761
    2d3c:	a94153f3 	ldp	x19, x20, [sp,#16]
    2d40:	a8c27bfd 	ldp	x29, x30, [sp],#32
    2d44:	d65f03c0 	ret

0000000000002d48 <TEE_DigestUpdate>:
TEE_DigestUpdate():
/home/pwnz/devel/optee/optee_os/lib/libutee/tee_api_operations.c:783
    2d48:	a9bd7bfd 	stp	x29, x30, [sp,#-48]!
    2d4c:	910003fd 	mov	x29, sp
    2d50:	a90153f3 	stp	x19, x20, [sp,#16]
    2d54:	aa0003f3 	mov	x19, x0
    2d58:	f90013f5 	str	x21, [sp,#32]
    2d5c:	aa0103f4 	mov	x20, x1
    2d60:	2a0203f5 	mov	w21, w2
/home/pwnz/devel/optee/optee_os/lib/libutee/tee_api_operations.c:786
    2d64:	b4000080 	cbz	x0, 2d74 <TEE_DigestUpdate+0x2c>
/home/pwnz/devel/optee/optee_os/lib/libutee/tee_api_operations.c:786 (discriminator 1)
    2d68:	b9400400 	ldr	w0, [x0,#4]
    2d6c:	7100141f 	cmp	w0, #0x5
    2d70:	54000060 	b.eq	2d7c <TEE_DigestUpdate+0x34>
/home/pwnz/devel/optee/optee_os/lib/libutee/tee_api_operations.c:788
    2d74:	52800000 	mov	w0, #0x0                   	// #0
    2d78:	94000573 	bl	4344 <TEE_Panic>
/home/pwnz/devel/optee/optee_os/lib/libutee/tee_api_operations.c:790
    2d7c:	52800020 	mov	w0, #0x1                   	// #1
    2d80:	b9003260 	str	w0, [x19,#48]
/home/pwnz/devel/optee/optee_os/lib/libutee/tee_api_operations.c:792
    2d84:	b9405a60 	ldr	w0, [x19,#88]
    2d88:	2a1503e2 	mov	w2, w21
    2d8c:	aa1403e1 	mov	x1, x20
    2d90:	9400065b 	bl	46fc <utee_hash_update>
/home/pwnz/devel/optee/optee_os/lib/libutee/tee_api_operations.c:793
    2d94:	340000a0 	cbz	w0, 2da8 <TEE_DigestUpdate+0x60>
/home/pwnz/devel/optee/optee_os/lib/libutee/tee_api_operations.c:795
    2d98:	a94153f3 	ldp	x19, x20, [sp,#16]
    2d9c:	f94013f5 	ldr	x21, [sp,#32]
    2da0:	a8c37bfd 	ldp	x29, x30, [sp],#48
/home/pwnz/devel/optee/optee_os/lib/libutee/tee_api_operations.c:794
    2da4:	14000568 	b	4344 <TEE_Panic>
/home/pwnz/devel/optee/optee_os/lib/libutee/tee_api_operations.c:795
    2da8:	a94153f3 	ldp	x19, x20, [sp,#16]
    2dac:	f94013f5 	ldr	x21, [sp,#32]
    2db0:	a8c37bfd 	ldp	x29, x30, [sp],#48
    2db4:	d65f03c0 	ret

0000000000002db8 <TEE_DigestDoFinal>:
TEE_DigestDoFinal():
/home/pwnz/devel/optee/optee_os/lib/libutee/tee_api_operations.c:799
    2db8:	a9bc7bfd 	stp	x29, x30, [sp,#-64]!
    2dbc:	910003fd 	mov	x29, sp
    2dc0:	a90153f3 	stp	x19, x20, [sp,#16]
    2dc4:	aa0003f3 	mov	x19, x0
    2dc8:	f90013f5 	str	x21, [sp,#32]
/home/pwnz/devel/optee/optee_os/lib/libutee/tee_api_operations.c:808
    2dcc:	129fff34 	mov	w20, #0xffff0006            	// #-65530
/home/pwnz/devel/optee/optee_os/lib/libutee/tee_api_operations.c:803
    2dd0:	b4000400 	cbz	x0, 2e50 <TEE_DigestDoFinal+0x98>
/home/pwnz/devel/optee/optee_os/lib/libutee/tee_api_operations.c:804 (discriminator 1)
    2dd4:	f100003f 	cmp	x1, #0x0
/home/pwnz/devel/optee/optee_os/lib/libutee/tee_api_operations.c:803 (discriminator 1)
    2dd8:	7a400844 	ccmp	w2, #0x0, #0x4, eq
    2ddc:	540003a1 	b.ne	2e50 <TEE_DigestDoFinal+0x98>
/home/pwnz/devel/optee/optee_os/lib/libutee/tee_api_operations.c:805
    2de0:	f100007f 	cmp	x3, #0x0
    2de4:	aa0403f5 	mov	x21, x4
    2de8:	fa401884 	ccmp	x4, #0x0, #0x4, ne
    2dec:	54000320 	b.eq	2e50 <TEE_DigestDoFinal+0x98>
/home/pwnz/devel/optee/optee_os/lib/libutee/tee_api_operations.c:806
    2df0:	b9400660 	ldr	w0, [x19,#4]
    2df4:	7100141f 	cmp	w0, #0x5
    2df8:	540002c1 	b.ne	2e50 <TEE_DigestDoFinal+0x98>
/home/pwnz/devel/optee/optee_os/lib/libutee/tee_api_operations.c:812
    2dfc:	910103a4 	add	x4, x29, #0x40
    2e00:	b94002a0 	ldr	w0, [x21]
/home/pwnz/devel/optee/optee_os/lib/libutee/tee_api_operations.c:813
    2e04:	2a0203e2 	mov	w2, w2
/home/pwnz/devel/optee/optee_os/lib/libutee/tee_api_operations.c:812
    2e08:	f81f8c80 	str	x0, [x4,#-8]!
/home/pwnz/devel/optee/optee_os/lib/libutee/tee_api_operations.c:813
    2e0c:	b9405a60 	ldr	w0, [x19,#88]
    2e10:	9400063e 	bl	4708 <utee_hash_final>
    2e14:	2a0003f4 	mov	w20, w0
/home/pwnz/devel/optee/optee_os/lib/libutee/tee_api_operations.c:814
    2e18:	f9401fa0 	ldr	x0, [x29,#56]
    2e1c:	b90002a0 	str	w0, [x21]
/home/pwnz/devel/optee/optee_os/lib/libutee/tee_api_operations.c:815
    2e20:	35000194 	cbnz	w20, 2e50 <TEE_DigestDoFinal+0x98>
init_hash_operation():
/home/pwnz/devel/optee/optee_os/lib/libutee/tee_api_operations.c:774
    2e24:	b9405a60 	ldr	w0, [x19,#88]
    2e28:	d2800002 	mov	x2, #0x0                   	// #0
    2e2c:	d2800001 	mov	x1, #0x0                   	// #0
    2e30:	94000630 	bl	46f0 <utee_hash_init>
/home/pwnz/devel/optee/optee_os/lib/libutee/tee_api_operations.c:775
    2e34:	34000040 	cbz	w0, 2e3c <TEE_DigestDoFinal+0x84>
/home/pwnz/devel/optee/optee_os/lib/libutee/tee_api_operations.c:776
    2e38:	94000543 	bl	4344 <TEE_Panic>
/home/pwnz/devel/optee/optee_os/lib/libutee/tee_api_operations.c:778
    2e3c:	b9401e60 	ldr	w0, [x19,#28]
TEE_DigestDoFinal():
/home/pwnz/devel/optee/optee_os/lib/libutee/tee_api_operations.c:821
    2e40:	b900327f 	str	wzr, [x19,#48]
init_hash_operation():
/home/pwnz/devel/optee/optee_os/lib/libutee/tee_api_operations.c:778
    2e44:	320f0000 	orr	w0, w0, #0x20000
/home/pwnz/devel/optee/optee_os/lib/libutee/tee_api_operations.c:777
    2e48:	f9002a7f 	str	xzr, [x19,#80]
/home/pwnz/devel/optee/optee_os/lib/libutee/tee_api_operations.c:778
    2e4c:	b9001e60 	str	w0, [x19,#28]
TEE_DigestDoFinal():
/home/pwnz/devel/optee/optee_os/lib/libutee/tee_api_operations.c:824
    2e50:	7100029f 	cmp	w20, #0x0
    2e54:	129ffde0 	mov	w0, #0xffff0010            	// #-65520
    2e58:	7a401284 	ccmp	w20, w0, #0x4, ne
    2e5c:	54000060 	b.eq	2e68 <TEE_DigestDoFinal+0xb0>
/home/pwnz/devel/optee/optee_os/lib/libutee/tee_api_operations.c:826
    2e60:	2a1403e0 	mov	w0, w20
    2e64:	94000538 	bl	4344 <TEE_Panic>
/home/pwnz/devel/optee/optee_os/lib/libutee/tee_api_operations.c:829
    2e68:	2a1403e0 	mov	w0, w20
    2e6c:	f94013f5 	ldr	x21, [sp,#32]
    2e70:	a94153f3 	ldp	x19, x20, [sp,#16]
    2e74:	a8c47bfd 	ldp	x29, x30, [sp],#64
    2e78:	d65f03c0 	ret

0000000000002e7c <TEE_CipherInit>:
TEE_CipherInit():
/home/pwnz/devel/optee/optee_os/lib/libutee/tee_api_operations.c:835
    2e7c:	a9bd7bfd 	stp	x29, x30, [sp,#-48]!
    2e80:	910003fd 	mov	x29, sp
    2e84:	a90153f3 	stp	x19, x20, [sp,#16]
    2e88:	aa0003f3 	mov	x19, x0
    2e8c:	f90013f5 	str	x21, [sp,#32]
    2e90:	aa0103f4 	mov	x20, x1
    2e94:	2a0203f5 	mov	w21, w2
/home/pwnz/devel/optee/optee_os/lib/libutee/tee_api_operations.c:838
    2e98:	b5000060 	cbnz	x0, 2ea4 <TEE_CipherInit+0x28>
/home/pwnz/devel/optee/optee_os/lib/libutee/tee_api_operations.c:839
    2e9c:	52800000 	mov	w0, #0x0                   	// #0
    2ea0:	94000529 	bl	4344 <TEE_Panic>
/home/pwnz/devel/optee/optee_os/lib/libutee/tee_api_operations.c:841
    2ea4:	b9400660 	ldr	w0, [x19,#4]
    2ea8:	7100041f 	cmp	w0, #0x1
    2eac:	54000060 	b.eq	2eb8 <TEE_CipherInit+0x3c>
/home/pwnz/devel/optee/optee_os/lib/libutee/tee_api_operations.c:842
    2eb0:	52800000 	mov	w0, #0x0                   	// #0
    2eb4:	94000524 	bl	4344 <TEE_Panic>
/home/pwnz/devel/optee/optee_os/lib/libutee/tee_api_operations.c:844
    2eb8:	b9401e60 	ldr	w0, [x19,#28]
    2ebc:	36900060 	tbz	w0, #18, 2ec8 <TEE_CipherInit+0x4c>
/home/pwnz/devel/optee/optee_os/lib/libutee/tee_api_operations.c:844 (discriminator 1)
    2ec0:	f9401260 	ldr	x0, [x19,#32]
    2ec4:	b5000060 	cbnz	x0, 2ed0 <TEE_CipherInit+0x54>
