
8aaaf200-2450-11e4-abe2-0002a5d5c51b.elf:     file format elf64-littleaarch64
8aaaf200-2450-11e4-abe2-0002a5d5c51b.elf
architecture: aarch64, flags 0x00000150:
HAS_SYMS, DYNAMIC, D_PAGED
start address 0x0000000000000020

Program Header:
    LOAD off    0x0000000000010000 vaddr 0x0000000000000000 paddr 0x0000000000000000 align 2**16
         filesz 0x000000000000aa20 memsz 0x000000000000aa20 flags r-x
    LOAD off    0x000000000001aa20 vaddr 0x000000000000aa20 paddr 0x000000000000aa20 align 2**16
         filesz 0x0000000000001e1c memsz 0x0000000000001e1c flags r--
    LOAD off    0x000000000001d000 vaddr 0x000000000000d000 paddr 0x000000000000d000 align 2**16
         filesz 0x0000000000000124 memsz 0x000000000000ad48 flags rw-
 DYNAMIC off    0x000000000001c4f8 vaddr 0x000000000000c4f8 paddr 0x000000000000c4f8 align 2**3
         filesz 0x0000000000000100 memsz 0x0000000000000100 flags rw-

Dynamic Section:
  HASH                 0x000000000000c7f0
  STRTAB               0x000000000000c748
  SYMTAB               0x000000000000c5f8
  STRSZ                0x00000000000000a7
  SYMENT               0x0000000000000018
  DEBUG                0x0000000000000000
  RELA                 0x000000000000c138
  RELASZ               0x0000000000000348
  RELAENT              0x0000000000000018
  FLAGS_1              0x0000000008000000
  RELACOUNT            0x0000000000000018
private flags = 0:

Sections:
Idx Name          Size      VMA               LMA               File off  Algn
  0 .ta_head      00000020  0000000000000000  0000000000000000  00010000  2**3
                  CONTENTS, ALLOC, LOAD, DATA
  1 .text         0000aa00  0000000000000020  0000000000000020  00010020  2**2
                  CONTENTS, ALLOC, LOAD, READONLY, CODE
  2 .rodata       00001718  000000000000aa20  000000000000aa20  0001aa20  2**3
                  CONTENTS, ALLOC, LOAD, READONLY, DATA
  3 .dynsym       00000150  000000000000c5f8  000000000000c5f8  0001c5f8  2**3
                  CONTENTS, ALLOC, LOAD, READONLY, DATA
  4 .rela.dyn     00000240  000000000000c138  000000000000c138  0001c138  2**3
                  CONTENTS, ALLOC, LOAD, READONLY, DATA
  5 .got          00000078  000000000000c378  000000000000c378  0001c378  2**3
                  CONTENTS, ALLOC, LOAD, DATA
  6 .rela.got     00000108  000000000000c3f0  000000000000c3f0  0001c3f0  2**3
                  CONTENTS, ALLOC, LOAD, READONLY, DATA
  7 .dynamic      00000100  000000000000c4f8  000000000000c4f8  0001c4f8  2**3
                  CONTENTS, ALLOC, LOAD, DATA
  8 .dynstr       000000a7  000000000000c748  000000000000c748  0001c748  2**0
                  CONTENTS, ALLOC, LOAD, READONLY, DATA
  9 .hash         0000004c  000000000000c7f0  000000000000c7f0  0001c7f0  2**3
                  CONTENTS, ALLOC, LOAD, READONLY, DATA
 10 .data         00000124  000000000000d000  000000000000d000  0001d000  2**3
                  CONTENTS, ALLOC, LOAD, DATA
 11 .bss          0000ac20  000000000000d128  000000000000d128  0001d124  2**3
                  ALLOC
 12 .debug_info   000142dd  0000000000000000  0000000000000000  0001d124  2**0
                  CONTENTS, READONLY, DEBUGGING
 13 .debug_abbrev 00004625  0000000000000000  0000000000000000  00031401  2**0
                  CONTENTS, READONLY, DEBUGGING
 14 .debug_loc    0001cb70  0000000000000000  0000000000000000  00035a26  2**0
                  CONTENTS, READONLY, DEBUGGING
 15 .debug_aranges 000007d0  0000000000000000  0000000000000000  000525a0  2**4
                  CONTENTS, READONLY, DEBUGGING
 16 .debug_ranges 00000db0  0000000000000000  0000000000000000  00052d70  2**0
                  CONTENTS, READONLY, DEBUGGING
 17 .debug_macro  0000533d  0000000000000000  0000000000000000  00053b20  2**0
                  CONTENTS, READONLY, DEBUGGING
 18 .debug_line   000068e5  0000000000000000  0000000000000000  00058e5d  2**0
                  CONTENTS, READONLY, DEBUGGING
 19 .debug_str    00010aba  0000000000000000  0000000000000000  0005f742  2**0
                  CONTENTS, READONLY, DEBUGGING
 20 .comment      0000002d  0000000000000000  0000000000000000  000701fc  2**0
                  CONTENTS, READONLY
 21 .debug_frame  00003138  0000000000000000  0000000000000000  00070230  2**3
                  CONTENTS, READONLY, DEBUGGING
SYMBOL TABLE:
0000000000000000 l    d  .ta_head	0000000000000000 .ta_head
0000000000000020 l    d  .text	0000000000000000 .text
000000000000aa20 l    d  .rodata	0000000000000000 .rodata
000000000000c138 l    d  .rela.dyn	0000000000000000 .rela.dyn
000000000000c378 l    d  .got	0000000000000000 .got
000000000000c3f0 l    d  .rela.got	0000000000000000 .rela.got
000000000000c4f8 l    d  .dynamic	0000000000000000 .dynamic
000000000000c5f8 l    d  .dynsym	0000000000000000 .dynsym
000000000000c748 l    d  .dynstr	0000000000000000 .dynstr
000000000000c7f0 l    d  .hash	0000000000000000 .hash
000000000000d000 l    d  .data	0000000000000000 .data
000000000000d128 l    d  .bss	0000000000000000 .bss
0000000000000000 l    d  .debug_info	0000000000000000 .debug_info
0000000000000000 l    d  .debug_abbrev	0000000000000000 .debug_abbrev
0000000000000000 l    d  .debug_loc	0000000000000000 .debug_loc
0000000000000000 l    d  .debug_aranges	0000000000000000 .debug_aranges
0000000000000000 l    d  .debug_ranges	0000000000000000 .debug_ranges
0000000000000000 l    d  .debug_macro	0000000000000000 .debug_macro
0000000000000000 l    d  .debug_line	0000000000000000 .debug_line
0000000000000000 l    d  .debug_str	0000000000000000 .debug_str
0000000000000000 l    d  .comment	0000000000000000 .comment
0000000000000000 l    d  .debug_frame	0000000000000000 .debug_frame
0000000000000000 l    df *ABS*	0000000000000000 user_ta_header.c
000000000000aac0 l     O .rodata	0000000000000004 __compound_literal.5
000000000000aac4 l     O .rodata	0000000000000004 __compound_literal.4
000000000000aac8 l     O .rodata	0000000000000004 __compound_literal.3
000000000000aacc l     O .rodata	0000000000000001 __compound_literal.2
000000000000aacd l     O .rodata	0000000000000001 __compound_literal.1
000000000000aace l     O .rodata	0000000000000001 __compound_literal.0
0000000000000000 l    df *ABS*	0000000000000000 hello_world_ta.c
000000000000aa28 l     O .rodata	0000000000000014 __func__.3756
000000000000aa40 l     O .rodata	0000000000000015 __func__.3760
000000000000aa58 l     O .rodata	0000000000000019 __func__.3767
000000000000aa78 l     O .rodata	000000000000001a __func__.3771
000000000000aa98 l     O .rodata	000000000000000a __func__.3777
000000000000aaa8 l     O .rodata	000000000000000a __func__.3793
0000000000000000 l    df *ABS*	0000000000000000 tee_api_operations.c
0000000000002464 l     F .text	000000000000021c tee_buffer_update
0000000000000000 l    df *ABS*	0000000000000000 tee_api_panic.c
0000000000000000 l    df *ABS*	0000000000000000 user_ta_entry.c
0000000000002688 l     F .text	0000000000000028 ta_header_get_session
00000000000026b0 l     F .text	000000000000007c ta_header_remove_session
0000000000017d3c l     O .bss	0000000000000004 ta_ref_count
0000000000017d40 l     O .bss	0000000000000001 context_init
000000000000d0e0 l     O .data	0000000000000010 ta_sessions
0000000000000000 l    df *ABS*	0000000000000000 utee_syscalls_a64.o
0000000000000000 l    df *ABS*	0000000000000000 gprof_a64.o
0000000000000000 l    df *ABS*	0000000000000000 tee_api_arith.c
0000000000003340 l     F .text	0000000000000028 TEE_BigInt_Panic
0000000000015170 l     O .bss	0000000000001b40 mempool_u32
0000000000000000 l    df *ABS*	0000000000000000 tee_api.c
0000000000016cb0 l     O .bss	0000000000000008 tee_api_instance_data
0000000000000000 l    df *ABS*	0000000000000000 tee_api_objects.c
0000000000000000 l    df *ABS*	0000000000000000 utee_misc.c
0000000000000000 l    df *ABS*	0000000000000000 tee_user_mem.c
00000000000044d4 l     F .text	0000000000000058 print_buf
000000000000452c l     F .text	0000000000000104 check_elem
000000000000aae0 l     O .rodata	000000000000000b __func__.3881
000000000000aaf0 l     O .rodata	000000000000000f __func__.3876
000000000000ab00 l     O .rodata	0000000000000013 __func__.3901
000000000000ab18 l     O .rodata	0000000000000012 __func__.3918
000000000000ab30 l     O .rodata	0000000000000018 __func__.3926
000000000000ab48 l     O .rodata	0000000000000010 __func__.3886
000000000000ab58 l     O .rodata	0000000000000014 __func__.3931
0000000000016cb8 l     O .bss	0000000000000008 heap_level
0000000000016cc0 l     O .bss	0000000000000010 global_stats
0000000000000000 l    df *ABS*	0000000000000000 trace_ext.c
0000000000000000 l    df *ABS*	0000000000000000 assert.c
0000000000000000 l    df *ABS*	0000000000000000 bget_malloc.c
0000000000004c6c l     F .text	000000000000004c raw_malloc_return_hook
0000000000004cb8 l     F .text	0000000000000110 create_free_block
000000000000ab70 l     O .rodata	0000000000000012 __func__.3429
000000000000ab88 l     O .rodata	0000000000000005 __func__.3297
000000000000ab90 l     O .rodata	0000000000000006 __func__.3311
000000000000ab98 l     O .rodata	0000000000000005 __func__.3326
000000000000aba0 l     O .rodata	0000000000000006 __func__.3319
000000000000aba8 l     O .rodata	0000000000000006 __func__.3334
000000000000abb0 l     O .rodata	0000000000000007 __func__.3343
000000000000abb8 l     O .rodata	000000000000000d __func__.3462
000000000000abc8 l     O .rodata	000000000000000c __func__.3438
000000000000abd8 l     O .rodata	000000000000000b __func__.3448
000000000000abe8 l     O .rodata	0000000000000010 __func__.3514
000000000000abf8 l     O .rodata	000000000000000e __func__.3468
000000000000ac08 l     O .rodata	0000000000000013 __func__.3382
0000000000016cd0 l     O .bss	0000000000000008 totalloc
0000000000016cd8 l     O .bss	0000000000000038 mstats
0000000000016d10 l     O .bss	0000000000000008 numget
0000000000016d18 l     O .bss	0000000000000008 numrel
0000000000016d20 l     O .bss	0000000000000008 malloc_pool_len
0000000000016d28 l     O .bss	0000000000000008 malloc_pool
000000000000d100 l     O .data	0000000000000020 freelist
0000000000000000 l    df *ABS*	0000000000000000 snprintf.c
0000000000000000 l    df *ABS*	0000000000000000 memcmp.c
0000000000000000 l    df *ABS*	0000000000000000 memcpy.c
0000000000000000 l    df *ABS*	0000000000000000 memmove.c
0000000000000000 l    df *ABS*	0000000000000000 memset.c
0000000000000000 l    df *ABS*	0000000000000000 strlen.c
0000000000000000 l    df *ABS*	0000000000000000 snprintk.c
000000000000ac20 l     O .rodata	0000000000000011 HEXDIGITS
000000000000ac38 l     O .rodata	0000000000000011 hexdigits
0000000000000000 l    df *ABS*	0000000000000000 buf_compare_ct.c
0000000000000000 l    df *ABS*	0000000000000000 trace.c
000000000000ac50 l     O .rodata	000000000000002d lvl_strs.3168
0000000000000000 l    df *ABS*	0000000000000000 memchr.c
0000000000000000 l    df *ABS*	0000000000000000 mpa_misc.c
0000000000000000 l    df *ABS*	0000000000000000 mpa_montgomery.c
0000000000000000 l    df *ABS*	0000000000000000 mpa_primetest.c
000000000000b8e8 l     O .rodata	0000000000000010 const_miller_rabin_proof_limit
000000000000b8f8 l     O .rodata	000000000000001c proof_a.3549
000000000000b918 l     O .rodata	000000000000000c const_two
000000000000b928 l     O .rodata	00000000000000b8 const_small_prime_factors
0000000000000000 l    df *ABS*	0000000000000000 mpa_conv.c
0000000000000000 l    df *ABS*	0000000000000000 mpa_div.c
0000000000000000 l    df *ABS*	0000000000000000 mpa_gcd.c
0000000000008074 l     F .text	0000000000000080 __mpa_divby2
00000000000080f4 l     F .text	000000000000016c __mpa_gcd.part.0
0000000000008260 l     F .text	0000000000000380 __mpa_egcd
0000000000000000 l    df *ABS*	0000000000000000 mpa_mem_static.c
0000000000000000 l    df *ABS*	0000000000000000 mpa_mul.c
0000000000000000 l    df *ABS*	0000000000000000 mpa_random.c
0000000000016d30 l     O .bss	0000000000000008 get_rng_array
0000000000000000 l    df *ABS*	0000000000000000 mpa_shift.c
0000000000000000 l    df *ABS*	0000000000000000 mpa_addsub.c
0000000000000000 l    df *ABS*	0000000000000000 mpa_cmp.c
0000000000000000 l    df *ABS*	0000000000000000 mpa_expmod.c
0000000000000000 l    df *ABS*	0000000000000000 mpa_init.c
0000000000000000 l    df *ABS*	0000000000000000 mpa_io.c
000000000000a02c l     F .text	0000000000000044 __mpa_word_to_hexstr
000000000000a070 l     F .text	0000000000000114 __mpa_mpanum_to_hexstr
000000000000a184 l     F .text	000000000000003c __mpa_isspace
000000000000b9e8 l     O .rodata	000000000000000c __func__.3623
000000000000b9f8 l     O .rodata	000000000000000c __func__.3637
0000000000016d38 l     O .bss	0000000000001002 buf.3609
0000000000000000 l    df *ABS*	0000000000000000 mpa_modulus.c
0000000000000000 l    df *ABS*	0000000000000000 
000000000000c4f8 l     O *ABS*	0000000000000000 _DYNAMIC
000000000000c390 l     O *ABS*	0000000000000000 _GLOBAL_OFFSET_TABLE_
0000000000002c84 g     F .text	000000000000000c utee_se_channel_transmit
0000000000004bd8 g     F .text	000000000000003c putchar
0000000000009fa8 g     F .text	000000000000001c mpa_init_static
0000000000003c10 g     F .text	00000000000000c0 TEE_PopulateTransientObject
0000000000006dbc g     F .text	0000000000000054 mpa_copy
0000000000003280 g     F .text	000000000000001c TEE_BigIntConvertToFMM
0000000000003160 g     F .text	000000000000000c TEE_BigIntSquareMod
0000000000002de0 g     F .text	0000000000000004 TEE_BigIntShiftRight
00000000000076c4 g     F .text	0000000000000074 mpa_get_S32
0000000000006e40 g     F .text	0000000000000044 mpa_highest_bit_index
0000000000002b4c g     F .text	000000000000000c utee_storage_obj_create
0000000000002c60 g     F .text	000000000000000c utee_se_session_close
0000000000002954 g     F .text	000000000000000c utee_return
0000000000001084 g     F .text	0000000000000070 TEE_DigestUpdate
0000000000002c00 g     F .text	000000000000000c utee_se_service_get_readers
00000000000037d4 g     F .text	0000000000000008 TEE_Realloc
00000000000077b4 g     F .text	0000000000000148 __mpa_div_q_r_internal_word
00000000000048c0 g     F .text	00000000000000bc tee_user_mem_realloc
0000000000000dd4 g     F .text	0000000000000190 TEE_SetOperationKey2
00000000000097e0 g     F .text	000000000000019c mpa_sub
0000000000004acc g     F .text	00000000000000cc printf
000000000000477c g     F .text	0000000000000144 tee_user_mem_free
0000000000002960 g     F .text	000000000000000c utee_log
000000000000b9e0 g     O .rodata	0000000000000004 NR_STORED_PRIMES
0000000000003cd0 g     F .text	0000000000000054 TEE_InitRefAttribute
0000000000003504 g     F .text	00000000000000b4 TEE_InvokeTACommand
0000000000006ec8 g     F .text	000000000000001c mpa_can_hold
0000000000008a98 g     F .text	0000000000000098 __mpa_abs_mul_word
0000000000001ac8 g     F .text	00000000000001a8 TEE_AEEncryptFinal
0000000000007264 g     F .text	0000000000000088 mpa_montgomery_mul
00000000000069d0 g     F .text	0000000000000054 vsnprintk
0000000000006ee4 g     F .text	000000000000000c mpa_parity
0000000000005da4 g     F .text	000000000000004c memmove
0000000000009368 g     F .text	0000000000000020 __mpa_full_adder_ackum
0000000000005c84 g     F .text	0000000000000078 snprintf
0000000000002ddc g     F .text	0000000000000004 TEE_BigIntCmpS32
0000000000003d24 g     F .text	0000000000000050 TEE_InitValueAttribute
0000000000002e18 g     F .text	000000000000000c TEE_BigIntAdd
0000000000002984 g     F .text	000000000000000c utee_get_property_name_to_index
000000000000aad0 g     O .rodata	0000000000000008 ta_heap_size
000000000000b9e4 g     O .rodata	0000000000000004 MAX_TABULATED_PRIME
0000000000003bbc g     F .text	0000000000000054 TEE_ResetTransientObject
00000000000044b4 g     F .text	0000000000000004 utee_malloc
0000000000002a08 g     F .text	000000000000000c utee_cryp_state_alloc
0000000000002b10 g     F .text	000000000000000c utee_authenc_enc_final
0000000000008a78 g     F .text	0000000000000020 __mpa_mul_add_word_cum
00000000000011b8 g     F .text	00000000000000a4 TEE_CipherInit
0000000000002e30 g     F .text	0000000000000004 TEE_BigIntNeg
0000000000007f84 g     F .text	00000000000000f0 mpa_div
0000000000000020 g       .text	0000000000000000 __text_start
00000000000041e0 g     F .text	0000000000000050 TEE_StartPersistentObjectEnumerator
000000000000ac80 g     O .rodata	000000000000000c const_one
0000000000005c18 g     F .text	000000000000006c malloc_buffer_overlaps_heap
0000000000009ce8 g     F .text	0000000000000018 __mpa_abs_less_than
0000000000002ff0 g     F .text	00000000000000a8 TEE_BigIntSubMod
0000000000001820 g     F .text	00000000000000c4 TEE_AEInit
0000000000008dd8 g     F .text	0000000000000114 mpa_get_random
00000000000044d0 g     F .text	0000000000000004 get_rng_array
0000000000006b0c g     F .text	000000000000022c trace_printf
0000000000002be8 g     F .text	000000000000000c utee_se_service_open
0000000000005d84 g     F .text	0000000000000020 memcpy
0000000000002a20 g     F .text	000000000000000c utee_cryp_state_free
0000000000006d8c g     F .text	0000000000000030 mpa_wipe
000000000000329c g     F .text	0000000000000094 TEE_BigIntConvertFromFMM
0000000000002680 g     F .text	0000000000000008 TEE_Panic
0000000000002c78 g     F .text	000000000000000c utee_se_channel_get_select_resp
0000000000000f64 g     F .text	0000000000000120 TEE_CopyOperation
0000000000004b98 g     F .text	0000000000000040 puts
0000000000003330 g     F .text	0000000000000010 TEE_BigIntComputeFMM
0000000000007738 g     F .text	0000000000000014 mpa_set_word
0000000000005510 g     F .text	0000000000000038 malloc_get_stats
0000000000009054 g     F .text	0000000000000190 mpa_shift_left
0000000000002a68 g     F .text	000000000000000c utee_cipher_final
0000000000008c24 g     F .text	00000000000000e4 mpa_mul
00000000000037a4 g     F .text	0000000000000028 TEE_GetREETime
0000000000004134 g     F .text	000000000000005c TEE_AllocatePersistentObjectEnumerator
000000000000d000 g     O .data	00000000000000d8 ta_props
0000000000001e08 g     F .text	0000000000000144 TEE_AsymmetricEncrypt
0000000000005548 g     F .text	0000000000000038 malloc
0000000000002aa4 g     F .text	000000000000000c utee_cryp_obj_close
0000000000002c24 g     F .text	000000000000000c utee_se_reader_open_session
0000000000005cfc g     F .text	0000000000000054 vsnprintf
0000000000003e74 g     F .text	0000000000000084 TEE_GenerateKey
000000000000d120 g     O .data	0000000000000004 trace_level
00000000000044ac g     F .text	0000000000000008 utee_get_ta_exec_id
0000000000002dd8 g     F .text	0000000000000004 TEE_BigIntCmp
00000000000044b8 g     F .text	0000000000000004 utee_realloc
000000000000aab8 g     O .rodata	0000000000000008 ta_num_props
00000000000052d8 g     F .text	000000000000009c bgetr
0000000000002b04 g     F .text	000000000000000c utee_authenc_update_payload
000000000000125c g     F .text	000000000000015c TEE_CipherUpdate
0000000000002d74 g     F .text	0000000000000040 TEE_BigIntConvertToOctetString
0000000000000b24 g     F .text	0000000000000148 TEE_GetOperationInfoMultiple
0000000000002c9c g     F .text	000000000000000c utee_cache_operation
0000000000002aec g     F .text	000000000000000c utee_authenc_init
0000000000002de4 g     F .text	000000000000001c TEE_BigIntGetBit
000000000000aad8 g     O .rodata	0000000000000008 trace_ext_prefix
0000000000009388 g     F .text	00000000000000f4 __mpa_abs_add
0000000000004fa4 g     F .text	0000000000000088 bgetz
000000000000365c g     F .text	000000000000000c TEE_GetInstanceData
00000000000036a8 g     F .text	000000000000003c TEE_Wait
0000000000002bb8 g     F .text	000000000000000c utee_storage_obj_write
0000000000008a14 g     F .text	000000000000004c mpa_free_static_temp_var
00000000000072ec g     F .text	00000000000003ac mpa_is_prob_prime
0000000000002c90 g     F .text	000000000000000c utee_se_channel_close
0000000000008d08 g     F .text	00000000000000c4 mpa_mul_word
00000000000037e8 g     F .text	0000000000000008 TEE_CacheFlush
0000000000000054 g     F .text	0000000000000024 TA_DestroyEntryPoint
0000000000004c14 g     F .text	0000000000000044 _assert_log
0000000000002d38 g     F .text	0000000000000014 TEE_BigIntFMMContextSizeInU32
0000000000001760 g     F .text	00000000000000c0 TEE_MACCompareFinal
00000000000040c8 g     F .text	000000000000006c TEE_RenamePersistentObject
00000000000010f4 g     F .text	00000000000000c4 TEE_DigestDoFinal
00000000000078fc g     F .text	0000000000000688 __mpa_div_q_r
0000000000002cac g     F .text	000000000000002c _TEE_MathAPI_Init
0000000000002ba0 g     F .text	000000000000000c utee_storage_next_enum
000000000000d128 g     O .bss	0000000000008000 ta_heap
000000000000316c g     F .text	000000000000006c TEE_BigIntInvMod
00000000000000e4 g     F .text	0000000000000024 TA_CloseSessionEntryPoint
0000000000001f4c g     F .text	0000000000000148 TEE_AsymmetricDecrypt
0000000000003ef8 g     F .text	0000000000000098 TEE_OpenPersistentObject
000000000000296c g     F .text	000000000000000c __utee_panic
0000000000002a14 g     F .text	000000000000000c utee_cryp_state_copy
0000000000000108 g     F .text	0000000000000164 TA_InvokeCommandEntryPoint
000000000000a4e4 g     F .text	0000000000000110 mpa_set_oct_str
0000000000002c54 g     F .text	000000000000000c utee_se_session_open_channel
0000000000008f58 g     F .text	0000000000000098 __mpa_shift_words_left
0000000000002a98 g     F .text	000000000000000c utee_cryp_obj_alloc
00000000000029fc g     F .text	000000000000000c utee_set_ta_time
0000000000002a8c g     F .text	000000000000000c utee_cryp_obj_get_attr
0000000000003e20 g     F .text	0000000000000054 TEE_CopyObjectAttributes
0000000000006f74 g     F .text	0000000000000090 __mpa_montgomery_sub_ack
000000000000558c g     F .text	000000000000004c calloc
00000000000037cc g     F .text	0000000000000008 TEE_Malloc
00000000000029d8 g     F .text	000000000000000c utee_mask_cancellation
0000000000002ab0 g     F .text	000000000000000c utee_cryp_obj_reset
000000000000363c g     F .text	0000000000000014 TEE_CheckMemoryAccessRights
0000000000017d48 g       .bss	0000000000000000 __gprof_buf_end
000000000000997c g     F .text	000000000000002c mpa_neg
000000000000acb0 g     O .rodata	0000000000000c38 PRIME_TABLE
00000000000042b4 g     F .text	0000000000000068 TEE_ReadObjectData
0000000000003960 g     F .text	00000000000000ac TEE_GetObjectBufferAttribute
0000000000000078 g     F .text	000000000000006c TA_OpenSessionEntryPoint
00000000000085e0 g     F .text	0000000000000120 mpa_gcd
0000000000006e10 g     F .text	0000000000000030 mpa_abs
0000000000002b94 g     F .text	000000000000000c utee_storage_start_enum
0000000000000274 g     F .text	0000000000000044 TEE_FreeOperation
000000000000a1c8 g     F .text	0000000000000298 mpa_set_str
0000000000002b64 g     F .text	000000000000000c utee_storage_obj_rename
0000000000015128 g     O .bss	0000000000000004 ta_param_types
00000000000037f8 g     F .text	000000000000004c __utee_from_attr
000000000000325c g     F .text	0000000000000024 TEE_BigIntIsProbablePrime
0000000000004058 g     F .text	0000000000000044 TEE_CloseAndDeletePersistentObject1
0000000000008a04 g     F .text	0000000000000010 mpa_alloc_static_temp_var
0000000000008dcc g     F .text	000000000000000c mpa_set_random_generator
0000000000002978 g     F .text	000000000000000c utee_get_property
0000000000001c70 g     F .text	0000000000000198 TEE_AEDecryptFinal
0000000000002cd8 g     F .text	0000000000000004 TEE_BigIntInit
0000000000003668 g     F .text	0000000000000008 TEE_MemMove
0000000000002d4c g     F .text	0000000000000028 TEE_BigIntConvertFromOctetString
000000000000d0d8 g     O .data	0000000000000008 _ref__utee_mcount
0000000000001560 g     F .text	00000000000000a4 TEE_MACInit
0000000000002094 g     F .text	000000000000013c TEE_AsymmetricSignDigest
0000000000006d3c g     F .text	000000000000002c memchr
00000000000035e4 g     F .text	000000000000002c TEE_UnmaskCancellation
0000000000003844 g     F .text	0000000000000048 TEE_GetObjectInfo
000000000000a888 g     F .text	0000000000000084 mpa_mul_mod
0000000000002b58 g     F .text	000000000000000c utee_storage_obj_del
0000000000001978 g     F .text	0000000000000150 TEE_AEUpdate
0000000000002bd0 g     F .text	000000000000000c utee_storage_obj_seek
0000000000003b68 g     F .text	0000000000000054 TEE_FreeTransientObject
0000000000007128 g     F .text	000000000000013c mpa_compute_fmm_context
0000000000002a38 g     F .text	000000000000000c utee_hash_update
00000000000088ec g     F .text	0000000000000018 mpa_init_scratch_mem_sync
0000000000002ca8  w    F .text	0000000000000004 __utee_mcount
0000000000000adc g     F .text	0000000000000048 TEE_GetOperationInfo
0000000000002eb4 g     F .text	0000000000000094 TEE_BigIntMod
0000000000002c6c g     F .text	000000000000000c utee_se_channel_select_next
000000000000299c g     F .text	000000000000000c utee_close_ta_session
0000000000002e50 g     F .text	0000000000000064 TEE_BigIntDiv
00000000000054f8 g     F .text	0000000000000018 malloc_reset_stats
0000000000002a5c g     F .text	000000000000000c utee_cipher_update
00000000000038cc g     F .text	0000000000000044 TEE_RestrictObjectUsage1
0000000000002c48 g     F .text	000000000000000c utee_se_session_get_atr
00000000000055d8 g     F .text	0000000000000038 realloc
000000000000947c g     F .text	00000000000000cc __mpa_abs_add_ackum
0000000000002b34 g     F .text	000000000000000c utee_asymm_verify
0000000000002e34 g     F .text	000000000000000c TEE_BigIntMul
0000000000000c6c g     F .text	0000000000000078 TEE_ResetOperation
000000000000774c g     F .text	0000000000000018 mpa_get_word
0000000000003678 g     F .text	0000000000000008 TEE_MemFill
0000000000005d50 g     F .text	0000000000000034 memcmp
00000000000059a0 g     F .text	00000000000000f8 malloc_add_pool
0000000000001604 g     F .text	00000000000000a0 TEE_MACUpdate
0000000000006afc g     F .text	0000000000000010 trace_get_level
0000000000002ae0 g     F .text	000000000000000c utee_cryp_random_number_generate
0000000000003910 g     F .text	0000000000000050 TEE_RestrictObjectUsage
0000000000002d28 g     F .text	0000000000000010 TEE_BigIntFMMSizeInU32
0000000000002cdc g     F .text	0000000000000014 TEE_BigIntInitFMM
0000000000002b28 g     F .text	000000000000000c utee_asymm_operate
0000000000003adc g     F .text	0000000000000028 TEE_CloseObject
000000000000272c g     F .text	000000000000021c __utee_entry
000000000000aa20 g       .text	0000000000000000 __text_end
00000000000031d8 g     F .text	0000000000000078 TEE_BigIntRelativePrime
0000000000008eec g     F .text	000000000000006c mpa_get_random_digits
0000000000005374 g     F .text	00000000000000dc bpool
0000000000007698 g     F .text	000000000000002c mpa_set_S32
0000000000009fc4 g     F .text	0000000000000068 mpa_init_static_fmm_context
00000000000035b8 g     F .text	000000000000002c TEE_GetCancellationFlag
0000000000002bf4 g     F .text	000000000000000c utee_se_service_close
0000000000004630 g     F .text	000000000000014c tee_user_mem_alloc
000000000000d0f0 g     O .data	0000000000000010 user_mem_head
0000000000003764 g     F .text	0000000000000040 TEE_SetTAPersistentTime
00000000000099a8 g     F .text	000000000000013c mpa_add_word
0000000000002c0c g     F .text	000000000000000c utee_se_reader_get_prop
0000000000005df0 g     F .text	000000000000001c memset
00000000000036e4 g     F .text	0000000000000080 TEE_GetTAPersistentTime
0000000000006d38 g     F .text	0000000000000004 dhex_dump
0000000000003f90 g     F .text	00000000000000c8 TEE_CreatePersistentObject
0000000000003610 g     F .text	000000000000002c TEE_MaskCancellation
0000000000009344 g     F .text	0000000000000024 __mpa_full_sub
0000000000002bac g     F .text	000000000000000c utee_storage_obj_read
00000000000018e4 g     F .text	0000000000000094 TEE_AEUpdateAAD
0000000000004380 g     F .text	000000000000005c TEE_TruncateObjectData
00000000000044bc g     F .text	0000000000000010 utee_calloc
0000000000002abc g     F .text	000000000000000c utee_cryp_obj_populate
0000000000009d00 g     F .text	0000000000000068 mpa_cmp
000000000000a90c g     F .text	0000000000000114 mpa_inv_mod
0000000000009ae4 g     F .text	0000000000000138 mpa_sub_word
0000000000008a60 g     F .text	0000000000000018 __mpa_mul_add_word
000000000000964c g     F .text	0000000000000194 mpa_add
0000000000009dec g     F .text	00000000000001bc mpa_exp_mod
000000000000388c g     F .text	0000000000000040 TEE_GetObjectInfo1
0000000000008ff0 g     F .text	0000000000000064 __mpa_shift_words_right
0000000000006ad8 g     F .text	0000000000000024 trace_set_level
0000000000002c3c g     F .text	000000000000000c utee_se_session_is_closed
0000000000002a74 g     F .text	000000000000000c utee_cryp_obj_get_info
0000000000003a0c g     F .text	00000000000000d0 TEE_GetObjectValueAttribute
0000000000000ce4 g     F .text	00000000000000f0 TEE_SetOperationKey
0000000000002b70 g     F .text	000000000000000c utee_storage_alloc_enum
0000000000002b88 g     F .text	000000000000000c utee_storage_reset_enum
0000000000002bc4 g     F .text	000000000000000c utee_storage_obj_trunc
000000000000a768 g     F .text	0000000000000018 mpa_mod
0000000000009ccc g     F .text	000000000000001c __mpa_abs_greater_than
0000000000002db8 g     F .text	0000000000000020 TEE_BigIntConvertToS32
0000000000002e24 g     F .text	000000000000000c TEE_BigIntSub
00000000000029b4 g     F .text	000000000000000c utee_get_cancellation_flag
0000000000002a2c g     F .text	000000000000000c utee_hash_init
000000000000026c g     F .text	0000000000000008 tahead_get_trace_level
0000000000003368 g     F .text	0000000000000078 __utee_from_param
00000000000043dc g     F .text	00000000000000d0 TEE_SeekObjectData
000000000000ac90 g     O .rodata	0000000000000010 Const_1_LShift_Base
00000000000033e0 g     F .text	000000000000006c __utee_to_param
0000000000005610 g     F .text	0000000000000390 memalign
00000000000013b8 g     F .text	00000000000001a8 TEE_CipherDoFinal
0000000000002db4 g     F .text	0000000000000004 TEE_BigIntConvertFromS32
000000000000a804 g     F .text	0000000000000084 mpa_sub_mod
0000000000002a80 g     F .text	000000000000000c utee_cryp_obj_restrict_usage
0000000000005a98 g     F .text	0000000000000180 malloc_buffer_is_within_alloced
0000000000002ac8 g     F .text	000000000000000c utee_cryp_obj_copy
00000000000091e4 g     F .text	0000000000000144 mpa_shift_right
0000000000002cf0 g     F .text	0000000000000038 TEE_BigIntInitFMMContext
0000000000002ad4 g     F .text	000000000000000c utee_cryp_derive_key
0000000000007004 g     F .text	0000000000000124 __mpa_montgomery_mul
000000000000a5f4 g     F .text	0000000000000174 mpa_get_oct_str
0000000000009d68 g     F .text	0000000000000084 mpa_cmp_short
0000000000002b1c g     F .text	000000000000000c utee_authenc_dec_final
000000000000431c g     F .text	0000000000000064 TEE_WriteObjectData
00000000000041b8 g     F .text	0000000000000028 TEE_ResetPersistentObjectEnumerator
0000000000009c1c g     F .text	00000000000000b0 __mpa_abs_cmp
0000000000002e40 g     F .text	0000000000000010 TEE_BigIntSquare
0000000000000020 g     F .text	0000000000000034 TA_CreateEntryPoint
0000000000006a24 g     F .text	0000000000000074 snprintk
0000000000002e00 g     F .text	0000000000000018 TEE_BigIntGetBitCount
0000000000003098 g     F .text	00000000000000c8 TEE_BigIntMulMod
00000000000022fc g     F .text	0000000000000144 TEE_DeriveKey
0000000000015130 g     O .bss	0000000000000040 ta_params
0000000000008b30 g     F .text	00000000000000f4 __mpa_abs_mul
0000000000004dc8 g     F .text	00000000000001dc bget
0000000000003b04 g     F .text	0000000000000064 TEE_AllocateTransientObject
00000000000037dc g     F .text	0000000000000004 TEE_Free
0000000000002c18 g     F .text	000000000000000c utee_se_reader_get_name
00000000000037f0 g     F .text	0000000000000008 TEE_CacheInvalidate
0000000000002a50 g     F .text	000000000000000c utee_cipher_init
0000000000004c58 g     F .text	0000000000000014 _assert_break
0000000000002f48 g     F .text	00000000000000a8 TEE_BigIntAddMod
0000000000002b7c g     F .text	000000000000000c utee_storage_free_enum
0000000000002af8 g     F .text	000000000000000c utee_authenc_update_aad
0000000000006e84 g     F .text	0000000000000044 mpa_get_bit
00000000000002b8 g     F .text	0000000000000824 TEE_AllocateOperation
0000000000008904 g     F .text	0000000000000018 mpa_init_scratch_mem
0000000000002440 g     F .text	0000000000000024 TEE_GenerateRandom
0000000000003670 g     F .text	0000000000000008 TEE_MemCompare
0000000000005e28 g     F .text	0000000000000ba8 __vsnprintf
0000000000004190 g     F .text	0000000000000028 TEE_FreePersistentObjectEnumerator
000000000000344c g     F .text	0000000000000090 TEE_OpenTASession
0000000000002948 g     F .text	000000000000000c utee_panic
0000000000004a9c g     F .text	0000000000000028 trace_ext_puts
0000000000004a24 g     F .text	0000000000000078 tee_user_mem_garbage
0000000000004ac4 g     F .text	0000000000000008 trace_ext_get_thread_id
000000000000409c g     F .text	000000000000002c TEE_CloseAndDeletePersistentObject
00000000000037e0 g     F .text	0000000000000008 TEE_CacheClean
0000000000002990 g     F .text	000000000000000c utee_open_ta_session
0000000000006a98 g     F .text	0000000000000040 buf_compare_ct
0000000000007764 g     F .text	0000000000000050 __mpa_div_dword
0000000000006d68 g     F .text	0000000000000024 __mpa_set_unused_digits_to_zero
000000000000aca0 g     O .rodata	000000000000000c const_largest_deci_base
000000000000a1c0 g     F .text	0000000000000008 mpa_get_str_size
0000000000004988 g     F .text	000000000000009c tee_user_mem_check_heap
0000000000003d74 g     F .text	00000000000000ac TEE_CopyObjectAttributes1
0000000000002a44 g     F .text	000000000000000c utee_hash_final
0000000000005e0c g     F .text	000000000000001c strlen
0000000000003250 g     F .text	000000000000000c TEE_BigIntComputeExtendedGcd
0000000000008700 g     F .text	00000000000001ec mpa_extended_gcd
000000000000a780 g     F .text	0000000000000084 mpa_add_mod
0000000000002b40 g     F .text	000000000000000c utee_storage_obj_open
00000000000029a8 g     F .text	000000000000000c utee_invoke_ta_command
000000000000a460 g     F .text	0000000000000084 mpa_get_str
00000000000029e4 g     F .text	000000000000000c utee_wait
00000000000044cc g     F .text	0000000000000004 utee_free
000000000000497c g     F .text	000000000000000c tee_user_mem_mark_heap
0000000000003680 g     F .text	0000000000000028 TEE_GetSystemTime
0000000000000000 g     O .ta_head	0000000000000020 ta_head
000000000000502c g     F .text	00000000000002ac brel
000000000000891c g     F .text	00000000000000e8 mpa_alloc_static_temp_var_size
00000000000029f0 g     F .text	000000000000000c utee_get_time
0000000000006efc g     F .text	0000000000000078 __mpa_montgomery_mul_add
0000000000003650 g     F .text	000000000000000c TEE_SetInstanceData
00000000000029cc g     F .text	000000000000000c utee_unmask_cancellation
00000000000029c0 g     F .text	000000000000000c utee_check_access_rights
0000000000002c30 g     F .text	000000000000000c utee_se_reader_close_sessions
0000000000004230 g     F .text	0000000000000084 TEE_GetNextPersistentObject
0000000000002bdc g     F .text	000000000000000c utee_cryp_obj_generate_key
00000000000034dc g     F .text	0000000000000028 TEE_CloseTASession
0000000000006ef0 g     F .text	000000000000000c mpa_constant_one
00000000000021d0 g     F .text	000000000000012c TEE_AsymmetricVerifyDigest
0000000000009328 g     F .text	000000000000001c __mpa_full_adder
0000000000009548 g     F .text	0000000000000104 __mpa_abs_sub
0000000000017d48 g       .bss	0000000000000000 __gprof_buf_start
0000000000005580 g     F .text	000000000000000c free
0000000000005450 g     F .text	00000000000000a8 bstats
00000000000016a4 g     F .text	00000000000000bc TEE_MACComputeFinal



Disassembly of section .text:

0000000000000020 <TA_CreateEntryPoint>:
TA_CreateEntryPoint():
/home/asaf/devel/optee/optee_examples/crypto/ta/hello_world_ta.c:41
      20:	a9bf7bfd 	stp	x29, x30, [sp,#-16]!
/home/asaf/devel/optee/optee_examples/crypto/ta/hello_world_ta.c:42
      24:	52800023 	mov	w3, #0x1                   	// #1
      28:	52800062 	mov	w2, #0x3                   	// #3
      2c:	52800541 	mov	w1, #0x2a                  	// #42
/home/asaf/devel/optee/optee_examples/crypto/ta/hello_world_ta.c:41
      30:	910003fd 	mov	x29, sp
/home/asaf/devel/optee/optee_examples/crypto/ta/hello_world_ta.c:42
      34:	f0000044 	adrp	x4, b000 <PRIME_TABLE+0x350>
      38:	91284c84 	add	x4, x4, #0xa13
      3c:	d0000040 	adrp	x0, a000 <mpa_init_static_fmm_context+0x3c>
      40:	9128a000 	add	x0, x0, #0xa28
      44:	94001ab2 	bl	6b0c <trace_printf>
/home/asaf/devel/optee/optee_examples/crypto/ta/hello_world_ta.c:45
      48:	52800000 	mov	w0, #0x0                   	// #0
      4c:	a8c17bfd 	ldp	x29, x30, [sp],#16
      50:	d65f03c0 	ret

0000000000000054 <TA_DestroyEntryPoint>:
TA_DestroyEntryPoint():
/home/asaf/devel/optee/optee_examples/crypto/ta/hello_world_ta.c:53
      54:	d0000040 	adrp	x0, a000 <mpa_init_static_fmm_context+0x3c>
      58:	9128a000 	add	x0, x0, #0xa28
      5c:	f0000044 	adrp	x4, b000 <PRIME_TABLE+0x350>
      60:	52800023 	mov	w3, #0x1                   	// #1
      64:	91284c84 	add	x4, x4, #0xa13
      68:	52800062 	mov	w2, #0x3                   	// #3
      6c:	528006a1 	mov	w1, #0x35                  	// #53
      70:	91006000 	add	x0, x0, #0x18
      74:	14001aa6 	b	6b0c <trace_printf>

0000000000000078 <TA_OpenSessionEntryPoint>:
TA_OpenSessionEntryPoint():
/home/asaf/devel/optee/optee_examples/crypto/ta/hello_world_ta.c:65
      78:	a9be7bfd 	stp	x29, x30, [sp,#-32]!
/home/asaf/devel/optee/optee_examples/crypto/ta/hello_world_ta.c:71
      7c:	f0000044 	adrp	x4, b000 <PRIME_TABLE+0x350>
      80:	52800023 	mov	w3, #0x1                   	// #1
      84:	91284c84 	add	x4, x4, #0xa13
/home/asaf/devel/optee/optee_examples/crypto/ta/hello_world_ta.c:65
      88:	910003fd 	mov	x29, sp
      8c:	a90153f3 	stp	x19, x20, [sp,#16]
/home/asaf/devel/optee/optee_examples/crypto/ta/hello_world_ta.c:71
      90:	d0000053 	adrp	x19, a000 <mpa_init_static_fmm_context+0x3c>
      94:	9128a273 	add	x19, x19, #0xa28
/home/asaf/devel/optee/optee_examples/crypto/ta/hello_world_ta.c:65
      98:	2a0003f4 	mov	w20, w0
/home/asaf/devel/optee/optee_examples/crypto/ta/hello_world_ta.c:71
      9c:	9100c273 	add	x19, x19, #0x30
      a0:	52800062 	mov	w2, #0x3                   	// #3
      a4:	aa1303e0 	mov	x0, x19
      a8:	528008e1 	mov	w1, #0x47                  	// #71
      ac:	94001a98 	bl	6b0c <trace_printf>
/home/asaf/devel/optee/optee_examples/crypto/ta/hello_world_ta.c:74
      b0:	129fff20 	mov	w0, #0xffff0006            	// #-65530
/home/asaf/devel/optee/optee_examples/crypto/ta/hello_world_ta.c:73
      b4:	35000134 	cbnz	w20, d8 <TA_OpenSessionEntryPoint+0x60>
/home/asaf/devel/optee/optee_examples/crypto/ta/hello_world_ta.c:84
      b8:	aa1303e0 	mov	x0, x19
      bc:	f0000044 	adrp	x4, b000 <PRIME_TABLE+0x350>
      c0:	52800023 	mov	w3, #0x1                   	// #1
      c4:	91288c84 	add	x4, x4, #0xa23
      c8:	52800042 	mov	w2, #0x2                   	// #2
      cc:	52800a81 	mov	w1, #0x54                  	// #84
      d0:	94001a8f 	bl	6b0c <trace_printf>
/home/asaf/devel/optee/optee_examples/crypto/ta/hello_world_ta.c:87
      d4:	52800000 	mov	w0, #0x0                   	// #0
/home/asaf/devel/optee/optee_examples/crypto/ta/hello_world_ta.c:88
      d8:	a94153f3 	ldp	x19, x20, [sp,#16]
      dc:	a8c27bfd 	ldp	x29, x30, [sp],#32
      e0:	d65f03c0 	ret

00000000000000e4 <TA_CloseSessionEntryPoint>:
TA_CloseSessionEntryPoint():
/home/asaf/devel/optee/optee_examples/crypto/ta/hello_world_ta.c:97
      e4:	d0000040 	adrp	x0, a000 <mpa_init_static_fmm_context+0x3c>
      e8:	9128a000 	add	x0, x0, #0xa28
      ec:	f0000044 	adrp	x4, b000 <PRIME_TABLE+0x350>
      f0:	52800023 	mov	w3, #0x1                   	// #1
      f4:	9128c484 	add	x4, x4, #0xa31
      f8:	52800042 	mov	w2, #0x2                   	// #2
      fc:	52800c21 	mov	w1, #0x61                  	// #97
     100:	91014000 	add	x0, x0, #0x50
     104:	14001a82 	b	6b0c <trace_printf>

0000000000000108 <TA_InvokeCommandEntryPoint>:
TA_InvokeCommandEntryPoint():
/home/asaf/devel/optee/optee_examples/crypto/ta/hello_world_ta.c:169
     108:	7100103f 	cmp	w1, #0x4
     10c:	54000ac8 	b.hi	264 <TA_InvokeCommandEntryPoint+0x15c>
/home/asaf/devel/optee/optee_examples/crypto/ta/hello_world_ta.c:166
     110:	a9bc7bfd 	stp	x29, x30, [sp,#-64]!
/home/asaf/devel/optee/optee_examples/crypto/ta/hello_world_ta.c:169
     114:	d0000040 	adrp	x0, a000 <mpa_init_static_fmm_context+0x3c>
     118:	91288000 	add	x0, x0, #0xa20
/home/asaf/devel/optee/optee_examples/crypto/ta/hello_world_ta.c:166
     11c:	910003fd 	mov	x29, sp
     120:	a90153f3 	stp	x19, x20, [sp,#16]
     124:	aa0303f3 	mov	x19, x3
     128:	f90013f5 	str	x21, [sp,#32]
     12c:	2a0203f5 	mov	w21, w2
/home/asaf/devel/optee/optee_examples/crypto/ta/hello_world_ta.c:169
     130:	38614800 	ldrb	w0, [x0,w1,uxtw]
     134:	10000061 	adr	x1, 140 <TA_InvokeCommandEntryPoint+0x38>
     138:	8b208820 	add	x0, x1, w0, sxtb #2
     13c:	d61f0000 	br	x0
inc_value():
/home/asaf/devel/optee/optee_examples/crypto/ta/hello_world_ta.c:108
     140:	d0000054 	adrp	x20, a000 <mpa_init_static_fmm_context+0x3c>
     144:	9128a294 	add	x20, x20, #0xa28
     148:	9101c294 	add	x20, x20, #0x70
     14c:	f0000044 	adrp	x4, b000 <PRIME_TABLE+0x350>
     150:	52800023 	mov	w3, #0x1                   	// #1
     154:	91284c84 	add	x4, x4, #0xa13
     158:	52800062 	mov	w2, #0x3                   	// #3
     15c:	52800d81 	mov	w1, #0x6c                  	// #108
     160:	aa1403e0 	mov	x0, x20
     164:	94001a6a 	bl	6b0c <trace_printf>
/home/asaf/devel/optee/optee_examples/crypto/ta/hello_world_ta.c:110
     168:	71000ebf 	cmp	w21, #0x3
     16c:	540000c0 	b.eq	184 <TA_InvokeCommandEntryPoint+0x7c>
/home/asaf/devel/optee/optee_examples/crypto/ta/hello_world_ta.c:111
     170:	129fff20 	mov	w0, #0xffff0006            	// #-65530
TA_InvokeCommandEntryPoint():
/home/asaf/devel/optee/optee_examples/crypto/ta/hello_world_ta.c:181
     174:	a94153f3 	ldp	x19, x20, [sp,#16]
     178:	f94013f5 	ldr	x21, [sp,#32]
     17c:	a8c47bfd 	ldp	x29, x30, [sp],#64
     180:	d65f03c0 	ret
inc_value():
/home/asaf/devel/optee/optee_examples/crypto/ta/hello_world_ta.c:113
     184:	b9400265 	ldr	w5, [x19]
     188:	52800023 	mov	w3, #0x1                   	// #1
     18c:	52800042 	mov	w2, #0x2                   	// #2
     190:	52800e21 	mov	w1, #0x71                  	// #113
     194:	f0000044 	adrp	x4, b000 <PRIME_TABLE+0x350>
     198:	aa1403e0 	mov	x0, x20
     19c:	9128ec84 	add	x4, x4, #0xa3b
     1a0:	94001a5b 	bl	6b0c <trace_printf>
/home/asaf/devel/optee/optee_examples/crypto/ta/hello_world_ta.c:114
     1a4:	b9400265 	ldr	w5, [x19]
/home/asaf/devel/optee/optee_examples/crypto/ta/hello_world_ta.c:115
     1a8:	f0000044 	adrp	x4, b000 <PRIME_TABLE+0x350>
     1ac:	91294484 	add	x4, x4, #0xa51
     1b0:	52800023 	mov	w3, #0x1                   	// #1
/home/asaf/devel/optee/optee_examples/crypto/ta/hello_world_ta.c:114
     1b4:	110004a5 	add	w5, w5, #0x1
/home/asaf/devel/optee/optee_examples/crypto/ta/hello_world_ta.c:115
     1b8:	52800042 	mov	w2, #0x2                   	// #2
     1bc:	52800e61 	mov	w1, #0x73                  	// #115
/home/asaf/devel/optee/optee_examples/crypto/ta/hello_world_ta.c:114
     1c0:	b9000265 	str	w5, [x19]
dec_value():
/home/asaf/devel/optee/optee_examples/crypto/ta/hello_world_ta.c:154
     1c4:	aa1403e0 	mov	x0, x20
     1c8:	94001a51 	bl	6b0c <trace_printf>
TA_InvokeCommandEntryPoint():
/home/asaf/devel/optee/optee_examples/crypto/ta/hello_world_ta.c:177
     1cc:	52800000 	mov	w0, #0x0                   	// #0
     1d0:	17ffffe9 	b	174 <TA_InvokeCommandEntryPoint+0x6c>
dec_value():
/home/asaf/devel/optee/optee_examples/crypto/ta/hello_world_ta.c:147
     1d4:	d0000054 	adrp	x20, a000 <mpa_init_static_fmm_context+0x3c>
     1d8:	9128a294 	add	x20, x20, #0xa28
     1dc:	91020294 	add	x20, x20, #0x80
     1e0:	f0000044 	adrp	x4, b000 <PRIME_TABLE+0x350>
     1e4:	52800023 	mov	w3, #0x1                   	// #1
     1e8:	91284c84 	add	x4, x4, #0xa13
     1ec:	52800062 	mov	w2, #0x3                   	// #3
     1f0:	52801261 	mov	w1, #0x93                  	// #147
     1f4:	aa1403e0 	mov	x0, x20
     1f8:	94001a45 	bl	6b0c <trace_printf>
/home/asaf/devel/optee/optee_examples/crypto/ta/hello_world_ta.c:149
     1fc:	71000ebf 	cmp	w21, #0x3
     200:	54fffb81 	b.ne	170 <TA_InvokeCommandEntryPoint+0x68>
/home/asaf/devel/optee/optee_examples/crypto/ta/hello_world_ta.c:152
     204:	b9400265 	ldr	w5, [x19]
     208:	52800023 	mov	w3, #0x1                   	// #1
     20c:	52800042 	mov	w2, #0x2                   	// #2
     210:	52801301 	mov	w1, #0x98                  	// #152
     214:	f0000044 	adrp	x4, b000 <PRIME_TABLE+0x350>
     218:	aa1403e0 	mov	x0, x20
     21c:	9128ec84 	add	x4, x4, #0xa3b
     220:	94001a3b 	bl	6b0c <trace_printf>
/home/asaf/devel/optee/optee_examples/crypto/ta/hello_world_ta.c:153
     224:	b9400265 	ldr	w5, [x19]
/home/asaf/devel/optee/optee_examples/crypto/ta/hello_world_ta.c:154
     228:	f0000044 	adrp	x4, b000 <PRIME_TABLE+0x350>
     22c:	52800023 	mov	w3, #0x1                   	// #1
     230:	91299c84 	add	x4, x4, #0xa67
/home/asaf/devel/optee/optee_examples/crypto/ta/hello_world_ta.c:153
     234:	510004a5 	sub	w5, w5, #0x1
/home/asaf/devel/optee/optee_examples/crypto/ta/hello_world_ta.c:154
     238:	52800042 	mov	w2, #0x2                   	// #2
     23c:	52801341 	mov	w1, #0x9a                  	// #154
/home/asaf/devel/optee/optee_examples/crypto/ta/hello_world_ta.c:153
     240:	b9000265 	str	w5, [x19]
     244:	17ffffe0 	b	1c4 <TA_InvokeCommandEntryPoint+0xbc>
enc():
/home/asaf/devel/optee/optee_examples/crypto/ta/hello_world_ta.c:135
     248:	52802201 	mov	w1, #0x110                 	// #272
     24c:	52801003 	mov	w3, #0x80                  	// #128
     250:	52800002 	mov	w2, #0x0                   	// #0
     254:	72a20001 	movk	w1, #0x1000, lsl #16
     258:	9100e3a0 	add	x0, x29, #0x38
     25c:	94000017 	bl	2b8 <TEE_AllocateOperation>
     260:	17ffffdb 	b	1cc <TA_InvokeCommandEntryPoint+0xc4>
TA_InvokeCommandEntryPoint():
/home/asaf/devel/optee/optee_examples/crypto/ta/hello_world_ta.c:179
     264:	129fff20 	mov	w0, #0xffff0006            	// #-65530
/home/asaf/devel/optee/optee_examples/crypto/ta/hello_world_ta.c:181
     268:	d65f03c0 	ret

000000000000026c <tahead_get_trace_level>:
tahead_get_trace_level():
/home/asaf/devel/optee/optee_os/out/arm/export-ta_arm64/src/user_ta_header.c:133
     26c:	52800080 	mov	w0, #0x4                   	// #4
     270:	d65f03c0 	ret

0000000000000274 <TEE_FreeOperation>:
TEE_FreeOperation():
/home/asaf/devel/optee/optee_os/lib/libutee/tee_api_operations.c:366
     274:	a9be7bfd 	stp	x29, x30, [sp,#-32]!
     278:	910003fd 	mov	x29, sp
     27c:	f9000bf3 	str	x19, [sp,#16]
     280:	aa0003f3 	mov	x19, x0
/home/asaf/devel/optee/optee_os/lib/libutee/tee_api_operations.c:369
     284:	b5000060 	cbnz	x0, 290 <TEE_FreeOperation+0x1c>
/home/asaf/devel/optee/optee_os/lib/libutee/tee_api_operations.c:370
     288:	52800000 	mov	w0, #0x0                   	// #0
     28c:	940008fd 	bl	2680 <TEE_Panic>
/home/asaf/devel/optee/optee_os/lib/libutee/tee_api_operations.c:377
     290:	b9405a60 	ldr	w0, [x19,#88]
     294:	940009e3 	bl	2a20 <utee_cryp_state_free>
/home/asaf/devel/optee/optee_os/lib/libutee/tee_api_operations.c:378
     298:	34000040 	cbz	w0, 2a0 <TEE_FreeOperation+0x2c>
/home/asaf/devel/optee/optee_os/lib/libutee/tee_api_operations.c:379
     29c:	940008f9 	bl	2680 <TEE_Panic>
/home/asaf/devel/optee/optee_os/lib/libutee/tee_api_operations.c:381
     2a0:	f9401e60 	ldr	x0, [x19,#56]
     2a4:	94000d4e 	bl	37dc <TEE_Free>
/home/asaf/devel/optee/optee_os/lib/libutee/tee_api_operations.c:382
     2a8:	aa1303e0 	mov	x0, x19
/home/asaf/devel/optee/optee_os/lib/libutee/tee_api_operations.c:383
     2ac:	f9400bf3 	ldr	x19, [sp,#16]
     2b0:	a8c27bfd 	ldp	x29, x30, [sp],#32
/home/asaf/devel/optee/optee_os/lib/libutee/tee_api_operations.c:382
     2b4:	14000d4a 	b	37dc <TEE_Free>

00000000000002b8 <TEE_AllocateOperation>:
TEE_AllocateOperation():
/home/asaf/devel/optee/optee_os/lib/libutee/tee_api_operations.c:59
     2b8:	a9b97bfd 	stp	x29, x30, [sp,#-112]!
     2bc:	910003fd 	mov	x29, sp
     2c0:	a90363f7 	stp	x23, x24, [sp,#48]
     2c4:	2a0203f8 	mov	w24, w2
     2c8:	a90153f3 	stp	x19, x20, [sp,#16]
     2cc:	2a0303f7 	mov	w23, w3
     2d0:	a9025bf5 	stp	x21, x22, [sp,#32]
     2d4:	2a0103f3 	mov	w19, w1
     2d8:	a9046bf9 	stp	x25, x26, [sp,#64]
     2dc:	a90573fb 	stp	x27, x28, [sp,#80]
     2e0:	f90037a0 	str	x0, [x29,#104]
/home/asaf/devel/optee/optee_os/lib/libutee/tee_api_operations.c:68
     2e4:	b5000040 	cbnz	x0, 2ec <TEE_AllocateOperation+0x34>
/home/asaf/devel/optee/optee_os/lib/libutee/tee_api_operations.c:69
     2e8:	940008e6 	bl	2680 <TEE_Panic>
/home/asaf/devel/optee/optee_os/lib/libutee/tee_api_operations.c:71
     2ec:	52808200 	mov	w0, #0x410                 	// #1040
     2f0:	72a20000 	movk	w0, #0x1000, lsl #16
     2f4:	6b00027f 	cmp	w19, w0
     2f8:	54002cc0 	b.eq	890 <TEE_AllocateOperation+0x5d8>
/home/asaf/devel/optee/optee_os/lib/libutee/tee_api_operations.c:75
     2fc:	52882620 	mov	w0, #0x4131                	// #16689
     300:	72ae0000 	movk	w0, #0x7000, lsl #16
     304:	6b00027f 	cmp	w19, w0
     308:	54000e60 	b.eq	4d4 <TEE_AllocateOperation+0x21c>
     30c:	540007c8 	b.hi	404 <TEE_AllocateOperation+0x14c>
     310:	52842620 	mov	w0, #0x2131                	// #8497
     314:	72ae0000 	movk	w0, #0x7000, lsl #16
     318:	6b00027f 	cmp	w19, w0
     31c:	54000aa0 	b.eq	470 <TEE_AllocateOperation+0x1b8>
     320:	54000568 	b.hi	3cc <TEE_AllocateOperation+0x114>
     324:	52820820 	mov	w0, #0x1041                	// #4161
     328:	72ae0000 	movk	w0, #0x7000, lsl #16
     32c:	6b00027f 	cmp	w19, w0
     330:	54000840 	b.eq	438 <TEE_AllocateOperation+0x180>
     334:	11400400 	add	w0, w0, #0x1, lsl #12
     338:	6b00027f 	cmp	w19, w0
     33c:	54000d40 	b.eq	4e4 <TEE_AllocateOperation+0x22c>
/home/asaf/devel/optee/optee_os/lib/libutee/tee_api_operations.c:130
     340:	52842620 	mov	w0, #0x2131                	// #8497
     344:	72ae0000 	movk	w0, #0x7000, lsl #16
     348:	6b00027f 	cmp	w19, w0
     34c:	540009e0 	b.eq	488 <TEE_AllocateOperation+0x1d0>
     350:	54001ae8 	b.hi	6ac <TEE_AllocateOperation+0x3f4>
     354:	5280a260 	mov	w0, #0x513                 	// #1299
     358:	72a60000 	movk	w0, #0x3000, lsl #16
     35c:	6b00027f 	cmp	w19, w0
     360:	54001000 	b.eq	560 <TEE_AllocateOperation+0x2a8>
     364:	54001208 	b.hi	5a4 <TEE_AllocateOperation+0x2ec>
     368:	52806200 	mov	w0, #0x310                 	// #784
     36c:	72a20000 	movk	w0, #0x1000, lsl #16
     370:	6b00027f 	cmp	w19, w0
     374:	54002a80 	b.eq	8c4 <TEE_AllocateOperation+0x60c>
     378:	52802220 	mov	w0, #0x111                 	// #273
     37c:	54000dc8 	b.hi	534 <TEE_AllocateOperation+0x27c>
     380:	72a20000 	movk	w0, #0x1000, lsl #16
     384:	6b00027f 	cmp	w19, w0
     388:	54000c08 	b.hi	508 <TEE_AllocateOperation+0x250>
     38c:	52802200 	mov	w0, #0x110                 	// #272
     390:	72a20000 	movk	w0, #0x1000, lsl #16
     394:	6b00027f 	cmp	w19, w0
     398:	540029a2 	b.cs	8cc <TEE_AllocateOperation+0x614>
     39c:	52800200 	mov	w0, #0x10                  	// #16
     3a0:	72a20000 	movk	w0, #0x1000, lsl #16
     3a4:	6b00027f 	cmp	w19, w0
     3a8:	540000e3 	b.cc	3c4 <TEE_AllocateOperation+0x10c>
     3ac:	11000400 	add	w0, w0, #0x1
     3b0:	6b00027f 	cmp	w19, w0
     3b4:	540028c9 	b.ls	8cc <TEE_AllocateOperation+0x614>
     3b8:	11000800 	add	w0, w0, #0x2
     3bc:	6b00027f 	cmp	w19, w0
     3c0:	54002860 	b.eq	8cc <TEE_AllocateOperation+0x614>
/home/asaf/devel/optee/optee_os/lib/libutee/tee_api_operations.c:269
     3c4:	129ffeb4 	mov	w20, #0xffff000a            	// #-65526
     3c8:	1400003b 	b	4b4 <TEE_AllocateOperation+0x1fc>
/home/asaf/devel/optee/optee_os/lib/libutee/tee_api_operations.c:75
     3cc:	52862620 	mov	w0, #0x3131                	// #12593
     3d0:	72ae0000 	movk	w0, #0x7000, lsl #16
     3d4:	6b00027f 	cmp	w19, w0
     3d8:	54000680 	b.eq	4a8 <TEE_AllocateOperation+0x1f0>
     3dc:	113c4000 	add	w0, w0, #0xf10
     3e0:	6b00027f 	cmp	w19, w0
     3e4:	54000860 	b.eq	4f0 <TEE_AllocateOperation+0x238>
     3e8:	52860820 	mov	w0, #0x3041                	// #12353
     3ec:	72ae0000 	movk	w0, #0x7000, lsl #16
     3f0:	6b00027f 	cmp	w19, w0
     3f4:	54fffa61 	b.ne	340 <TEE_AllocateOperation+0x88>
/home/asaf/devel/optee/optee_os/lib/libutee/tee_api_operations.c:80
     3f8:	129ffeb4 	mov	w20, #0xffff000a            	// #-65526
/home/asaf/devel/optee/optee_os/lib/libutee/tee_api_operations.c:109
     3fc:	710402ff 	cmp	w23, #0x100
     400:	14000010 	b	440 <TEE_AllocateOperation+0x188>
/home/asaf/devel/optee/optee_os/lib/libutee/tee_api_operations.c:75
     404:	52840840 	mov	w0, #0x2042                	// #8258
     408:	72b00000 	movk	w0, #0x8000, lsl #16
     40c:	6b00027f 	cmp	w19, w0
     410:	540006a0 	b.eq	4e4 <TEE_AllocateOperation+0x22c>
     414:	540001a8 	b.hi	448 <TEE_AllocateOperation+0x190>
     418:	528a0820 	mov	w0, #0x5041                	// #20545
     41c:	72ae0000 	movk	w0, #0x7000, lsl #16
     420:	6b00027f 	cmp	w19, w0
     424:	540006c0 	b.eq	4fc <TEE_AllocateOperation+0x244>
     428:	52820840 	mov	w0, #0x1042                	// #4162
     42c:	72b00000 	movk	w0, #0x8000, lsl #16
     430:	6b00027f 	cmp	w19, w0
     434:	54fff861 	b.ne	340 <TEE_AllocateOperation+0x88>
/home/asaf/devel/optee/optee_os/lib/libutee/tee_api_operations.c:97
     438:	710302ff 	cmp	w23, #0xc0
/home/asaf/devel/optee/optee_os/lib/libutee/tee_api_operations.c:80
     43c:	129ffeb4 	mov	w20, #0xffff000a            	// #-65526
/home/asaf/devel/optee/optee_os/lib/libutee/tee_api_operations.c:121
     440:	540003a1 	b.ne	4b4 <TEE_AllocateOperation+0x1fc>
     444:	17ffffbf 	b	340 <TEE_AllocateOperation+0x88>
/home/asaf/devel/optee/optee_os/lib/libutee/tee_api_operations.c:75
     448:	52880840 	mov	w0, #0x4042                	// #16450
     44c:	72b00000 	movk	w0, #0x8000, lsl #16
     450:	6b00027f 	cmp	w19, w0
     454:	540004e0 	b.eq	4f0 <TEE_AllocateOperation+0x238>
     458:	11400400 	add	w0, w0, #0x1, lsl #12
     45c:	6b00027f 	cmp	w19, w0
     460:	540004e0 	b.eq	4fc <TEE_AllocateOperation+0x244>
     464:	52860840 	mov	w0, #0x3042                	// #12354
     468:	72b00000 	movk	w0, #0x8000, lsl #16
     46c:	17ffffe1 	b	3f0 <TEE_AllocateOperation+0x138>
/home/asaf/devel/optee/optee_os/lib/libutee/tee_api_operations.c:79
     470:	510802e0 	sub	w0, w23, #0x200
/home/asaf/devel/optee/optee_os/lib/libutee/tee_api_operations.c:80
     474:	129ffeb4 	mov	w20, #0xffff000a            	// #-65526
/home/asaf/devel/optee/optee_os/lib/libutee/tee_api_operations.c:79
     478:	7108001f 	cmp	w0, #0x200
     47c:	540001c8 	b.hi	4b4 <TEE_AllocateOperation+0x1fc>
/home/asaf/devel/optee/optee_os/lib/libutee/tee_api_operations.c:81
     480:	f24016ff 	tst	x23, #0x3f
     484:	54000181 	b.ne	4b4 <TEE_AllocateOperation+0x1fc>
/home/asaf/devel/optee/optee_os/lib/libutee/tee_api_operations.c:176
     488:	71000b1f 	cmp	w24, #0x2
     48c:	540029c0 	b.eq	9c4 <TEE_AllocateOperation+0x70c>
/home/asaf/devel/optee/optee_os/lib/libutee/tee_api_operations.c:179
     490:	71000f1f 	cmp	w24, #0x3
     494:	54fff981 	b.ne	3c4 <TEE_AllocateOperation+0x10c>
/home/asaf/devel/optee/optee_os/lib/libutee/tee_api_operations.c:66
     498:	52800019 	mov	w25, #0x0                   	// #0
/home/asaf/devel/optee/optee_os/lib/libutee/tee_api_operations.c:65
     49c:	5280001a 	mov	w26, #0x0                   	// #0
/home/asaf/devel/optee/optee_os/lib/libutee/tee_api_operations.c:180
     4a0:	52800403 	mov	w3, #0x20                  	// #32
     4a4:	140000d6 	b	7fc <TEE_AllocateOperation+0x544>
/home/asaf/devel/optee/optee_os/lib/libutee/tee_api_operations.c:86
     4a8:	712002ff 	cmp	w23, #0x800
/home/asaf/devel/optee/optee_os/lib/libutee/tee_api_operations.c:80
     4ac:	129ffeb4 	mov	w20, #0xffff000a            	// #-65526
/home/asaf/devel/optee/optee_os/lib/libutee/tee_api_operations.c:91
     4b0:	54fffec0 	b.eq	488 <TEE_AllocateOperation+0x1d0>
/home/asaf/devel/optee/optee_os/lib/libutee/tee_api_operations.c:363
     4b4:	2a1403e0 	mov	w0, w20
     4b8:	a94153f3 	ldp	x19, x20, [sp,#16]
     4bc:	a9425bf5 	ldp	x21, x22, [sp,#32]
     4c0:	a94363f7 	ldp	x23, x24, [sp,#48]
     4c4:	a9446bf9 	ldp	x25, x26, [sp,#64]
     4c8:	a94573fb 	ldp	x27, x28, [sp,#80]
     4cc:	a8c77bfd 	ldp	x29, x30, [sp],#112
     4d0:	d65f03c0 	ret
/home/asaf/devel/optee/optee_os/lib/libutee/tee_api_operations.c:91
     4d4:	12157ae0 	and	w0, w23, #0xfffffbff
/home/asaf/devel/optee/optee_os/lib/libutee/tee_api_operations.c:80
     4d8:	129ffeb4 	mov	w20, #0xffff000a            	// #-65526
/home/asaf/devel/optee/optee_os/lib/libutee/tee_api_operations.c:91
     4dc:	7120001f 	cmp	w0, #0x800
     4e0:	17fffff4 	b	4b0 <TEE_AllocateOperation+0x1f8>
/home/asaf/devel/optee/optee_os/lib/libutee/tee_api_operations.c:80
     4e4:	129ffeb4 	mov	w20, #0xffff000a            	// #-65526
/home/asaf/devel/optee/optee_os/lib/libutee/tee_api_operations.c:103
     4e8:	710382ff 	cmp	w23, #0xe0
     4ec:	17ffffd5 	b	440 <TEE_AllocateOperation+0x188>
/home/asaf/devel/optee/optee_os/lib/libutee/tee_api_operations.c:80
     4f0:	129ffeb4 	mov	w20, #0xffff000a            	// #-65526
/home/asaf/devel/optee/optee_os/lib/libutee/tee_api_operations.c:115
     4f4:	710602ff 	cmp	w23, #0x180
     4f8:	17ffffd2 	b	440 <TEE_AllocateOperation+0x188>
/home/asaf/devel/optee/optee_os/lib/libutee/tee_api_operations.c:80
     4fc:	129ffeb4 	mov	w20, #0xffff000a            	// #-65526
/home/asaf/devel/optee/optee_os/lib/libutee/tee_api_operations.c:121
     500:	710826ff 	cmp	w23, #0x209
     504:	17ffffcf 	b	440 <TEE_AllocateOperation+0x188>
/home/asaf/devel/optee/optee_os/lib/libutee/tee_api_operations.c:130
     508:	52802260 	mov	w0, #0x113                 	// #275
     50c:	72a20000 	movk	w0, #0x1000, lsl #16
     510:	6b00027f 	cmp	w19, w0
     514:	54001dc0 	b.eq	8cc <TEE_AllocateOperation+0x614>
     518:	1103f400 	add	w0, w0, #0xfd
     51c:	6b00027f 	cmp	w19, w0
     520:	54fff521 	b.ne	3c4 <TEE_AllocateOperation+0x10c>
     524:	5280001c 	mov	w28, #0x0                   	// #0
/home/asaf/devel/optee/optee_os/lib/libutee/tee_api_operations.c:66
     528:	52800019 	mov	w25, #0x0                   	// #0
/home/asaf/devel/optee/optee_os/lib/libutee/tee_api_operations.c:63
     52c:	d2800036 	mov	x22, #0x1                   	// #1
     530:	140000df 	b	8ac <TEE_AllocateOperation+0x5f4>
/home/asaf/devel/optee/optee_os/lib/libutee/tee_api_operations.c:130
     534:	72a60000 	movk	w0, #0x3000, lsl #16
     538:	6b00027f 	cmp	w19, w0
     53c:	54000208 	b.hi	57c <TEE_AllocateOperation+0x2c4>
     540:	52802200 	mov	w0, #0x110                 	// #272
     544:	72a60000 	movk	w0, #0x3000, lsl #16
     548:	6b00027f 	cmp	w19, w0
     54c:	540000a2 	b.cs	560 <TEE_AllocateOperation+0x2a8>
     550:	12a60000 	mov	w0, #0xcfffffff            	// #-805306369
     554:	0b000260 	add	w0, w19, w0
     558:	7100141f 	cmp	w0, #0x5
     55c:	54fff348 	b.hi	3c4 <TEE_AllocateOperation+0x10c>
/home/asaf/devel/optee/optee_os/lib/libutee/tee_api_operations.c:80
     560:	129ffeb4 	mov	w20, #0xffff000a            	// #-65526
/home/asaf/devel/optee/optee_os/lib/libutee/tee_api_operations.c:263
     564:	7100131f 	cmp	w24, #0x4
     568:	54fffa61 	b.ne	4b4 <TEE_AllocateOperation+0x1fc>
/home/asaf/devel/optee/optee_os/lib/libutee/tee_api_operations.c:66
     56c:	52800019 	mov	w25, #0x0                   	// #0
/home/asaf/devel/optee/optee_os/lib/libutee/tee_api_operations.c:65
     570:	5280001a 	mov	w26, #0x0                   	// #0
/home/asaf/devel/optee/optee_os/lib/libutee/tee_api_operations.c:265
     574:	52800103 	mov	w3, #0x8                   	// #8
     578:	140000a1 	b	7fc <TEE_AllocateOperation+0x544>
/home/asaf/devel/optee/optee_os/lib/libutee/tee_api_operations.c:130
     57c:	52802260 	mov	w0, #0x113                 	// #275
     580:	72a60000 	movk	w0, #0x3000, lsl #16
     584:	6b00027f 	cmp	w19, w0
     588:	54fffec0 	b.eq	560 <TEE_AllocateOperation+0x2a8>
     58c:	54fff1c3 	b.cc	3c4 <TEE_AllocateOperation+0x10c>
     590:	529f5e00 	mov	w0, #0xfaf0                	// #64240
     594:	72b9ffe0 	movk	w0, #0xcfff, lsl #16
     598:	0b000260 	add	w0, w19, w0
     59c:	7100041f 	cmp	w0, #0x1
     5a0:	17ffffef 	b	55c <TEE_AllocateOperation+0x2a4>
     5a4:	52804600 	mov	w0, #0x230                 	// #560
     5a8:	72ac0420 	movk	w0, #0x6021, lsl #16
     5ac:	6b00027f 	cmp	w19, w0
     5b0:	540003a0 	b.eq	624 <TEE_AllocateOperation+0x36c>
     5b4:	54000468 	b.hi	640 <TEE_AllocateOperation+0x388>
     5b8:	528000c0 	mov	w0, #0x6                   	// #6
     5bc:	72aa0000 	movk	w0, #0x5000, lsl #16
     5c0:	6b00027f 	cmp	w19, w0
     5c4:	54000228 	b.hi	608 <TEE_AllocateOperation+0x350>
     5c8:	52800020 	mov	w0, #0x1                   	// #1
     5cc:	72aa0000 	movk	w0, #0x5000, lsl #16
     5d0:	6b00027f 	cmp	w19, w0
     5d4:	54001902 	b.cs	8f4 <TEE_AllocateOperation+0x63c>
     5d8:	5280e200 	mov	w0, #0x710                 	// #1808
     5dc:	72a80000 	movk	w0, #0x4000, lsl #16
     5e0:	6b00027f 	cmp	w19, w0
     5e4:	54001740 	b.eq	8cc <TEE_AllocateOperation+0x614>
     5e8:	11040000 	add	w0, w0, #0x100
     5ec:	6b00027f 	cmp	w19, w0
     5f0:	54fff9a0 	b.eq	524 <TEE_AllocateOperation+0x26c>
     5f4:	5280c200 	mov	w0, #0x610                 	// #1552
     5f8:	72a60000 	movk	w0, #0x3000, lsl #16
     5fc:	6b00027f 	cmp	w19, w0
     600:	54ffee21 	b.ne	3c4 <TEE_AllocateOperation+0x10c>
     604:	17ffffd7 	b	560 <TEE_AllocateOperation+0x2a8>
     608:	52800600 	mov	w0, #0x30                  	// #48
     60c:	72ac0000 	movk	w0, #0x6000, lsl #16
     610:	6b00027f 	cmp	w19, w0
     614:	54001620 	b.eq	8d8 <TEE_AllocateOperation+0x620>
     618:	11040000 	add	w0, w0, #0x100
     61c:	6b00027f 	cmp	w19, w0
     620:	54ffed21 	b.ne	3c4 <TEE_AllocateOperation+0x10c>
/home/asaf/devel/optee/optee_os/lib/libutee/tee_api_operations.c:192
     624:	34001d98 	cbz	w24, 9d4 <TEE_AllocateOperation+0x71c>
/home/asaf/devel/optee/optee_os/lib/libutee/tee_api_operations.c:194
     628:	7100071f 	cmp	w24, #0x1
     62c:	54ffecc1 	b.ne	3c4 <TEE_AllocateOperation+0x10c>
/home/asaf/devel/optee/optee_os/lib/libutee/tee_api_operations.c:66
     630:	52800019 	mov	w25, #0x0                   	// #0
/home/asaf/devel/optee/optee_os/lib/libutee/tee_api_operations.c:195
     634:	2a1803fa 	mov	w26, w24
/home/asaf/devel/optee/optee_os/lib/libutee/tee_api_operations.c:196
     638:	52800083 	mov	w3, #0x4                   	// #4
     63c:	14000070 	b	7fc <TEE_AllocateOperation+0x544>
/home/asaf/devel/optee/optee_os/lib/libutee/tee_api_operations.c:130
     640:	52804600 	mov	w0, #0x230                 	// #560
     644:	72ac0c20 	movk	w0, #0x6061, lsl #16
     648:	6b00027f 	cmp	w19, w0
     64c:	54fffec0 	b.eq	624 <TEE_AllocateOperation+0x36c>
     650:	54000168 	b.hi	67c <TEE_AllocateOperation+0x3c4>
     654:	52804600 	mov	w0, #0x230                 	// #560
     658:	72ac0820 	movk	w0, #0x6041, lsl #16
     65c:	6b00027f 	cmp	w19, w0
     660:	54fffe20 	b.eq	624 <TEE_AllocateOperation+0x36c>
     664:	11440000 	add	w0, w0, #0x100, lsl #12
     668:	6b00027f 	cmp	w19, w0
     66c:	54fffdc0 	b.eq	624 <TEE_AllocateOperation+0x36c>
     670:	52804600 	mov	w0, #0x230                 	// #560
     674:	72ac0620 	movk	w0, #0x6031, lsl #16
     678:	17ffffe9 	b	61c <TEE_AllocateOperation+0x364>
     67c:	52830600 	mov	w0, #0x1830                	// #6192
     680:	72ae0000 	movk	w0, #0x7000, lsl #16
     684:	6b00027f 	cmp	w19, w0
     688:	54fff000 	b.eq	488 <TEE_AllocateOperation+0x1d0>
     68c:	11204400 	add	w0, w0, #0x811
     690:	6b00027f 	cmp	w19, w0
     694:	54ffefa0 	b.eq	488 <TEE_AllocateOperation+0x1d0>
     698:	52820820 	mov	w0, #0x1041                	// #4161
     69c:	72ae0000 	movk	w0, #0x7000, lsl #16
     6a0:	6b00027f 	cmp	w19, w0
     6a4:	54ffe901 	b.ne	3c4 <TEE_AllocateOperation+0x10c>
     6a8:	17ffff78 	b	488 <TEE_AllocateOperation+0x1d0>
     6ac:	52800640 	mov	w0, #0x32                  	// #50
     6b0:	72b00000 	movk	w0, #0x8000, lsl #16
     6b4:	6b00027f 	cmp	w19, w0
     6b8:	54000960 	b.eq	7e4 <TEE_AllocateOperation+0x52c>
     6bc:	540006c8 	b.hi	794 <TEE_AllocateOperation+0x4dc>
     6c0:	528a0820 	mov	w0, #0x5041                	// #20545
     6c4:	72ae0000 	movk	w0, #0x7000, lsl #16
     6c8:	6b00027f 	cmp	w19, w0
     6cc:	54ffede0 	b.eq	488 <TEE_AllocateOperation+0x1d0>
     6d0:	54000308 	b.hi	730 <TEE_AllocateOperation+0x478>
     6d4:	52870600 	mov	w0, #0x3830                	// #14384
     6d8:	72ae0000 	movk	w0, #0x7000, lsl #16
     6dc:	6b00027f 	cmp	w19, w0
     6e0:	54ffed40 	b.eq	488 <TEE_AllocateOperation+0x1d0>
     6e4:	54000148 	b.hi	70c <TEE_AllocateOperation+0x454>
     6e8:	52860820 	mov	w0, #0x3041                	// #12353
     6ec:	72ae0000 	movk	w0, #0x7000, lsl #16
     6f0:	6b00027f 	cmp	w19, w0
     6f4:	54ffeca0 	b.eq	488 <TEE_AllocateOperation+0x1d0>
     6f8:	1103c000 	add	w0, w0, #0xf0
     6fc:	6b00027f 	cmp	w19, w0
     700:	54ffec40 	b.eq	488 <TEE_AllocateOperation+0x1d0>
     704:	52850600 	mov	w0, #0x2830                	// #10288
     708:	17ffffe5 	b	69c <TEE_AllocateOperation+0x3e4>
     70c:	52882620 	mov	w0, #0x4131                	// #16689
     710:	72ae0000 	movk	w0, #0x7000, lsl #16
     714:	6b00027f 	cmp	w19, w0
     718:	54ffeb80 	b.eq	488 <TEE_AllocateOperation+0x1d0>
     71c:	111bfc00 	add	w0, w0, #0x6ff
     720:	6b00027f 	cmp	w19, w0
     724:	54ffeb20 	b.eq	488 <TEE_AllocateOperation+0x1d0>
     728:	52880820 	mov	w0, #0x4041                	// #16449
     72c:	17ffffdc 	b	69c <TEE_AllocateOperation+0x3e4>
     730:	52872600 	mov	w0, #0x3930                	// #14640
     734:	72ae0620 	movk	w0, #0x7031, lsl #16
     738:	6b00027f 	cmp	w19, w0
     73c:	54ffea60 	b.eq	488 <TEE_AllocateOperation+0x1d0>
     740:	54000168 	b.hi	76c <TEE_AllocateOperation+0x4b4>
     744:	528d0600 	mov	w0, #0x6830                	// #26672
     748:	72ae0000 	movk	w0, #0x7000, lsl #16
     74c:	6b00027f 	cmp	w19, w0
     750:	54ffe9c0 	b.eq	488 <TEE_AllocateOperation+0x1d0>
     754:	52852600 	mov	w0, #0x2930                	// #10544
     758:	72ae0420 	movk	w0, #0x7021, lsl #16
     75c:	6b00027f 	cmp	w19, w0
     760:	54ffe940 	b.eq	488 <TEE_AllocateOperation+0x1d0>
     764:	528b0600 	mov	w0, #0x5830                	// #22576
     768:	17ffffcd 	b	69c <TEE_AllocateOperation+0x3e4>
     76c:	528b2600 	mov	w0, #0x5930                	// #22832
     770:	72ae0a20 	movk	w0, #0x7051, lsl #16
     774:	6b00027f 	cmp	w19, w0
     778:	54ffe880 	b.eq	488 <TEE_AllocateOperation+0x1d0>
     77c:	11440400 	add	w0, w0, #0x101, lsl #12
     780:	6b00027f 	cmp	w19, w0
     784:	54ffe820 	b.eq	488 <TEE_AllocateOperation+0x1d0>
     788:	52892600 	mov	w0, #0x4930                	// #18736
     78c:	72ae0820 	movk	w0, #0x7041, lsl #16
     790:	17ffffc4 	b	6a0 <TEE_AllocateOperation+0x3e8>
     794:	52861820 	mov	w0, #0x30c1                	// #12481
     798:	72b00000 	movk	w0, #0x8000, lsl #16
     79c:	6b00027f 	cmp	w19, w0
     7a0:	54000468 	b.hi	82c <TEE_AllocateOperation+0x574>
     7a4:	52861800 	mov	w0, #0x30c0                	// #12480
     7a8:	72b00000 	movk	w0, #0x8000, lsl #16
     7ac:	6b00027f 	cmp	w19, w0
     7b0:	540001a2 	b.cs	7e4 <TEE_AllocateOperation+0x52c>
     7b4:	52840840 	mov	w0, #0x2042                	// #8258
     7b8:	72b00000 	movk	w0, #0x8000, lsl #16
     7bc:	6b00027f 	cmp	w19, w0
     7c0:	54000120 	b.eq	7e4 <TEE_AllocateOperation+0x52c>
     7c4:	54000228 	b.hi	808 <TEE_AllocateOperation+0x550>
     7c8:	52820840 	mov	w0, #0x1042                	// #4162
     7cc:	72b00000 	movk	w0, #0x8000, lsl #16
     7d0:	6b00027f 	cmp	w19, w0
     7d4:	54000080 	b.eq	7e4 <TEE_AllocateOperation+0x52c>
     7d8:	1101f800 	add	w0, w0, #0x7e
     7dc:	6b00027f 	cmp	w19, w0
     7e0:	54ffdf21 	b.ne	3c4 <TEE_AllocateOperation+0x10c>
/home/asaf/devel/optee/optee_os/lib/libutee/tee_api_operations.c:80
     7e4:	129ffeb4 	mov	w20, #0xffff000a            	// #-65526
/home/asaf/devel/optee/optee_os/lib/libutee/tee_api_operations.c:231
     7e8:	71001b1f 	cmp	w24, #0x6
     7ec:	54ffe641 	b.ne	4b4 <TEE_AllocateOperation+0x1fc>
/home/asaf/devel/optee/optee_os/lib/libutee/tee_api_operations.c:66
     7f0:	52800019 	mov	w25, #0x0                   	// #0
/home/asaf/devel/optee/optee_os/lib/libutee/tee_api_operations.c:233
     7f4:	5280003a 	mov	w26, #0x1                   	// #1
/home/asaf/devel/optee/optee_os/lib/libutee/tee_api_operations.c:234
     7f8:	52800803 	mov	w3, #0x40                  	// #64
/home/asaf/devel/optee/optee_os/lib/libutee/tee_api_operations.c:63
     7fc:	d2800036 	mov	x22, #0x1                   	// #1
     800:	5280001c 	mov	w28, #0x0                   	// #0
     804:	14000044 	b	914 <TEE_AllocateOperation+0x65c>
/home/asaf/devel/optee/optee_os/lib/libutee/tee_api_operations.c:130
     808:	52841800 	mov	w0, #0x20c0                	// #8384
     80c:	72b00000 	movk	w0, #0x8000, lsl #16
     810:	6b00027f 	cmp	w19, w0
     814:	54ffdd83 	b.cc	3c4 <TEE_AllocateOperation+0x10c>
     818:	11000800 	add	w0, w0, #0x2
     81c:	6b00027f 	cmp	w19, w0
     820:	54fffe29 	b.ls	7e4 <TEE_AllocateOperation+0x52c>
     824:	113e0000 	add	w0, w0, #0xf80
     828:	17ffffed 	b	7dc <TEE_AllocateOperation+0x524>
     82c:	528a0840 	mov	w0, #0x5042                	// #20546
     830:	72b00000 	movk	w0, #0x8000, lsl #16
     834:	6b00027f 	cmp	w19, w0
     838:	54fffd60 	b.eq	7e4 <TEE_AllocateOperation+0x52c>
     83c:	54000188 	b.hi	86c <TEE_AllocateOperation+0x5b4>
     840:	52880840 	mov	w0, #0x4042                	// #16450
     844:	72b00000 	movk	w0, #0x8000, lsl #16
     848:	6b00027f 	cmp	w19, w0
     84c:	54fffcc0 	b.eq	7e4 <TEE_AllocateOperation+0x52c>
     850:	5297e800 	mov	w0, #0xbf40                	// #48960
     854:	54ffdb83 	b.cc	3c4 <TEE_AllocateOperation+0x10c>
     858:	72afffe0 	movk	w0, #0x7fff, lsl #16
     85c:	0b000260 	add	w0, w19, w0
     860:	7100041f 	cmp	w0, #0x1
     864:	54fffc09 	b.ls	7e4 <TEE_AllocateOperation+0x52c>
     868:	17fffed7 	b	3c4 <TEE_AllocateOperation+0x10c>
     86c:	528a1800 	mov	w0, #0x50c0                	// #20672
     870:	72b00000 	movk	w0, #0x8000, lsl #16
     874:	6b00027f 	cmp	w19, w0
     878:	54ffda63 	b.cc	3c4 <TEE_AllocateOperation+0x10c>
     87c:	11000400 	add	w0, w0, #0x1
     880:	6b00027f 	cmp	w19, w0
     884:	54fffb09 	b.ls	7e4 <TEE_AllocateOperation+0x52c>
     888:	5293e800 	mov	w0, #0x9f40                	// #40768
     88c:	17fffff3 	b	858 <TEE_AllocateOperation+0x5a0>
/home/asaf/devel/optee/optee_os/lib/libutee/tee_api_operations.c:72
     890:	52a0011c 	mov	w28, #0x80000               	// #524288
/home/asaf/devel/optee/optee_os/lib/libutee/tee_api_operations.c:133
     894:	52800039 	mov	w25, #0x1                   	// #1
/home/asaf/devel/optee/optee_os/lib/libutee/tee_api_operations.c:142
     898:	12001e60 	and	w0, w19, #0xff
/home/asaf/devel/optee/optee_os/lib/libutee/tee_api_operations.c:145
     89c:	d2800216 	mov	x22, #0x10                  	// #16
     8a0:	7100401f 	cmp	w0, #0x10
     8a4:	d2800100 	mov	x0, #0x8                   	// #8
     8a8:	9a8002d6 	csel	x22, x22, x0, eq
/home/asaf/devel/optee/optee_os/lib/libutee/tee_api_operations.c:149
     8ac:	34000878 	cbz	w24, 9b8 <TEE_AllocateOperation+0x700>
/home/asaf/devel/optee/optee_os/lib/libutee/tee_api_operations.c:151
     8b0:	7100071f 	cmp	w24, #0x1
     8b4:	54ffd881 	b.ne	3c4 <TEE_AllocateOperation+0x10c>
/home/asaf/devel/optee/optee_os/lib/libutee/tee_api_operations.c:65
     8b8:	5280001a 	mov	w26, #0x0                   	// #0
/home/asaf/devel/optee/optee_os/lib/libutee/tee_api_operations.c:152
     8bc:	52800083 	mov	w3, #0x4                   	// #4
     8c0:	14000015 	b	914 <TEE_AllocateOperation+0x65c>
/home/asaf/devel/optee/optee_os/lib/libutee/tee_api_operations.c:130
     8c4:	5280001c 	mov	w28, #0x0                   	// #0
     8c8:	17fffff3 	b	894 <TEE_AllocateOperation+0x5dc>
     8cc:	5280001c 	mov	w28, #0x0                   	// #0
/home/asaf/devel/optee/optee_os/lib/libutee/tee_api_operations.c:66
     8d0:	52800019 	mov	w25, #0x0                   	// #0
     8d4:	17fffff1 	b	898 <TEE_AllocateOperation+0x5e0>
/home/asaf/devel/optee/optee_os/lib/libutee/tee_api_operations.c:203
     8d8:	340008b8 	cbz	w24, 9ec <TEE_AllocateOperation+0x734>
/home/asaf/devel/optee/optee_os/lib/libutee/tee_api_operations.c:205
     8dc:	7100071f 	cmp	w24, #0x1
     8e0:	54ffd721 	b.ne	3c4 <TEE_AllocateOperation+0x10c>
/home/asaf/devel/optee/optee_os/lib/libutee/tee_api_operations.c:66
     8e4:	52800019 	mov	w25, #0x0                   	// #0
/home/asaf/devel/optee/optee_os/lib/libutee/tee_api_operations.c:206
     8e8:	5280003a 	mov	w26, #0x1                   	// #1
/home/asaf/devel/optee/optee_os/lib/libutee/tee_api_operations.c:207
     8ec:	52800283 	mov	w3, #0x14                  	// #20
     8f0:	17ffffc3 	b	7fc <TEE_AllocateOperation+0x544>
/home/asaf/devel/optee/optee_os/lib/libutee/tee_api_operations.c:80
     8f4:	129ffeb4 	mov	w20, #0xffff000a            	// #-65526
/home/asaf/devel/optee/optee_os/lib/libutee/tee_api_operations.c:243
     8f8:	7100171f 	cmp	w24, #0x5
     8fc:	54ffddc1 	b.ne	4b4 <TEE_AllocateOperation+0x1fc>
/home/asaf/devel/optee/optee_os/lib/libutee/tee_api_operations.c:66
     900:	52800019 	mov	w25, #0x0                   	// #0
/home/asaf/devel/optee/optee_os/lib/libutee/tee_api_operations.c:65
     904:	5280001a 	mov	w26, #0x0                   	// #0
/home/asaf/devel/optee/optee_os/lib/libutee/tee_api_operations.c:247
     908:	52800003 	mov	w3, #0x0                   	// #0
/home/asaf/devel/optee/optee_os/lib/libutee/tee_api_operations.c:63
     90c:	d2800036 	mov	x22, #0x1                   	// #1
/home/asaf/devel/optee/optee_os/lib/libutee/tee_api_operations.c:246
     910:	52a0009c 	mov	w28, #0x40000               	// #262144
/home/asaf/devel/optee/optee_os/lib/libutee/tee_api_operations.c:272
     914:	52800001 	mov	w1, #0x0                   	// #0
     918:	52800c00 	mov	w0, #0x60                  	// #96
     91c:	b90067a3 	str	w3, [x29,#100]
/home/asaf/devel/optee/optee_os/lib/libutee/tee_api_operations.c:274
     920:	129ffe74 	mov	w20, #0xffff000c            	// #-65524
/home/asaf/devel/optee/optee_os/lib/libutee/tee_api_operations.c:272
     924:	94000baa 	bl	37cc <TEE_Malloc>
     928:	aa0003f5 	mov	x21, x0
/home/asaf/devel/optee/optee_os/lib/libutee/tee_api_operations.c:273
     92c:	b4ffdc40 	cbz	x0, 4b4 <TEE_AllocateOperation+0x1fc>
/home/asaf/devel/optee/optee_os/lib/libutee/tee_api_operations.c:280
     930:	b94067a3 	ldr	w3, [x29,#100]
/home/asaf/devel/optee/optee_os/lib/libutee/tee_api_operations.c:277
     934:	531c7e7b 	lsr	w27, w19, #28
/home/asaf/devel/optee/optee_os/lib/libutee/tee_api_operations.c:278
     938:	b9000818 	str	w24, [x0,#8]
/home/asaf/devel/optee/optee_os/lib/libutee/tee_api_operations.c:283
     93c:	f10006df 	cmp	x22, #0x1
/home/asaf/devel/optee/optee_os/lib/libutee/tee_api_operations.c:277
     940:	29006c13 	stp	w19, w27, [x0]
/home/asaf/devel/optee/optee_os/lib/libutee/tee_api_operations.c:279
     944:	b9001017 	str	w23, [x0,#16]
/home/asaf/devel/optee/optee_os/lib/libutee/tee_api_operations.c:281
     948:	29037003 	stp	w3, w28, [x0,#24]
/home/asaf/devel/optee/optee_os/lib/libutee/tee_api_operations.c:283
     94c:	540005a1 	b.ne	a00 <TEE_AllocateOperation+0x748>
/home/asaf/devel/optee/optee_os/lib/libutee/tee_api_operations.c:297
     950:	390102b9 	strb	w25, [x21,#64]
/home/asaf/devel/optee/optee_os/lib/libutee/tee_api_operations.c:299
     954:	7100177f 	cmp	w27, #0x5
/home/asaf/devel/optee/optee_os/lib/libutee/tee_api_operations.c:296
     958:	f90026b6 	str	x22, [x21,#72]
/home/asaf/devel/optee/optee_os/lib/libutee/tee_api_operations.c:299
     95c:	54000641 	b.ne	a24 <TEE_AllocateOperation+0x76c>
/home/asaf/devel/optee/optee_os/lib/libutee/tee_api_operations.c:323
     960:	a9420ea2 	ldp	x2, x3, [x21,#32]
     964:	910162a4 	add	x4, x21, #0x58
     968:	2a1803e1 	mov	w1, w24
     96c:	2a1303e0 	mov	w0, w19
     970:	94000826 	bl	2a08 <utee_cryp_state_alloc>
/home/asaf/devel/optee/optee_os/lib/libutee/tee_api_operations.c:325
     974:	35000b00 	cbnz	w0, ad4 <TEE_AllocateOperation+0x81c>
/home/asaf/devel/optee/optee_os/lib/libutee/tee_api_operations.c:333
     978:	7100177f 	cmp	w27, #0x5
     97c:	54000141 	b.ne	9a4 <TEE_AllocateOperation+0x6ec>
/home/asaf/devel/optee/optee_os/lib/libutee/tee_api_operations.c:334
     980:	b9405aa0 	ldr	w0, [x21,#88]
     984:	d2800002 	mov	x2, #0x0                   	// #0
     988:	d2800001 	mov	x1, #0x0                   	// #0
     98c:	94000828 	bl	2a2c <utee_hash_init>
     990:	2a0003f4 	mov	w20, w0
/home/asaf/devel/optee/optee_os/lib/libutee/tee_api_operations.c:335
     994:	35000780 	cbnz	w0, a84 <TEE_AllocateOperation+0x7cc>
/home/asaf/devel/optee/optee_os/lib/libutee/tee_api_operations.c:338
     998:	b9401ea0 	ldr	w0, [x21,#28]
     99c:	320f0000 	orr	w0, w0, #0x20000
     9a0:	b9001ea0 	str	w0, [x21,#28]
/home/asaf/devel/optee/optee_os/lib/libutee/tee_api_operations.c:343
     9a4:	f94037a0 	ldr	x0, [x29,#104]
     9a8:	52800014 	mov	w20, #0x0                   	// #0
/home/asaf/devel/optee/optee_os/lib/libutee/tee_api_operations.c:341
     9ac:	b90032bf 	str	wzr, [x21,#48]
/home/asaf/devel/optee/optee_os/lib/libutee/tee_api_operations.c:343
     9b0:	f9000015 	str	x21, [x0]
     9b4:	17fffec0 	b	4b4 <TEE_AllocateOperation+0x1fc>
/home/asaf/devel/optee/optee_os/lib/libutee/tee_api_operations.c:65
     9b8:	5280001a 	mov	w26, #0x0                   	// #0
/home/asaf/devel/optee/optee_os/lib/libutee/tee_api_operations.c:150
     9bc:	52800043 	mov	w3, #0x2                   	// #2
     9c0:	17ffffd5 	b	914 <TEE_AllocateOperation+0x65c>
/home/asaf/devel/optee/optee_os/lib/libutee/tee_api_operations.c:66
     9c4:	52800019 	mov	w25, #0x0                   	// #0
/home/asaf/devel/optee/optee_os/lib/libutee/tee_api_operations.c:177
     9c8:	5280003a 	mov	w26, #0x1                   	// #1
/home/asaf/devel/optee/optee_os/lib/libutee/tee_api_operations.c:178
     9cc:	52800203 	mov	w3, #0x10                  	// #16
     9d0:	17ffff8b 	b	7fc <TEE_AllocateOperation+0x544>
     9d4:	5280001c 	mov	w28, #0x0                   	// #0
/home/asaf/devel/optee/optee_os/lib/libutee/tee_api_operations.c:66
     9d8:	52800019 	mov	w25, #0x0                   	// #0
/home/asaf/devel/optee/optee_os/lib/libutee/tee_api_operations.c:65
     9dc:	5280001a 	mov	w26, #0x0                   	// #0
/home/asaf/devel/optee/optee_os/lib/libutee/tee_api_operations.c:193
     9e0:	52800043 	mov	w3, #0x2                   	// #2
/home/asaf/devel/optee/optee_os/lib/libutee/tee_api_operations.c:63
     9e4:	d2800036 	mov	x22, #0x1                   	// #1
     9e8:	17ffffcb 	b	914 <TEE_AllocateOperation+0x65c>
     9ec:	5280001c 	mov	w28, #0x0                   	// #0
/home/asaf/devel/optee/optee_os/lib/libutee/tee_api_operations.c:66
     9f0:	52800019 	mov	w25, #0x0                   	// #0
/home/asaf/devel/optee/optee_os/lib/libutee/tee_api_operations.c:65
     9f4:	5280001a 	mov	w26, #0x0                   	// #0
/home/asaf/devel/optee/optee_os/lib/libutee/tee_api_operations.c:204
     9f8:	52800443 	mov	w3, #0x22                  	// #34
     9fc:	17fffffa 	b	9e4 <TEE_AllocateOperation+0x72c>
/home/asaf/devel/optee/optee_os/lib/libutee/tee_api_operations.c:287
     a00:	7100033f 	cmp	w25, #0x0
     a04:	d37ffac0 	lsl	x0, x22, #1
/home/asaf/devel/optee/optee_os/lib/libutee/tee_api_operations.c:289
     a08:	52b00001 	mov	w1, #0x80000000            	// #-2147483648
     a0c:	9a961000 	csel	x0, x0, x22, ne
     a10:	94000b6f 	bl	37cc <TEE_Malloc>
     a14:	f9001ea0 	str	x0, [x21,#56]
/home/asaf/devel/optee/optee_os/lib/libutee/tee_api_operations.c:291
     a18:	b5fff9c0 	cbnz	x0, 950 <TEE_AllocateOperation+0x698>
/home/asaf/devel/optee/optee_os/lib/libutee/tee_api_operations.c:292
     a1c:	129ffe74 	mov	w20, #0xffff000c            	// #-65524
     a20:	14000019 	b	a84 <TEE_AllocateOperation+0x7cc>
/home/asaf/devel/optee/optee_os/lib/libutee/tee_api_operations.c:301
     a24:	7100035f 	cmp	w26, #0x0
     a28:	52b40001 	mov	w1, #0xa0000000            	// #-1610612736
     a2c:	52b42000 	mov	w0, #0xa1000000            	// #-1593835520
     a30:	1a811000 	csel	w0, w0, w1, ne
/home/asaf/devel/optee/optee_os/lib/libutee/tee_api_operations.c:308
     a34:	b9401ea1 	ldr	w1, [x21,#28]
/home/asaf/devel/optee/optee_os/lib/libutee/tee_api_operations.c:301
     a38:	12001e76 	and	w22, w19, #0xff
     a3c:	2a160016 	orr	w22, w0, w22
/home/asaf/devel/optee/optee_os/lib/libutee/tee_api_operations.c:309
     a40:	53017ee0 	lsr	w0, w23, #1
/home/asaf/devel/optee/optee_os/lib/libutee/tee_api_operations.c:311
     a44:	910082a2 	add	x2, x21, #0x20
/home/asaf/devel/optee/optee_os/lib/libutee/tee_api_operations.c:309
     a48:	f26d003f 	tst	x1, #0x80000
     a4c:	1a971017 	csel	w23, w0, w23, ne
/home/asaf/devel/optee/optee_os/lib/libutee/tee_api_operations.c:311
     a50:	2a1603e0 	mov	w0, w22
     a54:	2a1703e1 	mov	w1, w23
     a58:	94000c2b 	bl	3b04 <TEE_AllocateTransientObject>
     a5c:	2a0003f4 	mov	w20, w0
/home/asaf/devel/optee/optee_os/lib/libutee/tee_api_operations.c:312
     a60:	35000120 	cbnz	w0, a84 <TEE_AllocateOperation+0x7cc>
/home/asaf/devel/optee/optee_os/lib/libutee/tee_api_operations.c:315
     a64:	b9401ea0 	ldr	w0, [x21,#28]
     a68:	369ff7c0 	tbz	w0, #19, 960 <TEE_AllocateOperation+0x6a8>
/home/asaf/devel/optee/optee_os/lib/libutee/tee_api_operations.c:316
     a6c:	9100a2a2 	add	x2, x21, #0x28
     a70:	2a1703e1 	mov	w1, w23
     a74:	2a1603e0 	mov	w0, w22
     a78:	94000c23 	bl	3b04 <TEE_AllocateTransientObject>
     a7c:	2a0003f4 	mov	w20, w0
/home/asaf/devel/optee/optee_os/lib/libutee/tee_api_operations.c:318
     a80:	34fff700 	cbz	w0, 960 <TEE_AllocateOperation+0x6a8>
/home/asaf/devel/optee/optee_os/lib/libutee/tee_api_operations.c:348
     a84:	529ffec0 	mov	w0, #0xfff6                	// #65526
     a88:	0b000280 	add	w0, w20, w0
/home/asaf/devel/optee/optee_os/lib/libutee/tee_api_operations.c:347
     a8c:	721e781f 	tst	w0, #0xfffffffd
     a90:	54000060 	b.eq	a9c <TEE_AllocateOperation+0x7e4>
/home/asaf/devel/optee/optee_os/lib/libutee/tee_api_operations.c:349
     a94:	2a1403e0 	mov	w0, w20
     a98:	940006fa 	bl	2680 <TEE_Panic>
/home/asaf/devel/optee/optee_os/lib/libutee/tee_api_operations.c:351
     a9c:	b9405aa0 	ldr	w0, [x21,#88]
     aa0:	34000080 	cbz	w0, ab0 <TEE_AllocateOperation+0x7f8>
/home/asaf/devel/optee/optee_os/lib/libutee/tee_api_operations.c:352
     aa4:	aa1503e0 	mov	x0, x21
     aa8:	97fffdf3 	bl	274 <TEE_FreeOperation>
     aac:	17fffe82 	b	4b4 <TEE_AllocateOperation+0x1fc>
/home/asaf/devel/optee/optee_os/lib/libutee/tee_api_operations.c:354
     ab0:	f9401ea0 	ldr	x0, [x21,#56]
     ab4:	94000b4a 	bl	37dc <TEE_Free>
/home/asaf/devel/optee/optee_os/lib/libutee/tee_api_operations.c:355
     ab8:	f94012a0 	ldr	x0, [x21,#32]
     abc:	94000c2b 	bl	3b68 <TEE_FreeTransientObject>
/home/asaf/devel/optee/optee_os/lib/libutee/tee_api_operations.c:356
     ac0:	f94016a0 	ldr	x0, [x21,#40]
     ac4:	94000c29 	bl	3b68 <TEE_FreeTransientObject>
/home/asaf/devel/optee/optee_os/lib/libutee/tee_api_operations.c:357
     ac8:	aa1503e0 	mov	x0, x21
     acc:	94000b44 	bl	37dc <TEE_Free>
     ad0:	17fffe79 	b	4b4 <TEE_AllocateOperation+0x1fc>
     ad4:	2a0003f4 	mov	w20, w0
     ad8:	17ffffeb 	b	a84 <TEE_AllocateOperation+0x7cc>

0000000000000adc <TEE_GetOperationInfo>:
TEE_GetOperationInfo():
/home/asaf/devel/optee/optee_os/lib/libutee/tee_api_operations.c:387
     adc:	a9be7bfd 	stp	x29, x30, [sp,#-32]!
     ae0:	910003fd 	mov	x29, sp
     ae4:	a90153f3 	stp	x19, x20, [sp,#16]
     ae8:	aa0003f4 	mov	x20, x0
     aec:	aa0103f3 	mov	x19, x1
/home/asaf/devel/optee/optee_os/lib/libutee/tee_api_operations.c:388
     af0:	b5000060 	cbnz	x0, afc <TEE_GetOperationInfo+0x20>
/home/asaf/devel/optee/optee_os/lib/libutee/tee_api_operations.c:389
     af4:	52800000 	mov	w0, #0x0                   	// #0
     af8:	940006e2 	bl	2680 <TEE_Panic>
/home/asaf/devel/optee/optee_os/lib/libutee/tee_api_operations.c:391
     afc:	b5000073 	cbnz	x19, b08 <TEE_GetOperationInfo+0x2c>
/home/asaf/devel/optee/optee_os/lib/libutee/tee_api_operations.c:392
     b00:	52800000 	mov	w0, #0x0                   	// #0
     b04:	940006df 	bl	2680 <TEE_Panic>
/home/asaf/devel/optee/optee_os/lib/libutee/tee_api_operations.c:394
     b08:	aa1403e1 	mov	x1, x20
     b0c:	d2800402 	mov	x2, #0x20                  	// #32
     b10:	aa1303e0 	mov	x0, x19
     b14:	9400149c 	bl	5d84 <memcpy>
/home/asaf/devel/optee/optee_os/lib/libutee/tee_api_operations.c:395
     b18:	a94153f3 	ldp	x19, x20, [sp,#16]
     b1c:	a8c27bfd 	ldp	x29, x30, [sp],#32
     b20:	d65f03c0 	ret

0000000000000b24 <TEE_GetOperationInfoMultiple>:
TEE_GetOperationInfoMultiple():
/home/asaf/devel/optee/optee_os/lib/libutee/tee_api_operations.c:400
     b24:	a9b97bfd 	stp	x29, x30, [sp,#-112]!
/home/asaf/devel/optee/optee_os/lib/libutee/tee_api_operations.c:417
     b28:	f100005f 	cmp	x2, #0x0
     b2c:	fa401824 	ccmp	x1, #0x0, #0x4, ne
/home/asaf/devel/optee/optee_os/lib/libutee/tee_api_operations.c:400
     b30:	910003fd 	mov	x29, sp
     b34:	a9025bf5 	stp	x21, x22, [sp,#32]
/home/asaf/devel/optee/optee_os/lib/libutee/tee_api_operations.c:417
     b38:	fa401804 	ccmp	x0, #0x0, #0x4, ne
/home/asaf/devel/optee/optee_os/lib/libutee/tee_api_operations.c:400
     b3c:	a90153f3 	stp	x19, x20, [sp,#16]
/home/asaf/devel/optee/optee_os/lib/libutee/tee_api_operations.c:418
     b40:	129fff35 	mov	w21, #0xffff0006            	// #-65530
/home/asaf/devel/optee/optee_os/lib/libutee/tee_api_operations.c:417
     b44:	540004a0 	b.eq	bd8 <TEE_GetOperationInfoMultiple+0xb4>
/home/asaf/devel/optee/optee_os/lib/libutee/tee_api_operations.c:422
     b48:	b9400056 	ldr	w22, [x2]
     b4c:	d10082d6 	sub	x22, x22, #0x20
     b50:	d343fed6 	lsr	x22, x22, #3
/home/asaf/devel/optee/optee_os/lib/libutee/tee_api_operations.c:425
     b54:	71000adf 	cmp	w22, #0x2
     b58:	54000408 	b.hi	bd8 <TEE_GetOperationInfoMultiple+0xb4>
     b5c:	aa0003f4 	mov	x20, x0
/home/asaf/devel/optee/optee_os/lib/libutee/tee_api_operations.c:431
     b60:	b9401c00 	ldr	w0, [x0,#28]
/home/asaf/devel/optee/optee_os/lib/libutee/tee_api_operations.c:434
     b64:	129ffdf5 	mov	w21, #0xffff0010            	// #-65520
/home/asaf/devel/optee/optee_os/lib/libutee/tee_api_operations.c:432
     b68:	f26d001f 	tst	x0, #0x80000
     b6c:	7a421ac4 	ccmp	w22, #0x2, #0x4, ne
     b70:	54000341 	b.ne	bd8 <TEE_GetOperationInfoMultiple+0xb4>
/home/asaf/devel/optee/optee_os/lib/libutee/tee_api_operations.c:439
     b74:	92407ec2 	and	x2, x22, #0xffffffff
     b78:	aa0103f3 	mov	x19, x1
     b7c:	91008020 	add	x0, x1, #0x20
/home/asaf/devel/optee/optee_os/lib/libutee/tee_api_operations.c:432
     b80:	d2800001 	mov	x1, #0x0                   	// #0
/home/asaf/devel/optee/optee_os/lib/libutee/tee_api_operations.c:439 (discriminator 1)
     b84:	eb02003f 	cmp	x1, x2
     b88:	540003e3 	b.cc	c04 <TEE_GetOperationInfoMultiple+0xe0>
/home/asaf/devel/optee/optee_os/lib/libutee/tee_api_operations.c:444
     b8c:	71000adf 	cmp	w22, #0x2
     b90:	54000421 	b.ne	c14 <TEE_GetOperationInfoMultiple+0xf0>
/home/asaf/devel/optee/optee_os/lib/libutee/tee_api_operations.c:445
     b94:	f9401680 	ldr	x0, [x20,#40]
     b98:	910143a1 	add	x1, x29, #0x50
     b9c:	94000b3c 	bl	388c <TEE_GetObjectInfo1>
     ba0:	2a0003f5 	mov	w21, w0
/home/asaf/devel/optee/optee_os/lib/libutee/tee_api_operations.c:447
     ba4:	350001a0 	cbnz	w0, bd8 <TEE_GetOperationInfoMultiple+0xb4>
/home/asaf/devel/optee/optee_os/lib/libutee/tee_api_operations.c:450
     ba8:	b94057a0 	ldr	w0, [x29,#84]
     bac:	b9002a60 	str	w0, [x19,#40]
/home/asaf/devel/optee/optee_os/lib/libutee/tee_api_operations.c:452
     bb0:	b9401a80 	ldr	w0, [x20,#24]
     bb4:	b9002e60 	str	w0, [x19,#44]
/home/asaf/devel/optee/optee_os/lib/libutee/tee_api_operations.c:457
     bb8:	f9401280 	ldr	x0, [x20,#32]
     bbc:	9100c3a1 	add	x1, x29, #0x30
     bc0:	94000b33 	bl	388c <TEE_GetObjectInfo1>
     bc4:	2a0003f5 	mov	w21, w0
/home/asaf/devel/optee/optee_os/lib/libutee/tee_api_operations.c:459
     bc8:	34000480 	cbz	w0, c58 <TEE_GetOperationInfoMultiple+0x134>
/home/asaf/devel/optee/optee_os/lib/libutee/tee_api_operations.c:460
     bcc:	71000adf 	cmp	w22, #0x2
     bd0:	54000041 	b.ne	bd8 <TEE_GetOperationInfoMultiple+0xb4>
/home/asaf/devel/optee/optee_os/lib/libutee/tee_api_operations.c:464
     bd4:	29057e7f 	stp	wzr, wzr, [x19,#40]
/home/asaf/devel/optee/optee_os/lib/libutee/tee_api_operations.c:486
     bd8:	710002bf 	cmp	w21, #0x0
     bdc:	129ffde0 	mov	w0, #0xffff0010            	// #-65520
     be0:	7a4012a4 	ccmp	w21, w0, #0x4, ne
     be4:	54000060 	b.eq	bf0 <TEE_GetOperationInfoMultiple+0xcc>
/home/asaf/devel/optee/optee_os/lib/libutee/tee_api_operations.c:488
     be8:	2a1503e0 	mov	w0, w21
     bec:	940006a5 	bl	2680 <TEE_Panic>
/home/asaf/devel/optee/optee_os/lib/libutee/tee_api_operations.c:491
     bf0:	2a1503e0 	mov	w0, w21
     bf4:	a94153f3 	ldp	x19, x20, [sp,#16]
     bf8:	a9425bf5 	ldp	x21, x22, [sp,#32]
     bfc:	a8c77bfd 	ldp	x29, x30, [sp],#112
     c00:	d65f03c0 	ret
/home/asaf/devel/optee/optee_os/lib/libutee/tee_api_operations.c:441 (discriminator 3)
     c04:	29007c1f 	stp	wzr, wzr, [x0]
/home/asaf/devel/optee/optee_os/lib/libutee/tee_api_operations.c:439 (discriminator 3)
     c08:	91000421 	add	x1, x1, #0x1
     c0c:	91002000 	add	x0, x0, #0x8
     c10:	17ffffdd 	b	b84 <TEE_GetOperationInfoMultiple+0x60>
/home/asaf/devel/optee/optee_os/lib/libutee/tee_api_operations.c:456
     c14:	35fffd36 	cbnz	w22, bb8 <TEE_GetOperationInfoMultiple+0x94>
/home/asaf/devel/optee/optee_os/lib/libutee/tee_api_operations.c:476
     c18:	b9400280 	ldr	w0, [x20]
/home/asaf/devel/optee/optee_os/lib/libutee/tee_api_operations.c:483
     c1c:	52800015 	mov	w21, #0x0                   	// #0
/home/asaf/devel/optee/optee_os/lib/libutee/tee_api_operations.c:476
     c20:	b9000260 	str	w0, [x19]
/home/asaf/devel/optee/optee_os/lib/libutee/tee_api_operations.c:477
     c24:	b9400680 	ldr	w0, [x20,#4]
     c28:	b9000660 	str	w0, [x19,#4]
/home/asaf/devel/optee/optee_os/lib/libutee/tee_api_operations.c:478
     c2c:	b9400a80 	ldr	w0, [x20,#8]
     c30:	b9000a60 	str	w0, [x19,#8]
/home/asaf/devel/optee/optee_os/lib/libutee/tee_api_operations.c:479
     c34:	b9400e80 	ldr	w0, [x20,#12]
     c38:	b9000e60 	str	w0, [x19,#12]
/home/asaf/devel/optee/optee_os/lib/libutee/tee_api_operations.c:480
     c3c:	b9401280 	ldr	w0, [x20,#16]
     c40:	b9001260 	str	w0, [x19,#16]
/home/asaf/devel/optee/optee_os/lib/libutee/tee_api_operations.c:481
     c44:	b9401e80 	ldr	w0, [x20,#28]
     c48:	b9001660 	str	w0, [x19,#20]
/home/asaf/devel/optee/optee_os/lib/libutee/tee_api_operations.c:482
     c4c:	b9403280 	ldr	w0, [x20,#48]
/home/asaf/devel/optee/optee_os/lib/libutee/tee_api_operations.c:483
     c50:	29035a60 	stp	w0, w22, [x19,#24]
     c54:	17ffffe1 	b	bd8 <TEE_GetOperationInfoMultiple+0xb4>
/home/asaf/devel/optee/optee_os/lib/libutee/tee_api_operations.c:469
     c58:	b94037a0 	ldr	w0, [x29,#52]
     c5c:	b9002260 	str	w0, [x19,#32]
/home/asaf/devel/optee/optee_os/lib/libutee/tee_api_operations.c:471
     c60:	b9401a80 	ldr	w0, [x20,#24]
     c64:	b9002660 	str	w0, [x19,#36]
     c68:	17ffffec 	b	c18 <TEE_GetOperationInfoMultiple+0xf4>

0000000000000c6c <TEE_ResetOperation>:
TEE_ResetOperation():
/home/asaf/devel/optee/optee_os/lib/libutee/tee_api_operations.c:494
     c6c:	a9be7bfd 	stp	x29, x30, [sp,#-32]!
     c70:	910003fd 	mov	x29, sp
     c74:	f9000bf3 	str	x19, [sp,#16]
     c78:	aa0003f3 	mov	x19, x0
/home/asaf/devel/optee/optee_os/lib/libutee/tee_api_operations.c:497
     c7c:	b5000060 	cbnz	x0, c88 <TEE_ResetOperation+0x1c>
/home/asaf/devel/optee/optee_os/lib/libutee/tee_api_operations.c:498
     c80:	52800000 	mov	w0, #0x0                   	// #0
     c84:	9400067f 	bl	2680 <TEE_Panic>
/home/asaf/devel/optee/optee_os/lib/libutee/tee_api_operations.c:500
     c88:	b9401e60 	ldr	w0, [x19,#28]
     c8c:	37900060 	tbnz	w0, #18, c98 <TEE_ResetOperation+0x2c>
/home/asaf/devel/optee/optee_os/lib/libutee/tee_api_operations.c:501
     c90:	52800000 	mov	w0, #0x0                   	// #0
     c94:	9400067b 	bl	2680 <TEE_Panic>
/home/asaf/devel/optee/optee_os/lib/libutee/tee_api_operations.c:505
     c98:	b9400660 	ldr	w0, [x19,#4]
/home/asaf/devel/optee/optee_os/lib/libutee/tee_api_operations.c:503
     c9c:	b900327f 	str	wzr, [x19,#48]
/home/asaf/devel/optee/optee_os/lib/libutee/tee_api_operations.c:505
     ca0:	7100141f 	cmp	w0, #0x5
     ca4:	540001a1 	b.ne	cd8 <TEE_ResetOperation+0x6c>
/home/asaf/devel/optee/optee_os/lib/libutee/tee_api_operations.c:506
     ca8:	b9405a60 	ldr	w0, [x19,#88]
     cac:	d2800002 	mov	x2, #0x0                   	// #0
     cb0:	d2800001 	mov	x1, #0x0                   	// #0
     cb4:	9400075e 	bl	2a2c <utee_hash_init>
/home/asaf/devel/optee/optee_os/lib/libutee/tee_api_operations.c:507
     cb8:	34000040 	cbz	w0, cc0 <TEE_ResetOperation+0x54>
/home/asaf/devel/optee/optee_os/lib/libutee/tee_api_operations.c:508
     cbc:	94000671 	bl	2680 <TEE_Panic>
/home/asaf/devel/optee/optee_os/lib/libutee/tee_api_operations.c:509
     cc0:	b9401e60 	ldr	w0, [x19,#28]
     cc4:	320f0000 	orr	w0, w0, #0x20000
/home/asaf/devel/optee/optee_os/lib/libutee/tee_api_operations.c:511
     cc8:	b9001e60 	str	w0, [x19,#28]
/home/asaf/devel/optee/optee_os/lib/libutee/tee_api_operations.c:513
     ccc:	f9400bf3 	ldr	x19, [sp,#16]
     cd0:	a8c27bfd 	ldp	x29, x30, [sp],#32
     cd4:	d65f03c0 	ret
/home/asaf/devel/optee/optee_os/lib/libutee/tee_api_operations.c:511
     cd8:	b9401e60 	ldr	w0, [x19,#28]
     cdc:	120e7800 	and	w0, w0, #0xfffdffff
     ce0:	17fffffa 	b	cc8 <TEE_ResetOperation+0x5c>

0000000000000ce4 <TEE_SetOperationKey>:
TEE_SetOperationKey():
/home/asaf/devel/optee/optee_os/lib/libutee/tee_api_operations.c:517
     ce4:	a9bb7bfd 	stp	x29, x30, [sp,#-80]!
     ce8:	910003fd 	mov	x29, sp
     cec:	a90153f3 	stp	x19, x20, [sp,#16]
     cf0:	a9025bf5 	stp	x21, x22, [sp,#32]
/home/asaf/devel/optee/optee_os/lib/libutee/tee_api_operations.c:522
     cf4:	b50001e0 	cbnz	x0, d30 <TEE_SetOperationKey+0x4c>
/home/asaf/devel/optee/optee_os/lib/libutee/tee_api_operations.c:535
     cf8:	129fff34 	mov	w20, #0xffff0006            	// #-65530
/home/asaf/devel/optee/optee_os/lib/libutee/tee_api_operations.c:584
     cfc:	121e7a80 	and	w0, w20, #0xfffffffd
     d00:	7100029f 	cmp	w20, #0x0
     d04:	52800021 	mov	w1, #0x1                   	// #1
     d08:	72be0201 	movk	w1, #0xf010, lsl #16
     d0c:	7a411004 	ccmp	w0, w1, #0x4, ne
     d10:	54000060 	b.eq	d1c <TEE_SetOperationKey+0x38>
/home/asaf/devel/optee/optee_os/lib/libutee/tee_api_operations.c:586
     d14:	2a1403e0 	mov	w0, w20
     d18:	9400065a 	bl	2680 <TEE_Panic>
/home/asaf/devel/optee/optee_os/lib/libutee/tee_api_operations.c:589
     d1c:	2a1403e0 	mov	w0, w20
     d20:	a94153f3 	ldp	x19, x20, [sp,#16]
     d24:	a9425bf5 	ldp	x21, x22, [sp,#32]
     d28:	a8c57bfd 	ldp	x29, x30, [sp],#80
     d2c:	d65f03c0 	ret
     d30:	aa0003f3 	mov	x19, x0
/home/asaf/devel/optee/optee_os/lib/libutee/tee_api_operations.c:527
     d34:	b9403000 	ldr	w0, [x0,#48]
     d38:	35fffe00 	cbnz	w0, cf8 <TEE_SetOperationKey+0x14>
     d3c:	aa0103f5 	mov	x21, x1
/home/asaf/devel/optee/optee_os/lib/libutee/tee_api_operations.c:532
     d40:	b5000081 	cbnz	x1, d50 <TEE_SetOperationKey+0x6c>
/home/asaf/devel/optee/optee_os/lib/libutee/tee_api_operations.c:534
     d44:	f9401260 	ldr	x0, [x19,#32]
     d48:	94000b9d 	bl	3bbc <TEE_ResetTransientObject>
     d4c:	17ffffeb 	b	cf8 <TEE_SetOperationKey+0x14>
/home/asaf/devel/optee/optee_os/lib/libutee/tee_api_operations.c:540
     d50:	b9400660 	ldr	w0, [x19,#4]
     d54:	7100141f 	cmp	w0, #0x5
     d58:	54fffd00 	b.eq	cf8 <TEE_SetOperationKey+0x14>
/home/asaf/devel/optee/optee_os/lib/libutee/tee_api_operations.c:546
     d5c:	b9401e60 	ldr	w0, [x19,#28]
     d60:	379ffcc0 	tbnz	w0, #19, cf8 <TEE_SetOperationKey+0x14>
/home/asaf/devel/optee/optee_os/lib/libutee/tee_api_operations.c:552
     d64:	9100c3a1 	add	x1, x29, #0x30
     d68:	aa1503e0 	mov	x0, x21
     d6c:	94000ac8 	bl	388c <TEE_GetObjectInfo1>
     d70:	2a0003f4 	mov	w20, w0
/home/asaf/devel/optee/optee_os/lib/libutee/tee_api_operations.c:554
     d74:	35fffc40 	cbnz	w0, cfc <TEE_SetOperationKey+0x18>
/home/asaf/devel/optee/optee_os/lib/libutee/tee_api_operations.c:558
     d78:	b9401a60 	ldr	w0, [x19,#24]
     d7c:	b9403fa1 	ldr	w1, [x29,#60]
     d80:	6a21001f 	bics	wzr, w0, w1
     d84:	54fffba1 	b.ne	cf8 <TEE_SetOperationKey+0x14>
/home/asaf/devel/optee/optee_os/lib/libutee/tee_api_operations.c:564
     d88:	b9401260 	ldr	w0, [x19,#16]
     d8c:	b94037b6 	ldr	w22, [x29,#52]
     d90:	6b16001f 	cmp	w0, w22
     d94:	54fffb23 	b.cc	cf8 <TEE_SetOperationKey+0x14>
/home/asaf/devel/optee/optee_os/lib/libutee/tee_api_operations.c:571
     d98:	f9401260 	ldr	x0, [x19,#32]
     d9c:	94000b88 	bl	3bbc <TEE_ResetTransientObject>
/home/asaf/devel/optee/optee_os/lib/libutee/tee_api_operations.c:572
     da0:	b9401e60 	ldr	w0, [x19,#28]
/home/asaf/devel/optee/optee_os/lib/libutee/tee_api_operations.c:574
     da4:	aa1503e1 	mov	x1, x21
/home/asaf/devel/optee/optee_os/lib/libutee/tee_api_operations.c:572
     da8:	120d7800 	and	w0, w0, #0xfffbffff
     dac:	b9001e60 	str	w0, [x19,#28]
/home/asaf/devel/optee/optee_os/lib/libutee/tee_api_operations.c:574
     db0:	f9401260 	ldr	x0, [x19,#32]
     db4:	94000bf0 	bl	3d74 <TEE_CopyObjectAttributes1>
     db8:	2a0003f4 	mov	w20, w0
/home/asaf/devel/optee/optee_os/lib/libutee/tee_api_operations.c:575
     dbc:	35fffa00 	cbnz	w0, cfc <TEE_SetOperationKey+0x18>
/home/asaf/devel/optee/optee_os/lib/libutee/tee_api_operations.c:578
     dc0:	b9401e60 	ldr	w0, [x19,#28]
/home/asaf/devel/optee/optee_os/lib/libutee/tee_api_operations.c:580
     dc4:	b9001676 	str	w22, [x19,#20]
/home/asaf/devel/optee/optee_os/lib/libutee/tee_api_operations.c:578
     dc8:	320e0000 	orr	w0, w0, #0x40000
     dcc:	b9001e60 	str	w0, [x19,#28]
     dd0:	17ffffcb 	b	cfc <TEE_SetOperationKey+0x18>

0000000000000dd4 <TEE_SetOperationKey2>:
TEE_SetOperationKey2():
/home/asaf/devel/optee/optee_os/lib/libutee/tee_api_operations.c:593
     dd4:	a9b87bfd 	stp	x29, x30, [sp,#-128]!
     dd8:	910003fd 	mov	x29, sp
     ddc:	a90153f3 	stp	x19, x20, [sp,#16]
     de0:	a9025bf5 	stp	x21, x22, [sp,#32]
     de4:	f9001bf7 	str	x23, [sp,#48]
/home/asaf/devel/optee/optee_os/lib/libutee/tee_api_operations.c:599
     de8:	b50001e0 	cbnz	x0, e24 <TEE_SetOperationKey2+0x50>
/home/asaf/devel/optee/optee_os/lib/libutee/tee_api_operations.c:620
     dec:	129fff34 	mov	w20, #0xffff0006            	// #-65530
/home/asaf/devel/optee/optee_os/lib/libutee/tee_api_operations.c:707
     df0:	12be0200 	mov	w0, #0xfefffff             	// #267386879
/home/asaf/devel/optee/optee_os/lib/libutee/tee_api_operations.c:706
     df4:	7100029f 	cmp	w20, #0x0
/home/asaf/devel/optee/optee_os/lib/libutee/tee_api_operations.c:707
     df8:	0b000280 	add	w0, w20, w0
/home/asaf/devel/optee/optee_os/lib/libutee/tee_api_operations.c:706
     dfc:	7a431800 	ccmp	w0, #0x3, #0x0, ne
     e00:	54000069 	b.ls	e0c <TEE_SetOperationKey2+0x38>
/home/asaf/devel/optee/optee_os/lib/libutee/tee_api_operations.c:711
     e04:	2a1403e0 	mov	w0, w20
     e08:	9400061e 	bl	2680 <TEE_Panic>
/home/asaf/devel/optee/optee_os/lib/libutee/tee_api_operations.c:714
     e0c:	2a1403e0 	mov	w0, w20
     e10:	f9401bf7 	ldr	x23, [sp,#48]
     e14:	a94153f3 	ldp	x19, x20, [sp,#16]
     e18:	a9425bf5 	ldp	x21, x22, [sp,#32]
     e1c:	a8c87bfd 	ldp	x29, x30, [sp],#128
     e20:	d65f03c0 	ret
     e24:	aa0003f3 	mov	x19, x0
/home/asaf/devel/optee/optee_os/lib/libutee/tee_api_operations.c:604
     e28:	b9403000 	ldr	w0, [x0,#48]
     e2c:	35fffe00 	cbnz	w0, dec <TEE_SetOperationKey2+0x18>
/home/asaf/devel/optee/optee_os/lib/libutee/tee_api_operations.c:613
     e30:	f100003f 	cmp	x1, #0x0
     e34:	aa0103f6 	mov	x22, x1
     e38:	aa0203f5 	mov	x21, x2
     e3c:	fa401844 	ccmp	x2, #0x0, #0x4, ne
     e40:	54000121 	b.ne	e64 <TEE_SetOperationKey2+0x90>
/home/asaf/devel/optee/optee_os/lib/libutee/tee_api_operations.c:615
     e44:	b4000081 	cbz	x1, e54 <TEE_SetOperationKey2+0x80>
/home/asaf/devel/optee/optee_os/lib/libutee/tee_api_operations.c:619
     e48:	f9401660 	ldr	x0, [x19,#40]
     e4c:	94000b5c 	bl	3bbc <TEE_ResetTransientObject>
     e50:	17ffffe7 	b	dec <TEE_SetOperationKey2+0x18>
/home/asaf/devel/optee/optee_os/lib/libutee/tee_api_operations.c:616
     e54:	f9401260 	ldr	x0, [x19,#32]
     e58:	94000b59 	bl	3bbc <TEE_ResetTransientObject>
/home/asaf/devel/optee/optee_os/lib/libutee/tee_api_operations.c:618
     e5c:	b5fffc95 	cbnz	x21, dec <TEE_SetOperationKey2+0x18>
     e60:	17fffffa 	b	e48 <TEE_SetOperationKey2+0x74>
/home/asaf/devel/optee/optee_os/lib/libutee/tee_api_operations.c:625
     e64:	b9400660 	ldr	w0, [x19,#4]
     e68:	7100141f 	cmp	w0, #0x5
     e6c:	54fffc00 	b.eq	dec <TEE_SetOperationKey2+0x18>
/home/asaf/devel/optee/optee_os/lib/libutee/tee_api_operations.c:631
     e70:	b9401e60 	ldr	w0, [x19,#28]
     e74:	369ffbc0 	tbz	w0, #19, dec <TEE_SetOperationKey2+0x18>
/home/asaf/devel/optee/optee_os/lib/libutee/tee_api_operations.c:637
     e78:	910103a1 	add	x1, x29, #0x40
     e7c:	aa1603e0 	mov	x0, x22
     e80:	94000a83 	bl	388c <TEE_GetObjectInfo1>
     e84:	2a0003f4 	mov	w20, w0
/home/asaf/devel/optee/optee_os/lib/libutee/tee_api_operations.c:639
     e88:	35fffb40 	cbnz	w0, df0 <TEE_SetOperationKey2+0x1c>
/home/asaf/devel/optee/optee_os/lib/libutee/tee_api_operations.c:643
     e8c:	b9401a60 	ldr	w0, [x19,#24]
     e90:	b9404fa1 	ldr	w1, [x29,#76]
     e94:	6a21001f 	bics	wzr, w0, w1
     e98:	54fffaa1 	b.ne	dec <TEE_SetOperationKey2+0x18>
/home/asaf/devel/optee/optee_os/lib/libutee/tee_api_operations.c:649
     e9c:	910183a1 	add	x1, x29, #0x60
     ea0:	aa1503e0 	mov	x0, x21
     ea4:	94000a7a 	bl	388c <TEE_GetObjectInfo1>
     ea8:	2a0003f4 	mov	w20, w0
/home/asaf/devel/optee/optee_os/lib/libutee/tee_api_operations.c:651
     eac:	34000100 	cbz	w0, ecc <TEE_SetOperationKey2+0xf8>
/home/asaf/devel/optee/optee_os/lib/libutee/tee_api_operations.c:652
     eb0:	52800020 	mov	w0, #0x1                   	// #1
     eb4:	72be0200 	movk	w0, #0xf010, lsl #16
     eb8:	6b00029f 	cmp	w20, w0
     ebc:	54fff9a1 	b.ne	df0 <TEE_SetOperationKey2+0x1c>
/home/asaf/devel/optee/optee_os/lib/libutee/tee_api_operations.c:653
     ec0:	52800054 	mov	w20, #0x2                   	// #2
     ec4:	72be0214 	movk	w20, #0xf010, lsl #16
     ec8:	17ffffca 	b	df0 <TEE_SetOperationKey2+0x1c>
/home/asaf/devel/optee/optee_os/lib/libutee/tee_api_operations.c:658
     ecc:	b9401a60 	ldr	w0, [x19,#24]
     ed0:	b9406fa1 	ldr	w1, [x29,#108]
     ed4:	6a21001f 	bics	wzr, w0, w1
     ed8:	54fff8a1 	b.ne	dec <TEE_SetOperationKey2+0x18>
/home/asaf/devel/optee/optee_os/lib/libutee/tee_api_operations.c:668
     edc:	b9400261 	ldr	w1, [x19]
     ee0:	52808200 	mov	w0, #0x410                 	// #1040
     ee4:	72a20000 	movk	w0, #0x1000, lsl #16
     ee8:	b94047b7 	ldr	w23, [x29,#68]
     eec:	6b00003f 	cmp	w1, w0
     ef0:	54000081 	b.ne	f00 <TEE_SetOperationKey2+0x12c>
/home/asaf/devel/optee/optee_os/lib/libutee/tee_api_operations.c:668 (discriminator 1)
     ef4:	b94067a0 	ldr	w0, [x29,#100]
     ef8:	6b0002ff 	cmp	w23, w0
     efc:	54fff781 	b.ne	dec <TEE_SetOperationKey2+0x18>
/home/asaf/devel/optee/optee_os/lib/libutee/tee_api_operations.c:675
     f00:	b9401260 	ldr	w0, [x19,#16]
     f04:	6b17001f 	cmp	w0, w23
     f08:	54fff723 	b.cc	dec <TEE_SetOperationKey2+0x18>
/home/asaf/devel/optee/optee_os/lib/libutee/tee_api_operations.c:686
     f0c:	f9401260 	ldr	x0, [x19,#32]
     f10:	94000b2b 	bl	3bbc <TEE_ResetTransientObject>
/home/asaf/devel/optee/optee_os/lib/libutee/tee_api_operations.c:687
     f14:	f9401660 	ldr	x0, [x19,#40]
     f18:	94000b29 	bl	3bbc <TEE_ResetTransientObject>
/home/asaf/devel/optee/optee_os/lib/libutee/tee_api_operations.c:688
     f1c:	b9401e60 	ldr	w0, [x19,#28]
/home/asaf/devel/optee/optee_os/lib/libutee/tee_api_operations.c:690
     f20:	aa1603e1 	mov	x1, x22
/home/asaf/devel/optee/optee_os/lib/libutee/tee_api_operations.c:688
     f24:	120d7800 	and	w0, w0, #0xfffbffff
     f28:	b9001e60 	str	w0, [x19,#28]
/home/asaf/devel/optee/optee_os/lib/libutee/tee_api_operations.c:690
     f2c:	f9401260 	ldr	x0, [x19,#32]
     f30:	94000b91 	bl	3d74 <TEE_CopyObjectAttributes1>
     f34:	2a0003f4 	mov	w20, w0
/home/asaf/devel/optee/optee_os/lib/libutee/tee_api_operations.c:691
     f38:	35fff5c0 	cbnz	w0, df0 <TEE_SetOperationKey2+0x1c>
/home/asaf/devel/optee/optee_os/lib/libutee/tee_api_operations.c:694
     f3c:	f9401660 	ldr	x0, [x19,#40]
     f40:	aa1503e1 	mov	x1, x21
     f44:	94000b8c 	bl	3d74 <TEE_CopyObjectAttributes1>
     f48:	2a0003f4 	mov	w20, w0
/home/asaf/devel/optee/optee_os/lib/libutee/tee_api_operations.c:695
     f4c:	35fffb20 	cbnz	w0, eb0 <TEE_SetOperationKey2+0xdc>
/home/asaf/devel/optee/optee_os/lib/libutee/tee_api_operations.c:701
     f50:	b9401e60 	ldr	w0, [x19,#28]
/home/asaf/devel/optee/optee_os/lib/libutee/tee_api_operations.c:703
     f54:	b9001677 	str	w23, [x19,#20]
/home/asaf/devel/optee/optee_os/lib/libutee/tee_api_operations.c:701
     f58:	320e0000 	orr	w0, w0, #0x40000
     f5c:	b9001e60 	str	w0, [x19,#28]
     f60:	17ffffa4 	b	df0 <TEE_SetOperationKey2+0x1c>

0000000000000f64 <TEE_CopyOperation>:
TEE_CopyOperation():
/home/asaf/devel/optee/optee_os/lib/libutee/tee_api_operations.c:717
     f64:	a9be7bfd 	stp	x29, x30, [sp,#-32]!
/home/asaf/devel/optee/optee_os/lib/libutee/tee_api_operations.c:720
     f68:	f100001f 	cmp	x0, #0x0
     f6c:	fa401824 	ccmp	x1, #0x0, #0x4, ne
/home/asaf/devel/optee/optee_os/lib/libutee/tee_api_operations.c:717
     f70:	910003fd 	mov	x29, sp
     f74:	a90153f3 	stp	x19, x20, [sp,#16]
     f78:	aa0003f4 	mov	x20, x0
     f7c:	aa0103f3 	mov	x19, x1
/home/asaf/devel/optee/optee_os/lib/libutee/tee_api_operations.c:720
     f80:	54000061 	b.ne	f8c <TEE_CopyOperation+0x28>
/home/asaf/devel/optee/optee_os/lib/libutee/tee_api_operations.c:721
     f84:	52800000 	mov	w0, #0x0                   	// #0
     f88:	940005be 	bl	2680 <TEE_Panic>
/home/asaf/devel/optee/optee_os/lib/libutee/tee_api_operations.c:722
     f8c:	b9400260 	ldr	w0, [x19]
     f90:	b9400281 	ldr	w1, [x20]
     f94:	6b00003f 	cmp	w1, w0
     f98:	54000060 	b.eq	fa4 <TEE_CopyOperation+0x40>
/home/asaf/devel/optee/optee_os/lib/libutee/tee_api_operations.c:723
     f9c:	52800000 	mov	w0, #0x0                   	// #0
     fa0:	940005b8 	bl	2680 <TEE_Panic>
/home/asaf/devel/optee/optee_os/lib/libutee/tee_api_operations.c:724
     fa4:	b9400660 	ldr	w0, [x19,#4]
     fa8:	7100141f 	cmp	w0, #0x5
     fac:	540000e0 	b.eq	fc8 <TEE_CopyOperation+0x64>
/home/asaf/devel/optee/optee_os/lib/libutee/tee_api_operations.c:728
     fb0:	b9401e60 	ldr	w0, [x19,#28]
     fb4:	369004e0 	tbz	w0, #18, 1050 <TEE_CopyOperation+0xec>
/home/asaf/devel/optee/optee_os/lib/libutee/tee_api_operations.c:730
     fb8:	a9420a61 	ldp	x1, x2, [x19,#32]
/home/asaf/devel/optee/optee_os/lib/libutee/tee_api_operations.c:733
     fbc:	37980500 	tbnz	w0, #19, 105c <TEE_CopyOperation+0xf8>
/home/asaf/devel/optee/optee_os/lib/libutee/tee_api_operations.c:735
     fc0:	aa1403e0 	mov	x0, x20
     fc4:	97ffff48 	bl	ce4 <TEE_SetOperationKey>
/home/asaf/devel/optee/optee_os/lib/libutee/tee_api_operations.c:740
     fc8:	b9401e60 	ldr	w0, [x19,#28]
     fcc:	b9001e80 	str	w0, [x20,#28]
/home/asaf/devel/optee/optee_os/lib/libutee/tee_api_operations.c:741
     fd0:	b9401660 	ldr	w0, [x19,#20]
     fd4:	b9001680 	str	w0, [x20,#20]
/home/asaf/devel/optee/optee_os/lib/libutee/tee_api_operations.c:742
     fd8:	b9403260 	ldr	w0, [x19,#48]
/home/asaf/devel/optee/optee_os/lib/libutee/tee_api_operations.c:744
     fdc:	39410281 	ldrb	w1, [x20,#64]
/home/asaf/devel/optee/optee_os/lib/libutee/tee_api_operations.c:742
     fe0:	b9003280 	str	w0, [x20,#48]
/home/asaf/devel/optee/optee_os/lib/libutee/tee_api_operations.c:744
     fe4:	39410260 	ldrb	w0, [x19,#64]
     fe8:	6b00003f 	cmp	w1, w0
     fec:	540000a1 	b.ne	1000 <TEE_CopyOperation+0x9c>
/home/asaf/devel/optee/optee_os/lib/libutee/tee_api_operations.c:744 (discriminator 1)
     ff0:	f9402660 	ldr	x0, [x19,#72]
     ff4:	f9402681 	ldr	x1, [x20,#72]
     ff8:	eb00003f 	cmp	x1, x0
     ffc:	54000060 	b.eq	1008 <TEE_CopyOperation+0xa4>
/home/asaf/devel/optee/optee_os/lib/libutee/tee_api_operations.c:746
    1000:	52800000 	mov	w0, #0x0                   	// #0
    1004:	9400059f 	bl	2680 <TEE_Panic>
/home/asaf/devel/optee/optee_os/lib/libutee/tee_api_operations.c:748
    1008:	f9401e81 	ldr	x1, [x20,#56]
    100c:	f9401e60 	ldr	x0, [x19,#56]
    1010:	b40002c1 	cbz	x1, 1068 <TEE_CopyOperation+0x104>
/home/asaf/devel/optee/optee_os/lib/libutee/tee_api_operations.c:749
    1014:	b5000040 	cbnz	x0, 101c <TEE_CopyOperation+0xb8>
/home/asaf/devel/optee/optee_os/lib/libutee/tee_api_operations.c:750
    1018:	9400059a 	bl	2680 <TEE_Panic>
/home/asaf/devel/optee/optee_os/lib/libutee/tee_api_operations.c:752
    101c:	f9401e61 	ldr	x1, [x19,#56]
    1020:	f9402a62 	ldr	x2, [x19,#80]
    1024:	f9401e80 	ldr	x0, [x20,#56]
    1028:	94001357 	bl	5d84 <memcpy>
/home/asaf/devel/optee/optee_os/lib/libutee/tee_api_operations.c:753
    102c:	f9402a60 	ldr	x0, [x19,#80]
    1030:	f9002a80 	str	x0, [x20,#80]
/home/asaf/devel/optee/optee_os/lib/libutee/tee_api_operations.c:758
    1034:	b9405a61 	ldr	w1, [x19,#88]
    1038:	b9405a80 	ldr	w0, [x20,#88]
    103c:	94000676 	bl	2a14 <utee_cryp_state_copy>
/home/asaf/devel/optee/optee_os/lib/libutee/tee_api_operations.c:759
    1040:	340001c0 	cbz	w0, 1078 <TEE_CopyOperation+0x114>
/home/asaf/devel/optee/optee_os/lib/libutee/tee_api_operations.c:761
    1044:	a94153f3 	ldp	x19, x20, [sp,#16]
    1048:	a8c27bfd 	ldp	x29, x30, [sp],#32
/home/asaf/devel/optee/optee_os/lib/libutee/tee_api_operations.c:760
    104c:	1400058d 	b	2680 <TEE_Panic>
/home/asaf/devel/optee/optee_os/lib/libutee/tee_api_operations.c:726
    1050:	d2800002 	mov	x2, #0x0                   	// #0
/home/asaf/devel/optee/optee_os/lib/libutee/tee_api_operations.c:725
    1054:	d2800001 	mov	x1, #0x0                   	// #0
    1058:	17ffffd9 	b	fbc <TEE_CopyOperation+0x58>
/home/asaf/devel/optee/optee_os/lib/libutee/tee_api_operations.c:737
    105c:	aa1403e0 	mov	x0, x20
    1060:	97ffff5d 	bl	dd4 <TEE_SetOperationKey2>
    1064:	17ffffd9 	b	fc8 <TEE_CopyOperation+0x64>
/home/asaf/devel/optee/optee_os/lib/libutee/tee_api_operations.c:754
    1068:	b4fffe60 	cbz	x0, 1034 <TEE_CopyOperation+0xd0>
/home/asaf/devel/optee/optee_os/lib/libutee/tee_api_operations.c:755
    106c:	52800000 	mov	w0, #0x0                   	// #0
    1070:	94000584 	bl	2680 <TEE_Panic>
    1074:	17fffff0 	b	1034 <TEE_CopyOperation+0xd0>
/home/asaf/devel/optee/optee_os/lib/libutee/tee_api_operations.c:761
    1078:	a94153f3 	ldp	x19, x20, [sp,#16]
    107c:	a8c27bfd 	ldp	x29, x30, [sp],#32
    1080:	d65f03c0 	ret

0000000000001084 <TEE_DigestUpdate>:
TEE_DigestUpdate():
/home/asaf/devel/optee/optee_os/lib/libutee/tee_api_operations.c:783
    1084:	a9bd7bfd 	stp	x29, x30, [sp,#-48]!
    1088:	910003fd 	mov	x29, sp
    108c:	a90153f3 	stp	x19, x20, [sp,#16]
    1090:	aa0003f3 	mov	x19, x0
    1094:	f90013f5 	str	x21, [sp,#32]
    1098:	aa0103f4 	mov	x20, x1
    109c:	2a0203f5 	mov	w21, w2
/home/asaf/devel/optee/optee_os/lib/libutee/tee_api_operations.c:786
    10a0:	b4000080 	cbz	x0, 10b0 <TEE_DigestUpdate+0x2c>
/home/asaf/devel/optee/optee_os/lib/libutee/tee_api_operations.c:786 (discriminator 1)
    10a4:	b9400400 	ldr	w0, [x0,#4]
    10a8:	7100141f 	cmp	w0, #0x5
    10ac:	54000060 	b.eq	10b8 <TEE_DigestUpdate+0x34>
/home/asaf/devel/optee/optee_os/lib/libutee/tee_api_operations.c:788
    10b0:	52800000 	mov	w0, #0x0                   	// #0
    10b4:	94000573 	bl	2680 <TEE_Panic>
/home/asaf/devel/optee/optee_os/lib/libutee/tee_api_operations.c:790
    10b8:	52800020 	mov	w0, #0x1                   	// #1
    10bc:	b9003260 	str	w0, [x19,#48]
/home/asaf/devel/optee/optee_os/lib/libutee/tee_api_operations.c:792
    10c0:	b9405a60 	ldr	w0, [x19,#88]
    10c4:	2a1503e2 	mov	w2, w21
    10c8:	aa1403e1 	mov	x1, x20
    10cc:	9400065b 	bl	2a38 <utee_hash_update>
/home/asaf/devel/optee/optee_os/lib/libutee/tee_api_operations.c:793
    10d0:	340000a0 	cbz	w0, 10e4 <TEE_DigestUpdate+0x60>
/home/asaf/devel/optee/optee_os/lib/libutee/tee_api_operations.c:795
    10d4:	a94153f3 	ldp	x19, x20, [sp,#16]
    10d8:	f94013f5 	ldr	x21, [sp,#32]
    10dc:	a8c37bfd 	ldp	x29, x30, [sp],#48
/home/asaf/devel/optee/optee_os/lib/libutee/tee_api_operations.c:794
    10e0:	14000568 	b	2680 <TEE_Panic>
/home/asaf/devel/optee/optee_os/lib/libutee/tee_api_operations.c:795
    10e4:	a94153f3 	ldp	x19, x20, [sp,#16]
    10e8:	f94013f5 	ldr	x21, [sp,#32]
    10ec:	a8c37bfd 	ldp	x29, x30, [sp],#48
    10f0:	d65f03c0 	ret

00000000000010f4 <TEE_DigestDoFinal>:
TEE_DigestDoFinal():
/home/asaf/devel/optee/optee_os/lib/libutee/tee_api_operations.c:799
    10f4:	a9bc7bfd 	stp	x29, x30, [sp,#-64]!
    10f8:	910003fd 	mov	x29, sp
    10fc:	a90153f3 	stp	x19, x20, [sp,#16]
    1100:	aa0003f3 	mov	x19, x0
    1104:	f90013f5 	str	x21, [sp,#32]
/home/asaf/devel/optee/optee_os/lib/libutee/tee_api_operations.c:808
    1108:	129fff34 	mov	w20, #0xffff0006            	// #-65530
/home/asaf/devel/optee/optee_os/lib/libutee/tee_api_operations.c:803
    110c:	b4000400 	cbz	x0, 118c <TEE_DigestDoFinal+0x98>
/home/asaf/devel/optee/optee_os/lib/libutee/tee_api_operations.c:804 (discriminator 1)
    1110:	f100003f 	cmp	x1, #0x0
/home/asaf/devel/optee/optee_os/lib/libutee/tee_api_operations.c:803 (discriminator 1)
    1114:	7a400844 	ccmp	w2, #0x0, #0x4, eq
    1118:	540003a1 	b.ne	118c <TEE_DigestDoFinal+0x98>
/home/asaf/devel/optee/optee_os/lib/libutee/tee_api_operations.c:805
    111c:	f100007f 	cmp	x3, #0x0
    1120:	aa0403f5 	mov	x21, x4
    1124:	fa401884 	ccmp	x4, #0x0, #0x4, ne
    1128:	54000320 	b.eq	118c <TEE_DigestDoFinal+0x98>
/home/asaf/devel/optee/optee_os/lib/libutee/tee_api_operations.c:806
    112c:	b9400660 	ldr	w0, [x19,#4]
    1130:	7100141f 	cmp	w0, #0x5
    1134:	540002c1 	b.ne	118c <TEE_DigestDoFinal+0x98>
/home/asaf/devel/optee/optee_os/lib/libutee/tee_api_operations.c:812
    1138:	910103a4 	add	x4, x29, #0x40
    113c:	b94002a0 	ldr	w0, [x21]
/home/asaf/devel/optee/optee_os/lib/libutee/tee_api_operations.c:813
    1140:	2a0203e2 	mov	w2, w2
/home/asaf/devel/optee/optee_os/lib/libutee/tee_api_operations.c:812
    1144:	f81f8c80 	str	x0, [x4,#-8]!
/home/asaf/devel/optee/optee_os/lib/libutee/tee_api_operations.c:813
    1148:	b9405a60 	ldr	w0, [x19,#88]
    114c:	9400063e 	bl	2a44 <utee_hash_final>
    1150:	2a0003f4 	mov	w20, w0
/home/asaf/devel/optee/optee_os/lib/libutee/tee_api_operations.c:814
    1154:	f9401fa0 	ldr	x0, [x29,#56]
    1158:	b90002a0 	str	w0, [x21]
/home/asaf/devel/optee/optee_os/lib/libutee/tee_api_operations.c:815
    115c:	35000194 	cbnz	w20, 118c <TEE_DigestDoFinal+0x98>
init_hash_operation():
/home/asaf/devel/optee/optee_os/lib/libutee/tee_api_operations.c:774
    1160:	b9405a60 	ldr	w0, [x19,#88]
    1164:	d2800002 	mov	x2, #0x0                   	// #0
    1168:	d2800001 	mov	x1, #0x0                   	// #0
    116c:	94000630 	bl	2a2c <utee_hash_init>
/home/asaf/devel/optee/optee_os/lib/libutee/tee_api_operations.c:775
    1170:	34000040 	cbz	w0, 1178 <TEE_DigestDoFinal+0x84>
/home/asaf/devel/optee/optee_os/lib/libutee/tee_api_operations.c:776
    1174:	94000543 	bl	2680 <TEE_Panic>
/home/asaf/devel/optee/optee_os/lib/libutee/tee_api_operations.c:778
    1178:	b9401e60 	ldr	w0, [x19,#28]
TEE_DigestDoFinal():
/home/asaf/devel/optee/optee_os/lib/libutee/tee_api_operations.c:821
    117c:	b900327f 	str	wzr, [x19,#48]
init_hash_operation():
/home/asaf/devel/optee/optee_os/lib/libutee/tee_api_operations.c:778
    1180:	320f0000 	orr	w0, w0, #0x20000
/home/asaf/devel/optee/optee_os/lib/libutee/tee_api_operations.c:777
    1184:	f9002a7f 	str	xzr, [x19,#80]
/home/asaf/devel/optee/optee_os/lib/libutee/tee_api_operations.c:778
    1188:	b9001e60 	str	w0, [x19,#28]
TEE_DigestDoFinal():
/home/asaf/devel/optee/optee_os/lib/libutee/tee_api_operations.c:824
    118c:	7100029f 	cmp	w20, #0x0
    1190:	129ffde0 	mov	w0, #0xffff0010            	// #-65520
    1194:	7a401284 	ccmp	w20, w0, #0x4, ne
    1198:	54000060 	b.eq	11a4 <TEE_DigestDoFinal+0xb0>
/home/asaf/devel/optee/optee_os/lib/libutee/tee_api_operations.c:826
    119c:	2a1403e0 	mov	w0, w20
    11a0:	94000538 	bl	2680 <TEE_Panic>
/home/asaf/devel/optee/optee_os/lib/libutee/tee_api_operations.c:829
    11a4:	2a1403e0 	mov	w0, w20
    11a8:	f94013f5 	ldr	x21, [sp,#32]
    11ac:	a94153f3 	ldp	x19, x20, [sp,#16]
    11b0:	a8c47bfd 	ldp	x29, x30, [sp],#64
    11b4:	d65f03c0 	ret

00000000000011b8 <TEE_CipherInit>:
TEE_CipherInit():
/home/asaf/devel/optee/optee_os/lib/libutee/tee_api_operations.c:835
    11b8:	a9bd7bfd 	stp	x29, x30, [sp,#-48]!
    11bc:	910003fd 	mov	x29, sp
    11c0:	a90153f3 	stp	x19, x20, [sp,#16]
    11c4:	aa0003f3 	mov	x19, x0
    11c8:	f90013f5 	str	x21, [sp,#32]
    11cc:	aa0103f4 	mov	x20, x1
    11d0:	2a0203f5 	mov	w21, w2
/home/asaf/devel/optee/optee_os/lib/libutee/tee_api_operations.c:838
    11d4:	b5000060 	cbnz	x0, 11e0 <TEE_CipherInit+0x28>
/home/asaf/devel/optee/optee_os/lib/libutee/tee_api_operations.c:839
    11d8:	52800000 	mov	w0, #0x0                   	// #0
    11dc:	94000529 	bl	2680 <TEE_Panic>
/home/asaf/devel/optee/optee_os/lib/libutee/tee_api_operations.c:841
    11e0:	b9400660 	ldr	w0, [x19,#4]
    11e4:	7100041f 	cmp	w0, #0x1
    11e8:	54000060 	b.eq	11f4 <TEE_CipherInit+0x3c>
/home/asaf/devel/optee/optee_os/lib/libutee/tee_api_operations.c:842
    11ec:	52800000 	mov	w0, #0x0                   	// #0
    11f0:	94000524 	bl	2680 <TEE_Panic>
/home/asaf/devel/optee/optee_os/lib/libutee/tee_api_operations.c:844
    11f4:	b9401e60 	ldr	w0, [x19,#28]
    11f8:	36900060 	tbz	w0, #18, 1204 <TEE_CipherInit+0x4c>
/home/asaf/devel/optee/optee_os/lib/libutee/tee_api_operations.c:844 (discriminator 1)
    11fc:	f9401260 	ldr	x0, [x19,#32]
    1200:	b5000060 	cbnz	x0, 120c <TEE_CipherInit+0x54>
/home/asaf/devel/optee/optee_os/lib/libutee/tee_api_operations.c:846
    1204:	52800000 	mov	w0, #0x0                   	// #0
    1208:	9400051e 	bl	2680 <TEE_Panic>
/home/asaf/devel/optee/optee_os/lib/libutee/tee_api_operations.c:848
    120c:	b9403260 	ldr	w0, [x19,#48]
    1210:	34000060 	cbz	w0, 121c <TEE_CipherInit+0x64>
/home/asaf/devel/optee/optee_os/lib/libutee/tee_api_operations.c:849
    1214:	aa1303e0 	mov	x0, x19
    1218:	97fffe95 	bl	c6c <TEE_ResetOperation>
/home/asaf/devel/optee/optee_os/lib/libutee/tee_api_operations.c:851
    121c:	52800020 	mov	w0, #0x1                   	// #1
    1220:	b9003260 	str	w0, [x19,#48]
/home/asaf/devel/optee/optee_os/lib/libutee/tee_api_operations.c:853
    1224:	b9405a60 	ldr	w0, [x19,#88]
    1228:	2a1503e2 	mov	w2, w21
    122c:	aa1403e1 	mov	x1, x20
    1230:	94000608 	bl	2a50 <utee_cipher_init>
/home/asaf/devel/optee/optee_os/lib/libutee/tee_api_operations.c:854
    1234:	34000040 	cbz	w0, 123c <TEE_CipherInit+0x84>
/home/asaf/devel/optee/optee_os/lib/libutee/tee_api_operations.c:855
    1238:	94000512 	bl	2680 <TEE_Panic>
/home/asaf/devel/optee/optee_os/lib/libutee/tee_api_operations.c:858
    123c:	b9401e60 	ldr	w0, [x19,#28]
/home/asaf/devel/optee/optee_os/lib/libutee/tee_api_operations.c:859
    1240:	f94013f5 	ldr	x21, [sp,#32]
/home/asaf/devel/optee/optee_os/lib/libutee/tee_api_operations.c:858
    1244:	320f0000 	orr	w0, w0, #0x20000
/home/asaf/devel/optee/optee_os/lib/libutee/tee_api_operations.c:857
    1248:	f9002a7f 	str	xzr, [x19,#80]
/home/asaf/devel/optee/optee_os/lib/libutee/tee_api_operations.c:858
    124c:	b9001e60 	str	w0, [x19,#28]
/home/asaf/devel/optee/optee_os/lib/libutee/tee_api_operations.c:859
    1250:	a94153f3 	ldp	x19, x20, [sp,#16]
    1254:	a8c37bfd 	ldp	x29, x30, [sp],#48
    1258:	d65f03c0 	ret

000000000000125c <TEE_CipherUpdate>:
TEE_CipherUpdate():
/home/asaf/devel/optee/optee_os/lib/libutee/tee_api_operations.c:961
    125c:	a9bd7bfd 	stp	x29, x30, [sp,#-48]!
    1260:	910003fd 	mov	x29, sp
    1264:	a90153f3 	stp	x19, x20, [sp,#16]
/home/asaf/devel/optee/optee_os/lib/libutee/tee_api_operations.c:970
    1268:	129fff33 	mov	w19, #0xffff0006            	// #-65530
/home/asaf/devel/optee/optee_os/lib/libutee/tee_api_operations.c:966
    126c:	b40003c0 	cbz	x0, 12e4 <TEE_CipherUpdate+0x88>
/home/asaf/devel/optee/optee_os/lib/libutee/tee_api_operations.c:967 (discriminator 1)
    1270:	f100003f 	cmp	x1, #0x0
    1274:	aa0403f4 	mov	x20, x4
    1278:	1a9f17e5 	cset	w5, eq
    127c:	7100005f 	cmp	w2, #0x0
    1280:	2a0203e6 	mov	w6, w2
    1284:	1a9f07e2 	cset	w2, ne
    1288:	f100029f 	cmp	x20, #0x0
    128c:	0a0200a4 	and	w4, w5, w2
    1290:	1a9f17e2 	cset	w2, eq
    1294:	2a040042 	orr	w2, w2, w4
    1298:	35000262 	cbnz	w2, 12e4 <TEE_CipherUpdate+0x88>
/home/asaf/devel/optee/optee_os/lib/libutee/tee_api_operations.c:968
    129c:	b5000063 	cbnz	x3, 12a8 <TEE_CipherUpdate+0x4c>
/home/asaf/devel/optee/optee_os/lib/libutee/tee_api_operations.c:969
    12a0:	b9400282 	ldr	w2, [x20]
    12a4:	35000202 	cbnz	w2, 12e4 <TEE_CipherUpdate+0x88>
/home/asaf/devel/optee/optee_os/lib/libutee/tee_api_operations.c:974
    12a8:	b9400402 	ldr	w2, [x0,#4]
/home/asaf/devel/optee/optee_os/lib/libutee/tee_api_operations.c:970
    12ac:	129fff33 	mov	w19, #0xffff0006            	// #-65530
/home/asaf/devel/optee/optee_os/lib/libutee/tee_api_operations.c:974
    12b0:	7100045f 	cmp	w2, #0x1
    12b4:	54000181 	b.ne	12e4 <TEE_CipherUpdate+0x88>
/home/asaf/devel/optee/optee_os/lib/libutee/tee_api_operations.c:979
    12b8:	b9401c02 	ldr	w2, [x0,#28]
    12bc:	36880142 	tbz	w2, #17, 12e4 <TEE_CipherUpdate+0x88>
/home/asaf/devel/optee/optee_os/lib/libutee/tee_api_operations.c:984
    12c0:	b9403002 	ldr	w2, [x0,#48]
    12c4:	7100045f 	cmp	w2, #0x1
    12c8:	540000e1 	b.ne	12e4 <TEE_CipherUpdate+0x88>
/home/asaf/devel/optee/optee_os/lib/libutee/tee_api_operations.c:989
    12cc:	710000df 	cmp	w6, #0x0
    12d0:	1a9f17e2 	cset	w2, eq
    12d4:	6a0200bf 	tst	w5, w2
    12d8:	540001a0 	b.eq	130c <TEE_CipherUpdate+0xb0>
/home/asaf/devel/optee/optee_os/lib/libutee/tee_api_operations.c:991
    12dc:	52800013 	mov	w19, #0x0                   	// #0
/home/asaf/devel/optee/optee_os/lib/libutee/tee_api_operations.c:990
    12e0:	b900029f 	str	wzr, [x20]
/home/asaf/devel/optee/optee_os/lib/libutee/tee_api_operations.c:1035
    12e4:	7100027f 	cmp	w19, #0x0
    12e8:	129ffde0 	mov	w0, #0xffff0010            	// #-65520
    12ec:	7a401264 	ccmp	w19, w0, #0x4, ne
    12f0:	54000060 	b.eq	12fc <TEE_CipherUpdate+0xa0>
/home/asaf/devel/optee/optee_os/lib/libutee/tee_api_operations.c:1037
    12f4:	2a1303e0 	mov	w0, w19
    12f8:	940004e2 	bl	2680 <TEE_Panic>
/home/asaf/devel/optee/optee_os/lib/libutee/tee_api_operations.c:1040
    12fc:	2a1303e0 	mov	w0, w19
    1300:	a94153f3 	ldp	x19, x20, [sp,#16]
    1304:	a8c37bfd 	ldp	x29, x30, [sp],#48
    1308:	d65f03c0 	ret
/home/asaf/devel/optee/optee_os/lib/libutee/tee_api_operations.c:996
    130c:	f9402405 	ldr	x5, [x0,#72]
    1310:	2a0603e2 	mov	w2, w6
/home/asaf/devel/optee/optee_os/lib/libutee/tee_api_operations.c:1000
    1314:	aa0203e4 	mov	x4, x2
/home/asaf/devel/optee/optee_os/lib/libutee/tee_api_operations.c:996
    1318:	f10004bf 	cmp	x5, #0x1
    131c:	540000a9 	b.ls	1330 <TEE_CipherUpdate+0xd4>
/home/asaf/devel/optee/optee_os/lib/libutee/tee_api_operations.c:997
    1320:	f9402804 	ldr	x4, [x0,#80]
    1324:	8b040044 	add	x4, x2, x4
    1328:	9ac50884 	udiv	x4, x4, x5
    132c:	9b057c84 	mul	x4, x4, x5
/home/asaf/devel/optee/optee_os/lib/libutee/tee_api_operations.c:1002
    1330:	39410007 	ldrb	w7, [x0,#64]
    1334:	340000a7 	cbz	w7, 1348 <TEE_CipherUpdate+0xec>
/home/asaf/devel/optee/optee_os/lib/libutee/tee_api_operations.c:1003
    1338:	d37ff8a7 	lsl	x7, x5, #1
/home/asaf/devel/optee/optee_os/lib/libutee/tee_api_operations.c:1004
    133c:	cb070088 	sub	x8, x4, x7
    1340:	eb07009f 	cmp	x4, x7
    1344:	9a9f8104 	csel	x4, x8, xzr, hi
/home/asaf/devel/optee/optee_os/lib/libutee/tee_api_operations.c:1013
    1348:	b9400287 	ldr	w7, [x20]
    134c:	eb07009f 	cmp	x4, x7
    1350:	54000089 	b.ls	1360 <TEE_CipherUpdate+0x104>
/home/asaf/devel/optee/optee_os/lib/libutee/tee_api_operations.c:1015
    1354:	129ffdf3 	mov	w19, #0xffff0010            	// #-65520
/home/asaf/devel/optee/optee_os/lib/libutee/tee_api_operations.c:1014
    1358:	b9000284 	str	w4, [x20]
/home/asaf/devel/optee/optee_os/lib/libutee/tee_api_operations.c:1016
    135c:	17ffffe2 	b	12e4 <TEE_CipherUpdate+0x88>
/home/asaf/devel/optee/optee_os/lib/libutee/tee_api_operations.c:1019
    1360:	f90017a7 	str	x7, [x29,#40]
/home/asaf/devel/optee/optee_os/lib/libutee/tee_api_operations.c:1020
    1364:	f10004bf 	cmp	x5, #0x1
    1368:	54000189 	b.ls	1398 <TEE_CipherUpdate+0x13c>
/home/asaf/devel/optee/optee_os/lib/libutee/tee_api_operations.c:1021
    136c:	aa0303e4 	mov	x4, x3
    1370:	aa0203e3 	mov	x3, x2
    1374:	aa0103e2 	mov	x2, x1
    1378:	f0000041 	adrp	x1, c000 <__func__.3637+0x608>
    137c:	9100a3a5 	add	x5, x29, #0x28
    1380:	f941ec21 	ldr	x1, [x1,#984]
    1384:	94000438 	bl	2464 <tee_buffer_update>
/home/asaf/devel/optee/optee_os/lib/libutee/tee_api_operations.c:1025
    1388:	2a0003f3 	mov	w19, w0
/home/asaf/devel/optee/optee_os/lib/libutee/tee_api_operations.c:1032
    138c:	f94017a0 	ldr	x0, [x29,#40]
    1390:	b9000280 	str	w0, [x20]
    1394:	17ffffd4 	b	12e4 <TEE_CipherUpdate+0x88>
/home/asaf/devel/optee/optee_os/lib/libutee/tee_api_operations.c:1024
    1398:	340000a6 	cbz	w6, 13ac <TEE_CipherUpdate+0x150>
/home/asaf/devel/optee/optee_os/lib/libutee/tee_api_operations.c:1025
    139c:	b9405800 	ldr	w0, [x0,#88]
    13a0:	9100a3a4 	add	x4, x29, #0x28
    13a4:	940005ae 	bl	2a5c <utee_cipher_update>
    13a8:	17fffff8 	b	1388 <TEE_CipherUpdate+0x12c>
/home/asaf/devel/optee/optee_os/lib/libutee/tee_api_operations.c:1028
    13ac:	52800013 	mov	w19, #0x0                   	// #0
/home/asaf/devel/optee/optee_os/lib/libutee/tee_api_operations.c:1029
    13b0:	f90017bf 	str	xzr, [x29,#40]
    13b4:	17fffff6 	b	138c <TEE_CipherUpdate+0x130>

00000000000013b8 <TEE_CipherDoFinal>:
TEE_CipherDoFinal():
/home/asaf/devel/optee/optee_os/lib/libutee/tee_api_operations.c:1045
    13b8:	a9bb7bfd 	stp	x29, x30, [sp,#-80]!
    13bc:	910003fd 	mov	x29, sp
    13c0:	a90153f3 	stp	x19, x20, [sp,#16]
/home/asaf/devel/optee/optee_os/lib/libutee/tee_api_operations.c:1056
    13c4:	129fff34 	mov	w20, #0xffff0006            	// #-65530
/home/asaf/devel/optee/optee_os/lib/libutee/tee_api_operations.c:1045
    13c8:	a9025bf5 	stp	x21, x22, [sp,#32]
    13cc:	a90363f7 	stp	x23, x24, [sp,#48]
/home/asaf/devel/optee/optee_os/lib/libutee/tee_api_operations.c:1052
    13d0:	b40005e0 	cbz	x0, 148c <TEE_CipherDoFinal+0xd4>
/home/asaf/devel/optee/optee_os/lib/libutee/tee_api_operations.c:1053 (discriminator 1)
    13d4:	f100003f 	cmp	x1, #0x0
    13d8:	aa0403f5 	mov	x21, x4
    13dc:	7a400844 	ccmp	w2, #0x0, #0x4, eq
    13e0:	fa400884 	ccmp	x4, #0x0, #0x4, eq
    13e4:	54000540 	b.eq	148c <TEE_CipherDoFinal+0xd4>
    13e8:	aa0003f3 	mov	x19, x0
    13ec:	aa0303f8 	mov	x24, x3
/home/asaf/devel/optee/optee_os/lib/libutee/tee_api_operations.c:1054
    13f0:	b5000063 	cbnz	x3, 13fc <TEE_CipherDoFinal+0x44>
/home/asaf/devel/optee/optee_os/lib/libutee/tee_api_operations.c:1055
    13f4:	b9400080 	ldr	w0, [x4]
    13f8:	350004a0 	cbnz	w0, 148c <TEE_CipherDoFinal+0xd4>
/home/asaf/devel/optee/optee_os/lib/libutee/tee_api_operations.c:1060
    13fc:	b9400660 	ldr	w0, [x19,#4]
/home/asaf/devel/optee/optee_os/lib/libutee/tee_api_operations.c:1056
    1400:	129fff34 	mov	w20, #0xffff0006            	// #-65530
/home/asaf/devel/optee/optee_os/lib/libutee/tee_api_operations.c:1060
    1404:	7100041f 	cmp	w0, #0x1
    1408:	54000421 	b.ne	148c <TEE_CipherDoFinal+0xd4>
/home/asaf/devel/optee/optee_os/lib/libutee/tee_api_operations.c:1065
    140c:	b9401e60 	ldr	w0, [x19,#28]
    1410:	368803e0 	tbz	w0, #17, 148c <TEE_CipherDoFinal+0xd4>
/home/asaf/devel/optee/optee_os/lib/libutee/tee_api_operations.c:1070
    1414:	b9403260 	ldr	w0, [x19,#48]
    1418:	7100041f 	cmp	w0, #0x1
    141c:	54000381 	b.ne	148c <TEE_CipherDoFinal+0xd4>
/home/asaf/devel/optee/optee_os/lib/libutee/tee_api_operations.c:1079
    1420:	b9400260 	ldr	w0, [x19]
    1424:	529ffe03 	mov	w3, #0xfff0                	// #65520
    1428:	72bdffe3 	movk	w3, #0xefff, lsl #16
    142c:	2a0203e2 	mov	w2, w2
    1430:	12177800 	and	w0, w0, #0xfffffeff
    1434:	0b030003 	add	w3, w0, w3
/home/asaf/devel/optee/optee_os/lib/libutee/tee_api_operations.c:1083
    1438:	7100047f 	cmp	w3, #0x1
    143c:	52800263 	mov	w3, #0x13                  	// #19
    1440:	72a20003 	movk	w3, #0x1000, lsl #16
    1444:	7a438004 	ccmp	w0, w3, #0x4, hi
    1448:	f9402663 	ldr	x3, [x19,#72]
    144c:	540000c1 	b.ne	1464 <TEE_CipherDoFinal+0xac>
/home/asaf/devel/optee/optee_os/lib/libutee/tee_api_operations.c:1085
    1450:	f9402a60 	ldr	x0, [x19,#80]
    1454:	8b000040 	add	x0, x2, x0
    1458:	9ac30804 	udiv	x4, x0, x3
    145c:	9b038080 	msub	x0, x4, x3, x0
    1460:	b5000160 	cbnz	x0, 148c <TEE_CipherDoFinal+0xd4>
/home/asaf/devel/optee/optee_os/lib/libutee/tee_api_operations.c:1100
    1464:	aa0203e0 	mov	x0, x2
/home/asaf/devel/optee/optee_os/lib/libutee/tee_api_operations.c:1097
    1468:	f100047f 	cmp	x3, #0x1
    146c:	54000069 	b.ls	1478 <TEE_CipherDoFinal+0xc0>
/home/asaf/devel/optee/optee_os/lib/libutee/tee_api_operations.c:1098
    1470:	f9402a60 	ldr	x0, [x19,#80]
    1474:	8b000040 	add	x0, x2, x0
/home/asaf/devel/optee/optee_os/lib/libutee/tee_api_operations.c:1102
    1478:	b94002a4 	ldr	w4, [x21]
    147c:	eb04001f 	cmp	x0, x4
    1480:	540001e9 	b.ls	14bc <TEE_CipherDoFinal+0x104>
/home/asaf/devel/optee/optee_os/lib/libutee/tee_api_operations.c:1104
    1484:	129ffdf4 	mov	w20, #0xffff0010            	// #-65520
/home/asaf/devel/optee/optee_os/lib/libutee/tee_api_operations.c:1103
    1488:	b90002a0 	str	w0, [x21]
/home/asaf/devel/optee/optee_os/lib/libutee/tee_api_operations.c:1136
    148c:	7100029f 	cmp	w20, #0x0
    1490:	129ffde0 	mov	w0, #0xffff0010            	// #-65520
    1494:	7a401284 	ccmp	w20, w0, #0x4, ne
    1498:	54000060 	b.eq	14a4 <TEE_CipherDoFinal+0xec>
/home/asaf/devel/optee/optee_os/lib/libutee/tee_api_operations.c:1138
    149c:	2a1403e0 	mov	w0, w20
    14a0:	94000478 	bl	2680 <TEE_Panic>
/home/asaf/devel/optee/optee_os/lib/libutee/tee_api_operations.c:1141
    14a4:	2a1403e0 	mov	w0, w20
    14a8:	a94153f3 	ldp	x19, x20, [sp,#16]
    14ac:	a9425bf5 	ldp	x21, x22, [sp,#32]
    14b0:	a94363f7 	ldp	x23, x24, [sp,#48]
    14b4:	a8c57bfd 	ldp	x29, x30, [sp],#80
    14b8:	d65f03c0 	ret
/home/asaf/devel/optee/optee_os/lib/libutee/tee_api_operations.c:1108
    14bc:	910143b7 	add	x23, x29, #0x50
/home/asaf/devel/optee/optee_os/lib/libutee/tee_api_operations.c:1109
    14c0:	f100047f 	cmp	x3, #0x1
/home/asaf/devel/optee/optee_os/lib/libutee/tee_api_operations.c:1108
    14c4:	f81f8ee4 	str	x4, [x23,#-8]!
/home/asaf/devel/optee/optee_os/lib/libutee/tee_api_operations.c:1109
    14c8:	540003e9 	b.ls	1544 <TEE_CipherDoFinal+0x18c>
/home/asaf/devel/optee/optee_os/lib/libutee/tee_api_operations.c:1110
    14cc:	aa0203e3 	mov	x3, x2
    14d0:	aa0103e2 	mov	x2, x1
    14d4:	f0000041 	adrp	x1, c000 <__func__.3637+0x608>
    14d8:	aa1703e5 	mov	x5, x23
    14dc:	aa1803e4 	mov	x4, x24
    14e0:	aa1303e0 	mov	x0, x19
    14e4:	f941ec21 	ldr	x1, [x1,#984]
    14e8:	940003df 	bl	2464 <tee_buffer_update>
    14ec:	2a0003f4 	mov	w20, w0
/home/asaf/devel/optee/optee_os/lib/libutee/tee_api_operations.c:1112
    14f0:	35fffce0 	cbnz	w0, 148c <TEE_CipherDoFinal+0xd4>
/home/asaf/devel/optee/optee_os/lib/libutee/tee_api_operations.c:1115
    14f4:	f94027b6 	ldr	x22, [x29,#72]
/home/asaf/devel/optee/optee_os/lib/libutee/tee_api_operations.c:1119
    14f8:	aa1703e4 	mov	x4, x23
/home/asaf/devel/optee/optee_os/lib/libutee/tee_api_operations.c:1118
    14fc:	b94002a0 	ldr	w0, [x21]
/home/asaf/devel/optee/optee_os/lib/libutee/tee_api_operations.c:1119
    1500:	f9401e61 	ldr	x1, [x19,#56]
    1504:	8b160303 	add	x3, x24, x22
/home/asaf/devel/optee/optee_os/lib/libutee/tee_api_operations.c:1118
    1508:	cb160000 	sub	x0, x0, x22
/home/asaf/devel/optee/optee_os/lib/libutee/tee_api_operations.c:1119
    150c:	f9402a62 	ldr	x2, [x19,#80]
/home/asaf/devel/optee/optee_os/lib/libutee/tee_api_operations.c:1118
    1510:	f90027a0 	str	x0, [x29,#72]
/home/asaf/devel/optee/optee_os/lib/libutee/tee_api_operations.c:1119
    1514:	b9405a60 	ldr	w0, [x19,#88]
    1518:	94000554 	bl	2a68 <utee_cipher_final>
    151c:	2a0003f4 	mov	w20, w0
/home/asaf/devel/optee/optee_os/lib/libutee/tee_api_operations.c:1125
    1520:	35fffb74 	cbnz	w20, 148c <TEE_CipherDoFinal+0xd4>
/home/asaf/devel/optee/optee_os/lib/libutee/tee_api_operations.c:1128
    1524:	f94027a0 	ldr	x0, [x29,#72]
    1528:	8b0002d6 	add	x22, x22, x0
/home/asaf/devel/optee/optee_os/lib/libutee/tee_api_operations.c:1129
    152c:	b90002b6 	str	w22, [x21]
/home/asaf/devel/optee/optee_os/lib/libutee/tee_api_operations.c:1133
    1530:	b900327f 	str	wzr, [x19,#48]
/home/asaf/devel/optee/optee_os/lib/libutee/tee_api_operations.c:1131
    1534:	b9401e60 	ldr	w0, [x19,#28]
    1538:	120e7800 	and	w0, w0, #0xfffdffff
    153c:	b9001e60 	str	w0, [x19,#28]
    1540:	17ffffd3 	b	148c <TEE_CipherDoFinal+0xd4>
/home/asaf/devel/optee/optee_os/lib/libutee/tee_api_operations.c:1122
    1544:	b9405a60 	ldr	w0, [x19,#88]
    1548:	aa1703e4 	mov	x4, x23
    154c:	aa1803e3 	mov	x3, x24
/home/asaf/devel/optee/optee_os/lib/libutee/tee_api_operations.c:1048
    1550:	d2800016 	mov	x22, #0x0                   	// #0
/home/asaf/devel/optee/optee_os/lib/libutee/tee_api_operations.c:1122
    1554:	94000545 	bl	2a68 <utee_cipher_final>
    1558:	2a0003f4 	mov	w20, w0
    155c:	17fffff1 	b	1520 <TEE_CipherDoFinal+0x168>

0000000000001560 <TEE_MACInit>:
TEE_MACInit():
/home/asaf/devel/optee/optee_os/lib/libutee/tee_api_operations.c:1146
    1560:	a9bd7bfd 	stp	x29, x30, [sp,#-48]!
    1564:	910003fd 	mov	x29, sp
    1568:	a90153f3 	stp	x19, x20, [sp,#16]
    156c:	aa0003f3 	mov	x19, x0
    1570:	f90013f5 	str	x21, [sp,#32]
    1574:	aa0103f4 	mov	x20, x1
    1578:	2a0203f5 	mov	w21, w2
/home/asaf/devel/optee/optee_os/lib/libutee/tee_api_operations.c:1147
    157c:	b5000060 	cbnz	x0, 1588 <TEE_MACInit+0x28>
/home/asaf/devel/optee/optee_os/lib/libutee/tee_api_operations.c:1148
    1580:	52800000 	mov	w0, #0x0                   	// #0
    1584:	9400043f 	bl	2680 <TEE_Panic>
/home/asaf/devel/optee/optee_os/lib/libutee/tee_api_operations.c:1150
    1588:	b9400660 	ldr	w0, [x19,#4]
    158c:	71000c1f 	cmp	w0, #0x3
    1590:	54000060 	b.eq	159c <TEE_MACInit+0x3c>
/home/asaf/devel/optee/optee_os/lib/libutee/tee_api_operations.c:1151
    1594:	52800000 	mov	w0, #0x0                   	// #0
    1598:	9400043a 	bl	2680 <TEE_Panic>
/home/asaf/devel/optee/optee_os/lib/libutee/tee_api_operations.c:1153
    159c:	b9401e60 	ldr	w0, [x19,#28]
    15a0:	36900060 	tbz	w0, #18, 15ac <TEE_MACInit+0x4c>
/home/asaf/devel/optee/optee_os/lib/libutee/tee_api_operations.c:1153 (discriminator 1)
    15a4:	f9401260 	ldr	x0, [x19,#32]
    15a8:	b5000060 	cbnz	x0, 15b4 <TEE_MACInit+0x54>
/home/asaf/devel/optee/optee_os/lib/libutee/tee_api_operations.c:1155
    15ac:	52800000 	mov	w0, #0x0                   	// #0
    15b0:	94000434 	bl	2680 <TEE_Panic>
/home/asaf/devel/optee/optee_os/lib/libutee/tee_api_operations.c:1157
    15b4:	b9403260 	ldr	w0, [x19,#48]
    15b8:	34000060 	cbz	w0, 15c4 <TEE_MACInit+0x64>
/home/asaf/devel/optee/optee_os/lib/libutee/tee_api_operations.c:1158
    15bc:	aa1303e0 	mov	x0, x19
    15c0:	97fffdab 	bl	c6c <TEE_ResetOperation>
/home/asaf/devel/optee/optee_os/lib/libutee/tee_api_operations.c:1160
    15c4:	52800020 	mov	w0, #0x1                   	// #1
    15c8:	b9003260 	str	w0, [x19,#48]
init_hash_operation():
/home/asaf/devel/optee/optee_os/lib/libutee/tee_api_operations.c:774
    15cc:	b9405a60 	ldr	w0, [x19,#88]
    15d0:	2a1503e2 	mov	w2, w21
    15d4:	aa1403e1 	mov	x1, x20
    15d8:	94000515 	bl	2a2c <utee_hash_init>
/home/asaf/devel/optee/optee_os/lib/libutee/tee_api_operations.c:775
    15dc:	34000040 	cbz	w0, 15e4 <TEE_MACInit+0x84>
/home/asaf/devel/optee/optee_os/lib/libutee/tee_api_operations.c:776
    15e0:	94000428 	bl	2680 <TEE_Panic>
/home/asaf/devel/optee/optee_os/lib/libutee/tee_api_operations.c:778
    15e4:	b9401e60 	ldr	w0, [x19,#28]
TEE_MACInit():
/home/asaf/devel/optee/optee_os/lib/libutee/tee_api_operations.c:1163
    15e8:	f94013f5 	ldr	x21, [sp,#32]
init_hash_operation():
/home/asaf/devel/optee/optee_os/lib/libutee/tee_api_operations.c:778
    15ec:	320f0000 	orr	w0, w0, #0x20000
/home/asaf/devel/optee/optee_os/lib/libutee/tee_api_operations.c:777
    15f0:	f9002a7f 	str	xzr, [x19,#80]
/home/asaf/devel/optee/optee_os/lib/libutee/tee_api_operations.c:778
    15f4:	b9001e60 	str	w0, [x19,#28]
TEE_MACInit():
/home/asaf/devel/optee/optee_os/lib/libutee/tee_api_operations.c:1163
    15f8:	a94153f3 	ldp	x19, x20, [sp,#16]
    15fc:	a8c37bfd 	ldp	x29, x30, [sp],#48
    1600:	d65f03c0 	ret

0000000000001604 <TEE_MACUpdate>:
TEE_MACUpdate():
/home/asaf/devel/optee/optee_os/lib/libutee/tee_api_operations.c:1167
    1604:	a9bd7bfd 	stp	x29, x30, [sp,#-48]!
    1608:	910003fd 	mov	x29, sp
    160c:	a90153f3 	stp	x19, x20, [sp,#16]
    1610:	aa0003f3 	mov	x19, x0
    1614:	f90013f5 	str	x21, [sp,#32]
    1618:	aa0103f4 	mov	x20, x1
    161c:	2a0203f5 	mov	w21, w2
/home/asaf/devel/optee/optee_os/lib/libutee/tee_api_operations.c:1170
    1620:	b4000080 	cbz	x0, 1630 <TEE_MACUpdate+0x2c>
/home/asaf/devel/optee/optee_os/lib/libutee/tee_api_operations.c:1170 (discriminator 1)
    1624:	f100003f 	cmp	x1, #0x0
    1628:	7a400844 	ccmp	w2, #0x0, #0x4, eq
    162c:	54000060 	b.eq	1638 <TEE_MACUpdate+0x34>
/home/asaf/devel/optee/optee_os/lib/libutee/tee_api_operations.c:1171
    1630:	52800000 	mov	w0, #0x0                   	// #0
    1634:	94000413 	bl	2680 <TEE_Panic>
/home/asaf/devel/optee/optee_os/lib/libutee/tee_api_operations.c:1173
    1638:	b9400660 	ldr	w0, [x19,#4]
    163c:	71000c1f 	cmp	w0, #0x3
    1640:	54000060 	b.eq	164c <TEE_MACUpdate+0x48>
/home/asaf/devel/optee/optee_os/lib/libutee/tee_api_operations.c:1174
    1644:	52800000 	mov	w0, #0x0                   	// #0
    1648:	9400040e 	bl	2680 <TEE_Panic>
/home/asaf/devel/optee/optee_os/lib/libutee/tee_api_operations.c:1176
    164c:	b9401e60 	ldr	w0, [x19,#28]
    1650:	37880060 	tbnz	w0, #17, 165c <TEE_MACUpdate+0x58>
/home/asaf/devel/optee/optee_os/lib/libutee/tee_api_operations.c:1177
    1654:	52800000 	mov	w0, #0x0                   	// #0
    1658:	9400040a 	bl	2680 <TEE_Panic>
/home/asaf/devel/optee/optee_os/lib/libutee/tee_api_operations.c:1179
    165c:	b9403260 	ldr	w0, [x19,#48]
    1660:	7100041f 	cmp	w0, #0x1
    1664:	54000060 	b.eq	1670 <TEE_MACUpdate+0x6c>
/home/asaf/devel/optee/optee_os/lib/libutee/tee_api_operations.c:1180
    1668:	52800000 	mov	w0, #0x0                   	// #0
    166c:	94000405 	bl	2680 <TEE_Panic>
/home/asaf/devel/optee/optee_os/lib/libutee/tee_api_operations.c:1182
    1670:	b9405a60 	ldr	w0, [x19,#88]
    1674:	2a1503e2 	mov	w2, w21
    1678:	aa1403e1 	mov	x1, x20
    167c:	940004ef 	bl	2a38 <utee_hash_update>
/home/asaf/devel/optee/optee_os/lib/libutee/tee_api_operations.c:1183
    1680:	340000a0 	cbz	w0, 1694 <TEE_MACUpdate+0x90>
/home/asaf/devel/optee/optee_os/lib/libutee/tee_api_operations.c:1185
    1684:	a94153f3 	ldp	x19, x20, [sp,#16]
    1688:	f94013f5 	ldr	x21, [sp,#32]
    168c:	a8c37bfd 	ldp	x29, x30, [sp],#48
/home/asaf/devel/optee/optee_os/lib/libutee/tee_api_operations.c:1184
    1690:	140003fc 	b	2680 <TEE_Panic>
/home/asaf/devel/optee/optee_os/lib/libutee/tee_api_operations.c:1185
    1694:	a94153f3 	ldp	x19, x20, [sp,#16]
    1698:	f94013f5 	ldr	x21, [sp,#32]
    169c:	a8c37bfd 	ldp	x29, x30, [sp],#48
    16a0:	d65f03c0 	ret

00000000000016a4 <TEE_MACComputeFinal>:
TEE_MACComputeFinal():
/home/asaf/devel/optee/optee_os/lib/libutee/tee_api_operations.c:1190
    16a4:	a9bc7bfd 	stp	x29, x30, [sp,#-64]!
    16a8:	910003fd 	mov	x29, sp
    16ac:	a90153f3 	stp	x19, x20, [sp,#16]
    16b0:	aa0003f3 	mov	x19, x0
    16b4:	f90013f5 	str	x21, [sp,#32]
/home/asaf/devel/optee/optee_os/lib/libutee/tee_api_operations.c:1198
    16b8:	129fff34 	mov	w20, #0xffff0006            	// #-65530
/home/asaf/devel/optee/optee_os/lib/libutee/tee_api_operations.c:1194
    16bc:	b40003c0 	cbz	x0, 1734 <TEE_MACComputeFinal+0x90>
/home/asaf/devel/optee/optee_os/lib/libutee/tee_api_operations.c:1195 (discriminator 1)
    16c0:	f100003f 	cmp	x1, #0x0
/home/asaf/devel/optee/optee_os/lib/libutee/tee_api_operations.c:1194 (discriminator 1)
    16c4:	7a400844 	ccmp	w2, #0x0, #0x4, eq
    16c8:	54000361 	b.ne	1734 <TEE_MACComputeFinal+0x90>
/home/asaf/devel/optee/optee_os/lib/libutee/tee_api_operations.c:1196
    16cc:	f100007f 	cmp	x3, #0x0
    16d0:	aa0403f5 	mov	x21, x4
    16d4:	fa401884 	ccmp	x4, #0x0, #0x4, ne
    16d8:	540002e0 	b.eq	1734 <TEE_MACComputeFinal+0x90>
/home/asaf/devel/optee/optee_os/lib/libutee/tee_api_operations.c:1202
    16dc:	b9400660 	ldr	w0, [x19,#4]
    16e0:	71000c1f 	cmp	w0, #0x3
    16e4:	54000281 	b.ne	1734 <TEE_MACComputeFinal+0x90>
/home/asaf/devel/optee/optee_os/lib/libutee/tee_api_operations.c:1207
    16e8:	b9401e60 	ldr	w0, [x19,#28]
    16ec:	36880240 	tbz	w0, #17, 1734 <TEE_MACComputeFinal+0x90>
/home/asaf/devel/optee/optee_os/lib/libutee/tee_api_operations.c:1212
    16f0:	b9403260 	ldr	w0, [x19,#48]
    16f4:	7100041f 	cmp	w0, #0x1
    16f8:	540001e1 	b.ne	1734 <TEE_MACComputeFinal+0x90>
/home/asaf/devel/optee/optee_os/lib/libutee/tee_api_operations.c:1217
    16fc:	910103a4 	add	x4, x29, #0x40
    1700:	b94002a0 	ldr	w0, [x21]
/home/asaf/devel/optee/optee_os/lib/libutee/tee_api_operations.c:1218
    1704:	2a0203e2 	mov	w2, w2
/home/asaf/devel/optee/optee_os/lib/libutee/tee_api_operations.c:1217
    1708:	f81f8c80 	str	x0, [x4,#-8]!
/home/asaf/devel/optee/optee_os/lib/libutee/tee_api_operations.c:1218
    170c:	b9405a60 	ldr	w0, [x19,#88]
    1710:	940004cd 	bl	2a44 <utee_hash_final>
    1714:	2a0003f4 	mov	w20, w0
/home/asaf/devel/optee/optee_os/lib/libutee/tee_api_operations.c:1219
    1718:	f9401fa0 	ldr	x0, [x29,#56]
    171c:	b90002a0 	str	w0, [x21]
/home/asaf/devel/optee/optee_os/lib/libutee/tee_api_operations.c:1220
    1720:	350000b4 	cbnz	w20, 1734 <TEE_MACComputeFinal+0x90>
/home/asaf/devel/optee/optee_os/lib/libutee/tee_api_operations.c:1223
    1724:	b9401e60 	ldr	w0, [x19,#28]
/home/asaf/devel/optee/optee_os/lib/libutee/tee_api_operations.c:1225
    1728:	b900327f 	str	wzr, [x19,#48]
/home/asaf/devel/optee/optee_os/lib/libutee/tee_api_operations.c:1223
    172c:	120e7800 	and	w0, w0, #0xfffdffff
    1730:	b9001e60 	str	w0, [x19,#28]
/home/asaf/devel/optee/optee_os/lib/libutee/tee_api_operations.c:1228
    1734:	7100029f 	cmp	w20, #0x0
    1738:	129ffde0 	mov	w0, #0xffff0010            	// #-65520
    173c:	7a401284 	ccmp	w20, w0, #0x4, ne
    1740:	54000060 	b.eq	174c <TEE_MACComputeFinal+0xa8>
/home/asaf/devel/optee/optee_os/lib/libutee/tee_api_operations.c:1230
    1744:	2a1403e0 	mov	w0, w20
    1748:	940003ce 	bl	2680 <TEE_Panic>
/home/asaf/devel/optee/optee_os/lib/libutee/tee_api_operations.c:1233
    174c:	2a1403e0 	mov	w0, w20
    1750:	f94013f5 	ldr	x21, [sp,#32]
    1754:	a94153f3 	ldp	x19, x20, [sp,#16]
    1758:	a8c47bfd 	ldp	x29, x30, [sp],#64
    175c:	d65f03c0 	ret

0000000000001760 <TEE_MACCompareFinal>:
TEE_MACCompareFinal():
/home/asaf/devel/optee/optee_os/lib/libutee/tee_api_operations.c:1238
    1760:	a9b77bfd 	stp	x29, x30, [sp,#-144]!
    1764:	910003fd 	mov	x29, sp
    1768:	a9025bf5 	stp	x21, x22, [sp,#32]
    176c:	aa0303f6 	mov	x22, x3
/home/asaf/devel/optee/optee_os/lib/libutee/tee_api_operations.c:1241
    1770:	52800803 	mov	w3, #0x40                  	// #64
/home/asaf/devel/optee/optee_os/lib/libutee/tee_api_operations.c:1238
    1774:	a90153f3 	stp	x19, x20, [sp,#16]
/home/asaf/devel/optee/optee_os/lib/libutee/tee_api_operations.c:1241
    1778:	b9004fa3 	str	w3, [x29,#76]
/home/asaf/devel/optee/optee_os/lib/libutee/tee_api_operations.c:1244
    177c:	129fff33 	mov	w19, #0xffff0006            	// #-65530
/home/asaf/devel/optee/optee_os/lib/libutee/tee_api_operations.c:1243
    1780:	b9400403 	ldr	w3, [x0,#4]
/home/asaf/devel/optee/optee_os/lib/libutee/tee_api_operations.c:1238
    1784:	f9001bf7 	str	x23, [sp,#48]
/home/asaf/devel/optee/optee_os/lib/libutee/tee_api_operations.c:1243
    1788:	71000c7f 	cmp	w3, #0x3
    178c:	54000241 	b.ne	17d4 <TEE_MACCompareFinal+0x74>
/home/asaf/devel/optee/optee_os/lib/libutee/tee_api_operations.c:1248
    1790:	b9401c03 	ldr	w3, [x0,#28]
    1794:	aa0003f4 	mov	x20, x0
    1798:	368801e3 	tbz	w3, #17, 17d4 <TEE_MACCompareFinal+0x74>
/home/asaf/devel/optee/optee_os/lib/libutee/tee_api_operations.c:1253
    179c:	b9403003 	ldr	w3, [x0,#48]
    17a0:	7100047f 	cmp	w3, #0x1
    17a4:	54000181 	b.ne	17d4 <TEE_MACCompareFinal+0x74>
/home/asaf/devel/optee/optee_os/lib/libutee/tee_api_operations.c:1258
    17a8:	910143b5 	add	x21, x29, #0x50
    17ac:	2a0403f7 	mov	w23, w4
    17b0:	aa1503e3 	mov	x3, x21
    17b4:	910133a4 	add	x4, x29, #0x4c
    17b8:	97ffffbb 	bl	16a4 <TEE_MACComputeFinal>
    17bc:	2a0003f3 	mov	w19, w0
/home/asaf/devel/optee/optee_os/lib/libutee/tee_api_operations.c:1260
    17c0:	350000a0 	cbnz	w0, 17d4 <TEE_MACCompareFinal+0x74>
/home/asaf/devel/optee/optee_os/lib/libutee/tee_api_operations.c:1263
    17c4:	b9404fa2 	ldr	w2, [x29,#76]
    17c8:	6b17005f 	cmp	w2, w23
    17cc:	540001c0 	b.eq	1804 <TEE_MACCompareFinal+0xa4>
/home/asaf/devel/optee/optee_os/lib/libutee/tee_api_operations.c:1264
    17d0:	1299f1d3 	mov	w19, #0xffff3071            	// #-53135
/home/asaf/devel/optee/optee_os/lib/libutee/tee_api_operations.c:1276
    17d4:	7100027f 	cmp	w19, #0x0
    17d8:	1299f1c0 	mov	w0, #0xffff3071            	// #-53135
    17dc:	7a401264 	ccmp	w19, w0, #0x4, ne
    17e0:	54000060 	b.eq	17ec <TEE_MACCompareFinal+0x8c>
/home/asaf/devel/optee/optee_os/lib/libutee/tee_api_operations.c:1278
    17e4:	2a1303e0 	mov	w0, w19
    17e8:	940003a6 	bl	2680 <TEE_Panic>
/home/asaf/devel/optee/optee_os/lib/libutee/tee_api_operations.c:1281
    17ec:	2a1303e0 	mov	w0, w19
    17f0:	f9401bf7 	ldr	x23, [sp,#48]
    17f4:	a94153f3 	ldp	x19, x20, [sp,#16]
    17f8:	a9425bf5 	ldp	x21, x22, [sp,#32]
    17fc:	a8c97bfd 	ldp	x29, x30, [sp],#144
    1800:	d65f03c0 	ret
/home/asaf/devel/optee/optee_os/lib/libutee/tee_api_operations.c:1268
    1804:	2a0203e2 	mov	w2, w2
    1808:	aa1503e1 	mov	x1, x21
    180c:	aa1603e0 	mov	x0, x22
    1810:	940014a2 	bl	6a98 <buf_compare_ct>
    1814:	35fffde0 	cbnz	w0, 17d0 <TEE_MACCompareFinal+0x70>
/home/asaf/devel/optee/optee_os/lib/libutee/tee_api_operations.c:1273
    1818:	b900329f 	str	wzr, [x20,#48]
    181c:	17ffffee 	b	17d4 <TEE_MACCompareFinal+0x74>

0000000000001820 <TEE_AEInit>:
TEE_AEInit():
/home/asaf/devel/optee/optee_os/lib/libutee/tee_api_operations.c:1288
    1820:	a9bd7bfd 	stp	x29, x30, [sp,#-48]!
/home/asaf/devel/optee/optee_os/lib/libutee/tee_api_operations.c:1291
    1824:	f100001f 	cmp	x0, #0x0
    1828:	fa401824 	ccmp	x1, #0x0, #0x4, ne
/home/asaf/devel/optee/optee_os/lib/libutee/tee_api_operations.c:1288
    182c:	910003fd 	mov	x29, sp
    1830:	a90153f3 	stp	x19, x20, [sp,#16]
/home/asaf/devel/optee/optee_os/lib/libutee/tee_api_operations.c:1292
    1834:	129fff34 	mov	w20, #0xffff0006            	// #-65530
/home/asaf/devel/optee/optee_os/lib/libutee/tee_api_operations.c:1288
    1838:	f90013f5 	str	x21, [sp,#32]
/home/asaf/devel/optee/optee_os/lib/libutee/tee_api_operations.c:1291
    183c:	540003e0 	b.eq	18b8 <TEE_AEInit+0x98>
    1840:	aa0003f3 	mov	x19, x0
/home/asaf/devel/optee/optee_os/lib/libutee/tee_api_operations.c:1296
    1844:	b9400400 	ldr	w0, [x0,#4]
    1848:	7100101f 	cmp	w0, #0x4
    184c:	54000361 	b.ne	18b8 <TEE_AEInit+0x98>
/home/asaf/devel/optee/optee_os/lib/libutee/tee_api_operations.c:1301
    1850:	b9403260 	ldr	w0, [x19,#48]
    1854:	35000320 	cbnz	w0, 18b8 <TEE_AEInit+0x98>
/home/asaf/devel/optee/optee_os/lib/libutee/tee_api_operations.c:1312
    1858:	b9400266 	ldr	w6, [x19]
    185c:	52810200 	mov	w0, #0x810                 	// #2064
    1860:	72a80000 	movk	w0, #0x4000, lsl #16
    1864:	6b0000df 	cmp	w6, w0
    1868:	540000e1 	b.ne	1884 <TEE_AEInit+0x64>
/home/asaf/devel/optee/optee_os/lib/libutee/tee_api_operations.c:1316
    186c:	51018060 	sub	w0, w3, #0x60
/home/asaf/devel/optee/optee_os/lib/libutee/tee_api_operations.c:1317
    1870:	129ffeb4 	mov	w20, #0xffff000a            	// #-65526
/home/asaf/devel/optee/optee_os/lib/libutee/tee_api_operations.c:1316
    1874:	7100801f 	cmp	w0, #0x20
    1878:	54000208 	b.hi	18b8 <TEE_AEInit+0x98>
/home/asaf/devel/optee/optee_os/lib/libutee/tee_api_operations.c:1316 (discriminator 1)
    187c:	f240087f 	tst	x3, #0x7
    1880:	540001c1 	b.ne	18b8 <TEE_AEInit+0x98>
/home/asaf/devel/optee/optee_os/lib/libutee/tee_api_operations.c:1322
    1884:	b9405a60 	ldr	w0, [x19,#88]
/home/asaf/devel/optee/optee_os/lib/libutee/tee_api_operations.c:1323
    1888:	53037c75 	lsr	w21, w3, #3
/home/asaf/devel/optee/optee_os/lib/libutee/tee_api_operations.c:1322
    188c:	2a0503e5 	mov	w5, w5
    1890:	2a0403e4 	mov	w4, w4
    1894:	924072a3 	and	x3, x21, #0x1fffffff
    1898:	2a0203e2 	mov	w2, w2
    189c:	94000494 	bl	2aec <utee_authenc_init>
    18a0:	2a0003f4 	mov	w20, w0
/home/asaf/devel/optee/optee_os/lib/libutee/tee_api_operations.c:1324
    18a4:	350000a0 	cbnz	w0, 18b8 <TEE_AEInit+0x98>
/home/asaf/devel/optee/optee_os/lib/libutee/tee_api_operations.c:1328
    18a8:	b9401e60 	ldr	w0, [x19,#28]
/home/asaf/devel/optee/optee_os/lib/libutee/tee_api_operations.c:1327
    18ac:	b9005e75 	str	w21, [x19,#92]
/home/asaf/devel/optee/optee_os/lib/libutee/tee_api_operations.c:1328
    18b0:	320f0000 	orr	w0, w0, #0x20000
    18b4:	b9001e60 	str	w0, [x19,#28]
/home/asaf/devel/optee/optee_os/lib/libutee/tee_api_operations.c:1331
    18b8:	7100029f 	cmp	w20, #0x0
    18bc:	129ffea0 	mov	w0, #0xffff000a            	// #-65526
    18c0:	7a401284 	ccmp	w20, w0, #0x4, ne
    18c4:	54000060 	b.eq	18d0 <TEE_AEInit+0xb0>
/home/asaf/devel/optee/optee_os/lib/libutee/tee_api_operations.c:1333
    18c8:	2a1403e0 	mov	w0, w20
    18cc:	9400036d 	bl	2680 <TEE_Panic>
/home/asaf/devel/optee/optee_os/lib/libutee/tee_api_operations.c:1336
    18d0:	2a1403e0 	mov	w0, w20
    18d4:	f94013f5 	ldr	x21, [sp,#32]
    18d8:	a94153f3 	ldp	x19, x20, [sp,#16]
    18dc:	a8c37bfd 	ldp	x29, x30, [sp],#48
    18e0:	d65f03c0 	ret

00000000000018e4 <TEE_AEUpdateAAD>:
TEE_AEUpdateAAD():
/home/asaf/devel/optee/optee_os/lib/libutee/tee_api_operations.c:1340
    18e4:	a9bd7bfd 	stp	x29, x30, [sp,#-48]!
    18e8:	910003fd 	mov	x29, sp
    18ec:	a90153f3 	stp	x19, x20, [sp,#16]
    18f0:	aa0003f3 	mov	x19, x0
    18f4:	f90013f5 	str	x21, [sp,#32]
    18f8:	aa0103f4 	mov	x20, x1
    18fc:	2a0203f5 	mov	w21, w2
/home/asaf/devel/optee/optee_os/lib/libutee/tee_api_operations.c:1343
    1900:	b4000080 	cbz	x0, 1910 <TEE_AEUpdateAAD+0x2c>
/home/asaf/devel/optee/optee_os/lib/libutee/tee_api_operations.c:1344 (discriminator 1)
    1904:	f100003f 	cmp	x1, #0x0
/home/asaf/devel/optee/optee_os/lib/libutee/tee_api_operations.c:1343 (discriminator 1)
    1908:	7a400844 	ccmp	w2, #0x0, #0x4, eq
    190c:	54000060 	b.eq	1918 <TEE_AEUpdateAAD+0x34>
/home/asaf/devel/optee/optee_os/lib/libutee/tee_api_operations.c:1345
    1910:	52800000 	mov	w0, #0x0                   	// #0
    1914:	9400035b 	bl	2680 <TEE_Panic>
/home/asaf/devel/optee/optee_os/lib/libutee/tee_api_operations.c:1347
    1918:	b9400660 	ldr	w0, [x19,#4]
    191c:	7100101f 	cmp	w0, #0x4
    1920:	54000060 	b.eq	192c <TEE_AEUpdateAAD+0x48>
/home/asaf/devel/optee/optee_os/lib/libutee/tee_api_operations.c:1348
    1924:	52800000 	mov	w0, #0x0                   	// #0
    1928:	94000356 	bl	2680 <TEE_Panic>
/home/asaf/devel/optee/optee_os/lib/libutee/tee_api_operations.c:1350
    192c:	b9401e60 	ldr	w0, [x19,#28]
    1930:	37880060 	tbnz	w0, #17, 193c <TEE_AEUpdateAAD+0x58>
/home/asaf/devel/optee/optee_os/lib/libutee/tee_api_operations.c:1351
    1934:	52800000 	mov	w0, #0x0                   	// #0
    1938:	94000352 	bl	2680 <TEE_Panic>
/home/asaf/devel/optee/optee_os/lib/libutee/tee_api_operations.c:1353
    193c:	b9405a60 	ldr	w0, [x19,#88]
    1940:	aa1403e1 	mov	x1, x20
    1944:	2a1503e2 	mov	w2, w21
    1948:	9400046c 	bl	2af8 <utee_authenc_update_aad>
/home/asaf/devel/optee/optee_os/lib/libutee/tee_api_operations.c:1355
    194c:	52800021 	mov	w1, #0x1                   	// #1
    1950:	b9003261 	str	w1, [x19,#48]
/home/asaf/devel/optee/optee_os/lib/libutee/tee_api_operations.c:1357
    1954:	340000a0 	cbz	w0, 1968 <TEE_AEUpdateAAD+0x84>
/home/asaf/devel/optee/optee_os/lib/libutee/tee_api_operations.c:1359
    1958:	a94153f3 	ldp	x19, x20, [sp,#16]
    195c:	f94013f5 	ldr	x21, [sp,#32]
    1960:	a8c37bfd 	ldp	x29, x30, [sp],#48
/home/asaf/devel/optee/optee_os/lib/libutee/tee_api_operations.c:1358
    1964:	14000347 	b	2680 <TEE_Panic>
/home/asaf/devel/optee/optee_os/lib/libutee/tee_api_operations.c:1359
    1968:	a94153f3 	ldp	x19, x20, [sp,#16]
    196c:	f94013f5 	ldr	x21, [sp,#32]
    1970:	a8c37bfd 	ldp	x29, x30, [sp],#48
    1974:	d65f03c0 	ret

0000000000001978 <TEE_AEUpdate>:
TEE_AEUpdate():
/home/asaf/devel/optee/optee_os/lib/libutee/tee_api_operations.c:1363
    1978:	a9bc7bfd 	stp	x29, x30, [sp,#-64]!
    197c:	910003fd 	mov	x29, sp
    1980:	a90153f3 	stp	x19, x20, [sp,#16]
/home/asaf/devel/optee/optee_os/lib/libutee/tee_api_operations.c:1372
    1984:	129fff33 	mov	w19, #0xffff0006            	// #-65530
/home/asaf/devel/optee/optee_os/lib/libutee/tee_api_operations.c:1363
    1988:	f90013f5 	str	x21, [sp,#32]
/home/asaf/devel/optee/optee_os/lib/libutee/tee_api_operations.c:1368
    198c:	b4000560 	cbz	x0, 1a38 <TEE_AEUpdate+0xc0>
/home/asaf/devel/optee/optee_os/lib/libutee/tee_api_operations.c:1369 (discriminator 1)
    1990:	f100003f 	cmp	x1, #0x0
    1994:	aa0403f5 	mov	x21, x4
    1998:	1a9f17e4 	cset	w4, eq
    199c:	7100005f 	cmp	w2, #0x0
    19a0:	aa0003f4 	mov	x20, x0
    19a4:	1a9f07e0 	cset	w0, ne
    19a8:	f10002bf 	cmp	x21, #0x0
    19ac:	2a0203e5 	mov	w5, w2
    19b0:	0a000082 	and	w2, w4, w0
    19b4:	1a9f17e0 	cset	w0, eq
    19b8:	2a020000 	orr	w0, w0, w2
    19bc:	350003e0 	cbnz	w0, 1a38 <TEE_AEUpdate+0xc0>
/home/asaf/devel/optee/optee_os/lib/libutee/tee_api_operations.c:1370
    19c0:	b5000063 	cbnz	x3, 19cc <TEE_AEUpdate+0x54>
/home/asaf/devel/optee/optee_os/lib/libutee/tee_api_operations.c:1371
    19c4:	b94002a0 	ldr	w0, [x21]
    19c8:	35000380 	cbnz	w0, 1a38 <TEE_AEUpdate+0xc0>
/home/asaf/devel/optee/optee_os/lib/libutee/tee_api_operations.c:1376
    19cc:	b9400680 	ldr	w0, [x20,#4]
/home/asaf/devel/optee/optee_os/lib/libutee/tee_api_operations.c:1372
    19d0:	129fff33 	mov	w19, #0xffff0006            	// #-65530
/home/asaf/devel/optee/optee_os/lib/libutee/tee_api_operations.c:1376
    19d4:	7100101f 	cmp	w0, #0x4
    19d8:	54000301 	b.ne	1a38 <TEE_AEUpdate+0xc0>
/home/asaf/devel/optee/optee_os/lib/libutee/tee_api_operations.c:1381
    19dc:	b9401e80 	ldr	w0, [x20,#28]
    19e0:	368802c0 	tbz	w0, #17, 1a38 <TEE_AEUpdate+0xc0>
/home/asaf/devel/optee/optee_os/lib/libutee/tee_api_operations.c:1386
    19e4:	710000bf 	cmp	w5, #0x0
    19e8:	1a9f17e0 	cset	w0, eq
    19ec:	6a00009f 	tst	w4, w0
    19f0:	54000080 	b.eq	1a00 <TEE_AEUpdate+0x88>
/home/asaf/devel/optee/optee_os/lib/libutee/tee_api_operations.c:1387
    19f4:	b90002bf 	str	wzr, [x21]
/home/asaf/devel/optee/optee_os/lib/libutee/tee_api_operations.c:1429
    19f8:	52800013 	mov	w19, #0x0                   	// #0
    19fc:	1400000f 	b	1a38 <TEE_AEUpdate+0xc0>
/home/asaf/devel/optee/optee_os/lib/libutee/tee_api_operations.c:1397
    1a00:	f9402684 	ldr	x4, [x20,#72]
    1a04:	2a0503e2 	mov	w2, w5
/home/asaf/devel/optee/optee_os/lib/libutee/tee_api_operations.c:1401
    1a08:	aa0203e0 	mov	x0, x2
/home/asaf/devel/optee/optee_os/lib/libutee/tee_api_operations.c:1397
    1a0c:	f100049f 	cmp	x4, #0x1
    1a10:	540000a9 	b.ls	1a24 <TEE_AEUpdate+0xac>
/home/asaf/devel/optee/optee_os/lib/libutee/tee_api_operations.c:1398
    1a14:	f9402a80 	ldr	x0, [x20,#80]
    1a18:	cb0403e6 	neg	x6, x4
    1a1c:	8b000040 	add	x0, x2, x0
    1a20:	8a060000 	and	x0, x0, x6
/home/asaf/devel/optee/optee_os/lib/libutee/tee_api_operations.c:1404
    1a24:	b94002a6 	ldr	w6, [x21]
    1a28:	eb06001f 	cmp	x0, x6
    1a2c:	540001c9 	b.ls	1a64 <TEE_AEUpdate+0xec>
/home/asaf/devel/optee/optee_os/lib/libutee/tee_api_operations.c:1406
    1a30:	129ffdf3 	mov	w19, #0xffff0010            	// #-65520
/home/asaf/devel/optee/optee_os/lib/libutee/tee_api_operations.c:1405
    1a34:	b90002a0 	str	w0, [x21]
/home/asaf/devel/optee/optee_os/lib/libutee/tee_api_operations.c:1432
    1a38:	7100027f 	cmp	w19, #0x0
    1a3c:	129ffde0 	mov	w0, #0xffff0010            	// #-65520
    1a40:	7a401264 	ccmp	w19, w0, #0x4, ne
    1a44:	54000060 	b.eq	1a50 <TEE_AEUpdate+0xd8>
/home/asaf/devel/optee/optee_os/lib/libutee/tee_api_operations.c:1434
    1a48:	2a1303e0 	mov	w0, w19
    1a4c:	9400030d 	bl	2680 <TEE_Panic>
/home/asaf/devel/optee/optee_os/lib/libutee/tee_api_operations.c:1437
    1a50:	2a1303e0 	mov	w0, w19
    1a54:	f94013f5 	ldr	x21, [sp,#32]
    1a58:	a94153f3 	ldp	x19, x20, [sp,#16]
    1a5c:	a8c47bfd 	ldp	x29, x30, [sp],#64
    1a60:	d65f03c0 	ret
/home/asaf/devel/optee/optee_os/lib/libutee/tee_api_operations.c:1410
    1a64:	f9001fa6 	str	x6, [x29,#56]
/home/asaf/devel/optee/optee_os/lib/libutee/tee_api_operations.c:1411
    1a68:	f100049f 	cmp	x4, #0x1
    1a6c:	54000209 	b.ls	1aac <TEE_AEUpdate+0x134>
/home/asaf/devel/optee/optee_os/lib/libutee/tee_api_operations.c:1412
    1a70:	aa0303e4 	mov	x4, x3
    1a74:	aa0203e3 	mov	x3, x2
    1a78:	aa0103e2 	mov	x2, x1
    1a7c:	f0000041 	adrp	x1, c000 <__func__.3637+0x608>
    1a80:	9100e3a5 	add	x5, x29, #0x38
    1a84:	aa1403e0 	mov	x0, x20
    1a88:	f941dc21 	ldr	x1, [x1,#952]
    1a8c:	94000276 	bl	2464 <tee_buffer_update>
/home/asaf/devel/optee/optee_os/lib/libutee/tee_api_operations.c:1416
    1a90:	2a0003f3 	mov	w19, w0
/home/asaf/devel/optee/optee_os/lib/libutee/tee_api_operations.c:1424
    1a94:	35fffd20 	cbnz	w0, 1a38 <TEE_AEUpdate+0xc0>
/home/asaf/devel/optee/optee_os/lib/libutee/tee_api_operations.c:1427
    1a98:	f9401fa0 	ldr	x0, [x29,#56]
    1a9c:	b90002a0 	str	w0, [x21]
/home/asaf/devel/optee/optee_os/lib/libutee/tee_api_operations.c:1429
    1aa0:	52800020 	mov	w0, #0x1                   	// #1
    1aa4:	b9003280 	str	w0, [x20,#48]
    1aa8:	17ffffd4 	b	19f8 <TEE_AEUpdate+0x80>
/home/asaf/devel/optee/optee_os/lib/libutee/tee_api_operations.c:1415
    1aac:	340000a5 	cbz	w5, 1ac0 <TEE_AEUpdate+0x148>
/home/asaf/devel/optee/optee_os/lib/libutee/tee_api_operations.c:1416
    1ab0:	b9405a80 	ldr	w0, [x20,#88]
    1ab4:	9100e3a4 	add	x4, x29, #0x38
    1ab8:	94000413 	bl	2b04 <utee_authenc_update_payload>
    1abc:	17fffff5 	b	1a90 <TEE_AEUpdate+0x118>
/home/asaf/devel/optee/optee_os/lib/libutee/tee_api_operations.c:1420
    1ac0:	f9001fbf 	str	xzr, [x29,#56]
    1ac4:	17fffff5 	b	1a98 <TEE_AEUpdate+0x120>

0000000000001ac8 <TEE_AEEncryptFinal>:
TEE_AEEncryptFinal():
/home/asaf/devel/optee/optee_os/lib/libutee/tee_api_operations.c:1443
    1ac8:	a9ba7bfd 	stp	x29, x30, [sp,#-96]!
    1acc:	910003fd 	mov	x29, sp
    1ad0:	a90153f3 	stp	x19, x20, [sp,#16]
/home/asaf/devel/optee/optee_os/lib/libutee/tee_api_operations.c:1456
    1ad4:	129fff33 	mov	w19, #0xffff0006            	// #-65530
/home/asaf/devel/optee/optee_os/lib/libutee/tee_api_operations.c:1443
    1ad8:	a9025bf5 	stp	x21, x22, [sp,#32]
    1adc:	a90363f7 	stp	x23, x24, [sp,#48]
    1ae0:	a9046bf9 	stp	x25, x26, [sp,#64]
/home/asaf/devel/optee/optee_os/lib/libutee/tee_api_operations.c:1451
    1ae4:	b40003c0 	cbz	x0, 1b5c <TEE_AEEncryptFinal+0x94>
/home/asaf/devel/optee/optee_os/lib/libutee/tee_api_operations.c:1452 (discriminator 1)
    1ae8:	f100003f 	cmp	x1, #0x0
    1aec:	aa0403f5 	mov	x21, x4
    1af0:	7a400844 	ccmp	w2, #0x0, #0x4, eq
    1af4:	fa400884 	ccmp	x4, #0x0, #0x4, eq
    1af8:	54000320 	b.eq	1b5c <TEE_AEEncryptFinal+0x94>
    1afc:	aa0003f4 	mov	x20, x0
    1b00:	aa0303f9 	mov	x25, x3
    1b04:	aa0503fa 	mov	x26, x5
    1b08:	aa0603f8 	mov	x24, x6
/home/asaf/devel/optee/optee_os/lib/libutee/tee_api_operations.c:1453
    1b0c:	b5000063 	cbnz	x3, 1b18 <TEE_AEEncryptFinal+0x50>
/home/asaf/devel/optee/optee_os/lib/libutee/tee_api_operations.c:1454
    1b10:	b9400080 	ldr	w0, [x4]
    1b14:	35000240 	cbnz	w0, 1b5c <TEE_AEEncryptFinal+0x94>
/home/asaf/devel/optee/optee_os/lib/libutee/tee_api_operations.c:1455
    1b18:	f100035f 	cmp	x26, #0x0
/home/asaf/devel/optee/optee_os/lib/libutee/tee_api_operations.c:1456
    1b1c:	129fff33 	mov	w19, #0xffff0006            	// #-65530
/home/asaf/devel/optee/optee_os/lib/libutee/tee_api_operations.c:1455
    1b20:	fa401b04 	ccmp	x24, #0x0, #0x4, ne
    1b24:	540001c0 	b.eq	1b5c <TEE_AEEncryptFinal+0x94>
/home/asaf/devel/optee/optee_os/lib/libutee/tee_api_operations.c:1460
    1b28:	b9400680 	ldr	w0, [x20,#4]
    1b2c:	7100101f 	cmp	w0, #0x4
    1b30:	54000161 	b.ne	1b5c <TEE_AEEncryptFinal+0x94>
/home/asaf/devel/optee/optee_os/lib/libutee/tee_api_operations.c:1465
    1b34:	b9401e80 	ldr	w0, [x20,#28]
    1b38:	36880120 	tbz	w0, #17, 1b5c <TEE_AEEncryptFinal+0x94>
/home/asaf/devel/optee/optee_os/lib/libutee/tee_api_operations.c:1475
    1b3c:	f9402a80 	ldr	x0, [x20,#80]
    1b40:	2a0203e2 	mov	w2, w2
/home/asaf/devel/optee/optee_os/lib/libutee/tee_api_operations.c:1476
    1b44:	b94002a3 	ldr	w3, [x21]
/home/asaf/devel/optee/optee_os/lib/libutee/tee_api_operations.c:1475
    1b48:	8b000040 	add	x0, x2, x0
/home/asaf/devel/optee/optee_os/lib/libutee/tee_api_operations.c:1476
    1b4c:	eb03001f 	cmp	x0, x3
    1b50:	54000209 	b.ls	1b90 <TEE_AEEncryptFinal+0xc8>
/home/asaf/devel/optee/optee_os/lib/libutee/tee_api_operations.c:1477
    1b54:	b90002a0 	str	w0, [x21]
/home/asaf/devel/optee/optee_os/lib/libutee/tee_api_operations.c:1488
    1b58:	129ffdf3 	mov	w19, #0xffff0010            	// #-65520
/home/asaf/devel/optee/optee_os/lib/libutee/tee_api_operations.c:1525
    1b5c:	7100027f 	cmp	w19, #0x0
    1b60:	129ffde0 	mov	w0, #0xffff0010            	// #-65520
    1b64:	7a401264 	ccmp	w19, w0, #0x4, ne
    1b68:	54000060 	b.eq	1b74 <TEE_AEEncryptFinal+0xac>
/home/asaf/devel/optee/optee_os/lib/libutee/tee_api_operations.c:1527
    1b6c:	2a1303e0 	mov	w0, w19
    1b70:	940002c4 	bl	2680 <TEE_Panic>
/home/asaf/devel/optee/optee_os/lib/libutee/tee_api_operations.c:1530
    1b74:	2a1303e0 	mov	w0, w19
    1b78:	a94153f3 	ldp	x19, x20, [sp,#16]
    1b7c:	a9425bf5 	ldp	x21, x22, [sp,#32]
    1b80:	a94363f7 	ldp	x23, x24, [sp,#48]
    1b84:	a9446bf9 	ldp	x25, x26, [sp,#64]
    1b88:	a8c67bfd 	ldp	x29, x30, [sp],#96
    1b8c:	d65f03c0 	ret
/home/asaf/devel/optee/optee_os/lib/libutee/tee_api_operations.c:1486
    1b90:	b9405e84 	ldr	w4, [x20,#92]
    1b94:	b9400300 	ldr	w0, [x24]
    1b98:	6b04001f 	cmp	w0, w4
    1b9c:	54000062 	b.cs	1ba8 <TEE_AEEncryptFinal+0xe0>
/home/asaf/devel/optee/optee_os/lib/libutee/tee_api_operations.c:1487
    1ba0:	b9000304 	str	w4, [x24]
    1ba4:	17ffffed 	b	1b58 <TEE_AEEncryptFinal+0x90>
/home/asaf/devel/optee/optee_os/lib/libutee/tee_api_operations.c:1493
    1ba8:	910183b7 	add	x23, x29, #0x60
/home/asaf/devel/optee/optee_os/lib/libutee/tee_api_operations.c:1492
    1bac:	2a0003e0 	mov	w0, w0
    1bb0:	f9002fa0 	str	x0, [x29,#88]
/home/asaf/devel/optee/optee_os/lib/libutee/tee_api_operations.c:1494
    1bb4:	f9402680 	ldr	x0, [x20,#72]
/home/asaf/devel/optee/optee_os/lib/libutee/tee_api_operations.c:1493
    1bb8:	f81f0ee3 	str	x3, [x23,#-16]!
/home/asaf/devel/optee/optee_os/lib/libutee/tee_api_operations.c:1494
    1bbc:	f100041f 	cmp	x0, #0x1
    1bc0:	54000469 	b.ls	1c4c <TEE_AEEncryptFinal+0x184>
/home/asaf/devel/optee/optee_os/lib/libutee/tee_api_operations.c:1495
    1bc4:	aa0203e3 	mov	x3, x2
    1bc8:	aa0103e2 	mov	x2, x1
    1bcc:	f0000041 	adrp	x1, c000 <__func__.3637+0x608>
    1bd0:	aa1703e5 	mov	x5, x23
    1bd4:	aa1903e4 	mov	x4, x25
    1bd8:	aa1403e0 	mov	x0, x20
    1bdc:	f941dc21 	ldr	x1, [x1,#952]
    1be0:	94000221 	bl	2464 <tee_buffer_update>
    1be4:	2a0003f3 	mov	w19, w0
/home/asaf/devel/optee/optee_os/lib/libutee/tee_api_operations.c:1497
    1be8:	35fffba0 	cbnz	w0, 1b5c <TEE_AEEncryptFinal+0x94>
/home/asaf/devel/optee/optee_os/lib/libutee/tee_api_operations.c:1500
    1bec:	f9402bb6 	ldr	x22, [x29,#80]
/home/asaf/devel/optee/optee_os/lib/libutee/tee_api_operations.c:1504
    1bf0:	910163a6 	add	x6, x29, #0x58
/home/asaf/devel/optee/optee_os/lib/libutee/tee_api_operations.c:1503
    1bf4:	b94002a0 	ldr	w0, [x21]
/home/asaf/devel/optee/optee_os/lib/libutee/tee_api_operations.c:1504
    1bf8:	aa1a03e5 	mov	x5, x26
    1bfc:	f9401e81 	ldr	x1, [x20,#56]
    1c00:	aa1703e4 	mov	x4, x23
/home/asaf/devel/optee/optee_os/lib/libutee/tee_api_operations.c:1503
    1c04:	cb160000 	sub	x0, x0, x22
/home/asaf/devel/optee/optee_os/lib/libutee/tee_api_operations.c:1504
    1c08:	f9402a82 	ldr	x2, [x20,#80]
/home/asaf/devel/optee/optee_os/lib/libutee/tee_api_operations.c:1503
    1c0c:	f9002ba0 	str	x0, [x29,#80]
/home/asaf/devel/optee/optee_os/lib/libutee/tee_api_operations.c:1504
    1c10:	8b160323 	add	x3, x25, x22
    1c14:	b9405a80 	ldr	w0, [x20,#88]
    1c18:	940003be 	bl	2b10 <utee_authenc_enc_final>
    1c1c:	2a0003f3 	mov	w19, w0
/home/asaf/devel/optee/optee_os/lib/libutee/tee_api_operations.c:1513
    1c20:	f9402fa0 	ldr	x0, [x29,#88]
    1c24:	b9000300 	str	w0, [x24]
/home/asaf/devel/optee/optee_os/lib/libutee/tee_api_operations.c:1514
    1c28:	35fff9b3 	cbnz	w19, 1b5c <TEE_AEEncryptFinal+0x94>
/home/asaf/devel/optee/optee_os/lib/libutee/tee_api_operations.c:1517
    1c2c:	f9402ba0 	ldr	x0, [x29,#80]
    1c30:	8b0002d6 	add	x22, x22, x0
/home/asaf/devel/optee/optee_os/lib/libutee/tee_api_operations.c:1518
    1c34:	b90002b6 	str	w22, [x21]
/home/asaf/devel/optee/optee_os/lib/libutee/tee_api_operations.c:1522
    1c38:	b900329f 	str	wzr, [x20,#48]
/home/asaf/devel/optee/optee_os/lib/libutee/tee_api_operations.c:1520
    1c3c:	b9401e80 	ldr	w0, [x20,#28]
    1c40:	120e7800 	and	w0, w0, #0xfffdffff
    1c44:	b9001e80 	str	w0, [x20,#28]
    1c48:	17ffffc5 	b	1b5c <TEE_AEEncryptFinal+0x94>
/home/asaf/devel/optee/optee_os/lib/libutee/tee_api_operations.c:1509
    1c4c:	b9405a80 	ldr	w0, [x20,#88]
    1c50:	910163a6 	add	x6, x29, #0x58
    1c54:	aa1a03e5 	mov	x5, x26
    1c58:	aa1703e4 	mov	x4, x23
    1c5c:	aa1903e3 	mov	x3, x25
/home/asaf/devel/optee/optee_os/lib/libutee/tee_api_operations.c:1446
    1c60:	d2800016 	mov	x22, #0x0                   	// #0
/home/asaf/devel/optee/optee_os/lib/libutee/tee_api_operations.c:1509
    1c64:	940003ab 	bl	2b10 <utee_authenc_enc_final>
    1c68:	2a0003f3 	mov	w19, w0
    1c6c:	17ffffed 	b	1c20 <TEE_AEEncryptFinal+0x158>

0000000000001c70 <TEE_AEDecryptFinal>:
TEE_AEDecryptFinal():
/home/asaf/devel/optee/optee_os/lib/libutee/tee_api_operations.c:1536
    1c70:	a9ba7bfd 	stp	x29, x30, [sp,#-96]!
    1c74:	910003fd 	mov	x29, sp
    1c78:	a90153f3 	stp	x19, x20, [sp,#16]
/home/asaf/devel/optee/optee_os/lib/libutee/tee_api_operations.c:1548
    1c7c:	129fff33 	mov	w19, #0xffff0006            	// #-65530
/home/asaf/devel/optee/optee_os/lib/libutee/tee_api_operations.c:1536
    1c80:	a9025bf5 	stp	x21, x22, [sp,#32]
    1c84:	a90363f7 	stp	x23, x24, [sp,#48]
    1c88:	a9046bf9 	stp	x25, x26, [sp,#64]
/home/asaf/devel/optee/optee_os/lib/libutee/tee_api_operations.c:1543
    1c8c:	b40003c0 	cbz	x0, 1d04 <TEE_AEDecryptFinal+0x94>
/home/asaf/devel/optee/optee_os/lib/libutee/tee_api_operations.c:1544 (discriminator 1)
    1c90:	f100003f 	cmp	x1, #0x0
    1c94:	aa0403f5 	mov	x21, x4
    1c98:	7a400844 	ccmp	w2, #0x0, #0x4, eq
    1c9c:	fa400884 	ccmp	x4, #0x0, #0x4, eq
    1ca0:	54000320 	b.eq	1d04 <TEE_AEDecryptFinal+0x94>
    1ca4:	aa0003f4 	mov	x20, x0
    1ca8:	aa0303f9 	mov	x25, x3
    1cac:	aa0503fa 	mov	x26, x5
    1cb0:	2a0603f8 	mov	w24, w6
/home/asaf/devel/optee/optee_os/lib/libutee/tee_api_operations.c:1545
    1cb4:	b5000063 	cbnz	x3, 1cc0 <TEE_AEDecryptFinal+0x50>
/home/asaf/devel/optee/optee_os/lib/libutee/tee_api_operations.c:1546
    1cb8:	b9400080 	ldr	w0, [x4]
    1cbc:	35000240 	cbnz	w0, 1d04 <TEE_AEDecryptFinal+0x94>
/home/asaf/devel/optee/optee_os/lib/libutee/tee_api_operations.c:1547 (discriminator 1)
    1cc0:	f100035f 	cmp	x26, #0x0
/home/asaf/devel/optee/optee_os/lib/libutee/tee_api_operations.c:1548 (discriminator 1)
    1cc4:	129fff33 	mov	w19, #0xffff0006            	// #-65530
/home/asaf/devel/optee/optee_os/lib/libutee/tee_api_operations.c:1546 (discriminator 1)
    1cc8:	7a400b04 	ccmp	w24, #0x0, #0x4, eq
    1ccc:	540001c1 	b.ne	1d04 <TEE_AEDecryptFinal+0x94>
/home/asaf/devel/optee/optee_os/lib/libutee/tee_api_operations.c:1552
    1cd0:	b9400680 	ldr	w0, [x20,#4]
    1cd4:	7100101f 	cmp	w0, #0x4
    1cd8:	54000161 	b.ne	1d04 <TEE_AEDecryptFinal+0x94>
/home/asaf/devel/optee/optee_os/lib/libutee/tee_api_operations.c:1557
    1cdc:	b9401e80 	ldr	w0, [x20,#28]
    1ce0:	36880120 	tbz	w0, #17, 1d04 <TEE_AEDecryptFinal+0x94>
/home/asaf/devel/optee/optee_os/lib/libutee/tee_api_operations.c:1567
    1ce4:	f9402a80 	ldr	x0, [x20,#80]
    1ce8:	2a0203e2 	mov	w2, w2
/home/asaf/devel/optee/optee_os/lib/libutee/tee_api_operations.c:1568
    1cec:	b94002a3 	ldr	w3, [x21]
/home/asaf/devel/optee/optee_os/lib/libutee/tee_api_operations.c:1567
    1cf0:	8b000040 	add	x0, x2, x0
/home/asaf/devel/optee/optee_os/lib/libutee/tee_api_operations.c:1568
    1cf4:	eb03001f 	cmp	x0, x3
    1cf8:	54000249 	b.ls	1d40 <TEE_AEDecryptFinal+0xd0>
/home/asaf/devel/optee/optee_os/lib/libutee/tee_api_operations.c:1570
    1cfc:	129ffdf3 	mov	w19, #0xffff0010            	// #-65520
/home/asaf/devel/optee/optee_os/lib/libutee/tee_api_operations.c:1569
    1d00:	b90002a0 	str	w0, [x21]
/home/asaf/devel/optee/optee_os/lib/libutee/tee_api_operations.c:1610
    1d04:	7100027f 	cmp	w19, #0x0
    1d08:	129ffde0 	mov	w0, #0xffff0010            	// #-65520
    1d0c:	7a401264 	ccmp	w19, w0, #0x4, ne
    1d10:	1299f1c0 	mov	w0, #0xffff3071            	// #-53135
    1d14:	7a401264 	ccmp	w19, w0, #0x4, ne
    1d18:	54000060 	b.eq	1d24 <TEE_AEDecryptFinal+0xb4>
/home/asaf/devel/optee/optee_os/lib/libutee/tee_api_operations.c:1612
    1d1c:	2a1303e0 	mov	w0, w19
    1d20:	94000258 	bl	2680 <TEE_Panic>
/home/asaf/devel/optee/optee_os/lib/libutee/tee_api_operations.c:1615
    1d24:	2a1303e0 	mov	w0, w19
    1d28:	a94153f3 	ldp	x19, x20, [sp,#16]
    1d2c:	a9425bf5 	ldp	x21, x22, [sp,#32]
    1d30:	a94363f7 	ldp	x23, x24, [sp,#48]
    1d34:	a9446bf9 	ldp	x25, x26, [sp,#64]
    1d38:	a8c67bfd 	ldp	x29, x30, [sp],#96
    1d3c:	d65f03c0 	ret
/home/asaf/devel/optee/optee_os/lib/libutee/tee_api_operations.c:1574
    1d40:	910183b7 	add	x23, x29, #0x60
/home/asaf/devel/optee/optee_os/lib/libutee/tee_api_operations.c:1575
    1d44:	f9402680 	ldr	x0, [x20,#72]
    1d48:	f100041f 	cmp	x0, #0x1
/home/asaf/devel/optee/optee_os/lib/libutee/tee_api_operations.c:1574
    1d4c:	f81f8ee3 	str	x3, [x23,#-8]!
/home/asaf/devel/optee/optee_os/lib/libutee/tee_api_operations.c:1575
    1d50:	540004a9 	b.ls	1de4 <TEE_AEDecryptFinal+0x174>
/home/asaf/devel/optee/optee_os/lib/libutee/tee_api_operations.c:1576
    1d54:	aa0203e3 	mov	x3, x2
    1d58:	aa0103e2 	mov	x2, x1
    1d5c:	f0000041 	adrp	x1, c000 <__func__.3637+0x608>
    1d60:	aa1703e5 	mov	x5, x23
    1d64:	aa1903e4 	mov	x4, x25
    1d68:	aa1403e0 	mov	x0, x20
    1d6c:	f941dc21 	ldr	x1, [x1,#952]
    1d70:	940001bd 	bl	2464 <tee_buffer_update>
    1d74:	2a0003f3 	mov	w19, w0
/home/asaf/devel/optee/optee_os/lib/libutee/tee_api_operations.c:1578
    1d78:	35fffc60 	cbnz	w0, 1d04 <TEE_AEDecryptFinal+0x94>
/home/asaf/devel/optee/optee_os/lib/libutee/tee_api_operations.c:1581
    1d7c:	f9402fb6 	ldr	x22, [x29,#88]
/home/asaf/devel/optee/optee_os/lib/libutee/tee_api_operations.c:1585
    1d80:	2a1803e6 	mov	w6, w24
/home/asaf/devel/optee/optee_os/lib/libutee/tee_api_operations.c:1584
    1d84:	b94002a0 	ldr	w0, [x21]
/home/asaf/devel/optee/optee_os/lib/libutee/tee_api_operations.c:1585
    1d88:	aa1a03e5 	mov	x5, x26
    1d8c:	f9401e81 	ldr	x1, [x20,#56]
    1d90:	aa1703e4 	mov	x4, x23
/home/asaf/devel/optee/optee_os/lib/libutee/tee_api_operations.c:1584
    1d94:	cb160000 	sub	x0, x0, x22
/home/asaf/devel/optee/optee_os/lib/libutee/tee_api_operations.c:1585
    1d98:	f9402a82 	ldr	x2, [x20,#80]
/home/asaf/devel/optee/optee_os/lib/libutee/tee_api_operations.c:1584
    1d9c:	f9002fa0 	str	x0, [x29,#88]
/home/asaf/devel/optee/optee_os/lib/libutee/tee_api_operations.c:1585
    1da0:	8b160323 	add	x3, x25, x22
    1da4:	b9405a80 	ldr	w0, [x20,#88]
    1da8:	9400035d 	bl	2b1c <utee_authenc_dec_final>
    1dac:	2a0003f3 	mov	w19, w0
/home/asaf/devel/optee/optee_os/lib/libutee/tee_api_operations.c:1594
    1db0:	35fffab3 	cbnz	w19, 1d04 <TEE_AEDecryptFinal+0x94>
/home/asaf/devel/optee/optee_os/lib/libutee/tee_api_operations.c:1598
    1db4:	b9405e80 	ldr	w0, [x20,#92]
/home/asaf/devel/optee/optee_os/lib/libutee/tee_api_operations.c:1599
    1db8:	1299f1d3 	mov	w19, #0xffff3071            	// #-53135
    1dbc:	6b00031f 	cmp	w24, w0
/home/asaf/devel/optee/optee_os/lib/libutee/tee_api_operations.c:1601
    1dc0:	f9402fa0 	ldr	x0, [x29,#88]
/home/asaf/devel/optee/optee_os/lib/libutee/tee_api_operations.c:1599
    1dc4:	1a9303f3 	csel	w19, wzr, w19, eq
/home/asaf/devel/optee/optee_os/lib/libutee/tee_api_operations.c:1601
    1dc8:	8b0002d6 	add	x22, x22, x0
/home/asaf/devel/optee/optee_os/lib/libutee/tee_api_operations.c:1602
    1dcc:	b90002b6 	str	w22, [x21]
/home/asaf/devel/optee/optee_os/lib/libutee/tee_api_operations.c:1606
    1dd0:	b900329f 	str	wzr, [x20,#48]
/home/asaf/devel/optee/optee_os/lib/libutee/tee_api_operations.c:1604
    1dd4:	b9401e80 	ldr	w0, [x20,#28]
    1dd8:	120e7800 	and	w0, w0, #0xfffdffff
    1ddc:	b9001e80 	str	w0, [x20,#28]
    1de0:	17ffffc9 	b	1d04 <TEE_AEDecryptFinal+0x94>
/home/asaf/devel/optee/optee_os/lib/libutee/tee_api_operations.c:1590
    1de4:	b9405a80 	ldr	w0, [x20,#88]
    1de8:	2a1803e6 	mov	w6, w24
    1dec:	aa1a03e5 	mov	x5, x26
    1df0:	aa1703e4 	mov	x4, x23
    1df4:	aa1903e3 	mov	x3, x25
/home/asaf/devel/optee/optee_os/lib/libutee/tee_api_operations.c:1539
    1df8:	d2800016 	mov	x22, #0x0                   	// #0
/home/asaf/devel/optee/optee_os/lib/libutee/tee_api_operations.c:1590
    1dfc:	94000348 	bl	2b1c <utee_authenc_dec_final>
    1e00:	2a0003f3 	mov	w19, w0
    1e04:	17ffffeb 	b	1db0 <TEE_AEDecryptFinal+0x140>

0000000000001e08 <TEE_AsymmetricEncrypt>:
TEE_AsymmetricEncrypt():
/home/asaf/devel/optee/optee_os/lib/libutee/tee_api_operations.c:1624
    1e08:	a9b97bfd 	stp	x29, x30, [sp,#-112]!
    1e0c:	910003fd 	mov	x29, sp
    1e10:	a9046bf9 	stp	x25, x26, [sp,#64]
    1e14:	2a0203fa 	mov	w26, w2
    1e18:	a90153f3 	stp	x19, x20, [sp,#16]
    1e1c:	aa0003f3 	mov	x19, x0
/home/asaf/devel/optee/optee_os/lib/libutee/tee_api_operations.c:1626
    1e20:	52800300 	mov	w0, #0x18                  	// #24
/home/asaf/devel/optee/optee_os/lib/libutee/tee_api_operations.c:1624
    1e24:	a9025bf5 	stp	x21, x22, [sp,#32]
    1e28:	a90363f7 	stp	x23, x24, [sp,#48]
    1e2c:	aa0103f9 	mov	x25, x1
/home/asaf/devel/optee/optee_os/lib/libutee/tee_api_operations.c:1626
    1e30:	9ba07f40 	umull	x0, w26, w0
/home/asaf/devel/optee/optee_os/lib/libutee/tee_api_operations.c:1624
    1e34:	f9002bfb 	str	x27, [sp,#80]
    1e38:	aa1a03f5 	mov	x21, x26
    1e3c:	aa0303f6 	mov	x22, x3
/home/asaf/devel/optee/optee_os/lib/libutee/tee_api_operations.c:1626
    1e40:	91005800 	add	x0, x0, #0x16
/home/asaf/devel/optee/optee_os/lib/libutee/tee_api_operations.c:1624
    1e44:	2a0403f7 	mov	w23, w4
/home/asaf/devel/optee/optee_os/lib/libutee/tee_api_operations.c:1626
    1e48:	927c8400 	and	x0, x0, #0x3ffffffff0
/home/asaf/devel/optee/optee_os/lib/libutee/tee_api_operations.c:1624
    1e4c:	aa0503f8 	mov	x24, x5
/home/asaf/devel/optee/optee_os/lib/libutee/tee_api_operations.c:1626
    1e50:	cb2063ff 	sub	sp, sp, x0
/home/asaf/devel/optee/optee_os/lib/libutee/tee_api_operations.c:1624
    1e54:	aa0603f4 	mov	x20, x6
/home/asaf/devel/optee/optee_os/lib/libutee/tee_api_operations.c:1626
    1e58:	910003fb 	mov	x27, sp
/home/asaf/devel/optee/optee_os/lib/libutee/tee_api_operations.c:1629
    1e5c:	b4000113 	cbz	x19, 1e7c <TEE_AsymmetricEncrypt+0x74>
/home/asaf/devel/optee/optee_os/lib/libutee/tee_api_operations.c:1629 (discriminator 1)
    1e60:	f100007f 	cmp	x3, #0x0
    1e64:	7a400884 	ccmp	w4, #0x0, #0x4, eq
    1e68:	fa4008c4 	ccmp	x6, #0x0, #0x4, eq
    1e6c:	54000080 	b.eq	1e7c <TEE_AsymmetricEncrypt+0x74>
/home/asaf/devel/optee/optee_os/lib/libutee/tee_api_operations.c:1630
    1e70:	b50000a5 	cbnz	x5, 1e84 <TEE_AsymmetricEncrypt+0x7c>
/home/asaf/devel/optee/optee_os/lib/libutee/tee_api_operations.c:1630 (discriminator 1)
    1e74:	b94000c0 	ldr	w0, [x6]
    1e78:	34000060 	cbz	w0, 1e84 <TEE_AsymmetricEncrypt+0x7c>
/home/asaf/devel/optee/optee_os/lib/libutee/tee_api_operations.c:1631
    1e7c:	52800000 	mov	w0, #0x0                   	// #0
    1e80:	94000200 	bl	2680 <TEE_Panic>
/home/asaf/devel/optee/optee_os/lib/libutee/tee_api_operations.c:1632
    1e84:	f100033f 	cmp	x25, #0x0
    1e88:	7a400aa4 	ccmp	w21, #0x0, #0x4, eq
    1e8c:	54000060 	b.eq	1e98 <TEE_AsymmetricEncrypt+0x90>
/home/asaf/devel/optee/optee_os/lib/libutee/tee_api_operations.c:1633
    1e90:	52800000 	mov	w0, #0x0                   	// #0
    1e94:	940001fb 	bl	2680 <TEE_Panic>
/home/asaf/devel/optee/optee_os/lib/libutee/tee_api_operations.c:1634
    1e98:	f9401260 	ldr	x0, [x19,#32]
    1e9c:	b5000040 	cbnz	x0, 1ea4 <TEE_AsymmetricEncrypt+0x9c>
/home/asaf/devel/optee/optee_os/lib/libutee/tee_api_operations.c:1635
    1ea0:	940001f8 	bl	2680 <TEE_Panic>
/home/asaf/devel/optee/optee_os/lib/libutee/tee_api_operations.c:1636
    1ea4:	b9400660 	ldr	w0, [x19,#4]
    1ea8:	7100181f 	cmp	w0, #0x6
    1eac:	54000060 	b.eq	1eb8 <TEE_AsymmetricEncrypt+0xb0>
/home/asaf/devel/optee/optee_os/lib/libutee/tee_api_operations.c:1637
    1eb0:	52800000 	mov	w0, #0x0                   	// #0
    1eb4:	940001f3 	bl	2680 <TEE_Panic>
/home/asaf/devel/optee/optee_os/lib/libutee/tee_api_operations.c:1638
    1eb8:	b9400a60 	ldr	w0, [x19,#8]
    1ebc:	34000060 	cbz	w0, 1ec8 <TEE_AsymmetricEncrypt+0xc0>
/home/asaf/devel/optee/optee_os/lib/libutee/tee_api_operations.c:1639
    1ec0:	52800000 	mov	w0, #0x0                   	// #0
    1ec4:	940001ef 	bl	2680 <TEE_Panic>
/home/asaf/devel/optee/optee_os/lib/libutee/tee_api_operations.c:1641
    1ec8:	2a1503e2 	mov	w2, w21
    1ecc:	aa1903e1 	mov	x1, x25
    1ed0:	aa1b03e0 	mov	x0, x27
    1ed4:	94000649 	bl	37f8 <__utee_from_attr>
/home/asaf/devel/optee/optee_os/lib/libutee/tee_api_operations.c:1642
    1ed8:	9101c3a6 	add	x6, x29, #0x70
    1edc:	b9400280 	ldr	w0, [x20]
/home/asaf/devel/optee/optee_os/lib/libutee/tee_api_operations.c:1643
    1ee0:	aa1b03e1 	mov	x1, x27
    1ee4:	aa1803e5 	mov	x5, x24
    1ee8:	2a1703e4 	mov	w4, w23
    1eec:	aa1603e3 	mov	x3, x22
/home/asaf/devel/optee/optee_os/lib/libutee/tee_api_operations.c:1642
    1ef0:	f81f8cc0 	str	x0, [x6,#-8]!
/home/asaf/devel/optee/optee_os/lib/libutee/tee_api_operations.c:1643
    1ef4:	aa1a03e2 	mov	x2, x26
    1ef8:	b9405a60 	ldr	w0, [x19,#88]
    1efc:	9400030b 	bl	2b28 <utee_asymm_operate>
/home/asaf/devel/optee/optee_os/lib/libutee/tee_api_operations.c:1648
    1f00:	7100001f 	cmp	w0, #0x0
/home/asaf/devel/optee/optee_os/lib/libutee/tee_api_operations.c:1645
    1f04:	f94037a1 	ldr	x1, [x29,#104]
/home/asaf/devel/optee/optee_os/lib/libutee/tee_api_operations.c:1643
    1f08:	2a0003f3 	mov	w19, w0
/home/asaf/devel/optee/optee_os/lib/libutee/tee_api_operations.c:1645
    1f0c:	b9000281 	str	w1, [x20]
/home/asaf/devel/optee/optee_os/lib/libutee/tee_api_operations.c:1648
    1f10:	129ffde1 	mov	w1, #0xffff0010            	// #-65520
    1f14:	7a411004 	ccmp	w0, w1, #0x4, ne
    1f18:	129fff21 	mov	w1, #0xffff0006            	// #-65530
    1f1c:	7a411004 	ccmp	w0, w1, #0x4, ne
    1f20:	54000040 	b.eq	1f28 <TEE_AsymmetricEncrypt+0x120>
/home/asaf/devel/optee/optee_os/lib/libutee/tee_api_operations.c:1650
    1f24:	940001d7 	bl	2680 <TEE_Panic>
/home/asaf/devel/optee/optee_os/lib/libutee/tee_api_operations.c:1653
    1f28:	910003bf 	mov	sp, x29
    1f2c:	2a1303e0 	mov	w0, w19
    1f30:	f9402bfb 	ldr	x27, [sp,#80]
    1f34:	a94153f3 	ldp	x19, x20, [sp,#16]
    1f38:	a9425bf5 	ldp	x21, x22, [sp,#32]
    1f3c:	a94363f7 	ldp	x23, x24, [sp,#48]
    1f40:	a9446bf9 	ldp	x25, x26, [sp,#64]
    1f44:	a8c77bfd 	ldp	x29, x30, [sp],#112
    1f48:	d65f03c0 	ret

0000000000001f4c <TEE_AsymmetricDecrypt>:
TEE_AsymmetricDecrypt():
/home/asaf/devel/optee/optee_os/lib/libutee/tee_api_operations.c:1660
    1f4c:	a9b97bfd 	stp	x29, x30, [sp,#-112]!
    1f50:	910003fd 	mov	x29, sp
    1f54:	a9046bf9 	stp	x25, x26, [sp,#64]
    1f58:	2a0203fa 	mov	w26, w2
    1f5c:	a90153f3 	stp	x19, x20, [sp,#16]
    1f60:	aa0003f3 	mov	x19, x0
/home/asaf/devel/optee/optee_os/lib/libutee/tee_api_operations.c:1662
    1f64:	52800300 	mov	w0, #0x18                  	// #24
/home/asaf/devel/optee/optee_os/lib/libutee/tee_api_operations.c:1660
    1f68:	a9025bf5 	stp	x21, x22, [sp,#32]
    1f6c:	a90363f7 	stp	x23, x24, [sp,#48]
    1f70:	aa0103f9 	mov	x25, x1
/home/asaf/devel/optee/optee_os/lib/libutee/tee_api_operations.c:1662
    1f74:	9ba07f40 	umull	x0, w26, w0
/home/asaf/devel/optee/optee_os/lib/libutee/tee_api_operations.c:1660
    1f78:	f9002bfb 	str	x27, [sp,#80]
    1f7c:	aa1a03f5 	mov	x21, x26
    1f80:	aa0303f6 	mov	x22, x3
/home/asaf/devel/optee/optee_os/lib/libutee/tee_api_operations.c:1662
    1f84:	91005800 	add	x0, x0, #0x16
/home/asaf/devel/optee/optee_os/lib/libutee/tee_api_operations.c:1660
    1f88:	2a0403f7 	mov	w23, w4
/home/asaf/devel/optee/optee_os/lib/libutee/tee_api_operations.c:1662
    1f8c:	927c8400 	and	x0, x0, #0x3ffffffff0
/home/asaf/devel/optee/optee_os/lib/libutee/tee_api_operations.c:1660
    1f90:	aa0503f8 	mov	x24, x5
/home/asaf/devel/optee/optee_os/lib/libutee/tee_api_operations.c:1662
    1f94:	cb2063ff 	sub	sp, sp, x0
/home/asaf/devel/optee/optee_os/lib/libutee/tee_api_operations.c:1660
    1f98:	aa0603f4 	mov	x20, x6
/home/asaf/devel/optee/optee_os/lib/libutee/tee_api_operations.c:1662
    1f9c:	910003fb 	mov	x27, sp
/home/asaf/devel/optee/optee_os/lib/libutee/tee_api_operations.c:1665
    1fa0:	b4000113 	cbz	x19, 1fc0 <TEE_AsymmetricDecrypt+0x74>
/home/asaf/devel/optee/optee_os/lib/libutee/tee_api_operations.c:1665 (discriminator 1)
    1fa4:	f100007f 	cmp	x3, #0x0
    1fa8:	7a400884 	ccmp	w4, #0x0, #0x4, eq
    1fac:	fa4008c4 	ccmp	x6, #0x0, #0x4, eq
    1fb0:	54000080 	b.eq	1fc0 <TEE_AsymmetricDecrypt+0x74>
/home/asaf/devel/optee/optee_os/lib/libutee/tee_api_operations.c:1666
    1fb4:	b50000a5 	cbnz	x5, 1fc8 <TEE_AsymmetricDecrypt+0x7c>
/home/asaf/devel/optee/optee_os/lib/libutee/tee_api_operations.c:1666 (discriminator 1)
    1fb8:	b94000c0 	ldr	w0, [x6]
    1fbc:	34000060 	cbz	w0, 1fc8 <TEE_AsymmetricDecrypt+0x7c>
/home/asaf/devel/optee/optee_os/lib/libutee/tee_api_operations.c:1667
    1fc0:	52800000 	mov	w0, #0x0                   	// #0
    1fc4:	940001af 	bl	2680 <TEE_Panic>
/home/asaf/devel/optee/optee_os/lib/libutee/tee_api_operations.c:1668
    1fc8:	f100033f 	cmp	x25, #0x0
    1fcc:	7a400aa4 	ccmp	w21, #0x0, #0x4, eq
    1fd0:	54000060 	b.eq	1fdc <TEE_AsymmetricDecrypt+0x90>
/home/asaf/devel/optee/optee_os/lib/libutee/tee_api_operations.c:1669
    1fd4:	52800000 	mov	w0, #0x0                   	// #0
    1fd8:	940001aa 	bl	2680 <TEE_Panic>
/home/asaf/devel/optee/optee_os/lib/libutee/tee_api_operations.c:1670
    1fdc:	f9401260 	ldr	x0, [x19,#32]
    1fe0:	b5000040 	cbnz	x0, 1fe8 <TEE_AsymmetricDecrypt+0x9c>
/home/asaf/devel/optee/optee_os/lib/libutee/tee_api_operations.c:1671
    1fe4:	940001a7 	bl	2680 <TEE_Panic>
/home/asaf/devel/optee/optee_os/lib/libutee/tee_api_operations.c:1672
    1fe8:	b9400660 	ldr	w0, [x19,#4]
    1fec:	7100181f 	cmp	w0, #0x6
    1ff0:	54000060 	b.eq	1ffc <TEE_AsymmetricDecrypt+0xb0>
/home/asaf/devel/optee/optee_os/lib/libutee/tee_api_operations.c:1673
    1ff4:	52800000 	mov	w0, #0x0                   	// #0
    1ff8:	940001a2 	bl	2680 <TEE_Panic>
/home/asaf/devel/optee/optee_os/lib/libutee/tee_api_operations.c:1674
    1ffc:	b9400a60 	ldr	w0, [x19,#8]
    2000:	7100041f 	cmp	w0, #0x1
    2004:	54000060 	b.eq	2010 <TEE_AsymmetricDecrypt+0xc4>
/home/asaf/devel/optee/optee_os/lib/libutee/tee_api_operations.c:1675
    2008:	52800000 	mov	w0, #0x0                   	// #0
    200c:	9400019d 	bl	2680 <TEE_Panic>
/home/asaf/devel/optee/optee_os/lib/libutee/tee_api_operations.c:1677
    2010:	2a1503e2 	mov	w2, w21
    2014:	aa1903e1 	mov	x1, x25
    2018:	aa1b03e0 	mov	x0, x27
    201c:	940005f7 	bl	37f8 <__utee_from_attr>
/home/asaf/devel/optee/optee_os/lib/libutee/tee_api_operations.c:1678
    2020:	9101c3a6 	add	x6, x29, #0x70
    2024:	b9400280 	ldr	w0, [x20]
/home/asaf/devel/optee/optee_os/lib/libutee/tee_api_operations.c:1679
    2028:	aa1b03e1 	mov	x1, x27
    202c:	aa1803e5 	mov	x5, x24
    2030:	2a1703e4 	mov	w4, w23
    2034:	aa1603e3 	mov	x3, x22
/home/asaf/devel/optee/optee_os/lib/libutee/tee_api_operations.c:1678
    2038:	f81f8cc0 	str	x0, [x6,#-8]!
/home/asaf/devel/optee/optee_os/lib/libutee/tee_api_operations.c:1679
    203c:	aa1a03e2 	mov	x2, x26
    2040:	b9405a60 	ldr	w0, [x19,#88]
    2044:	940002b9 	bl	2b28 <utee_asymm_operate>
/home/asaf/devel/optee/optee_os/lib/libutee/tee_api_operations.c:1684
    2048:	7100001f 	cmp	w0, #0x0
/home/asaf/devel/optee/optee_os/lib/libutee/tee_api_operations.c:1681
    204c:	f94037a1 	ldr	x1, [x29,#104]
/home/asaf/devel/optee/optee_os/lib/libutee/tee_api_operations.c:1679
    2050:	2a0003f3 	mov	w19, w0
/home/asaf/devel/optee/optee_os/lib/libutee/tee_api_operations.c:1681
    2054:	b9000281 	str	w1, [x20]
/home/asaf/devel/optee/optee_os/lib/libutee/tee_api_operations.c:1684
    2058:	129ffde1 	mov	w1, #0xffff0010            	// #-65520
    205c:	7a411004 	ccmp	w0, w1, #0x4, ne
    2060:	129fff21 	mov	w1, #0xffff0006            	// #-65530
    2064:	7a411004 	ccmp	w0, w1, #0x4, ne
    2068:	54000040 	b.eq	2070 <TEE_AsymmetricDecrypt+0x124>
/home/asaf/devel/optee/optee_os/lib/libutee/tee_api_operations.c:1686
    206c:	94000185 	bl	2680 <TEE_Panic>
/home/asaf/devel/optee/optee_os/lib/libutee/tee_api_operations.c:1689
    2070:	910003bf 	mov	sp, x29
    2074:	2a1303e0 	mov	w0, w19
    2078:	f9402bfb 	ldr	x27, [sp,#80]
    207c:	a94153f3 	ldp	x19, x20, [sp,#16]
    2080:	a9425bf5 	ldp	x21, x22, [sp,#32]
    2084:	a94363f7 	ldp	x23, x24, [sp,#48]
    2088:	a9446bf9 	ldp	x25, x26, [sp,#64]
    208c:	a8c77bfd 	ldp	x29, x30, [sp],#112
    2090:	d65f03c0 	ret

0000000000002094 <TEE_AsymmetricSignDigest>:
TEE_AsymmetricSignDigest():
/home/asaf/devel/optee/optee_os/lib/libutee/tee_api_operations.c:1696
    2094:	a9b97bfd 	stp	x29, x30, [sp,#-112]!
    2098:	910003fd 	mov	x29, sp
    209c:	a9046bf9 	stp	x25, x26, [sp,#64]
    20a0:	2a0203fa 	mov	w26, w2
    20a4:	a90153f3 	stp	x19, x20, [sp,#16]
    20a8:	aa0003f3 	mov	x19, x0
/home/asaf/devel/optee/optee_os/lib/libutee/tee_api_operations.c:1698
    20ac:	52800300 	mov	w0, #0x18                  	// #24
/home/asaf/devel/optee/optee_os/lib/libutee/tee_api_operations.c:1696
    20b0:	a9025bf5 	stp	x21, x22, [sp,#32]
    20b4:	a90363f7 	stp	x23, x24, [sp,#48]
    20b8:	aa0103f9 	mov	x25, x1
/home/asaf/devel/optee/optee_os/lib/libutee/tee_api_operations.c:1698
    20bc:	9ba07f40 	umull	x0, w26, w0
/home/asaf/devel/optee/optee_os/lib/libutee/tee_api_operations.c:1696
    20c0:	f9002bfb 	str	x27, [sp,#80]
    20c4:	aa1a03f4 	mov	x20, x26
    20c8:	aa0303f6 	mov	x22, x3
/home/asaf/devel/optee/optee_os/lib/libutee/tee_api_operations.c:1698
    20cc:	91005800 	add	x0, x0, #0x16
/home/asaf/devel/optee/optee_os/lib/libutee/tee_api_operations.c:1696
    20d0:	2a0403f7 	mov	w23, w4
/home/asaf/devel/optee/optee_os/lib/libutee/tee_api_operations.c:1698
    20d4:	927c8400 	and	x0, x0, #0x3ffffffff0
/home/asaf/devel/optee/optee_os/lib/libutee/tee_api_operations.c:1696
    20d8:	aa0503f8 	mov	x24, x5
/home/asaf/devel/optee/optee_os/lib/libutee/tee_api_operations.c:1698
    20dc:	cb2063ff 	sub	sp, sp, x0
/home/asaf/devel/optee/optee_os/lib/libutee/tee_api_operations.c:1696
    20e0:	aa0603f5 	mov	x21, x6
/home/asaf/devel/optee/optee_os/lib/libutee/tee_api_operations.c:1698
    20e4:	910003fb 	mov	x27, sp
/home/asaf/devel/optee/optee_os/lib/libutee/tee_api_operations.c:1701
    20e8:	b40000f3 	cbz	x19, 2104 <TEE_AsymmetricSignDigest+0x70>
/home/asaf/devel/optee/optee_os/lib/libutee/tee_api_operations.c:1702 (discriminator 1)
    20ec:	f100007f 	cmp	x3, #0x0
/home/asaf/devel/optee/optee_os/lib/libutee/tee_api_operations.c:1701 (discriminator 1)
    20f0:	7a400884 	ccmp	w4, #0x0, #0x4, eq
    20f4:	54000081 	b.ne	2104 <TEE_AsymmetricSignDigest+0x70>
/home/asaf/devel/optee/optee_os/lib/libutee/tee_api_operations.c:1703
    20f8:	f10000bf 	cmp	x5, #0x0
    20fc:	fa4018c4 	ccmp	x6, #0x0, #0x4, ne
    2100:	54000061 	b.ne	210c <TEE_AsymmetricSignDigest+0x78>
/home/asaf/devel/optee/optee_os/lib/libutee/tee_api_operations.c:1704
    2104:	52800000 	mov	w0, #0x0                   	// #0
    2108:	9400015e 	bl	2680 <TEE_Panic>
/home/asaf/devel/optee/optee_os/lib/libutee/tee_api_operations.c:1705
    210c:	f100033f 	cmp	x25, #0x0
    2110:	7a400a84 	ccmp	w20, #0x0, #0x4, eq
    2114:	54000060 	b.eq	2120 <TEE_AsymmetricSignDigest+0x8c>
/home/asaf/devel/optee/optee_os/lib/libutee/tee_api_operations.c:1706
    2118:	52800000 	mov	w0, #0x0                   	// #0
    211c:	94000159 	bl	2680 <TEE_Panic>
/home/asaf/devel/optee/optee_os/lib/libutee/tee_api_operations.c:1707
    2120:	f9401260 	ldr	x0, [x19,#32]
    2124:	b5000040 	cbnz	x0, 212c <TEE_AsymmetricSignDigest+0x98>
/home/asaf/devel/optee/optee_os/lib/libutee/tee_api_operations.c:1708
    2128:	94000156 	bl	2680 <TEE_Panic>
/home/asaf/devel/optee/optee_os/lib/libutee/tee_api_operations.c:1709
    212c:	b9400660 	ldr	w0, [x19,#4]
    2130:	71001c1f 	cmp	w0, #0x7
    2134:	54000060 	b.eq	2140 <TEE_AsymmetricSignDigest+0xac>
/home/asaf/devel/optee/optee_os/lib/libutee/tee_api_operations.c:1711
    2138:	52800000 	mov	w0, #0x0                   	// #0
    213c:	94000151 	bl	2680 <TEE_Panic>
/home/asaf/devel/optee/optee_os/lib/libutee/tee_api_operations.c:1712
    2140:	b9400a60 	ldr	w0, [x19,#8]
    2144:	7100081f 	cmp	w0, #0x2
    2148:	54000060 	b.eq	2154 <TEE_AsymmetricSignDigest+0xc0>
/home/asaf/devel/optee/optee_os/lib/libutee/tee_api_operations.c:1713
    214c:	52800000 	mov	w0, #0x0                   	// #0
    2150:	9400014c 	bl	2680 <TEE_Panic>
/home/asaf/devel/optee/optee_os/lib/libutee/tee_api_operations.c:1715
    2154:	2a1403e2 	mov	w2, w20
    2158:	aa1903e1 	mov	x1, x25
    215c:	aa1b03e0 	mov	x0, x27
    2160:	940005a6 	bl	37f8 <__utee_from_attr>
/home/asaf/devel/optee/optee_os/lib/libutee/tee_api_operations.c:1716
    2164:	9101c3a6 	add	x6, x29, #0x70
    2168:	b94002a0 	ldr	w0, [x21]
/home/asaf/devel/optee/optee_os/lib/libutee/tee_api_operations.c:1717
    216c:	aa1b03e1 	mov	x1, x27
    2170:	aa1803e5 	mov	x5, x24
    2174:	2a1703e4 	mov	w4, w23
    2178:	aa1603e3 	mov	x3, x22
/home/asaf/devel/optee/optee_os/lib/libutee/tee_api_operations.c:1716
    217c:	f81f8cc0 	str	x0, [x6,#-8]!
/home/asaf/devel/optee/optee_os/lib/libutee/tee_api_operations.c:1717
    2180:	aa1a03e2 	mov	x2, x26
    2184:	b9405a60 	ldr	w0, [x19,#88]
    2188:	94000268 	bl	2b28 <utee_asymm_operate>
/home/asaf/devel/optee/optee_os/lib/libutee/tee_api_operations.c:1721
    218c:	7100001f 	cmp	w0, #0x0
/home/asaf/devel/optee/optee_os/lib/libutee/tee_api_operations.c:1719
    2190:	f94037a1 	ldr	x1, [x29,#104]
/home/asaf/devel/optee/optee_os/lib/libutee/tee_api_operations.c:1717
    2194:	2a0003f3 	mov	w19, w0
/home/asaf/devel/optee/optee_os/lib/libutee/tee_api_operations.c:1719
    2198:	b90002a1 	str	w1, [x21]
/home/asaf/devel/optee/optee_os/lib/libutee/tee_api_operations.c:1721
    219c:	129ffde1 	mov	w1, #0xffff0010            	// #-65520
    21a0:	7a411004 	ccmp	w0, w1, #0x4, ne
    21a4:	54000040 	b.eq	21ac <TEE_AsymmetricSignDigest+0x118>
/home/asaf/devel/optee/optee_os/lib/libutee/tee_api_operations.c:1722
    21a8:	94000136 	bl	2680 <TEE_Panic>
/home/asaf/devel/optee/optee_os/lib/libutee/tee_api_operations.c:1725
    21ac:	910003bf 	mov	sp, x29
    21b0:	2a1303e0 	mov	w0, w19
    21b4:	f9402bfb 	ldr	x27, [sp,#80]
    21b8:	a94153f3 	ldp	x19, x20, [sp,#16]
    21bc:	a9425bf5 	ldp	x21, x22, [sp,#32]
    21c0:	a94363f7 	ldp	x23, x24, [sp,#48]
    21c4:	a9446bf9 	ldp	x25, x26, [sp,#64]
    21c8:	a8c77bfd 	ldp	x29, x30, [sp],#112
    21cc:	d65f03c0 	ret

00000000000021d0 <TEE_AsymmetricVerifyDigest>:
TEE_AsymmetricVerifyDigest():
/home/asaf/devel/optee/optee_os/lib/libutee/tee_api_operations.c:1733
    21d0:	a9ba7bfd 	stp	x29, x30, [sp,#-96]!
    21d4:	910003fd 	mov	x29, sp
    21d8:	a9046bf9 	stp	x25, x26, [sp,#64]
    21dc:	2a0203fa 	mov	w26, w2
    21e0:	a90153f3 	stp	x19, x20, [sp,#16]
    21e4:	aa0003f3 	mov	x19, x0
/home/asaf/devel/optee/optee_os/lib/libutee/tee_api_operations.c:1735
    21e8:	52800300 	mov	w0, #0x18                  	// #24
/home/asaf/devel/optee/optee_os/lib/libutee/tee_api_operations.c:1733
    21ec:	a9025bf5 	stp	x21, x22, [sp,#32]
    21f0:	a90363f7 	stp	x23, x24, [sp,#48]
    21f4:	aa0103f9 	mov	x25, x1
/home/asaf/devel/optee/optee_os/lib/libutee/tee_api_operations.c:1735
    21f8:	9ba07f40 	umull	x0, w26, w0
/home/asaf/devel/optee/optee_os/lib/libutee/tee_api_operations.c:1733
    21fc:	f9002bfb 	str	x27, [sp,#80]
    2200:	aa1a03f4 	mov	x20, x26
    2204:	aa0303f5 	mov	x21, x3
/home/asaf/devel/optee/optee_os/lib/libutee/tee_api_operations.c:1735
    2208:	91005800 	add	x0, x0, #0x16
/home/asaf/devel/optee/optee_os/lib/libutee/tee_api_operations.c:1733
    220c:	2a0403f6 	mov	w22, w4
/home/asaf/devel/optee/optee_os/lib/libutee/tee_api_operations.c:1735
    2210:	927c8400 	and	x0, x0, #0x3ffffffff0
/home/asaf/devel/optee/optee_os/lib/libutee/tee_api_operations.c:1733
    2214:	aa0503f7 	mov	x23, x5
/home/asaf/devel/optee/optee_os/lib/libutee/tee_api_operations.c:1735
    2218:	cb2063ff 	sub	sp, sp, x0
/home/asaf/devel/optee/optee_os/lib/libutee/tee_api_operations.c:1733
    221c:	2a0603f8 	mov	w24, w6
/home/asaf/devel/optee/optee_os/lib/libutee/tee_api_operations.c:1735
    2220:	910003fb 	mov	x27, sp
/home/asaf/devel/optee/optee_os/lib/libutee/tee_api_operations.c:1737
    2224:	b40000f3 	cbz	x19, 2240 <TEE_AsymmetricVerifyDigest+0x70>
/home/asaf/devel/optee/optee_os/lib/libutee/tee_api_operations.c:1738 (discriminator 1)
    2228:	f100007f 	cmp	x3, #0x0
/home/asaf/devel/optee/optee_os/lib/libutee/tee_api_operations.c:1737 (discriminator 1)
    222c:	7a400884 	ccmp	w4, #0x0, #0x4, eq
    2230:	54000081 	b.ne	2240 <TEE_AsymmetricVerifyDigest+0x70>
/home/asaf/devel/optee/optee_os/lib/libutee/tee_api_operations.c:1739
    2234:	f10000bf 	cmp	x5, #0x0
/home/asaf/devel/optee/optee_os/lib/libutee/tee_api_operations.c:1738
    2238:	7a4008c4 	ccmp	w6, #0x0, #0x4, eq
    223c:	54000060 	b.eq	2248 <TEE_AsymmetricVerifyDigest+0x78>
/home/asaf/devel/optee/optee_os/lib/libutee/tee_api_operations.c:1740
    2240:	52800000 	mov	w0, #0x0                   	// #0
    2244:	9400010f 	bl	2680 <TEE_Panic>
/home/asaf/devel/optee/optee_os/lib/libutee/tee_api_operations.c:1741
    2248:	f100033f 	cmp	x25, #0x0
    224c:	7a400a84 	ccmp	w20, #0x0, #0x4, eq
    2250:	54000060 	b.eq	225c <TEE_AsymmetricVerifyDigest+0x8c>
/home/asaf/devel/optee/optee_os/lib/libutee/tee_api_operations.c:1742
    2254:	52800000 	mov	w0, #0x0                   	// #0
    2258:	9400010a 	bl	2680 <TEE_Panic>
/home/asaf/devel/optee/optee_os/lib/libutee/tee_api_operations.c:1743
    225c:	f9401260 	ldr	x0, [x19,#32]
    2260:	b5000040 	cbnz	x0, 2268 <TEE_AsymmetricVerifyDigest+0x98>
/home/asaf/devel/optee/optee_os/lib/libutee/tee_api_operations.c:1744
    2264:	94000107 	bl	2680 <TEE_Panic>
/home/asaf/devel/optee/optee_os/lib/libutee/tee_api_operations.c:1745
    2268:	b9400660 	ldr	w0, [x19,#4]
    226c:	71001c1f 	cmp	w0, #0x7
    2270:	54000060 	b.eq	227c <TEE_AsymmetricVerifyDigest+0xac>
/home/asaf/devel/optee/optee_os/lib/libutee/tee_api_operations.c:1747
    2274:	52800000 	mov	w0, #0x0                   	// #0
    2278:	94000102 	bl	2680 <TEE_Panic>
/home/asaf/devel/optee/optee_os/lib/libutee/tee_api_operations.c:1748
    227c:	b9400a60 	ldr	w0, [x19,#8]
    2280:	71000c1f 	cmp	w0, #0x3
    2284:	54000060 	b.eq	2290 <TEE_AsymmetricVerifyDigest+0xc0>
/home/asaf/devel/optee/optee_os/lib/libutee/tee_api_operations.c:1749
    2288:	52800000 	mov	w0, #0x0                   	// #0
    228c:	940000fd 	bl	2680 <TEE_Panic>
/home/asaf/devel/optee/optee_os/lib/libutee/tee_api_operations.c:1751
    2290:	2a1403e2 	mov	w2, w20
    2294:	aa1903e1 	mov	x1, x25
    2298:	aa1b03e0 	mov	x0, x27
    229c:	94000557 	bl	37f8 <__utee_from_attr>
/home/asaf/devel/optee/optee_os/lib/libutee/tee_api_operations.c:1752
    22a0:	b9405a60 	ldr	w0, [x19,#88]
    22a4:	aa1b03e1 	mov	x1, x27
    22a8:	2a1803e6 	mov	w6, w24
    22ac:	aa1703e5 	mov	x5, x23
    22b0:	2a1603e4 	mov	w4, w22
    22b4:	aa1503e3 	mov	x3, x21
    22b8:	aa1a03e2 	mov	x2, x26
    22bc:	9400021e 	bl	2b34 <utee_asymm_verify>
/home/asaf/devel/optee/optee_os/lib/libutee/tee_api_operations.c:1755
    22c0:	7100001f 	cmp	w0, #0x0
    22c4:	1299f1a1 	mov	w1, #0xffff3072            	// #-53134
/home/asaf/devel/optee/optee_os/lib/libutee/tee_api_operations.c:1752
    22c8:	2a0003f3 	mov	w19, w0
/home/asaf/devel/optee/optee_os/lib/libutee/tee_api_operations.c:1755
    22cc:	7a411004 	ccmp	w0, w1, #0x4, ne
    22d0:	54000040 	b.eq	22d8 <TEE_AsymmetricVerifyDigest+0x108>
/home/asaf/devel/optee/optee_os/lib/libutee/tee_api_operations.c:1756
    22d4:	940000eb 	bl	2680 <TEE_Panic>
/home/asaf/devel/optee/optee_os/lib/libutee/tee_api_operations.c:1759
    22d8:	910003bf 	mov	sp, x29
    22dc:	2a1303e0 	mov	w0, w19
    22e0:	f9402bfb 	ldr	x27, [sp,#80]
    22e4:	a94153f3 	ldp	x19, x20, [sp,#16]
    22e8:	a9425bf5 	ldp	x21, x22, [sp,#32]
    22ec:	a94363f7 	ldp	x23, x24, [sp,#48]
    22f0:	a9446bf9 	ldp	x25, x26, [sp,#64]
    22f4:	a8c67bfd 	ldp	x29, x30, [sp],#96
    22f8:	d65f03c0 	ret

00000000000022fc <TEE_DeriveKey>:
TEE_DeriveKey():
/home/asaf/devel/optee/optee_os/lib/libutee/tee_api_operations.c:1766
    22fc:	a9ba7bfd 	stp	x29, x30, [sp,#-96]!
    2300:	910003fd 	mov	x29, sp
    2304:	a90363f7 	stp	x23, x24, [sp,#48]
    2308:	2a0203f7 	mov	w23, w2
    230c:	a90153f3 	stp	x19, x20, [sp,#16]
    2310:	aa0003f3 	mov	x19, x0
/home/asaf/devel/optee/optee_os/lib/libutee/tee_api_operations.c:1769
    2314:	52800300 	mov	w0, #0x18                  	// #24
/home/asaf/devel/optee/optee_os/lib/libutee/tee_api_operations.c:1766
    2318:	a9025bf5 	stp	x21, x22, [sp,#32]
/home/asaf/devel/optee/optee_os/lib/libutee/tee_api_operations.c:1771
    231c:	f100027f 	cmp	x19, #0x0
/home/asaf/devel/optee/optee_os/lib/libutee/tee_api_operations.c:1766
    2320:	aa0103f6 	mov	x22, x1
/home/asaf/devel/optee/optee_os/lib/libutee/tee_api_operations.c:1769
    2324:	9ba07ee0 	umull	x0, w23, w0
/home/asaf/devel/optee/optee_os/lib/libutee/tee_api_operations.c:1766
    2328:	aa1703f4 	mov	x20, x23
    232c:	aa0303f5 	mov	x21, x3
/home/asaf/devel/optee/optee_os/lib/libutee/tee_api_operations.c:1771
    2330:	fa401864 	ccmp	x3, #0x0, #0x4, ne
/home/asaf/devel/optee/optee_os/lib/libutee/tee_api_operations.c:1769
    2334:	91005800 	add	x0, x0, #0x16
    2338:	927c8400 	and	x0, x0, #0x3ffffffff0
    233c:	cb2063ff 	sub	sp, sp, x0
    2340:	910003f8 	mov	x24, sp
/home/asaf/devel/optee/optee_os/lib/libutee/tee_api_operations.c:1771
    2344:	54000061 	b.ne	2350 <TEE_DeriveKey+0x54>
/home/asaf/devel/optee/optee_os/lib/libutee/tee_api_operations.c:1772
    2348:	52800000 	mov	w0, #0x0                   	// #0
    234c:	940000cd 	bl	2680 <TEE_Panic>
/home/asaf/devel/optee/optee_os/lib/libutee/tee_api_operations.c:1773
    2350:	f10002df 	cmp	x22, #0x0
    2354:	7a400a84 	ccmp	w20, #0x0, #0x4, eq
    2358:	54000060 	b.eq	2364 <TEE_DeriveKey+0x68>
/home/asaf/devel/optee/optee_os/lib/libutee/tee_api_operations.c:1774
    235c:	52800000 	mov	w0, #0x0                   	// #0
    2360:	940000c8 	bl	2680 <TEE_Panic>
/home/asaf/devel/optee/optee_os/lib/libutee/tee_api_operations.c:1775
    2364:	b9400260 	ldr	w0, [x19]
    2368:	531c7c00 	lsr	w0, w0, #28
    236c:	7100201f 	cmp	w0, #0x8
    2370:	54000060 	b.eq	237c <TEE_DeriveKey+0x80>
/home/asaf/devel/optee/optee_os/lib/libutee/tee_api_operations.c:1777
    2374:	52800000 	mov	w0, #0x0                   	// #0
    2378:	940000c2 	bl	2680 <TEE_Panic>
/home/asaf/devel/optee/optee_os/lib/libutee/tee_api_operations.c:1779
    237c:	b9400660 	ldr	w0, [x19,#4]
    2380:	7100201f 	cmp	w0, #0x8
    2384:	54000060 	b.eq	2390 <TEE_DeriveKey+0x94>
/home/asaf/devel/optee/optee_os/lib/libutee/tee_api_operations.c:1780
    2388:	52800000 	mov	w0, #0x0                   	// #0
    238c:	940000bd 	bl	2680 <TEE_Panic>
/home/asaf/devel/optee/optee_os/lib/libutee/tee_api_operations.c:1781
    2390:	f9401260 	ldr	x0, [x19,#32]
    2394:	b5000040 	cbnz	x0, 239c <TEE_DeriveKey+0xa0>
/home/asaf/devel/optee/optee_os/lib/libutee/tee_api_operations.c:1782
    2398:	940000ba 	bl	2680 <TEE_Panic>
/home/asaf/devel/optee/optee_os/lib/libutee/tee_api_operations.c:1783
    239c:	b9400a60 	ldr	w0, [x19,#8]
    23a0:	7100181f 	cmp	w0, #0x6
    23a4:	54000060 	b.eq	23b0 <TEE_DeriveKey+0xb4>
/home/asaf/devel/optee/optee_os/lib/libutee/tee_api_operations.c:1784
    23a8:	52800000 	mov	w0, #0x0                   	// #0
    23ac:	940000b5 	bl	2680 <TEE_Panic>
/home/asaf/devel/optee/optee_os/lib/libutee/tee_api_operations.c:1785
    23b0:	b9401e60 	ldr	w0, [x19,#28]
    23b4:	37900060 	tbnz	w0, #18, 23c0 <TEE_DeriveKey+0xc4>
/home/asaf/devel/optee/optee_os/lib/libutee/tee_api_operations.c:1786
    23b8:	52800000 	mov	w0, #0x0                   	// #0
    23bc:	940000b1 	bl	2680 <TEE_Panic>
/home/asaf/devel/optee/optee_os/lib/libutee/tee_api_operations.c:1788
    23c0:	910103a1 	add	x1, x29, #0x40
    23c4:	aa1503e0 	mov	x0, x21
    23c8:	940001ab 	bl	2a74 <utee_cryp_obj_get_info>
/home/asaf/devel/optee/optee_os/lib/libutee/tee_api_operations.c:1789
    23cc:	34000040 	cbz	w0, 23d4 <TEE_DeriveKey+0xd8>
/home/asaf/devel/optee/optee_os/lib/libutee/tee_api_operations.c:1790
    23d0:	940000ac 	bl	2680 <TEE_Panic>
/home/asaf/devel/optee/optee_os/lib/libutee/tee_api_operations.c:1792
    23d4:	b94043a1 	ldr	w1, [x29,#64]
    23d8:	52b40000 	mov	w0, #0xa0000000            	// #-1610612736
    23dc:	6b00003f 	cmp	w1, w0
    23e0:	54000060 	b.eq	23ec <TEE_DeriveKey+0xf0>
/home/asaf/devel/optee/optee_os/lib/libutee/tee_api_operations.c:1793
    23e4:	52800000 	mov	w0, #0x0                   	// #0
    23e8:	940000a6 	bl	2680 <TEE_Panic>
/home/asaf/devel/optee/optee_os/lib/libutee/tee_api_operations.c:1794
    23ec:	b9405ba0 	ldr	w0, [x29,#88]
    23f0:	36880060 	tbz	w0, #17, 23fc <TEE_DeriveKey+0x100>
/home/asaf/devel/optee/optee_os/lib/libutee/tee_api_operations.c:1795
    23f4:	52800000 	mov	w0, #0x0                   	// #0
    23f8:	940000a2 	bl	2680 <TEE_Panic>
/home/asaf/devel/optee/optee_os/lib/libutee/tee_api_operations.c:1797
    23fc:	2a1403e2 	mov	w2, w20
    2400:	aa1603e1 	mov	x1, x22
    2404:	aa1803e0 	mov	x0, x24
    2408:	940004fc 	bl	37f8 <__utee_from_attr>
/home/asaf/devel/optee/optee_os/lib/libutee/tee_api_operations.c:1798
    240c:	b9405a60 	ldr	w0, [x19,#88]
    2410:	aa1503e3 	mov	x3, x21
    2414:	aa1703e2 	mov	x2, x23
    2418:	aa1803e1 	mov	x1, x24
    241c:	940001ae 	bl	2ad4 <utee_cryp_derive_key>
/home/asaf/devel/optee/optee_os/lib/libutee/tee_api_operations.c:1800
    2420:	34000040 	cbz	w0, 2428 <TEE_DeriveKey+0x12c>
/home/asaf/devel/optee/optee_os/lib/libutee/tee_api_operations.c:1801
    2424:	94000097 	bl	2680 <TEE_Panic>
/home/asaf/devel/optee/optee_os/lib/libutee/tee_api_operations.c:1802
    2428:	910003bf 	mov	sp, x29
    242c:	a94153f3 	ldp	x19, x20, [sp,#16]
    2430:	a9425bf5 	ldp	x21, x22, [sp,#32]
    2434:	a94363f7 	ldp	x23, x24, [sp,#48]
    2438:	a8c67bfd 	ldp	x29, x30, [sp],#96
    243c:	d65f03c0 	ret

0000000000002440 <TEE_GenerateRandom>:
TEE_GenerateRandom():
/home/asaf/devel/optee/optee_os/lib/libutee/tee_api_operations.c:1807
    2440:	a9bf7bfd 	stp	x29, x30, [sp,#-16]!
/home/asaf/devel/optee/optee_os/lib/libutee/tee_api_operations.c:1810
    2444:	2a0103e1 	mov	w1, w1
/home/asaf/devel/optee/optee_os/lib/libutee/tee_api_operations.c:1807
    2448:	910003fd 	mov	x29, sp
/home/asaf/devel/optee/optee_os/lib/libutee/tee_api_operations.c:1810
    244c:	940001a5 	bl	2ae0 <utee_cryp_random_number_generate>
/home/asaf/devel/optee/optee_os/lib/libutee/tee_api_operations.c:1811
    2450:	34000060 	cbz	w0, 245c <TEE_GenerateRandom+0x1c>
/home/asaf/devel/optee/optee_os/lib/libutee/tee_api_operations.c:1813
    2454:	a8c17bfd 	ldp	x29, x30, [sp],#16
/home/asaf/devel/optee/optee_os/lib/libutee/tee_api_operations.c:1812
    2458:	1400008a 	b	2680 <TEE_Panic>
/home/asaf/devel/optee/optee_os/lib/libutee/tee_api_operations.c:1813
    245c:	a8c17bfd 	ldp	x29, x30, [sp],#16
    2460:	d65f03c0 	ret

0000000000002464 <tee_buffer_update>:
tee_buffer_update():
/home/asaf/devel/optee/optee_os/lib/libutee/tee_api_operations.c:867
    2464:	a9b87bfd 	stp	x29, x30, [sp,#-128]!
    2468:	910003fd 	mov	x29, sp
    246c:	a90153f3 	stp	x19, x20, [sp,#16]
    2470:	aa0003f3 	mov	x19, x0
    2474:	a9025bf5 	stp	x21, x22, [sp,#32]
    2478:	a9046bf9 	stp	x25, x26, [sp,#64]
    247c:	aa0303f9 	mov	x25, x3
    2480:	a90363f7 	stp	x23, x24, [sp,#48]
    2484:	a90573fb 	stp	x27, x28, [sp,#80]
    2488:	f90037a5 	str	x5, [x29,#104]
/home/asaf/devel/optee/optee_os/lib/libutee/tee_api_operations.c:872
    248c:	f94000b6 	ldr	x22, [x5]
/home/asaf/devel/optee/optee_os/lib/libutee/tee_api_operations.c:879
    2490:	b5000202 	cbnz	x2, 24d0 <tee_buffer_update+0x6c>
/home/asaf/devel/optee/optee_os/lib/libutee/tee_api_operations.c:880
    2494:	b5000183 	cbnz	x3, 24c4 <tee_buffer_update+0x60>
/home/asaf/devel/optee/optee_os/lib/libutee/tee_api_operations.c:873
    2498:	d2800017 	mov	x23, #0x0                   	// #0
/home/asaf/devel/optee/optee_os/lib/libutee/tee_api_operations.c:955
    249c:	f94037a0 	ldr	x0, [x29,#104]
/home/asaf/devel/optee/optee_os/lib/libutee/tee_api_operations.c:957
    24a0:	a94153f3 	ldp	x19, x20, [sp,#16]
    24a4:	a9425bf5 	ldp	x21, x22, [sp,#32]
    24a8:	a9446bf9 	ldp	x25, x26, [sp,#64]
    24ac:	a94573fb 	ldp	x27, x28, [sp,#80]
/home/asaf/devel/optee/optee_os/lib/libutee/tee_api_operations.c:955
    24b0:	f9000017 	str	x23, [x0]
/home/asaf/devel/optee/optee_os/lib/libutee/tee_api_operations.c:957
    24b4:	a94363f7 	ldp	x23, x24, [sp,#48]
    24b8:	52800000 	mov	w0, #0x0                   	// #0
    24bc:	a8c87bfd 	ldp	x29, x30, [sp],#128
    24c0:	d65f03c0 	ret
/home/asaf/devel/optee/optee_os/lib/libutee/tee_api_operations.c:881
    24c4:	52800000 	mov	w0, #0x0                   	// #0
    24c8:	9400006e 	bl	2680 <TEE_Panic>
    24cc:	17fffff3 	b	2498 <tee_buffer_update+0x34>
/home/asaf/devel/optee/optee_os/lib/libutee/tee_api_operations.c:885
    24d0:	39410000 	ldrb	w0, [x0,#64]
    24d4:	aa0103f8 	mov	x24, x1
    24d8:	aa0203f5 	mov	x21, x2
    24dc:	aa0403fb 	mov	x27, x4
    24e0:	f940267a 	ldr	x26, [x19,#72]
    24e4:	34000860 	cbz	w0, 25f0 <tee_buffer_update+0x18c>
/home/asaf/devel/optee/optee_os/lib/libutee/tee_api_operations.c:886
    24e8:	d37ffb54 	lsl	x20, x26, #1
/home/asaf/devel/optee/optee_os/lib/libutee/tee_api_operations.c:887
    24ec:	d280003c 	mov	x28, #0x1                   	// #1
/home/asaf/devel/optee/optee_os/lib/libutee/tee_api_operations.c:893
    24f0:	f9402a60 	ldr	x0, [x19,#80]
    24f4:	b4000260 	cbz	x0, 2540 <tee_buffer_update+0xdc>
/home/asaf/devel/optee/optee_os/lib/libutee/tee_api_operations.c:895
    24f8:	eb1a001f 	cmp	x0, x26
    24fc:	54000802 	b.cs	25fc <tee_buffer_update+0x198>
/home/asaf/devel/optee/optee_os/lib/libutee/tee_api_operations.c:896
    2500:	cb00035a 	sub	x26, x26, x0
/home/asaf/devel/optee/optee_os/lib/libutee/tee_api_operations.c:899
    2504:	f9401e63 	ldr	x3, [x19,#56]
/home/asaf/devel/optee/optee_os/lib/libutee/tee_api_operations.c:898
    2508:	eb19035f 	cmp	x26, x25
    250c:	9a99935a 	csel	x26, x26, x25, ls
/home/asaf/devel/optee/optee_os/lib/libutee/tee_api_operations.c:899
    2510:	aa1503e1 	mov	x1, x21
    2514:	aa1a03e2 	mov	x2, x26
    2518:	8b000060 	add	x0, x3, x0
    251c:	94000e1a 	bl	5d84 <memcpy>
/home/asaf/devel/optee/optee_os/lib/libutee/tee_api_operations.c:900
    2520:	a9448262 	ldp	x2, x0, [x19,#72]
    2524:	8b000340 	add	x0, x26, x0
    2528:	f9002a60 	str	x0, [x19,#80]
/home/asaf/devel/optee/optee_os/lib/libutee/tee_api_operations.c:903
    252c:	9ac20801 	udiv	x1, x0, x2
    2530:	9b028020 	msub	x0, x1, x2, x0
    2534:	b5fffb20 	cbnz	x0, 2498 <tee_buffer_update+0x34>
/home/asaf/devel/optee/optee_os/lib/libutee/tee_api_operations.c:901
    2538:	8b1a02b5 	add	x21, x21, x26
/home/asaf/devel/optee/optee_os/lib/libutee/tee_api_operations.c:902
    253c:	cb1a0339 	sub	x25, x25, x26
/home/asaf/devel/optee/optee_os/lib/libutee/tee_api_operations.c:908
    2540:	f9402a77 	ldr	x23, [x19,#80]
    2544:	8b1c029c 	add	x28, x20, x28
    2548:	b4000617 	cbz	x23, 2608 <tee_buffer_update+0x1a4>
/home/asaf/devel/optee/optee_os/lib/libutee/tee_api_operations.c:909 (discriminator 1)
    254c:	8b170320 	add	x0, x25, x23
/home/asaf/devel/optee/optee_os/lib/libutee/tee_api_operations.c:908 (discriminator 1)
    2550:	eb1c001f 	cmp	x0, x28
    2554:	54000583 	b.cc	2604 <tee_buffer_update+0x1a0>
/home/asaf/devel/optee/optee_os/lib/libutee/tee_api_operations.c:910
    2558:	f9402661 	ldr	x1, [x19,#72]
    255c:	cb14001a 	sub	x26, x0, x20
/home/asaf/devel/optee/optee_os/lib/libutee/tee_api_operations.c:913
    2560:	910203a4 	add	x4, x29, #0x80
/home/asaf/devel/optee/optee_os/lib/libutee/tee_api_operations.c:914
    2564:	aa1b03e3 	mov	x3, x27
/home/asaf/devel/optee/optee_os/lib/libutee/tee_api_operations.c:910
    2568:	d1000420 	sub	x0, x1, #0x1
    256c:	cb0103e1 	neg	x1, x1
    2570:	8b00035a 	add	x26, x26, x0
/home/asaf/devel/optee/optee_os/lib/libutee/tee_api_operations.c:914
    2574:	b9405a60 	ldr	w0, [x19,#88]
/home/asaf/devel/optee/optee_os/lib/libutee/tee_api_operations.c:910
    2578:	8a01035a 	and	x26, x26, x1
/home/asaf/devel/optee/optee_os/lib/libutee/tee_api_operations.c:914
    257c:	f9401e61 	ldr	x1, [x19,#56]
/home/asaf/devel/optee/optee_os/lib/libutee/tee_api_operations.c:912
    2580:	eb17035f 	cmp	x26, x23
/home/asaf/devel/optee/optee_os/lib/libutee/tee_api_operations.c:913
    2584:	f81f8c96 	str	x22, [x4,#-8]!
/home/asaf/devel/optee/optee_os/lib/libutee/tee_api_operations.c:912
    2588:	9a97935a 	csel	x26, x26, x23, ls
/home/asaf/devel/optee/optee_os/lib/libutee/tee_api_operations.c:914
    258c:	aa1a03e2 	mov	x2, x26
    2590:	d63f0300 	blr	x24
/home/asaf/devel/optee/optee_os/lib/libutee/tee_api_operations.c:915
    2594:	34000040 	cbz	w0, 259c <tee_buffer_update+0x138>
/home/asaf/devel/optee/optee_os/lib/libutee/tee_api_operations.c:916
    2598:	9400003a 	bl	2680 <TEE_Panic>
/home/asaf/devel/optee/optee_os/lib/libutee/tee_api_operations.c:920
    259c:	f9402a60 	ldr	x0, [x19,#80]
/home/asaf/devel/optee/optee_os/lib/libutee/tee_api_operations.c:917
    25a0:	f9403fb7 	ldr	x23, [x29,#120]
/home/asaf/devel/optee/optee_os/lib/libutee/tee_api_operations.c:920
    25a4:	cb1a0000 	sub	x0, x0, x26
    25a8:	f9002a60 	str	x0, [x19,#80]
/home/asaf/devel/optee/optee_os/lib/libutee/tee_api_operations.c:917
    25ac:	8b17037b 	add	x27, x27, x23
/home/asaf/devel/optee/optee_os/lib/libutee/tee_api_operations.c:918
    25b0:	cb1702d6 	sub	x22, x22, x23
/home/asaf/devel/optee/optee_os/lib/libutee/tee_api_operations.c:921
    25b4:	b40002a0 	cbz	x0, 2608 <tee_buffer_update+0x1a4>
/home/asaf/devel/optee/optee_os/lib/libutee/tee_api_operations.c:925
    25b8:	f9401e60 	ldr	x0, [x19,#56]
    25bc:	cb1a0282 	sub	x2, x20, x26
    25c0:	8b1a0001 	add	x1, x0, x26
    25c4:	94000df0 	bl	5d84 <memcpy>
/home/asaf/devel/optee/optee_os/lib/libutee/tee_api_operations.c:951
    25c8:	f9401e63 	ldr	x3, [x19,#56]
    25cc:	aa1903e2 	mov	x2, x25
    25d0:	f9402a60 	ldr	x0, [x19,#80]
    25d4:	aa1503e1 	mov	x1, x21
    25d8:	8b000060 	add	x0, x3, x0
    25dc:	94000dea 	bl	5d84 <memcpy>
/home/asaf/devel/optee/optee_os/lib/libutee/tee_api_operations.c:952
    25e0:	f9402a60 	ldr	x0, [x19,#80]
    25e4:	8b190019 	add	x25, x0, x25
    25e8:	f9002a79 	str	x25, [x19,#80]
    25ec:	17ffffac 	b	249c <tee_buffer_update+0x38>
/home/asaf/devel/optee/optee_os/lib/libutee/tee_api_operations.c:889
    25f0:	aa1a03f4 	mov	x20, x26
/home/asaf/devel/optee/optee_os/lib/libutee/tee_api_operations.c:890
    25f4:	d280001c 	mov	x28, #0x0                   	// #0
    25f8:	17ffffbe 	b	24f0 <tee_buffer_update+0x8c>
/home/asaf/devel/optee/optee_os/lib/libutee/tee_api_operations.c:898
    25fc:	cb00029a 	sub	x26, x20, x0
    2600:	17ffffc1 	b	2504 <tee_buffer_update+0xa0>
/home/asaf/devel/optee/optee_os/lib/libutee/tee_api_operations.c:873
    2604:	d2800017 	mov	x23, #0x0                   	// #0
/home/asaf/devel/optee/optee_os/lib/libutee/tee_api_operations.c:932
    2608:	eb1c033f 	cmp	x25, x28
    260c:	54fffde3 	b.cc	25c8 <tee_buffer_update+0x164>
/home/asaf/devel/optee/optee_os/lib/libutee/tee_api_operations.c:934
    2610:	52806200 	mov	w0, #0x310                 	// #784
    2614:	b9400261 	ldr	w1, [x19]
    2618:	72a20000 	movk	w0, #0x1000, lsl #16
    261c:	6b00003f 	cmp	w1, w0
    2620:	f9402660 	ldr	x0, [x19,#72]
    2624:	54000281 	b.ne	2674 <tee_buffer_update+0x210>
/home/asaf/devel/optee/optee_os/lib/libutee/tee_api_operations.c:935
    2628:	cb140334 	sub	x20, x25, x20
    262c:	d1000401 	sub	x1, x0, #0x1
    2630:	8b010294 	add	x20, x20, x1
/home/asaf/devel/optee/optee_os/lib/libutee/tee_api_operations.c:937
    2634:	cb0003e0 	neg	x0, x0
/home/asaf/devel/optee/optee_os/lib/libutee/tee_api_operations.c:939
    2638:	910203a4 	add	x4, x29, #0x80
/home/asaf/devel/optee/optee_os/lib/libutee/tee_api_operations.c:937
    263c:	8a000294 	and	x20, x20, x0
/home/asaf/devel/optee/optee_os/lib/libutee/tee_api_operations.c:940
    2640:	b9405a60 	ldr	w0, [x19,#88]
    2644:	aa1b03e3 	mov	x3, x27
    2648:	aa1403e2 	mov	x2, x20
/home/asaf/devel/optee/optee_os/lib/libutee/tee_api_operations.c:939
    264c:	f81f8c96 	str	x22, [x4,#-8]!
/home/asaf/devel/optee/optee_os/lib/libutee/tee_api_operations.c:940
    2650:	aa1503e1 	mov	x1, x21
    2654:	d63f0300 	blr	x24
/home/asaf/devel/optee/optee_os/lib/libutee/tee_api_operations.c:941
    2658:	34000040 	cbz	w0, 2660 <tee_buffer_update+0x1fc>
/home/asaf/devel/optee/optee_os/lib/libutee/tee_api_operations.c:942
    265c:	94000009 	bl	2680 <TEE_Panic>
/home/asaf/devel/optee/optee_os/lib/libutee/tee_api_operations.c:947
    2660:	f9403fa0 	ldr	x0, [x29,#120]
/home/asaf/devel/optee/optee_os/lib/libutee/tee_api_operations.c:943
    2664:	8b1402b5 	add	x21, x21, x20
/home/asaf/devel/optee/optee_os/lib/libutee/tee_api_operations.c:944
    2668:	cb140339 	sub	x25, x25, x20
/home/asaf/devel/optee/optee_os/lib/libutee/tee_api_operations.c:947
    266c:	8b0002f7 	add	x23, x23, x0
    2670:	17ffffd6 	b	25c8 <tee_buffer_update+0x164>
/home/asaf/devel/optee/optee_os/lib/libutee/tee_api_operations.c:937
    2674:	cb140014 	sub	x20, x0, x20
    2678:	8b190294 	add	x20, x20, x25
    267c:	17ffffee 	b	2634 <tee_buffer_update+0x1d0>

0000000000002680 <TEE_Panic>:
TEE_Panic():
/home/asaf/devel/optee/optee_os/lib/libutee/tee_api_panic.c:34
    2680:	2a0003e0 	mov	w0, w0
    2684:	140000b1 	b	2948 <utee_panic>

0000000000002688 <ta_header_get_session>:
ta_header_get_session():
/home/asaf/devel/optee/optee_os/lib/libutee/arch/arm/user_ta_entry.c:85
    2688:	2a0003e1 	mov	w1, w0
/home/asaf/devel/optee/optee_os/lib/libutee/arch/arm/user_ta_entry.c:88
    268c:	f0000040 	adrp	x0, d000 <ta_props>
    2690:	f9407000 	ldr	x0, [x0,#224]
/home/asaf/devel/optee/optee_os/lib/libutee/arch/arm/user_ta_entry.c:88 (discriminator 1)
    2694:	b5000040 	cbnz	x0, 269c <ta_header_get_session+0x14>
/home/asaf/devel/optee/optee_os/lib/libutee/arch/arm/user_ta_entry.c:93
    2698:	d65f03c0 	ret
/home/asaf/devel/optee/optee_os/lib/libutee/arch/arm/user_ta_entry.c:89
    269c:	b9400002 	ldr	w2, [x0]
    26a0:	6b01005f 	cmp	w2, w1
    26a4:	54ffffa0 	b.eq	2698 <ta_header_get_session+0x10>
/home/asaf/devel/optee/optee_os/lib/libutee/arch/arm/user_ta_entry.c:88 (discriminator 2)
    26a8:	f9400800 	ldr	x0, [x0,#16]
    26ac:	17fffffa 	b	2694 <ta_header_get_session+0xc>

00000000000026b0 <ta_header_remove_session>:
ta_header_remove_session():
/home/asaf/devel/optee/optee_os/lib/libutee/arch/arm/user_ta_entry.c:135
    26b0:	f0000041 	adrp	x1, d000 <ta_props>
/home/asaf/devel/optee/optee_os/lib/libutee/arch/arm/user_ta_entry.c:132
    26b4:	2a0003e3 	mov	w3, w0
/home/asaf/devel/optee/optee_os/lib/libutee/arch/arm/user_ta_entry.c:135
    26b8:	f9407020 	ldr	x0, [x1,#224]
/home/asaf/devel/optee/optee_os/lib/libutee/arch/arm/user_ta_entry.c:135 (discriminator 1)
    26bc:	b5000040 	cbnz	x0, 26c4 <ta_header_remove_session+0x14>
    26c0:	d65f03c0 	ret
/home/asaf/devel/optee/optee_os/lib/libutee/arch/arm/user_ta_entry.c:136
    26c4:	b9400002 	ldr	w2, [x0]
    26c8:	6b03005f 	cmp	w2, w3
    26cc:	f9400802 	ldr	x2, [x0,#16]
    26d0:	54000261 	b.ne	271c <ta_header_remove_session+0x6c>
/home/asaf/devel/optee/optee_os/lib/libutee/arch/arm/user_ta_entry.c:132
    26d4:	a9bf7bfd 	stp	x29, x30, [sp,#-16]!
    26d8:	910003fd 	mov	x29, sp
    26dc:	f9400c03 	ldr	x3, [x0,#24]
/home/asaf/devel/optee/optee_os/lib/libutee/arch/arm/user_ta_entry.c:137
    26e0:	b4000182 	cbz	x2, 2710 <ta_header_remove_session+0x60>
/home/asaf/devel/optee/optee_os/lib/libutee/arch/arm/user_ta_entry.c:137 (discriminator 1)
    26e4:	f9000c43 	str	x3, [x2,#24]
/home/asaf/devel/optee/optee_os/lib/libutee/arch/arm/user_ta_entry.c:137 (discriminator 4)
    26e8:	f9400c01 	ldr	x1, [x0,#24]
    26ec:	f9000022 	str	x2, [x1]
/home/asaf/devel/optee/optee_os/lib/libutee/arch/arm/user_ta_entry.c:138 (discriminator 4)
    26f0:	9400043b 	bl	37dc <TEE_Free>
/home/asaf/devel/optee/optee_os/lib/libutee/arch/arm/user_ta_entry.c:140 (discriminator 4)
    26f4:	b00000a1 	adrp	x1, 17000 <buf.3609+0x2c8>
    26f8:	b94d3c20 	ldr	w0, [x1,#3388]
    26fc:	51000400 	sub	w0, w0, #0x1
    2700:	b90d3c20 	str	w0, [x1,#3388]
/home/asaf/devel/optee/optee_os/lib/libutee/arch/arm/user_ta_entry.c:141 (discriminator 4)
    2704:	35000100 	cbnz	w0, 2724 <ta_header_remove_session+0x74>
/home/asaf/devel/optee/optee_os/lib/libutee/arch/arm/user_ta_entry.c:149
    2708:	a8c17bfd 	ldp	x29, x30, [sp],#16
/home/asaf/devel/optee/optee_os/lib/libutee/arch/arm/user_ta_entry.c:143
    270c:	17fff652 	b	54 <TA_DestroyEntryPoint>
/home/asaf/devel/optee/optee_os/lib/libutee/arch/arm/user_ta_entry.c:137 (discriminator 2)
    2710:	91038021 	add	x1, x1, #0xe0
    2714:	f9000423 	str	x3, [x1,#8]
    2718:	17fffff4 	b	26e8 <ta_header_remove_session+0x38>
/home/asaf/devel/optee/optee_os/lib/libutee/arch/arm/user_ta_entry.c:135 (discriminator 2)
    271c:	aa0203e0 	mov	x0, x2
    2720:	17ffffe7 	b	26bc <ta_header_remove_session+0xc>
/home/asaf/devel/optee/optee_os/lib/libutee/arch/arm/user_ta_entry.c:149
    2724:	a8c17bfd 	ldp	x29, x30, [sp],#16
    2728:	d65f03c0 	ret

000000000000272c <__utee_entry>:
__utee_entry():
/home/asaf/devel/optee/optee_os/lib/libutee/arch/arm/user_ta_entry.c:216
    272c:	a9b77bfd 	stp	x29, x30, [sp,#-144]!
/home/asaf/devel/optee/optee_os/lib/libutee/arch/arm/user_ta_entry.c:227
    2730:	f100041f 	cmp	x0, #0x1
/home/asaf/devel/optee/optee_os/lib/libutee/arch/arm/user_ta_entry.c:216
    2734:	910003fd 	mov	x29, sp
    2738:	a90153f3 	stp	x19, x20, [sp,#16]
    273c:	aa0103f4 	mov	x20, x1
    2740:	a9025bf5 	stp	x21, x22, [sp,#32]
    2744:	f9001bf7 	str	x23, [sp,#48]
/home/asaf/devel/optee/optee_os/lib/libutee/arch/arm/user_ta_entry.c:227
    2748:	54000b00 	b.eq	28a8 <__utee_entry+0x17c>
    274c:	aa0203f6 	mov	x22, x2
    2750:	b40000e0 	cbz	x0, 276c <__utee_entry+0x40>
    2754:	f100081f 	cmp	x0, #0x2
    2758:	54000bc0 	b.eq	28d0 <__utee_entry+0x1a4>
/home/asaf/devel/optee/optee_os/lib/libutee/arch/arm/user_ta_entry.c:239
    275c:	52800000 	mov	w0, #0x0                   	// #0
/home/asaf/devel/optee/optee_os/lib/libutee/arch/arm/user_ta_entry.c:238
    2760:	12800013 	mov	w19, #0xffffffff            	// #-1
/home/asaf/devel/optee/optee_os/lib/libutee/arch/arm/user_ta_entry.c:239
    2764:	97ffffc7 	bl	2680 <TEE_Panic>
/home/asaf/devel/optee/optee_os/lib/libutee/arch/arm/user_ta_entry.c:240
    2768:	14000010 	b	27a8 <__utee_entry+0x7c>
ta_header_add_session():
/home/asaf/devel/optee/optee_os/lib/libutee/arch/arm/user_ta_entry.c:97
    276c:	2a0103e0 	mov	w0, w1
    2770:	97ffffc6 	bl	2688 <ta_header_get_session>
/home/asaf/devel/optee/optee_os/lib/libutee/arch/arm/user_ta_entry.c:99
    2774:	b50005c0 	cbnz	x0, 282c <__utee_entry+0x100>
/home/asaf/devel/optee/optee_os/lib/libutee/arch/arm/user_ta_entry.c:102
    2778:	b00000a0 	adrp	x0, 17000 <buf.3609+0x2c8>
    277c:	9134f015 	add	x21, x0, #0xd3c
    2780:	b94d3c13 	ldr	w19, [x0,#3388]
    2784:	11000673 	add	w19, w19, #0x1
    2788:	b90d3c13 	str	w19, [x0,#3388]
/home/asaf/devel/optee/optee_os/lib/libutee/arch/arm/user_ta_entry.c:104
    278c:	7100067f 	cmp	w19, #0x1
    2790:	540001e0 	b.eq	27cc <__utee_entry+0xa0>
/home/asaf/devel/optee/optee_os/lib/libutee/arch/arm/user_ta_entry.c:120
    2794:	52b00001 	mov	w1, #0x80000000            	// #-2147483648
    2798:	52800400 	mov	w0, #0x20                  	// #32
/home/asaf/devel/optee/optee_os/lib/libutee/arch/arm/user_ta_entry.c:123
    279c:	129ffe73 	mov	w19, #0xffff000c            	// #-65524
/home/asaf/devel/optee/optee_os/lib/libutee/arch/arm/user_ta_entry.c:120
    27a0:	9400040b 	bl	37cc <TEE_Malloc>
/home/asaf/devel/optee/optee_os/lib/libutee/arch/arm/user_ta_entry.c:122
    27a4:	b5000320 	cbnz	x0, 2808 <__utee_entry+0xdc>
ta_header_save_params():
/home/asaf/devel/optee/optee_os/lib/libutee/arch/arm/user_ta_entry.c:76
    27a8:	d0000040 	adrp	x0, c000 <__func__.3637+0x608>
/home/asaf/devel/optee/optee_os/lib/libutee/arch/arm/user_ta_entry.c:81
    27ac:	d2800802 	mov	x2, #0x40                  	// #64
/home/asaf/devel/optee/optee_os/lib/libutee/arch/arm/user_ta_entry.c:76
    27b0:	f941e801 	ldr	x1, [x0,#976]
/home/asaf/devel/optee/optee_os/lib/libutee/arch/arm/user_ta_entry.c:81
    27b4:	f941f400 	ldr	x0, [x0,#1000]
/home/asaf/devel/optee/optee_os/lib/libutee/arch/arm/user_ta_entry.c:76
    27b8:	b900003f 	str	wzr, [x1]
/home/asaf/devel/optee/optee_os/lib/libutee/arch/arm/user_ta_entry.c:81
    27bc:	52800001 	mov	w1, #0x0                   	// #0
    27c0:	94000d8c 	bl	5df0 <memset>
__utee_entry():
/home/asaf/devel/optee/optee_os/lib/libutee/arch/arm/user_ta_entry.c:243
    27c4:	2a1303e0 	mov	w0, w19
    27c8:	94000063 	bl	2954 <utee_return>
ta_header_add_session():
/home/asaf/devel/optee/optee_os/lib/libutee/arch/arm/user_ta_entry.c:107
    27cc:	394012a0 	ldrb	w0, [x21,#4]
    27d0:	35000140 	cbnz	w0, 27f8 <__utee_entry+0xcc>
/home/asaf/devel/optee/optee_os/lib/libutee/arch/arm/user_ta_entry.c:108
    27d4:	97fff6a6 	bl	26c <tahead_get_trace_level>
    27d8:	940010c0 	bl	6ad8 <trace_set_level>
/home/asaf/devel/optee/optee_os/lib/libutee/arch/arm/user_ta_entry.c:110
    27dc:	d0000040 	adrp	x0, c000 <__func__.3637+0x608>
    27e0:	f941cc01 	ldr	x1, [x0,#920]
    27e4:	f941e400 	ldr	x0, [x0,#968]
    27e8:	f9400021 	ldr	x1, [x1]
    27ec:	94000c6d 	bl	59a0 <malloc_add_pool>
/home/asaf/devel/optee/optee_os/lib/libutee/arch/arm/user_ta_entry.c:111
    27f0:	9400012f 	bl	2cac <_TEE_MathAPI_Init>
/home/asaf/devel/optee/optee_os/lib/libutee/arch/arm/user_ta_entry.c:112
    27f4:	390012b3 	strb	w19, [x21,#4]
/home/asaf/devel/optee/optee_os/lib/libutee/arch/arm/user_ta_entry.c:115
    27f8:	97fff60a 	bl	20 <TA_CreateEntryPoint>
    27fc:	2a0003f3 	mov	w19, w0
/home/asaf/devel/optee/optee_os/lib/libutee/arch/arm/user_ta_entry.c:116
    2800:	34fffca0 	cbz	w0, 2794 <__utee_entry+0x68>
    2804:	17ffffe9 	b	27a8 <__utee_entry+0x7c>
/home/asaf/devel/optee/optee_os/lib/libutee/arch/arm/user_ta_entry.c:126
    2808:	f0000041 	adrp	x1, d000 <ta_props>
    280c:	91038021 	add	x1, x1, #0xe0
    2810:	f9400422 	ldr	x2, [x1,#8]
    2814:	f9000c02 	str	x2, [x0,#24]
/home/asaf/devel/optee/optee_os/lib/libutee/arch/arm/user_ta_entry.c:124
    2818:	b9000014 	str	w20, [x0]
/home/asaf/devel/optee/optee_os/lib/libutee/arch/arm/user_ta_entry.c:126
    281c:	a900fc1f 	stp	xzr, xzr, [x0,#8]
    2820:	f9000040 	str	x0, [x2]
    2824:	91004000 	add	x0, x0, #0x10
    2828:	f9000420 	str	x0, [x1,#8]
entry_open_session():
/home/asaf/devel/optee/optee_os/lib/libutee/arch/arm/user_ta_entry.c:163
    282c:	2a1403e0 	mov	w0, w20
/home/asaf/devel/optee/optee_os/lib/libutee/arch/arm/user_ta_entry.c:165
    2830:	129fff13 	mov	w19, #0xffff0007            	// #-65529
/home/asaf/devel/optee/optee_os/lib/libutee/arch/arm/user_ta_entry.c:163
    2834:	97ffff95 	bl	2688 <ta_header_get_session>
    2838:	aa0003f7 	mov	x23, x0
/home/asaf/devel/optee/optee_os/lib/libutee/arch/arm/user_ta_entry.c:164
    283c:	b4fffb60 	cbz	x0, 27a8 <__utee_entry+0x7c>
/home/asaf/devel/optee/optee_os/lib/libutee/arch/arm/user_ta_entry.c:167
    2840:	910143b5 	add	x21, x29, #0x50
    2844:	aa1603e2 	mov	x2, x22
    2848:	910133a1 	add	x1, x29, #0x4c
    284c:	aa1503e0 	mov	x0, x21
    2850:	940002e4 	bl	33e0 <__utee_to_param>
/home/asaf/devel/optee/optee_os/lib/libutee/arch/arm/user_ta_entry.c:168
    2854:	b9404fb3 	ldr	w19, [x29,#76]
ta_header_save_params():
/home/asaf/devel/optee/optee_os/lib/libutee/arch/arm/user_ta_entry.c:76
    2858:	d0000040 	adrp	x0, c000 <__func__.3637+0x608>
/home/asaf/devel/optee/optee_os/lib/libutee/arch/arm/user_ta_entry.c:79
    285c:	d2800802 	mov	x2, #0x40                  	// #64
/home/asaf/devel/optee/optee_os/lib/libutee/arch/arm/user_ta_entry.c:76
    2860:	f941e801 	ldr	x1, [x0,#976]
/home/asaf/devel/optee/optee_os/lib/libutee/arch/arm/user_ta_entry.c:79
    2864:	f941f400 	ldr	x0, [x0,#1000]
/home/asaf/devel/optee/optee_os/lib/libutee/arch/arm/user_ta_entry.c:76
    2868:	b9000033 	str	w19, [x1]
/home/asaf/devel/optee/optee_os/lib/libutee/arch/arm/user_ta_entry.c:79
    286c:	aa1503e1 	mov	x1, x21
    2870:	94000d45 	bl	5d84 <memcpy>
entry_open_session():
/home/asaf/devel/optee/optee_os/lib/libutee/arch/arm/user_ta_entry.c:170
    2874:	910022e2 	add	x2, x23, #0x8
    2878:	aa1503e1 	mov	x1, x21
    287c:	2a1303e0 	mov	w0, w19
    2880:	97fff5fe 	bl	78 <TA_OpenSessionEntryPoint>
/home/asaf/devel/optee/optee_os/lib/libutee/arch/arm/user_ta_entry.c:173
    2884:	b9404fa1 	ldr	w1, [x29,#76]
/home/asaf/devel/optee/optee_os/lib/libutee/arch/arm/user_ta_entry.c:170
    2888:	2a0003f3 	mov	w19, w0
/home/asaf/devel/optee/optee_os/lib/libutee/arch/arm/user_ta_entry.c:173
    288c:	aa1503e2 	mov	x2, x21
    2890:	aa1603e0 	mov	x0, x22
    2894:	940002b5 	bl	3368 <__utee_from_param>
/home/asaf/devel/optee/optee_os/lib/libutee/arch/arm/user_ta_entry.c:175
    2898:	34fff893 	cbz	w19, 27a8 <__utee_entry+0x7c>
/home/asaf/devel/optee/optee_os/lib/libutee/arch/arm/user_ta_entry.c:176
    289c:	2a1403e0 	mov	w0, w20
    28a0:	97ffff84 	bl	26b0 <ta_header_remove_session>
    28a4:	17ffffc1 	b	27a8 <__utee_entry+0x7c>
entry_close_session():
/home/asaf/devel/optee/optee_os/lib/libutee/arch/arm/user_ta_entry.c:182
    28a8:	2a0103e0 	mov	w0, w1
/home/asaf/devel/optee/optee_os/lib/libutee/arch/arm/user_ta_entry.c:185
    28ac:	129fff13 	mov	w19, #0xffff0007            	// #-65529
/home/asaf/devel/optee/optee_os/lib/libutee/arch/arm/user_ta_entry.c:182
    28b0:	97ffff76 	bl	2688 <ta_header_get_session>
/home/asaf/devel/optee/optee_os/lib/libutee/arch/arm/user_ta_entry.c:184
    28b4:	b4fff7a0 	cbz	x0, 27a8 <__utee_entry+0x7c>
/home/asaf/devel/optee/optee_os/lib/libutee/arch/arm/user_ta_entry.c:187
    28b8:	f9400400 	ldr	x0, [x0,#8]
/home/asaf/devel/optee/optee_os/lib/libutee/arch/arm/user_ta_entry.c:190
    28bc:	52800013 	mov	w19, #0x0                   	// #0
/home/asaf/devel/optee/optee_os/lib/libutee/arch/arm/user_ta_entry.c:187
    28c0:	97fff609 	bl	e4 <TA_CloseSessionEntryPoint>
/home/asaf/devel/optee/optee_os/lib/libutee/arch/arm/user_ta_entry.c:189
    28c4:	2a1403e0 	mov	w0, w20
    28c8:	97ffff7a 	bl	26b0 <ta_header_remove_session>
    28cc:	17ffffb7 	b	27a8 <__utee_entry+0x7c>
entry_invoke_command():
/home/asaf/devel/optee/optee_os/lib/libutee/arch/arm/user_ta_entry.c:199
    28d0:	2a0103e0 	mov	w0, w1
/home/asaf/devel/optee/optee_os/lib/libutee/arch/arm/user_ta_entry.c:202
    28d4:	129fff13 	mov	w19, #0xffff0007            	// #-65529
/home/asaf/devel/optee/optee_os/lib/libutee/arch/arm/user_ta_entry.c:199
    28d8:	97ffff6c 	bl	2688 <ta_header_get_session>
    28dc:	aa0003f5 	mov	x21, x0
/home/asaf/devel/optee/optee_os/lib/libutee/arch/arm/user_ta_entry.c:201
    28e0:	b4fff640 	cbz	x0, 27a8 <__utee_entry+0x7c>
/home/asaf/devel/optee/optee_os/lib/libutee/arch/arm/user_ta_entry.c:204
    28e4:	910143b4 	add	x20, x29, #0x50
    28e8:	aa0303f7 	mov	x23, x3
    28ec:	aa1603e2 	mov	x2, x22
    28f0:	910133a1 	add	x1, x29, #0x4c
    28f4:	aa1403e0 	mov	x0, x20
    28f8:	940002ba 	bl	33e0 <__utee_to_param>
ta_header_save_params():
/home/asaf/devel/optee/optee_os/lib/libutee/arch/arm/user_ta_entry.c:76
    28fc:	d0000040 	adrp	x0, c000 <__func__.3637+0x608>
entry_invoke_command():
/home/asaf/devel/optee/optee_os/lib/libutee/arch/arm/user_ta_entry.c:205
    2900:	b9404fb3 	ldr	w19, [x29,#76]
ta_header_save_params():
/home/asaf/devel/optee/optee_os/lib/libutee/arch/arm/user_ta_entry.c:79
    2904:	d2800802 	mov	x2, #0x40                  	// #64
/home/asaf/devel/optee/optee_os/lib/libutee/arch/arm/user_ta_entry.c:76
    2908:	f941e801 	ldr	x1, [x0,#976]
/home/asaf/devel/optee/optee_os/lib/libutee/arch/arm/user_ta_entry.c:79
    290c:	f941f400 	ldr	x0, [x0,#1000]
/home/asaf/devel/optee/optee_os/lib/libutee/arch/arm/user_ta_entry.c:76
    2910:	b9000033 	str	w19, [x1]
/home/asaf/devel/optee/optee_os/lib/libutee/arch/arm/user_ta_entry.c:79
    2914:	aa1403e1 	mov	x1, x20
    2918:	94000d1b 	bl	5d84 <memcpy>
entry_invoke_command():
/home/asaf/devel/optee/optee_os/lib/libutee/arch/arm/user_ta_entry.c:207
    291c:	f94006a0 	ldr	x0, [x21,#8]
    2920:	2a1303e2 	mov	w2, w19
    2924:	2a1703e1 	mov	w1, w23
    2928:	aa1403e3 	mov	x3, x20
    292c:	97fff5f7 	bl	108 <TA_InvokeCommandEntryPoint>
    2930:	2a0003f3 	mov	w19, w0
/home/asaf/devel/optee/optee_os/lib/libutee/arch/arm/user_ta_entry.c:210
    2934:	b9404fa1 	ldr	w1, [x29,#76]
    2938:	aa1403e2 	mov	x2, x20
    293c:	aa1603e0 	mov	x0, x22
    2940:	9400028a 	bl	3368 <__utee_from_param>
    2944:	17ffff99 	b	27a8 <__utee_entry+0x7c>

0000000000002948 <utee_panic>:
utee_panic():
/home/asaf/devel/optee/optee_os/lib/libutee/arch/arm/utee_syscalls_a64.S:46
    2948:	a9bf7bfd 	stp	x29, x30, [sp,#-16]!
/home/asaf/devel/optee/optee_os/lib/libutee/arch/arm/utee_syscalls_a64.S:47
    294c:	910003e1 	mov	x1, sp
/home/asaf/devel/optee/optee_os/lib/libutee/arch/arm/utee_syscalls_a64.S:48
    2950:	94000007 	bl	296c <__utee_panic>

0000000000002954 <utee_return>:
utee_return():
/home/asaf/devel/optee/optee_os/lib/libutee/arch/arm/utee_syscalls_asm.S:30
    2954:	d2800008 	mov	x8, #0x0                   	// #0
    2958:	d4000001 	svc	#0x0
    295c:	d65f03c0 	ret

0000000000002960 <utee_log>:
utee_log():
/home/asaf/devel/optee/optee_os/lib/libutee/arch/arm/utee_syscalls_asm.S:32
    2960:	d2800028 	mov	x8, #0x1                   	// #1
    2964:	d4000001 	svc	#0x0
    2968:	d65f03c0 	ret

000000000000296c <__utee_panic>:
__utee_panic():
/home/asaf/devel/optee/optee_os/lib/libutee/arch/arm/utee_syscalls_asm.S:34
    296c:	d2800048 	mov	x8, #0x2                   	// #2
    2970:	d4000001 	svc	#0x0
    2974:	d65f03c0 	ret

0000000000002978 <utee_get_property>:
utee_get_property():
/home/asaf/devel/optee/optee_os/lib/libutee/arch/arm/utee_syscalls_asm.S:36
    2978:	d2800068 	mov	x8, #0x3                   	// #3
    297c:	d4000001 	svc	#0x0
    2980:	d65f03c0 	ret

0000000000002984 <utee_get_property_name_to_index>:
utee_get_property_name_to_index():
/home/asaf/devel/optee/optee_os/lib/libutee/arch/arm/utee_syscalls_asm.S:38
    2984:	d2800088 	mov	x8, #0x4                   	// #4
    2988:	d4000001 	svc	#0x0
    298c:	d65f03c0 	ret

0000000000002990 <utee_open_ta_session>:
utee_open_ta_session():
/home/asaf/devel/optee/optee_os/lib/libutee/arch/arm/utee_syscalls_asm.S:41
    2990:	d28000a8 	mov	x8, #0x5                   	// #5
    2994:	d4000001 	svc	#0x0
    2998:	d65f03c0 	ret

000000000000299c <utee_close_ta_session>:
utee_close_ta_session():
/home/asaf/devel/optee/optee_os/lib/libutee/arch/arm/utee_syscalls_asm.S:43
    299c:	d28000c8 	mov	x8, #0x6                   	// #6
    29a0:	d4000001 	svc	#0x0
    29a4:	d65f03c0 	ret

00000000000029a8 <utee_invoke_ta_command>:
utee_invoke_ta_command():
/home/asaf/devel/optee/optee_os/lib/libutee/arch/arm/utee_syscalls_asm.S:45
    29a8:	d28000e8 	mov	x8, #0x7                   	// #7
    29ac:	d4000001 	svc	#0x0
    29b0:	d65f03c0 	ret

00000000000029b4 <utee_get_cancellation_flag>:
utee_get_cancellation_flag():
/home/asaf/devel/optee/optee_os/lib/libutee/arch/arm/utee_syscalls_asm.S:47
    29b4:	d2800128 	mov	x8, #0x9                   	// #9
    29b8:	d4000001 	svc	#0x0
    29bc:	d65f03c0 	ret

00000000000029c0 <utee_check_access_rights>:
utee_check_access_rights():
/home/asaf/devel/optee/optee_os/lib/libutee/arch/arm/utee_syscalls_asm.S:50
    29c0:	d2800108 	mov	x8, #0x8                   	// #8
    29c4:	d4000001 	svc	#0x0
    29c8:	d65f03c0 	ret

00000000000029cc <utee_unmask_cancellation>:
utee_unmask_cancellation():
/home/asaf/devel/optee/optee_os/lib/libutee/arch/arm/utee_syscalls_asm.S:52
    29cc:	d2800148 	mov	x8, #0xa                   	// #10
    29d0:	d4000001 	svc	#0x0
    29d4:	d65f03c0 	ret

00000000000029d8 <utee_mask_cancellation>:
utee_mask_cancellation():
/home/asaf/devel/optee/optee_os/lib/libutee/arch/arm/utee_syscalls_asm.S:54
    29d8:	d2800168 	mov	x8, #0xb                   	// #11
    29dc:	d4000001 	svc	#0x0
    29e0:	d65f03c0 	ret

00000000000029e4 <utee_wait>:
utee_wait():
/home/asaf/devel/optee/optee_os/lib/libutee/arch/arm/utee_syscalls_asm.S:56
    29e4:	d2800188 	mov	x8, #0xc                   	// #12
    29e8:	d4000001 	svc	#0x0
    29ec:	d65f03c0 	ret

00000000000029f0 <utee_get_time>:
utee_get_time():
/home/asaf/devel/optee/optee_os/lib/libutee/arch/arm/utee_syscalls_asm.S:58
    29f0:	d28001a8 	mov	x8, #0xd                   	// #13
    29f4:	d4000001 	svc	#0x0
    29f8:	d65f03c0 	ret

00000000000029fc <utee_set_ta_time>:
utee_set_ta_time():
/home/asaf/devel/optee/optee_os/lib/libutee/arch/arm/utee_syscalls_asm.S:60
    29fc:	d28001c8 	mov	x8, #0xe                   	// #14
    2a00:	d4000001 	svc	#0x0
    2a04:	d65f03c0 	ret

0000000000002a08 <utee_cryp_state_alloc>:
utee_cryp_state_alloc():
/home/asaf/devel/optee/optee_os/lib/libutee/arch/arm/utee_syscalls_asm.S:62
    2a08:	d28001e8 	mov	x8, #0xf                   	// #15
    2a0c:	d4000001 	svc	#0x0
    2a10:	d65f03c0 	ret

0000000000002a14 <utee_cryp_state_copy>:
utee_cryp_state_copy():
/home/asaf/devel/optee/optee_os/lib/libutee/arch/arm/utee_syscalls_asm.S:64
    2a14:	d2800208 	mov	x8, #0x10                  	// #16
    2a18:	d4000001 	svc	#0x0
    2a1c:	d65f03c0 	ret

0000000000002a20 <utee_cryp_state_free>:
utee_cryp_state_free():
/home/asaf/devel/optee/optee_os/lib/libutee/arch/arm/utee_syscalls_asm.S:66
    2a20:	d2800228 	mov	x8, #0x11                  	// #17
    2a24:	d4000001 	svc	#0x0
    2a28:	d65f03c0 	ret

0000000000002a2c <utee_hash_init>:
utee_hash_init():
/home/asaf/devel/optee/optee_os/lib/libutee/arch/arm/utee_syscalls_asm.S:68
    2a2c:	d2800248 	mov	x8, #0x12                  	// #18
    2a30:	d4000001 	svc	#0x0
    2a34:	d65f03c0 	ret

0000000000002a38 <utee_hash_update>:
utee_hash_update():
/home/asaf/devel/optee/optee_os/lib/libutee/arch/arm/utee_syscalls_asm.S:70
    2a38:	d2800268 	mov	x8, #0x13                  	// #19
    2a3c:	d4000001 	svc	#0x0
    2a40:	d65f03c0 	ret

0000000000002a44 <utee_hash_final>:
utee_hash_final():
/home/asaf/devel/optee/optee_os/lib/libutee/arch/arm/utee_syscalls_asm.S:72
    2a44:	d2800288 	mov	x8, #0x14                  	// #20
    2a48:	d4000001 	svc	#0x0
    2a4c:	d65f03c0 	ret

0000000000002a50 <utee_cipher_init>:
utee_cipher_init():
/home/asaf/devel/optee/optee_os/lib/libutee/arch/arm/utee_syscalls_asm.S:74
    2a50:	d28002a8 	mov	x8, #0x15                  	// #21
    2a54:	d4000001 	svc	#0x0
    2a58:	d65f03c0 	ret

0000000000002a5c <utee_cipher_update>:
utee_cipher_update():
/home/asaf/devel/optee/optee_os/lib/libutee/arch/arm/utee_syscalls_asm.S:76
    2a5c:	d28002c8 	mov	x8, #0x16                  	// #22
    2a60:	d4000001 	svc	#0x0
    2a64:	d65f03c0 	ret

0000000000002a68 <utee_cipher_final>:
utee_cipher_final():
/home/asaf/devel/optee/optee_os/lib/libutee/arch/arm/utee_syscalls_asm.S:78
    2a68:	d28002e8 	mov	x8, #0x17                  	// #23
    2a6c:	d4000001 	svc	#0x0
    2a70:	d65f03c0 	ret

0000000000002a74 <utee_cryp_obj_get_info>:
utee_cryp_obj_get_info():
/home/asaf/devel/optee/optee_os/lib/libutee/arch/arm/utee_syscalls_asm.S:80
    2a74:	d2800308 	mov	x8, #0x18                  	// #24
    2a78:	d4000001 	svc	#0x0
    2a7c:	d65f03c0 	ret

0000000000002a80 <utee_cryp_obj_restrict_usage>:
utee_cryp_obj_restrict_usage():
/home/asaf/devel/optee/optee_os/lib/libutee/arch/arm/utee_syscalls_asm.S:82
    2a80:	d2800328 	mov	x8, #0x19                  	// #25
    2a84:	d4000001 	svc	#0x0
    2a88:	d65f03c0 	ret

0000000000002a8c <utee_cryp_obj_get_attr>:
utee_cryp_obj_get_attr():
/home/asaf/devel/optee/optee_os/lib/libutee/arch/arm/utee_syscalls_asm.S:85
    2a8c:	d2800348 	mov	x8, #0x1a                  	// #26
    2a90:	d4000001 	svc	#0x0
    2a94:	d65f03c0 	ret

0000000000002a98 <utee_cryp_obj_alloc>:
utee_cryp_obj_alloc():
/home/asaf/devel/optee/optee_os/lib/libutee/arch/arm/utee_syscalls_asm.S:87
    2a98:	d2800368 	mov	x8, #0x1b                  	// #27
    2a9c:	d4000001 	svc	#0x0
    2aa0:	d65f03c0 	ret

0000000000002aa4 <utee_cryp_obj_close>:
utee_cryp_obj_close():
/home/asaf/devel/optee/optee_os/lib/libutee/arch/arm/utee_syscalls_asm.S:89
    2aa4:	d2800388 	mov	x8, #0x1c                  	// #28
    2aa8:	d4000001 	svc	#0x0
    2aac:	d65f03c0 	ret

0000000000002ab0 <utee_cryp_obj_reset>:
utee_cryp_obj_reset():
/home/asaf/devel/optee/optee_os/lib/libutee/arch/arm/utee_syscalls_asm.S:91
    2ab0:	d28003a8 	mov	x8, #0x1d                  	// #29
    2ab4:	d4000001 	svc	#0x0
    2ab8:	d65f03c0 	ret

0000000000002abc <utee_cryp_obj_populate>:
utee_cryp_obj_populate():
/home/asaf/devel/optee/optee_os/lib/libutee/arch/arm/utee_syscalls_asm.S:93
    2abc:	d28003c8 	mov	x8, #0x1e                  	// #30
    2ac0:	d4000001 	svc	#0x0
    2ac4:	d65f03c0 	ret

0000000000002ac8 <utee_cryp_obj_copy>:
utee_cryp_obj_copy():
/home/asaf/devel/optee/optee_os/lib/libutee/arch/arm/utee_syscalls_asm.S:95
    2ac8:	d28003e8 	mov	x8, #0x1f                  	// #31
    2acc:	d4000001 	svc	#0x0
    2ad0:	d65f03c0 	ret

0000000000002ad4 <utee_cryp_derive_key>:
utee_cryp_derive_key():
/home/asaf/devel/optee/optee_os/lib/libutee/arch/arm/utee_syscalls_asm.S:97
    2ad4:	d2800408 	mov	x8, #0x20                  	// #32
    2ad8:	d4000001 	svc	#0x0
    2adc:	d65f03c0 	ret

0000000000002ae0 <utee_cryp_random_number_generate>:
utee_cryp_random_number_generate():
/home/asaf/devel/optee/optee_os/lib/libutee/arch/arm/utee_syscalls_asm.S:99
    2ae0:	d2800428 	mov	x8, #0x21                  	// #33
    2ae4:	d4000001 	svc	#0x0
    2ae8:	d65f03c0 	ret

0000000000002aec <utee_authenc_init>:
utee_authenc_init():
/home/asaf/devel/optee/optee_os/lib/libutee/arch/arm/utee_syscalls_asm.S:102
    2aec:	d2800448 	mov	x8, #0x22                  	// #34
    2af0:	d4000001 	svc	#0x0
    2af4:	d65f03c0 	ret

0000000000002af8 <utee_authenc_update_aad>:
utee_authenc_update_aad():
/home/asaf/devel/optee/optee_os/lib/libutee/arch/arm/utee_syscalls_asm.S:104
    2af8:	d2800468 	mov	x8, #0x23                  	// #35
    2afc:	d4000001 	svc	#0x0
    2b00:	d65f03c0 	ret

0000000000002b04 <utee_authenc_update_payload>:
utee_authenc_update_payload():
/home/asaf/devel/optee/optee_os/lib/libutee/arch/arm/utee_syscalls_asm.S:106
    2b04:	d2800488 	mov	x8, #0x24                  	// #36
    2b08:	d4000001 	svc	#0x0
    2b0c:	d65f03c0 	ret

0000000000002b10 <utee_authenc_enc_final>:
utee_authenc_enc_final():
/home/asaf/devel/optee/optee_os/lib/libutee/arch/arm/utee_syscalls_asm.S:109
    2b10:	d28004a8 	mov	x8, #0x25                  	// #37
    2b14:	d4000001 	svc	#0x0
    2b18:	d65f03c0 	ret

0000000000002b1c <utee_authenc_dec_final>:
utee_authenc_dec_final():
/home/asaf/devel/optee/optee_os/lib/libutee/arch/arm/utee_syscalls_asm.S:111
    2b1c:	d28004c8 	mov	x8, #0x26                  	// #38
    2b20:	d4000001 	svc	#0x0
    2b24:	d65f03c0 	ret

0000000000002b28 <utee_asymm_operate>:
utee_asymm_operate():
/home/asaf/devel/optee/optee_os/lib/libutee/arch/arm/utee_syscalls_asm.S:113
    2b28:	d28004e8 	mov	x8, #0x27                  	// #39
    2b2c:	d4000001 	svc	#0x0
    2b30:	d65f03c0 	ret

0000000000002b34 <utee_asymm_verify>:
utee_asymm_verify():
/home/asaf/devel/optee/optee_os/lib/libutee/arch/arm/utee_syscalls_asm.S:115
    2b34:	d2800508 	mov	x8, #0x28                  	// #40
    2b38:	d4000001 	svc	#0x0
    2b3c:	d65f03c0 	ret

0000000000002b40 <utee_storage_obj_open>:
utee_storage_obj_open():
/home/asaf/devel/optee/optee_os/lib/libutee/arch/arm/utee_syscalls_asm.S:117
    2b40:	d2800528 	mov	x8, #0x29                  	// #41
    2b44:	d4000001 	svc	#0x0
    2b48:	d65f03c0 	ret

0000000000002b4c <utee_storage_obj_create>:
utee_storage_obj_create():
/home/asaf/devel/optee/optee_os/lib/libutee/arch/arm/utee_syscalls_asm.S:119
    2b4c:	d2800548 	mov	x8, #0x2a                  	// #42
    2b50:	d4000001 	svc	#0x0
    2b54:	d65f03c0 	ret

0000000000002b58 <utee_storage_obj_del>:
utee_storage_obj_del():
/home/asaf/devel/optee/optee_os/lib/libutee/arch/arm/utee_syscalls_asm.S:121
    2b58:	d2800568 	mov	x8, #0x2b                  	// #43
    2b5c:	d4000001 	svc	#0x0
    2b60:	d65f03c0 	ret

0000000000002b64 <utee_storage_obj_rename>:
utee_storage_obj_rename():
/home/asaf/devel/optee/optee_os/lib/libutee/arch/arm/utee_syscalls_asm.S:123
    2b64:	d2800588 	mov	x8, #0x2c                  	// #44
    2b68:	d4000001 	svc	#0x0
    2b6c:	d65f03c0 	ret

0000000000002b70 <utee_storage_alloc_enum>:
utee_storage_alloc_enum():
/home/asaf/devel/optee/optee_os/lib/libutee/arch/arm/utee_syscalls_asm.S:125
    2b70:	d28005a8 	mov	x8, #0x2d                  	// #45
    2b74:	d4000001 	svc	#0x0
    2b78:	d65f03c0 	ret

0000000000002b7c <utee_storage_free_enum>:
utee_storage_free_enum():
/home/asaf/devel/optee/optee_os/lib/libutee/arch/arm/utee_syscalls_asm.S:127
    2b7c:	d28005c8 	mov	x8, #0x2e                  	// #46
    2b80:	d4000001 	svc	#0x0
    2b84:	d65f03c0 	ret

0000000000002b88 <utee_storage_reset_enum>:
utee_storage_reset_enum():
/home/asaf/devel/optee/optee_os/lib/libutee/arch/arm/utee_syscalls_asm.S:129
    2b88:	d28005e8 	mov	x8, #0x2f                  	// #47
    2b8c:	d4000001 	svc	#0x0
    2b90:	d65f03c0 	ret

0000000000002b94 <utee_storage_start_enum>:
utee_storage_start_enum():
/home/asaf/devel/optee/optee_os/lib/libutee/arch/arm/utee_syscalls_asm.S:131
    2b94:	d2800608 	mov	x8, #0x30                  	// #48
    2b98:	d4000001 	svc	#0x0
    2b9c:	d65f03c0 	ret

0000000000002ba0 <utee_storage_next_enum>:
utee_storage_next_enum():
/home/asaf/devel/optee/optee_os/lib/libutee/arch/arm/utee_syscalls_asm.S:133
    2ba0:	d2800628 	mov	x8, #0x31                  	// #49
    2ba4:	d4000001 	svc	#0x0
    2ba8:	d65f03c0 	ret

0000000000002bac <utee_storage_obj_read>:
utee_storage_obj_read():
/home/asaf/devel/optee/optee_os/lib/libutee/arch/arm/utee_syscalls_asm.S:135
    2bac:	d2800648 	mov	x8, #0x32                  	// #50
    2bb0:	d4000001 	svc	#0x0
    2bb4:	d65f03c0 	ret

0000000000002bb8 <utee_storage_obj_write>:
utee_storage_obj_write():
/home/asaf/devel/optee/optee_os/lib/libutee/arch/arm/utee_syscalls_asm.S:137
    2bb8:	d2800668 	mov	x8, #0x33                  	// #51
    2bbc:	d4000001 	svc	#0x0
    2bc0:	d65f03c0 	ret

0000000000002bc4 <utee_storage_obj_trunc>:
utee_storage_obj_trunc():
/home/asaf/devel/optee/optee_os/lib/libutee/arch/arm/utee_syscalls_asm.S:139
    2bc4:	d2800688 	mov	x8, #0x34                  	// #52
    2bc8:	d4000001 	svc	#0x0
    2bcc:	d65f03c0 	ret

0000000000002bd0 <utee_storage_obj_seek>:
utee_storage_obj_seek():
/home/asaf/devel/optee/optee_os/lib/libutee/arch/arm/utee_syscalls_asm.S:141
    2bd0:	d28006a8 	mov	x8, #0x35                  	// #53
    2bd4:	d4000001 	svc	#0x0
    2bd8:	d65f03c0 	ret

0000000000002bdc <utee_cryp_obj_generate_key>:
utee_cryp_obj_generate_key():
/home/asaf/devel/optee/optee_os/lib/libutee/arch/arm/utee_syscalls_asm.S:143
    2bdc:	d28006c8 	mov	x8, #0x36                  	// #54
    2be0:	d4000001 	svc	#0x0
    2be4:	d65f03c0 	ret

0000000000002be8 <utee_se_service_open>:
utee_se_service_open():
/home/asaf/devel/optee/optee_os/lib/libutee/arch/arm/utee_syscalls_asm.S:146
    2be8:	d28006e8 	mov	x8, #0x37                  	// #55
    2bec:	d4000001 	svc	#0x0
    2bf0:	d65f03c0 	ret

0000000000002bf4 <utee_se_service_close>:
utee_se_service_close():
/home/asaf/devel/optee/optee_os/lib/libutee/arch/arm/utee_syscalls_asm.S:148
    2bf4:	d2800708 	mov	x8, #0x38                  	// #56
    2bf8:	d4000001 	svc	#0x0
    2bfc:	d65f03c0 	ret

0000000000002c00 <utee_se_service_get_readers>:
utee_se_service_get_readers():
/home/asaf/devel/optee/optee_os/lib/libutee/arch/arm/utee_syscalls_asm.S:150
    2c00:	d2800728 	mov	x8, #0x39                  	// #57
    2c04:	d4000001 	svc	#0x0
    2c08:	d65f03c0 	ret

0000000000002c0c <utee_se_reader_get_prop>:
utee_se_reader_get_prop():
/home/asaf/devel/optee/optee_os/lib/libutee/arch/arm/utee_syscalls_asm.S:153
    2c0c:	d2800748 	mov	x8, #0x3a                  	// #58
    2c10:	d4000001 	svc	#0x0
    2c14:	d65f03c0 	ret

0000000000002c18 <utee_se_reader_get_name>:
utee_se_reader_get_name():
/home/asaf/devel/optee/optee_os/lib/libutee/arch/arm/utee_syscalls_asm.S:156
    2c18:	d2800768 	mov	x8, #0x3b                  	// #59
    2c1c:	d4000001 	svc	#0x0
    2c20:	d65f03c0 	ret

0000000000002c24 <utee_se_reader_open_session>:
utee_se_reader_open_session():
/home/asaf/devel/optee/optee_os/lib/libutee/arch/arm/utee_syscalls_asm.S:159
    2c24:	d2800788 	mov	x8, #0x3c                  	// #60
    2c28:	d4000001 	svc	#0x0
    2c2c:	d65f03c0 	ret

0000000000002c30 <utee_se_reader_close_sessions>:
utee_se_reader_close_sessions():
/home/asaf/devel/optee/optee_os/lib/libutee/arch/arm/utee_syscalls_asm.S:162
    2c30:	d28007a8 	mov	x8, #0x3d                  	// #61
    2c34:	d4000001 	svc	#0x0
    2c38:	d65f03c0 	ret

0000000000002c3c <utee_se_session_is_closed>:
utee_se_session_is_closed():
/home/asaf/devel/optee/optee_os/lib/libutee/arch/arm/utee_syscalls_asm.S:165
    2c3c:	d28007c8 	mov	x8, #0x3e                  	// #62
    2c40:	d4000001 	svc	#0x0
    2c44:	d65f03c0 	ret

0000000000002c48 <utee_se_session_get_atr>:
utee_se_session_get_atr():
/home/asaf/devel/optee/optee_os/lib/libutee/arch/arm/utee_syscalls_asm.S:168
    2c48:	d28007e8 	mov	x8, #0x3f                  	// #63
    2c4c:	d4000001 	svc	#0x0
    2c50:	d65f03c0 	ret

0000000000002c54 <utee_se_session_open_channel>:
utee_se_session_open_channel():
/home/asaf/devel/optee/optee_os/lib/libutee/arch/arm/utee_syscalls_asm.S:171
    2c54:	d2800808 	mov	x8, #0x40                  	// #64
    2c58:	d4000001 	svc	#0x0
    2c5c:	d65f03c0 	ret

0000000000002c60 <utee_se_session_close>:
utee_se_session_close():
/home/asaf/devel/optee/optee_os/lib/libutee/arch/arm/utee_syscalls_asm.S:174
    2c60:	d2800828 	mov	x8, #0x41                  	// #65
    2c64:	d4000001 	svc	#0x0
    2c68:	d65f03c0 	ret

0000000000002c6c <utee_se_channel_select_next>:
utee_se_channel_select_next():
/home/asaf/devel/optee/optee_os/lib/libutee/arch/arm/utee_syscalls_asm.S:177
    2c6c:	d2800848 	mov	x8, #0x42                  	// #66
    2c70:	d4000001 	svc	#0x0
    2c74:	d65f03c0 	ret

0000000000002c78 <utee_se_channel_get_select_resp>:
utee_se_channel_get_select_resp():
/home/asaf/devel/optee/optee_os/lib/libutee/arch/arm/utee_syscalls_asm.S:180
    2c78:	d2800868 	mov	x8, #0x43                  	// #67
    2c7c:	d4000001 	svc	#0x0
    2c80:	d65f03c0 	ret

0000000000002c84 <utee_se_channel_transmit>:
utee_se_channel_transmit():
/home/asaf/devel/optee/optee_os/lib/libutee/arch/arm/utee_syscalls_asm.S:183
    2c84:	d2800888 	mov	x8, #0x44                  	// #68
    2c88:	d4000001 	svc	#0x0
    2c8c:	d65f03c0 	ret

0000000000002c90 <utee_se_channel_close>:
utee_se_channel_close():
/home/asaf/devel/optee/optee_os/lib/libutee/arch/arm/utee_syscalls_asm.S:186
    2c90:	d28008a8 	mov	x8, #0x45                  	// #69
    2c94:	d4000001 	svc	#0x0
    2c98:	d65f03c0 	ret

0000000000002c9c <utee_cache_operation>:
utee_cache_operation():
/home/asaf/devel/optee/optee_os/lib/libutee/arch/arm/utee_syscalls_asm.S:189
    2c9c:	d28008c8 	mov	x8, #0x46                  	// #70
    2ca0:	d4000001 	svc	#0x0
    2ca4:	d65f03c0 	ret

0000000000002ca8 <__utee_mcount>:
__utee_mcount():
/home/asaf/devel/optee/optee_os/lib/libutee/arch/arm/gprof/gprof_a64.S:74
    2ca8:	d65f03c0 	ret

0000000000002cac <_TEE_MathAPI_Init>:
_TEE_MathAPI_Init():
/home/asaf/devel/optee/optee_os/lib/libutee/tee_api_arith.c:78
    2cac:	a9bf7bfd 	stp	x29, x30, [sp,#-16]!
/home/asaf/devel/optee/optee_os/lib/libutee/tee_api_arith.c:79
    2cb0:	52810002 	mov	w2, #0x800                 	// #2048
    2cb4:	d2836801 	mov	x1, #0x1b40                	// #6976
    2cb8:	f0000080 	adrp	x0, 15000 <ta_heap+0x7ed8>
/home/asaf/devel/optee/optee_os/lib/libutee/tee_api_arith.c:78
    2cbc:	910003fd 	mov	x29, sp
/home/asaf/devel/optee/optee_os/lib/libutee/tee_api_arith.c:79
    2cc0:	9105c000 	add	x0, x0, #0x170
    2cc4:	94001710 	bl	8904 <mpa_init_scratch_mem>
/home/asaf/devel/optee/optee_os/lib/libutee/tee_api_arith.c:81
    2cc8:	d0000040 	adrp	x0, c000 <__func__.3637+0x608>
/home/asaf/devel/optee/optee_os/lib/libutee/tee_api_arith.c:82
    2ccc:	a8c17bfd 	ldp	x29, x30, [sp],#16
/home/asaf/devel/optee/optee_os/lib/libutee/tee_api_arith.c:81
    2cd0:	f941d400 	ldr	x0, [x0,#936]
    2cd4:	1400183e 	b	8dcc <mpa_set_random_generator>

0000000000002cd8 <TEE_BigIntInit>:
TEE_BigIntInit():
/home/asaf/devel/optee/optee_os/lib/libutee/tee_api_arith.c:89
    2cd8:	14001cb4 	b	9fa8 <mpa_init_static>

0000000000002cdc <TEE_BigIntInitFMM>:
TEE_BigIntInitFMM():
/home/asaf/devel/optee/optee_os/lib/libutee/tee_api_arith.c:99
    2cdc:	531e7421 	lsl	w1, w1, #2
    2ce0:	51002021 	sub	w1, w1, #0x8
    2ce4:	d3427c21 	ubfx	x1, x1, #2, #30
/home/asaf/devel/optee/optee_os/lib/libutee/tee_api_arith.c:100
    2ce8:	29007c01 	stp	w1, wzr, [x0]
    2cec:	d65f03c0 	ret

0000000000002cf0 <TEE_BigIntInitFMMContext>:
TEE_BigIntInitFMMContext():
/home/asaf/devel/optee/optee_os/lib/libutee/tee_api_arith.c:108
    2cf0:	a9be7bfd 	stp	x29, x30, [sp,#-32]!
    2cf4:	910003fd 	mov	x29, sp
    2cf8:	a90153f3 	stp	x19, x20, [sp,#16]
    2cfc:	aa0003f3 	mov	x19, x0
    2d00:	aa0203f4 	mov	x20, x2
/home/asaf/devel/optee/optee_os/lib/libutee/tee_api_arith.c:112
    2d04:	94001cb0 	bl	9fc4 <mpa_init_static_fmm_context>
/home/asaf/devel/optee/optee_os/lib/libutee/tee_api_arith.c:113
    2d08:	91004263 	add	x3, x19, #0x10
    2d0c:	aa1403e0 	mov	x0, x20
    2d10:	a9400a61 	ldp	x1, x2, [x19]
    2d14:	f0000084 	adrp	x4, 15000 <ta_heap+0x7ed8>
/home/asaf/devel/optee/optee_os/lib/libutee/tee_api_arith.c:116
    2d18:	a94153f3 	ldp	x19, x20, [sp,#16]
/home/asaf/devel/optee/optee_os/lib/libutee/tee_api_arith.c:113
    2d1c:	9105c084 	add	x4, x4, #0x170
/home/asaf/devel/optee/optee_os/lib/libutee/tee_api_arith.c:116
    2d20:	a8c27bfd 	ldp	x29, x30, [sp],#32
/home/asaf/devel/optee/optee_os/lib/libutee/tee_api_arith.c:113
    2d24:	14001101 	b	7128 <mpa_compute_fmm_context>

0000000000002d28 <TEE_BigIntFMMSizeInU32>:
TEE_BigIntFMMSizeInU32():
/home/asaf/devel/optee/optee_os/lib/libutee/tee_api_arith.c:127
    2d28:	11007c00 	add	w0, w0, #0x1f
    2d2c:	53057c00 	lsr	w0, w0, #5
/home/asaf/devel/optee/optee_os/lib/libutee/tee_api_arith.c:128
    2d30:	11000c00 	add	w0, w0, #0x3
    2d34:	d65f03c0 	ret

0000000000002d38 <TEE_BigIntFMMContextSizeInU32>:
TEE_BigIntFMMContextSizeInU32():
/home/asaf/devel/optee/optee_os/lib/libutee/tee_api_arith.c:135
    2d38:	11007c00 	add	w0, w0, #0x1f
    2d3c:	53057c00 	lsr	w0, w0, #5
    2d40:	11001c00 	add	w0, w0, #0x7
/home/asaf/devel/optee/optee_os/lib/libutee/tee_api_arith.c:136
    2d44:	531f7800 	lsl	w0, w0, #1
    2d48:	d65f03c0 	ret

0000000000002d4c <TEE_BigIntConvertFromOctetString>:
TEE_BigIntConvertFromOctetString():
/home/asaf/devel/optee/optee_os/lib/libutee/tee_api_arith.c:149
    2d4c:	a9bf7bfd 	stp	x29, x30, [sp,#-16]!
/home/asaf/devel/optee/optee_os/lib/libutee/tee_api_arith.c:154
    2d50:	531f7c63 	lsr	w3, w3, #31
    2d54:	2a0203e2 	mov	w2, w2
/home/asaf/devel/optee/optee_os/lib/libutee/tee_api_arith.c:149
    2d58:	910003fd 	mov	x29, sp
/home/asaf/devel/optee/optee_os/lib/libutee/tee_api_arith.c:154
    2d5c:	94001de2 	bl	a4e4 <mpa_set_oct_str>
/home/asaf/devel/optee/optee_os/lib/libutee/tee_api_arith.c:155
    2d60:	7100001f 	cmp	w0, #0x0
/home/asaf/devel/optee/optee_os/lib/libutee/tee_api_arith.c:164
    2d64:	a8c17bfd 	ldp	x29, x30, [sp],#16
    2d68:	1299fe00 	mov	w0, #0xffff300f            	// #-53233
    2d6c:	1a9f1000 	csel	w0, w0, wzr, ne
    2d70:	d65f03c0 	ret

0000000000002d74 <TEE_BigIntConvertToOctetString>:
TEE_BigIntConvertToOctetString():
/home/asaf/devel/optee/optee_os/lib/libutee/tee_api_arith.c:172
    2d74:	a9bd7bfd 	stp	x29, x30, [sp,#-48]!
    2d78:	910003fd 	mov	x29, sp
    2d7c:	f9000bf3 	str	x19, [sp,#16]
    2d80:	aa0103f3 	mov	x19, x1
/home/asaf/devel/optee/optee_os/lib/libutee/tee_api_arith.c:174
    2d84:	9100c3a1 	add	x1, x29, #0x30
    2d88:	b9400263 	ldr	w3, [x19]
    2d8c:	f81f8c23 	str	x3, [x1,#-8]!
/home/asaf/devel/optee/optee_os/lib/libutee/tee_api_arith.c:177
    2d90:	94001e19 	bl	a5f4 <mpa_get_oct_str>
/home/asaf/devel/optee/optee_os/lib/libutee/tee_api_arith.c:178
    2d94:	7100001f 	cmp	w0, #0x0
/home/asaf/devel/optee/optee_os/lib/libutee/tee_api_arith.c:182
    2d98:	f94017a0 	ldr	x0, [x29,#40]
    2d9c:	b9000260 	str	w0, [x19]
/home/asaf/devel/optee/optee_os/lib/libutee/tee_api_arith.c:189
    2da0:	f9400bf3 	ldr	x19, [sp,#16]
    2da4:	129ffde0 	mov	w0, #0xffff0010            	// #-65520
    2da8:	1a9f1000 	csel	w0, w0, wzr, ne
    2dac:	a8c37bfd 	ldp	x29, x30, [sp],#48
    2db0:	d65f03c0 	ret

0000000000002db4 <TEE_BigIntConvertFromS32>:
TEE_BigIntConvertFromS32():
/home/asaf/devel/optee/optee_os/lib/libutee/tee_api_arith.c:199
    2db4:	14001239 	b	7698 <mpa_set_S32>

0000000000002db8 <TEE_BigIntConvertToS32>:
TEE_BigIntConvertToS32():
/home/asaf/devel/optee/optee_os/lib/libutee/tee_api_arith.c:209
    2db8:	a9bf7bfd 	stp	x29, x30, [sp,#-16]!
    2dbc:	910003fd 	mov	x29, sp
/home/asaf/devel/optee/optee_os/lib/libutee/tee_api_arith.c:213
    2dc0:	94001241 	bl	76c4 <mpa_get_S32>
/home/asaf/devel/optee/optee_os/lib/libutee/tee_api_arith.c:214
    2dc4:	7100001f 	cmp	w0, #0x0
/home/asaf/devel/optee/optee_os/lib/libutee/tee_api_arith.c:223
    2dc8:	a8c17bfd 	ldp	x29, x30, [sp],#16
    2dcc:	1299fe00 	mov	w0, #0xffff300f            	// #-53233
    2dd0:	1a9f1000 	csel	w0, w0, wzr, ne
    2dd4:	d65f03c0 	ret

0000000000002dd8 <TEE_BigIntCmp>:
TEE_BigIntCmp():
/home/asaf/devel/optee/optee_os/lib/libutee/tee_api_arith.c:237
    2dd8:	14001bca 	b	9d00 <mpa_cmp>

0000000000002ddc <TEE_BigIntCmpS32>:
TEE_BigIntCmpS32():
/home/asaf/devel/optee/optee_os/lib/libutee/tee_api_arith.c:247
    2ddc:	14001be3 	b	9d68 <mpa_cmp_short>

0000000000002de0 <TEE_BigIntShiftRight>:
TEE_BigIntShiftRight():
/home/asaf/devel/optee/optee_os/lib/libutee/tee_api_arith.c:259
    2de0:	14001901 	b	91e4 <mpa_shift_right>

0000000000002de4 <TEE_BigIntGetBit>:
TEE_BigIntGetBit():
/home/asaf/devel/optee/optee_os/lib/libutee/tee_api_arith.c:266
    2de4:	a9bf7bfd 	stp	x29, x30, [sp,#-16]!
    2de8:	910003fd 	mov	x29, sp
/home/asaf/devel/optee/optee_os/lib/libutee/tee_api_arith.c:269
    2dec:	94001026 	bl	6e84 <mpa_get_bit>
    2df0:	7100001f 	cmp	w0, #0x0
/home/asaf/devel/optee/optee_os/lib/libutee/tee_api_arith.c:270
    2df4:	1a9f07e0 	cset	w0, ne
    2df8:	a8c17bfd 	ldp	x29, x30, [sp],#16
    2dfc:	d65f03c0 	ret

0000000000002e00 <TEE_BigIntGetBitCount>:
TEE_BigIntGetBitCount():
/home/asaf/devel/optee/optee_os/lib/libutee/tee_api_arith.c:276
    2e00:	a9bf7bfd 	stp	x29, x30, [sp,#-16]!
    2e04:	910003fd 	mov	x29, sp
/home/asaf/devel/optee/optee_os/lib/libutee/tee_api_arith.c:279
    2e08:	9400100e 	bl	6e40 <mpa_highest_bit_index>
/home/asaf/devel/optee/optee_os/lib/libutee/tee_api_arith.c:280
    2e0c:	11000400 	add	w0, w0, #0x1
    2e10:	a8c17bfd 	ldp	x29, x30, [sp],#16
    2e14:	d65f03c0 	ret

0000000000002e18 <TEE_BigIntAdd>:
TEE_BigIntAdd():
/home/asaf/devel/optee/optee_os/lib/libutee/tee_api_arith.c:296
    2e18:	f0000083 	adrp	x3, 15000 <ta_heap+0x7ed8>
    2e1c:	9105c063 	add	x3, x3, #0x170
    2e20:	14001a0b 	b	964c <mpa_add>

0000000000002e24 <TEE_BigIntSub>:
TEE_BigIntSub():
/home/asaf/devel/optee/optee_os/lib/libutee/tee_api_arith.c:309
    2e24:	f0000083 	adrp	x3, 15000 <ta_heap+0x7ed8>
    2e28:	9105c063 	add	x3, x3, #0x170
    2e2c:	14001a6d 	b	97e0 <mpa_sub>

0000000000002e30 <TEE_BigIntNeg>:
TEE_BigIntNeg():
/home/asaf/devel/optee/optee_os/lib/libutee/tee_api_arith.c:320
    2e30:	14001ad3 	b	997c <mpa_neg>

0000000000002e34 <TEE_BigIntMul>:
TEE_BigIntMul():
/home/asaf/devel/optee/optee_os/lib/libutee/tee_api_arith.c:333
    2e34:	f0000083 	adrp	x3, 15000 <ta_heap+0x7ed8>
    2e38:	9105c063 	add	x3, x3, #0x170
    2e3c:	1400177a 	b	8c24 <mpa_mul>

0000000000002e40 <TEE_BigIntSquare>:
TEE_BigIntSquare():
/home/asaf/devel/optee/optee_os/lib/libutee/tee_api_arith.c:344
    2e40:	f0000083 	adrp	x3, 15000 <ta_heap+0x7ed8>
    2e44:	aa0103e2 	mov	x2, x1
    2e48:	9105c063 	add	x3, x3, #0x170
    2e4c:	14001776 	b	8c24 <mpa_mul>

0000000000002e50 <TEE_BigIntDiv>:
TEE_BigIntDiv():
/home/asaf/devel/optee/optee_os/lib/libutee/tee_api_arith.c:352
    2e50:	a9bd7bfd 	stp	x29, x30, [sp,#-48]!
    2e54:	910003fd 	mov	x29, sp
    2e58:	a90153f3 	stp	x19, x20, [sp,#16]
    2e5c:	aa0003f4 	mov	x20, x0
    2e60:	a9025bf5 	stp	x21, x22, [sp,#32]
    2e64:	aa0303f3 	mov	x19, x3
    2e68:	aa0103f5 	mov	x21, x1
    2e6c:	aa0203f6 	mov	x22, x2
TEE_BigIntCmpS32():
/home/asaf/devel/optee/optee_os/lib/libutee/tee_api_arith.c:247
    2e70:	52800001 	mov	w1, #0x0                   	// #0
    2e74:	aa0303e0 	mov	x0, x3
    2e78:	94001bbc 	bl	9d68 <mpa_cmp_short>
TEE_BigIntDiv():
/home/asaf/devel/optee/optee_os/lib/libutee/tee_api_arith.c:358
    2e7c:	35000080 	cbnz	w0, 2e8c <TEE_BigIntDiv+0x3c>
/home/asaf/devel/optee/optee_os/lib/libutee/tee_api_arith.c:359
    2e80:	b0000040 	adrp	x0, b000 <PRIME_TABLE+0x350>
    2e84:	912d9400 	add	x0, x0, #0xb65
    2e88:	9400012e 	bl	3340 <TEE_BigInt_Panic>
/home/asaf/devel/optee/optee_os/lib/libutee/tee_api_arith.c:361
    2e8c:	aa1303e3 	mov	x3, x19
    2e90:	aa1603e2 	mov	x2, x22
    2e94:	aa1503e1 	mov	x1, x21
    2e98:	aa1403e0 	mov	x0, x20
/home/asaf/devel/optee/optee_os/lib/libutee/tee_api_arith.c:362
    2e9c:	a9425bf5 	ldp	x21, x22, [sp,#32]
/home/asaf/devel/optee/optee_os/lib/libutee/tee_api_arith.c:361
    2ea0:	f0000084 	adrp	x4, 15000 <ta_heap+0x7ed8>
/home/asaf/devel/optee/optee_os/lib/libutee/tee_api_arith.c:362
    2ea4:	a94153f3 	ldp	x19, x20, [sp,#16]
/home/asaf/devel/optee/optee_os/lib/libutee/tee_api_arith.c:361
    2ea8:	9105c084 	add	x4, x4, #0x170
/home/asaf/devel/optee/optee_os/lib/libutee/tee_api_arith.c:362
    2eac:	a8c37bfd 	ldp	x29, x30, [sp],#48
/home/asaf/devel/optee/optee_os/lib/libutee/tee_api_arith.c:361
    2eb0:	14001435 	b	7f84 <mpa_div>

0000000000002eb4 <TEE_BigIntMod>:
TEE_BigIntMod():
/home/asaf/devel/optee/optee_os/lib/libutee/tee_api_arith.c:373
    2eb4:	a9bd7bfd 	stp	x29, x30, [sp,#-48]!
    2eb8:	910003fd 	mov	x29, sp
    2ebc:	a9025bf5 	stp	x21, x22, [sp,#32]
    2ec0:	aa0103f6 	mov	x22, x1
    2ec4:	a90153f3 	stp	x19, x20, [sp,#16]
    2ec8:	aa0203f5 	mov	x21, x2
    2ecc:	aa0003f4 	mov	x20, x0
TEE_BigIntCmpS32():
/home/asaf/devel/optee/optee_os/lib/libutee/tee_api_arith.c:247
    2ed0:	52800041 	mov	w1, #0x2                   	// #2
    2ed4:	aa0203e0 	mov	x0, x2
    2ed8:	94001ba4 	bl	9d68 <mpa_cmp_short>
TEE_BigIntMod():
/home/asaf/devel/optee/optee_os/lib/libutee/tee_api_arith.c:378
    2edc:	36f80080 	tbz	w0, #31, 2eec <TEE_BigIntMod+0x38>
/home/asaf/devel/optee/optee_os/lib/libutee/tee_api_arith.c:379
    2ee0:	b0000040 	adrp	x0, b000 <PRIME_TABLE+0x350>
    2ee4:	912dd400 	add	x0, x0, #0xb75
    2ee8:	94000116 	bl	3340 <TEE_BigInt_Panic>
/home/asaf/devel/optee/optee_os/lib/libutee/tee_api_arith.c:381
    2eec:	f0000093 	adrp	x19, 15000 <ta_heap+0x7ed8>
    2ef0:	9105c273 	add	x19, x19, #0x170
    2ef4:	aa1303e3 	mov	x3, x19
    2ef8:	aa1503e2 	mov	x2, x21
    2efc:	aa1603e1 	mov	x1, x22
    2f00:	aa1403e0 	mov	x0, x20
    2f04:	94001e19 	bl	a768 <mpa_mod>
/home/asaf/devel/optee/optee_os/lib/libutee/tee_api_arith.c:383
    2f08:	52800001 	mov	w1, #0x0                   	// #0
    2f0c:	aa1403e0 	mov	x0, x20
    2f10:	94001b96 	bl	9d68 <mpa_cmp_short>
    2f14:	36f80120 	tbz	w0, #31, 2f38 <TEE_BigIntMod+0x84>
/home/asaf/devel/optee/optee_os/lib/libutee/tee_api_arith.c:384
    2f18:	aa1303e3 	mov	x3, x19
    2f1c:	aa1503e2 	mov	x2, x21
    2f20:	aa1403e1 	mov	x1, x20
    2f24:	aa1403e0 	mov	x0, x20
/home/asaf/devel/optee/optee_os/lib/libutee/tee_api_arith.c:385
    2f28:	a9425bf5 	ldp	x21, x22, [sp,#32]
    2f2c:	a94153f3 	ldp	x19, x20, [sp,#16]
    2f30:	a8c37bfd 	ldp	x29, x30, [sp],#48
/home/asaf/devel/optee/optee_os/lib/libutee/tee_api_arith.c:384
    2f34:	140019c6 	b	964c <mpa_add>
/home/asaf/devel/optee/optee_os/lib/libutee/tee_api_arith.c:385
    2f38:	a94153f3 	ldp	x19, x20, [sp,#16]
    2f3c:	a9425bf5 	ldp	x21, x22, [sp,#32]
    2f40:	a8c37bfd 	ldp	x29, x30, [sp],#48
    2f44:	d65f03c0 	ret

0000000000002f48 <TEE_BigIntAddMod>:
TEE_BigIntAddMod():
/home/asaf/devel/optee/optee_os/lib/libutee/tee_api_arith.c:392
    2f48:	a9bc7bfd 	stp	x29, x30, [sp,#-64]!
    2f4c:	910003fd 	mov	x29, sp
    2f50:	a9025bf5 	stp	x21, x22, [sp,#32]
    2f54:	aa0103f6 	mov	x22, x1
    2f58:	a90153f3 	stp	x19, x20, [sp,#16]
    2f5c:	aa0303f5 	mov	x21, x3
    2f60:	f9001bf7 	str	x23, [sp,#48]
    2f64:	aa0003f4 	mov	x20, x0
TEE_BigIntCmpS32():
/home/asaf/devel/optee/optee_os/lib/libutee/tee_api_arith.c:247
    2f68:	52800041 	mov	w1, #0x2                   	// #2
    2f6c:	aa0303e0 	mov	x0, x3
TEE_BigIntAddMod():
/home/asaf/devel/optee/optee_os/lib/libutee/tee_api_arith.c:392
    2f70:	aa0203f7 	mov	x23, x2
TEE_BigIntCmpS32():
/home/asaf/devel/optee/optee_os/lib/libutee/tee_api_arith.c:247
    2f74:	94001b7d 	bl	9d68 <mpa_cmp_short>
TEE_BigIntAddMod():
/home/asaf/devel/optee/optee_os/lib/libutee/tee_api_arith.c:398
    2f78:	36f80080 	tbz	w0, #31, 2f88 <TEE_BigIntAddMod+0x40>
/home/asaf/devel/optee/optee_os/lib/libutee/tee_api_arith.c:399
    2f7c:	b0000040 	adrp	x0, b000 <PRIME_TABLE+0x350>
    2f80:	912dd400 	add	x0, x0, #0xb75
    2f84:	940000ef 	bl	3340 <TEE_BigInt_Panic>
/home/asaf/devel/optee/optee_os/lib/libutee/tee_api_arith.c:401
    2f88:	f0000093 	adrp	x19, 15000 <ta_heap+0x7ed8>
    2f8c:	9105c273 	add	x19, x19, #0x170
    2f90:	aa1303e4 	mov	x4, x19
    2f94:	aa1503e3 	mov	x3, x21
    2f98:	aa1703e2 	mov	x2, x23
    2f9c:	aa1603e1 	mov	x1, x22
    2fa0:	aa1403e0 	mov	x0, x20
    2fa4:	94001df7 	bl	a780 <mpa_add_mod>
/home/asaf/devel/optee/optee_os/lib/libutee/tee_api_arith.c:402
    2fa8:	52800001 	mov	w1, #0x0                   	// #0
    2fac:	aa1403e0 	mov	x0, x20
    2fb0:	94001b6e 	bl	9d68 <mpa_cmp_short>
    2fb4:	36f80140 	tbz	w0, #31, 2fdc <TEE_BigIntAddMod+0x94>
/home/asaf/devel/optee/optee_os/lib/libutee/tee_api_arith.c:403
    2fb8:	aa1303e3 	mov	x3, x19
    2fbc:	aa1503e2 	mov	x2, x21
    2fc0:	aa1403e1 	mov	x1, x20
    2fc4:	aa1403e0 	mov	x0, x20
/home/asaf/devel/optee/optee_os/lib/libutee/tee_api_arith.c:404
    2fc8:	a9425bf5 	ldp	x21, x22, [sp,#32]
    2fcc:	a94153f3 	ldp	x19, x20, [sp,#16]
    2fd0:	f9401bf7 	ldr	x23, [sp,#48]
    2fd4:	a8c47bfd 	ldp	x29, x30, [sp],#64
/home/asaf/devel/optee/optee_os/lib/libutee/tee_api_arith.c:403
    2fd8:	1400199d 	b	964c <mpa_add>
/home/asaf/devel/optee/optee_os/lib/libutee/tee_api_arith.c:404
    2fdc:	a94153f3 	ldp	x19, x20, [sp,#16]
    2fe0:	a9425bf5 	ldp	x21, x22, [sp,#32]
    2fe4:	f9401bf7 	ldr	x23, [sp,#48]
    2fe8:	a8c47bfd 	ldp	x29, x30, [sp],#64
    2fec:	d65f03c0 	ret

0000000000002ff0 <TEE_BigIntSubMod>:
TEE_BigIntSubMod():
/home/asaf/devel/optee/optee_os/lib/libutee/tee_api_arith.c:411
    2ff0:	a9bc7bfd 	stp	x29, x30, [sp,#-64]!
    2ff4:	910003fd 	mov	x29, sp
    2ff8:	a9025bf5 	stp	x21, x22, [sp,#32]
    2ffc:	aa0103f6 	mov	x22, x1
    3000:	a90153f3 	stp	x19, x20, [sp,#16]
    3004:	aa0303f5 	mov	x21, x3
    3008:	f9001bf7 	str	x23, [sp,#48]
    300c:	aa0003f4 	mov	x20, x0
TEE_BigIntCmpS32():
/home/asaf/devel/optee/optee_os/lib/libutee/tee_api_arith.c:247
    3010:	52800041 	mov	w1, #0x2                   	// #2
    3014:	aa0303e0 	mov	x0, x3
TEE_BigIntSubMod():
/home/asaf/devel/optee/optee_os/lib/libutee/tee_api_arith.c:411
    3018:	aa0203f7 	mov	x23, x2
TEE_BigIntCmpS32():
/home/asaf/devel/optee/optee_os/lib/libutee/tee_api_arith.c:247
    301c:	94001b53 	bl	9d68 <mpa_cmp_short>
TEE_BigIntSubMod():
/home/asaf/devel/optee/optee_os/lib/libutee/tee_api_arith.c:417
    3020:	36f80080 	tbz	w0, #31, 3030 <TEE_BigIntSubMod+0x40>
/home/asaf/devel/optee/optee_os/lib/libutee/tee_api_arith.c:418
    3024:	90000040 	adrp	x0, b000 <PRIME_TABLE+0x350>
    3028:	912dd400 	add	x0, x0, #0xb75
    302c:	940000c5 	bl	3340 <TEE_BigInt_Panic>
/home/asaf/devel/optee/optee_os/lib/libutee/tee_api_arith.c:420
    3030:	d0000093 	adrp	x19, 15000 <ta_heap+0x7ed8>
    3034:	9105c273 	add	x19, x19, #0x170
    3038:	aa1303e4 	mov	x4, x19
    303c:	aa1503e3 	mov	x3, x21
    3040:	aa1703e2 	mov	x2, x23
    3044:	aa1603e1 	mov	x1, x22
    3048:	aa1403e0 	mov	x0, x20
    304c:	94001dee 	bl	a804 <mpa_sub_mod>
/home/asaf/devel/optee/optee_os/lib/libutee/tee_api_arith.c:421
    3050:	52800001 	mov	w1, #0x0                   	// #0
    3054:	aa1403e0 	mov	x0, x20
    3058:	94001b44 	bl	9d68 <mpa_cmp_short>
    305c:	36f80140 	tbz	w0, #31, 3084 <TEE_BigIntSubMod+0x94>
/home/asaf/devel/optee/optee_os/lib/libutee/tee_api_arith.c:422
    3060:	aa1303e3 	mov	x3, x19
    3064:	aa1503e2 	mov	x2, x21
    3068:	aa1403e1 	mov	x1, x20
    306c:	aa1403e0 	mov	x0, x20
/home/asaf/devel/optee/optee_os/lib/libutee/tee_api_arith.c:423
    3070:	a9425bf5 	ldp	x21, x22, [sp,#32]
    3074:	a94153f3 	ldp	x19, x20, [sp,#16]
    3078:	f9401bf7 	ldr	x23, [sp,#48]
    307c:	a8c47bfd 	ldp	x29, x30, [sp],#64
/home/asaf/devel/optee/optee_os/lib/libutee/tee_api_arith.c:422
    3080:	14001973 	b	964c <mpa_add>
/home/asaf/devel/optee/optee_os/lib/libutee/tee_api_arith.c:423
    3084:	a94153f3 	ldp	x19, x20, [sp,#16]
    3088:	a9425bf5 	ldp	x21, x22, [sp,#32]
    308c:	f9401bf7 	ldr	x23, [sp,#48]
    3090:	a8c47bfd 	ldp	x29, x30, [sp],#64
    3094:	d65f03c0 	ret

0000000000003098 <TEE_BigIntMulMod>:
TEE_BigIntMulMod():
/home/asaf/devel/optee/optee_os/lib/libutee/tee_api_arith.c:430
    3098:	a9ba7bfd 	stp	x29, x30, [sp,#-96]!
    309c:	910003fd 	mov	x29, sp
    30a0:	a90363f7 	stp	x23, x24, [sp,#48]
    30a4:	aa0003f7 	mov	x23, x0
    30a8:	a90153f3 	stp	x19, x20, [sp,#16]
    30ac:	aa0103f8 	mov	x24, x1
    30b0:	f90023f9 	str	x25, [sp,#64]
    30b4:	aa0303f4 	mov	x20, x3
    30b8:	a9025bf5 	stp	x21, x22, [sp,#32]
TEE_BigIntCmpS32():
/home/asaf/devel/optee/optee_os/lib/libutee/tee_api_arith.c:247
    30bc:	52800041 	mov	w1, #0x2                   	// #2
    30c0:	aa0303e0 	mov	x0, x3
TEE_BigIntMulMod():
/home/asaf/devel/optee/optee_os/lib/libutee/tee_api_arith.c:430
    30c4:	aa0203f9 	mov	x25, x2
TEE_BigIntCmpS32():
/home/asaf/devel/optee/optee_os/lib/libutee/tee_api_arith.c:247
    30c8:	94001b28 	bl	9d68 <mpa_cmp_short>
TEE_BigIntMulMod():
/home/asaf/devel/optee/optee_os/lib/libutee/tee_api_arith.c:437
    30cc:	36f80080 	tbz	w0, #31, 30dc <TEE_BigIntMulMod+0x44>
/home/asaf/devel/optee/optee_os/lib/libutee/tee_api_arith.c:438
    30d0:	90000040 	adrp	x0, b000 <PRIME_TABLE+0x350>
    30d4:	912dd400 	add	x0, x0, #0xb75
    30d8:	9400009a 	bl	3340 <TEE_BigInt_Panic>
/home/asaf/devel/optee/optee_os/lib/libutee/tee_api_arith.c:448
    30dc:	d0000093 	adrp	x19, 15000 <ta_heap+0x7ed8>
    30e0:	910163b6 	add	x22, x29, #0x58
    30e4:	9105c275 	add	x21, x19, #0x170
    30e8:	aa1603e0 	mov	x0, x22
    30ec:	aa1503e1 	mov	x1, x21
    30f0:	94001645 	bl	8a04 <mpa_alloc_static_temp_var>
/home/asaf/devel/optee/optee_os/lib/libutee/tee_api_arith.c:449
    30f4:	f9402fa0 	ldr	x0, [x29,#88]
    30f8:	aa1803e1 	mov	x1, x24
    30fc:	aa1503e4 	mov	x4, x21
    3100:	aa1403e3 	mov	x3, x20
    3104:	aa1903e2 	mov	x2, x25
    3108:	94001de0 	bl	a888 <mpa_mul_mod>
/home/asaf/devel/optee/optee_os/lib/libutee/tee_api_arith.c:450
    310c:	f9402fa0 	ldr	x0, [x29,#88]
    3110:	52800001 	mov	w1, #0x0                   	// #0
    3114:	94001b15 	bl	9d68 <mpa_cmp_short>
    3118:	36f800c0 	tbz	w0, #31, 3130 <TEE_BigIntMulMod+0x98>
/home/asaf/devel/optee/optee_os/lib/libutee/tee_api_arith.c:451
    311c:	f9402fa1 	ldr	x1, [x29,#88]
    3120:	aa1503e3 	mov	x3, x21
    3124:	aa1403e2 	mov	x2, x20
    3128:	aa0103e0 	mov	x0, x1
    312c:	94001948 	bl	964c <mpa_add>
/home/asaf/devel/optee/optee_os/lib/libutee/tee_api_arith.c:452
    3130:	f9402fa1 	ldr	x1, [x29,#88]
    3134:	aa1703e0 	mov	x0, x23
    3138:	94000f21 	bl	6dbc <mpa_copy>
/home/asaf/devel/optee/optee_os/lib/libutee/tee_api_arith.c:453
    313c:	9105c261 	add	x1, x19, #0x170
    3140:	aa1603e0 	mov	x0, x22
    3144:	94001634 	bl	8a14 <mpa_free_static_temp_var>
/home/asaf/devel/optee/optee_os/lib/libutee/tee_api_arith.c:454
    3148:	f94023f9 	ldr	x25, [sp,#64]
    314c:	a94153f3 	ldp	x19, x20, [sp,#16]
    3150:	a9425bf5 	ldp	x21, x22, [sp,#32]
    3154:	a94363f7 	ldp	x23, x24, [sp,#48]
    3158:	a8c67bfd 	ldp	x29, x30, [sp],#96
    315c:	d65f03c0 	ret

0000000000003160 <TEE_BigIntSquareMod>:
TEE_BigIntSquareMod():
/home/asaf/devel/optee/optee_os/lib/libutee/tee_api_arith.c:462
    3160:	aa0203e3 	mov	x3, x2
    3164:	aa0103e2 	mov	x2, x1
    3168:	17ffffcc 	b	3098 <TEE_BigIntMulMod>

000000000000316c <TEE_BigIntInvMod>:
TEE_BigIntInvMod():
/home/asaf/devel/optee/optee_os/lib/libutee/tee_api_arith.c:470
    316c:	a9bd7bfd 	stp	x29, x30, [sp,#-48]!
    3170:	910003fd 	mov	x29, sp
    3174:	a90153f3 	stp	x19, x20, [sp,#16]
    3178:	aa0103f3 	mov	x19, x1
    317c:	f90013f5 	str	x21, [sp,#32]
    3180:	aa0203f4 	mov	x20, x2
    3184:	aa0003f5 	mov	x21, x0
TEE_BigIntCmpS32():
/home/asaf/devel/optee/optee_os/lib/libutee/tee_api_arith.c:247
    3188:	52800041 	mov	w1, #0x2                   	// #2
    318c:	aa0203e0 	mov	x0, x2
    3190:	94001af6 	bl	9d68 <mpa_cmp_short>
TEE_BigIntInvMod():
/home/asaf/devel/optee/optee_os/lib/libutee/tee_api_arith.c:475
    3194:	36f80080 	tbz	w0, #31, 31a4 <TEE_BigIntInvMod+0x38>
/home/asaf/devel/optee/optee_os/lib/libutee/tee_api_arith.c:476
    3198:	90000040 	adrp	x0, b000 <PRIME_TABLE+0x350>
    319c:	912e2800 	add	x0, x0, #0xb8a
    31a0:	94000068 	bl	3340 <TEE_BigInt_Panic>
TEE_BigIntCmpS32():
/home/asaf/devel/optee/optee_os/lib/libutee/tee_api_arith.c:247
    31a4:	52800001 	mov	w1, #0x0                   	// #0
    31a8:	aa1303e0 	mov	x0, x19
    31ac:	94001aef 	bl	9d68 <mpa_cmp_short>
TEE_BigIntInvMod():
/home/asaf/devel/optee/optee_os/lib/libutee/tee_api_arith.c:475
    31b0:	34ffff40 	cbz	w0, 3198 <TEE_BigIntInvMod+0x2c>
/home/asaf/devel/optee/optee_os/lib/libutee/tee_api_arith.c:478
    31b4:	aa1403e2 	mov	x2, x20
    31b8:	aa1303e1 	mov	x1, x19
    31bc:	aa1503e0 	mov	x0, x21
/home/asaf/devel/optee/optee_os/lib/libutee/tee_api_arith.c:479
    31c0:	f94013f5 	ldr	x21, [sp,#32]
    31c4:	a94153f3 	ldp	x19, x20, [sp,#16]
/home/asaf/devel/optee/optee_os/lib/libutee/tee_api_arith.c:478
    31c8:	d0000083 	adrp	x3, 15000 <ta_heap+0x7ed8>
/home/asaf/devel/optee/optee_os/lib/libutee/tee_api_arith.c:479
    31cc:	a8c37bfd 	ldp	x29, x30, [sp],#48
/home/asaf/devel/optee/optee_os/lib/libutee/tee_api_arith.c:478
    31d0:	9105c063 	add	x3, x3, #0x170
    31d4:	14001dce 	b	a90c <mpa_inv_mod>

00000000000031d8 <TEE_BigIntRelativePrime>:
TEE_BigIntRelativePrime():
/home/asaf/devel/optee/optee_os/lib/libutee/tee_api_arith.c:489
    31d8:	a9bc7bfd 	stp	x29, x30, [sp,#-64]!
    31dc:	910003fd 	mov	x29, sp
    31e0:	a90153f3 	stp	x19, x20, [sp,#16]
/home/asaf/devel/optee/optee_os/lib/libutee/tee_api_arith.c:495
    31e4:	9100e3b4 	add	x20, x29, #0x38
    31e8:	d0000093 	adrp	x19, 15000 <ta_heap+0x7ed8>
    31ec:	9105c273 	add	x19, x19, #0x170
/home/asaf/devel/optee/optee_os/lib/libutee/tee_api_arith.c:489
    31f0:	a9025bf5 	stp	x21, x22, [sp,#32]
    31f4:	aa0003f5 	mov	x21, x0
    31f8:	aa0103f6 	mov	x22, x1
/home/asaf/devel/optee/optee_os/lib/libutee/tee_api_arith.c:495
    31fc:	aa1403e0 	mov	x0, x20
    3200:	aa1303e1 	mov	x1, x19
    3204:	94001600 	bl	8a04 <mpa_alloc_static_temp_var>
/home/asaf/devel/optee/optee_os/lib/libutee/tee_api_arith.c:497
    3208:	f9401fa0 	ldr	x0, [x29,#56]
    320c:	aa1303e3 	mov	x3, x19
    3210:	aa1603e2 	mov	x2, x22
    3214:	aa1503e1 	mov	x1, x21
    3218:	940014f2 	bl	85e0 <mpa_gcd>
/home/asaf/devel/optee/optee_os/lib/libutee/tee_api_arith.c:498
    321c:	f9401fa0 	ldr	x0, [x29,#56]
    3220:	52800021 	mov	w1, #0x1                   	// #1
    3224:	94001ad1 	bl	9d68 <mpa_cmp_short>
    3228:	2a0003f5 	mov	w21, w0
/home/asaf/devel/optee/optee_os/lib/libutee/tee_api_arith.c:500
    322c:	aa1303e1 	mov	x1, x19
    3230:	aa1403e0 	mov	x0, x20
    3234:	940015f8 	bl	8a14 <mpa_free_static_temp_var>
/home/asaf/devel/optee/optee_os/lib/libutee/tee_api_arith.c:502
    3238:	710002bf 	cmp	w21, #0x0
/home/asaf/devel/optee/optee_os/lib/libutee/tee_api_arith.c:503
    323c:	a94153f3 	ldp	x19, x20, [sp,#16]
    3240:	1a9f17e0 	cset	w0, eq
    3244:	a9425bf5 	ldp	x21, x22, [sp,#32]
    3248:	a8c47bfd 	ldp	x29, x30, [sp],#64
    324c:	d65f03c0 	ret

0000000000003250 <TEE_BigIntComputeExtendedGcd>:
TEE_BigIntComputeExtendedGcd():
/home/asaf/devel/optee/optee_os/lib/libutee/tee_api_arith.c:518
    3250:	d0000085 	adrp	x5, 15000 <ta_heap+0x7ed8>
    3254:	9105c0a5 	add	x5, x5, #0x170
    3258:	1400152a 	b	8700 <mpa_extended_gcd>

000000000000325c <TEE_BigIntIsProbablePrime>:
TEE_BigIntIsProbablePrime():
/home/asaf/devel/optee/optee_os/lib/libutee/tee_api_arith.c:526
    325c:	7104003f 	cmp	w1, #0x100
    3260:	52802002 	mov	w2, #0x100                 	// #256
    3264:	1a829021 	csel	w1, w1, w2, ls
/home/asaf/devel/optee/optee_os/lib/libutee/tee_api_arith.c:535
    3268:	52800a03 	mov	w3, #0x50                  	// #80
    326c:	7101403f 	cmp	w1, #0x50
    3270:	d0000082 	adrp	x2, 15000 <ta_heap+0x7ed8>
    3274:	1a832021 	csel	w1, w1, w3, cs
    3278:	9105c042 	add	x2, x2, #0x170
    327c:	1400101c 	b	72ec <mpa_is_prob_prime>

0000000000003280 <TEE_BigIntConvertToFMM>:
TEE_BigIntConvertToFMM():
/home/asaf/devel/optee/optee_os/lib/libutee/tee_api_arith.c:549
    3280:	aa0303e6 	mov	x6, x3
/home/asaf/devel/optee/optee_os/lib/libutee/tee_api_arith.c:556
    3284:	aa0203e3 	mov	x3, x2
    3288:	d0000085 	adrp	x5, 15000 <ta_heap+0x7ed8>
    328c:	9105c0a5 	add	x5, x5, #0x170
    3290:	b94010c4 	ldr	w4, [x6,#16]
    3294:	f94004c2 	ldr	x2, [x6,#8]
    3298:	14000ff3 	b	7264 <mpa_montgomery_mul>

000000000000329c <TEE_BigIntConvertFromFMM>:
TEE_BigIntConvertFromFMM():
/home/asaf/devel/optee/optee_os/lib/libutee/tee_api_arith.c:567
    329c:	a9ba7bfd 	stp	x29, x30, [sp,#-96]!
    32a0:	910003fd 	mov	x29, sp
    32a4:	a90153f3 	stp	x19, x20, [sp,#16]
/home/asaf/devel/optee/optee_os/lib/libutee/tee_api_arith.c:579
    32a8:	d0000093 	adrp	x19, 15000 <ta_heap+0x7ed8>
    32ac:	9105c273 	add	x19, x19, #0x170
/home/asaf/devel/optee/optee_os/lib/libutee/tee_api_arith.c:567
    32b0:	a90363f7 	stp	x23, x24, [sp,#48]
    32b4:	aa0103f7 	mov	x23, x1
/home/asaf/devel/optee/optee_os/lib/libutee/tee_api_arith.c:579
    32b8:	aa1303e1 	mov	x1, x19
    32bc:	910163b4 	add	x20, x29, #0x58
/home/asaf/devel/optee/optee_os/lib/libutee/tee_api_arith.c:567
    32c0:	f90023f9 	str	x25, [sp,#64]
    32c4:	aa0303f9 	mov	x25, x3
    32c8:	a9025bf5 	stp	x21, x22, [sp,#32]
    32cc:	aa0203f8 	mov	x24, x2
    32d0:	aa0003f5 	mov	x21, x0
/home/asaf/devel/optee/optee_os/lib/libutee/tee_api_arith.c:579
    32d4:	aa1403e0 	mov	x0, x20
    32d8:	940015cb 	bl	8a04 <mpa_alloc_static_temp_var>
/home/asaf/devel/optee/optee_os/lib/libutee/tee_api_arith.c:582
    32dc:	f9402fb6 	ldr	x22, [x29,#88]
    32e0:	94000f04 	bl	6ef0 <mpa_constant_one>
    32e4:	b9401324 	ldr	w4, [x25,#16]
    32e8:	aa1303e5 	mov	x5, x19
    32ec:	aa1803e3 	mov	x3, x24
    32f0:	aa1703e2 	mov	x2, x23
    32f4:	aa0003e1 	mov	x1, x0
    32f8:	aa1603e0 	mov	x0, x22
    32fc:	94000fda 	bl	7264 <mpa_montgomery_mul>
/home/asaf/devel/optee/optee_os/lib/libutee/tee_api_arith.c:585
    3300:	f9402fa1 	ldr	x1, [x29,#88]
    3304:	aa1503e0 	mov	x0, x21
    3308:	94000ead 	bl	6dbc <mpa_copy>
/home/asaf/devel/optee/optee_os/lib/libutee/tee_api_arith.c:586
    330c:	aa1303e1 	mov	x1, x19
    3310:	aa1403e0 	mov	x0, x20
    3314:	940015c0 	bl	8a14 <mpa_free_static_temp_var>
/home/asaf/devel/optee/optee_os/lib/libutee/tee_api_arith.c:587
    3318:	f94023f9 	ldr	x25, [sp,#64]
    331c:	a94153f3 	ldp	x19, x20, [sp,#16]
    3320:	a9425bf5 	ldp	x21, x22, [sp,#32]
    3324:	a94363f7 	ldp	x23, x24, [sp,#48]
    3328:	a8c67bfd 	ldp	x29, x30, [sp],#96
    332c:	d65f03c0 	ret

0000000000003330 <TEE_BigIntComputeFMM>:
TEE_BigIntComputeFMM():
/home/asaf/devel/optee/optee_os/lib/libutee/tee_api_arith.c:604
    3330:	b9401084 	ldr	w4, [x4,#16]
    3334:	d0000085 	adrp	x5, 15000 <ta_heap+0x7ed8>
    3338:	9105c0a5 	add	x5, x5, #0x170
    333c:	14000fca 	b	7264 <mpa_montgomery_mul>

0000000000003340 <TEE_BigInt_Panic>:
TEE_BigInt_Panic():
/home/asaf/devel/optee/optee_os/lib/libutee/tee_api_arith.c:63
    3340:	a9bf7bfd 	stp	x29, x30, [sp,#-16]!
/home/asaf/devel/optee/optee_os/lib/libutee/tee_api_arith.c:64
    3344:	aa0003e1 	mov	x1, x0
    3348:	90000040 	adrp	x0, b000 <PRIME_TABLE+0x350>
    334c:	912d6800 	add	x0, x0, #0xb5a
/home/asaf/devel/optee/optee_os/lib/libutee/tee_api_arith.c:63
    3350:	910003fd 	mov	x29, sp
/home/asaf/devel/optee/optee_os/lib/libutee/tee_api_arith.c:64
    3354:	940005de 	bl	4acc <printf>
/home/asaf/devel/optee/optee_os/lib/libutee/tee_api_arith.c:65
    3358:	528c24e0 	mov	w0, #0x6127                	// #24871
    335c:	72a01620 	movk	w0, #0xb1, lsl #16
    3360:	97fffcc8 	bl	2680 <TEE_Panic>
    3364:	14000000 	b	3364 <TEE_BigInt_Panic+0x24>

0000000000003368 <__utee_from_param>:
__utee_from_param():
/home/asaf/devel/optee/optee_os/lib/libutee/tee_api.c:47
    3368:	90000045 	adrp	x5, b000 <PRIME_TABLE+0x350>
    336c:	912810a5 	add	x5, x5, #0xa04
/home/asaf/devel/optee/optee_os/lib/libutee/tee_api.c:45
    3370:	2a0103e3 	mov	w3, w1
    3374:	52800004 	mov	w4, #0x0                   	// #0
    3378:	f8008403 	str	x3, [x0],#8
/home/asaf/devel/optee/optee_os/lib/libutee/tee_api.c:47
    337c:	1ac42423 	lsr	w3, w1, w4
    3380:	12000c63 	and	w3, w3, #0xf
    3384:	51000463 	sub	w3, w3, #0x1
    3388:	7100187f 	cmp	w3, #0x6
    338c:	54000268 	b.hi	33d8 <__utee_from_param+0x70>
    3390:	386348a3 	ldrb	w3, [x5,w3,uxtw]
    3394:	10000066 	adr	x6, 33a0 <__utee_from_param+0x38>
    3398:	8b2388c3 	add	x3, x6, w3, sxtb #2
    339c:	d61f0060 	br	x3
/home/asaf/devel/optee/optee_os/lib/libutee/tee_api.c:51
    33a0:	b9400043 	ldr	w3, [x2]
    33a4:	f9000003 	str	x3, [x0]
/home/asaf/devel/optee/optee_os/lib/libutee/tee_api.c:52
    33a8:	b9400443 	ldr	w3, [x2,#4]
/home/asaf/devel/optee/optee_os/lib/libutee/tee_api.c:58
    33ac:	f9000403 	str	x3, [x0,#8]
    33b0:	11001084 	add	w4, w4, #0x4
    33b4:	91004042 	add	x2, x2, #0x10
    33b8:	91004000 	add	x0, x0, #0x10
/home/asaf/devel/optee/optee_os/lib/libutee/tee_api.c:46 (discriminator 2)
    33bc:	7100409f 	cmp	w4, #0x10
    33c0:	54fffde1 	b.ne	337c <__utee_from_param+0x14>
/home/asaf/devel/optee/optee_os/lib/libutee/tee_api.c:66
    33c4:	d65f03c0 	ret
/home/asaf/devel/optee/optee_os/lib/libutee/tee_api.c:57
    33c8:	f9400043 	ldr	x3, [x2]
    33cc:	f9000003 	str	x3, [x0]
/home/asaf/devel/optee/optee_os/lib/libutee/tee_api.c:58
    33d0:	b9400843 	ldr	w3, [x2,#8]
    33d4:	17fffff6 	b	33ac <__utee_from_param+0x44>
/home/asaf/devel/optee/optee_os/lib/libutee/tee_api.c:62
    33d8:	a9007c1f 	stp	xzr, xzr, [x0]
/home/asaf/devel/optee/optee_os/lib/libutee/tee_api.c:63
    33dc:	17fffff5 	b	33b0 <__utee_from_param+0x48>

00000000000033e0 <__utee_to_param>:
__utee_to_param():
/home/asaf/devel/optee/optee_os/lib/libutee/tee_api.c:72
    33e0:	f8408446 	ldr	x6, [x2],#8
/home/asaf/devel/optee/optee_os/lib/libutee/tee_api.c:78
    33e4:	90000045 	adrp	x5, b000 <PRIME_TABLE+0x350>
    33e8:	912830a5 	add	x5, x5, #0xa0c
/home/asaf/devel/optee/optee_os/lib/libutee/tee_api.c:72
    33ec:	52800004 	mov	w4, #0x0                   	// #0
    33f0:	2a0603e9 	mov	w9, w6
/home/asaf/devel/optee/optee_os/lib/libutee/tee_api.c:78
    33f4:	1ac42523 	lsr	w3, w9, w4
    33f8:	12000c63 	and	w3, w3, #0xf
    33fc:	51000463 	sub	w3, w3, #0x1
    3400:	7100187f 	cmp	w3, #0x6
/home/asaf/devel/optee/optee_os/lib/libutee/tee_api.c:76
    3404:	a9401c48 	ldp	x8, x7, [x2]
/home/asaf/devel/optee/optee_os/lib/libutee/tee_api.c:78
    3408:	540000c8 	b.hi	3420 <__utee_to_param+0x40>
    340c:	386348a3 	ldrb	w3, [x5,w3,uxtw]
    3410:	1000006a 	adr	x10, 341c <__utee_to_param+0x3c>
    3414:	8b238943 	add	x3, x10, w3, sxtb #2
    3418:	d61f0060 	br	x3
/home/asaf/devel/optee/optee_os/lib/libutee/tee_api.c:83
    341c:	29001c08 	stp	w8, w7, [x0]
    3420:	11001084 	add	w4, w4, #0x4
    3424:	91004042 	add	x2, x2, #0x10
    3428:	91004000 	add	x0, x0, #0x10
/home/asaf/devel/optee/optee_os/lib/libutee/tee_api.c:74 (discriminator 2)
    342c:	7100409f 	cmp	w4, #0x10
    3430:	54fffe21 	b.ne	33f4 <__utee_to_param+0x14>
/home/asaf/devel/optee/optee_os/lib/libutee/tee_api.c:96
    3434:	b4000041 	cbz	x1, 343c <__utee_to_param+0x5c>
/home/asaf/devel/optee/optee_os/lib/libutee/tee_api.c:97
    3438:	b9000026 	str	w6, [x1]
    343c:	d65f03c0 	ret
/home/asaf/devel/optee/optee_os/lib/libutee/tee_api.c:88
    3440:	f9000008 	str	x8, [x0]
/home/asaf/devel/optee/optee_os/lib/libutee/tee_api.c:89
    3444:	b9000807 	str	w7, [x0,#8]
/home/asaf/devel/optee/optee_os/lib/libutee/tee_api.c:90
    3448:	17fffff6 	b	3420 <__utee_to_param+0x40>

000000000000344c <TEE_OpenTASession>:
TEE_OpenTASession():
/home/asaf/devel/optee/optee_os/lib/libutee/tee_api.c:106
    344c:	a9b77bfd 	stp	x29, x30, [sp,#-144]!
    3450:	910003fd 	mov	x29, sp
    3454:	a90153f3 	stp	x19, x20, [sp,#16]
/home/asaf/devel/optee/optee_os/lib/libutee/tee_api.c:111
    3458:	910123b3 	add	x19, x29, #0x48
/home/asaf/devel/optee/optee_os/lib/libutee/tee_api.c:106
    345c:	a9025bf5 	stp	x21, x22, [sp,#32]
    3460:	aa0303f4 	mov	x20, x3
    3464:	a90363f7 	stp	x23, x24, [sp,#48]
    3468:	aa0003f6 	mov	x22, x0
    346c:	aa0503f8 	mov	x24, x5
    3470:	2a0103f7 	mov	w23, w1
    3474:	aa0403f5 	mov	x21, x4
    3478:	2a0203e1 	mov	w1, w2
/home/asaf/devel/optee/optee_os/lib/libutee/tee_api.c:111
    347c:	aa1303e0 	mov	x0, x19
    3480:	aa0303e2 	mov	x2, x3
    3484:	97ffffb9 	bl	3368 <__utee_from_param>
/home/asaf/devel/optee/optee_os/lib/libutee/tee_api.c:112
    3488:	aa1803e4 	mov	x4, x24
    348c:	910113a3 	add	x3, x29, #0x44
    3490:	aa1303e2 	mov	x2, x19
    3494:	2a1703e1 	mov	w1, w23
    3498:	aa1603e0 	mov	x0, x22
    349c:	97fffd3d 	bl	2990 <utee_open_ta_session>
/home/asaf/devel/optee/optee_os/lib/libutee/tee_api.c:114
    34a0:	aa1303e2 	mov	x2, x19
/home/asaf/devel/optee/optee_os/lib/libutee/tee_api.c:112
    34a4:	2a0003f6 	mov	w22, w0
/home/asaf/devel/optee/optee_os/lib/libutee/tee_api.c:114
    34a8:	d2800001 	mov	x1, #0x0                   	// #0
    34ac:	aa1403e0 	mov	x0, x20
    34b0:	97ffffcc 	bl	33e0 <__utee_to_param>
/home/asaf/devel/optee/optee_os/lib/libutee/tee_api.c:120
    34b4:	34000056 	cbz	w22, 34bc <TEE_OpenTASession+0x70>
/home/asaf/devel/optee/optee_os/lib/libutee/tee_api.c:121
    34b8:	b90047bf 	str	wzr, [x29,#68]
/home/asaf/devel/optee/optee_os/lib/libutee/tee_api.c:123
    34bc:	b94047a0 	ldr	w0, [x29,#68]
/home/asaf/devel/optee/optee_os/lib/libutee/tee_api.c:125
    34c0:	a94153f3 	ldp	x19, x20, [sp,#16]
    34c4:	a94363f7 	ldp	x23, x24, [sp,#48]
/home/asaf/devel/optee/optee_os/lib/libutee/tee_api.c:123
    34c8:	f90002a0 	str	x0, [x21]
/home/asaf/devel/optee/optee_os/lib/libutee/tee_api.c:125
    34cc:	2a1603e0 	mov	w0, w22
    34d0:	a9425bf5 	ldp	x21, x22, [sp,#32]
    34d4:	a8c97bfd 	ldp	x29, x30, [sp],#144
    34d8:	d65f03c0 	ret

00000000000034dc <TEE_CloseTASession>:
TEE_CloseTASession():
/home/asaf/devel/optee/optee_os/lib/libutee/tee_api.c:129
    34dc:	b4000120 	cbz	x0, 3500 <TEE_CloseTASession+0x24>
/home/asaf/devel/optee/optee_os/lib/libutee/tee_api.c:128
    34e0:	a9bf7bfd 	stp	x29, x30, [sp,#-16]!
    34e4:	910003fd 	mov	x29, sp
/home/asaf/devel/optee/optee_os/lib/libutee/tee_api.c:130
    34e8:	97fffd2d 	bl	299c <utee_close_ta_session>
/home/asaf/devel/optee/optee_os/lib/libutee/tee_api.c:132
    34ec:	34000060 	cbz	w0, 34f8 <TEE_CloseTASession+0x1c>
/home/asaf/devel/optee/optee_os/lib/libutee/tee_api.c:135
    34f0:	a8c17bfd 	ldp	x29, x30, [sp],#16
/home/asaf/devel/optee/optee_os/lib/libutee/tee_api.c:133
    34f4:	17fffc63 	b	2680 <TEE_Panic>
/home/asaf/devel/optee/optee_os/lib/libutee/tee_api.c:135
    34f8:	a8c17bfd 	ldp	x29, x30, [sp],#16
    34fc:	d65f03c0 	ret
    3500:	d65f03c0 	ret

0000000000003504 <TEE_InvokeTACommand>:
TEE_InvokeTACommand():
/home/asaf/devel/optee/optee_os/lib/libutee/tee_api.c:142
    3504:	a9b77bfd 	stp	x29, x30, [sp,#-144]!
    3508:	910003fd 	mov	x29, sp
    350c:	a90153f3 	stp	x19, x20, [sp,#16]
/home/asaf/devel/optee/optee_os/lib/libutee/tee_api.c:147
    3510:	910123b4 	add	x20, x29, #0x48
/home/asaf/devel/optee/optee_os/lib/libutee/tee_api.c:142
    3514:	a9025bf5 	stp	x21, x22, [sp,#32]
    3518:	aa0003f3 	mov	x19, x0
    351c:	a90363f7 	stp	x23, x24, [sp,#48]
    3520:	aa0403f6 	mov	x22, x4
    3524:	aa0503f5 	mov	x21, x5
    3528:	2a0103f7 	mov	w23, w1
    352c:	2a0203f8 	mov	w24, w2
/home/asaf/devel/optee/optee_os/lib/libutee/tee_api.c:147
    3530:	2a0303e1 	mov	w1, w3
    3534:	aa0403e2 	mov	x2, x4
    3538:	aa1403e0 	mov	x0, x20
    353c:	97ffff8b 	bl	3368 <__utee_from_param>
/home/asaf/devel/optee/optee_os/lib/libutee/tee_api.c:148
    3540:	910113a4 	add	x4, x29, #0x44
    3544:	aa1403e3 	mov	x3, x20
    3548:	2a1803e2 	mov	w2, w24
    354c:	2a1703e1 	mov	w1, w23
    3550:	aa1303e0 	mov	x0, x19
    3554:	97fffd15 	bl	29a8 <utee_invoke_ta_command>
/home/asaf/devel/optee/optee_os/lib/libutee/tee_api.c:151
    3558:	aa1403e2 	mov	x2, x20
/home/asaf/devel/optee/optee_os/lib/libutee/tee_api.c:148
    355c:	2a0003f3 	mov	w19, w0
/home/asaf/devel/optee/optee_os/lib/libutee/tee_api.c:151
    3560:	d2800001 	mov	x1, #0x0                   	// #0
    3564:	aa1603e0 	mov	x0, x22
    3568:	97ffff9e 	bl	33e0 <__utee_to_param>
    356c:	b94047a0 	ldr	w0, [x29,#68]
/home/asaf/devel/optee/optee_os/lib/libutee/tee_api.c:153
    3570:	b4000055 	cbz	x21, 3578 <TEE_InvokeTACommand+0x74>
/home/asaf/devel/optee/optee_os/lib/libutee/tee_api.c:154
    3574:	b90002a0 	str	w0, [x21]
/home/asaf/devel/optee/optee_os/lib/libutee/tee_api.c:156
    3578:	7100101f 	cmp	w0, #0x4
    357c:	54000120 	b.eq	35a0 <TEE_InvokeTACommand+0x9c>
/home/asaf/devel/optee/optee_os/lib/libutee/tee_api.c:160
    3580:	7100027f 	cmp	w19, #0x0
    3584:	129ffe60 	mov	w0, #0xffff000c            	// #-65524
    3588:	7a401264 	ccmp	w19, w0, #0x4, ne
    358c:	1299fb60 	mov	w0, #0xffff3024            	// #-53212
    3590:	7a401264 	ccmp	w19, w0, #0x4, ne
    3594:	54000060 	b.eq	35a0 <TEE_InvokeTACommand+0x9c>
/home/asaf/devel/optee/optee_os/lib/libutee/tee_api.c:162
    3598:	2a1303e0 	mov	w0, w19
    359c:	97fffc39 	bl	2680 <TEE_Panic>
/home/asaf/devel/optee/optee_os/lib/libutee/tee_api.c:165
    35a0:	2a1303e0 	mov	w0, w19
    35a4:	a94153f3 	ldp	x19, x20, [sp,#16]
    35a8:	a9425bf5 	ldp	x21, x22, [sp,#32]
    35ac:	a94363f7 	ldp	x23, x24, [sp,#48]
    35b0:	a8c97bfd 	ldp	x29, x30, [sp],#144
    35b4:	d65f03c0 	ret

00000000000035b8 <TEE_GetCancellationFlag>:
TEE_GetCancellationFlag():
/home/asaf/devel/optee/optee_os/lib/libutee/tee_api.c:170
    35b8:	a9be7bfd 	stp	x29, x30, [sp,#-32]!
    35bc:	910003fd 	mov	x29, sp
/home/asaf/devel/optee/optee_os/lib/libutee/tee_api.c:172
    35c0:	910073a0 	add	x0, x29, #0x1c
    35c4:	97fffcfc 	bl	29b4 <utee_get_cancellation_flag>
/home/asaf/devel/optee/optee_os/lib/libutee/tee_api.c:174
    35c8:	34000040 	cbz	w0, 35d0 <TEE_GetCancellationFlag+0x18>
/home/asaf/devel/optee/optee_os/lib/libutee/tee_api.c:175
    35cc:	b9001fbf 	str	wzr, [x29,#28]
/home/asaf/devel/optee/optee_os/lib/libutee/tee_api.c:176
    35d0:	b9401fa0 	ldr	w0, [x29,#28]
/home/asaf/devel/optee/optee_os/lib/libutee/tee_api.c:177
    35d4:	a8c27bfd 	ldp	x29, x30, [sp],#32
/home/asaf/devel/optee/optee_os/lib/libutee/tee_api.c:176
    35d8:	7100001f 	cmp	w0, #0x0
/home/asaf/devel/optee/optee_os/lib/libutee/tee_api.c:177
    35dc:	1a9f07e0 	cset	w0, ne
    35e0:	d65f03c0 	ret

00000000000035e4 <TEE_UnmaskCancellation>:
TEE_UnmaskCancellation():
/home/asaf/devel/optee/optee_os/lib/libutee/tee_api.c:180
    35e4:	a9be7bfd 	stp	x29, x30, [sp,#-32]!
    35e8:	910003fd 	mov	x29, sp
/home/asaf/devel/optee/optee_os/lib/libutee/tee_api.c:182
    35ec:	910073a0 	add	x0, x29, #0x1c
    35f0:	97fffcf7 	bl	29cc <utee_unmask_cancellation>
/home/asaf/devel/optee/optee_os/lib/libutee/tee_api.c:184
    35f4:	34000040 	cbz	w0, 35fc <TEE_UnmaskCancellation+0x18>
/home/asaf/devel/optee/optee_os/lib/libutee/tee_api.c:185
    35f8:	97fffc22 	bl	2680 <TEE_Panic>
/home/asaf/devel/optee/optee_os/lib/libutee/tee_api.c:186
    35fc:	b9401fa0 	ldr	w0, [x29,#28]
/home/asaf/devel/optee/optee_os/lib/libutee/tee_api.c:187
    3600:	a8c27bfd 	ldp	x29, x30, [sp],#32
/home/asaf/devel/optee/optee_os/lib/libutee/tee_api.c:186
    3604:	7100001f 	cmp	w0, #0x0
/home/asaf/devel/optee/optee_os/lib/libutee/tee_api.c:187
    3608:	1a9f07e0 	cset	w0, ne
    360c:	d65f03c0 	ret

0000000000003610 <TEE_MaskCancellation>:
TEE_MaskCancellation():
/home/asaf/devel/optee/optee_os/lib/libutee/tee_api.c:190
    3610:	a9be7bfd 	stp	x29, x30, [sp,#-32]!
    3614:	910003fd 	mov	x29, sp
/home/asaf/devel/optee/optee_os/lib/libutee/tee_api.c:192
    3618:	910073a0 	add	x0, x29, #0x1c
    361c:	97fffcef 	bl	29d8 <utee_mask_cancellation>
/home/asaf/devel/optee/optee_os/lib/libutee/tee_api.c:194
    3620:	34000040 	cbz	w0, 3628 <TEE_MaskCancellation+0x18>
/home/asaf/devel/optee/optee_os/lib/libutee/tee_api.c:195
    3624:	97fffc17 	bl	2680 <TEE_Panic>
/home/asaf/devel/optee/optee_os/lib/libutee/tee_api.c:196
    3628:	b9401fa0 	ldr	w0, [x29,#28]
/home/asaf/devel/optee/optee_os/lib/libutee/tee_api.c:197
    362c:	a8c27bfd 	ldp	x29, x30, [sp],#32
/home/asaf/devel/optee/optee_os/lib/libutee/tee_api.c:196
    3630:	7100001f 	cmp	w0, #0x0
/home/asaf/devel/optee/optee_os/lib/libutee/tee_api.c:197
    3634:	1a9f07e0 	cset	w0, ne
    3638:	d65f03c0 	ret

000000000000363c <TEE_CheckMemoryAccessRights>:
TEE_CheckMemoryAccessRights():
/home/asaf/devel/optee/optee_os/lib/libutee/tee_api.c:206
    363c:	34000062 	cbz	w2, 3648 <TEE_CheckMemoryAccessRights+0xc>
/home/asaf/devel/optee/optee_os/lib/libutee/tee_api.c:210
    3640:	2a0203e2 	mov	w2, w2
    3644:	17fffcdf 	b	29c0 <utee_check_access_rights>
/home/asaf/devel/optee/optee_os/lib/libutee/tee_api.c:222
    3648:	52800000 	mov	w0, #0x0                   	// #0
    364c:	d65f03c0 	ret

0000000000003650 <TEE_SetInstanceData>:
TEE_SetInstanceData():
/home/asaf/devel/optee/optee_os/lib/libutee/tee_api.c:226
    3650:	f0000081 	adrp	x1, 16000 <mempool_u32+0xe90>
    3654:	f9065820 	str	x0, [x1,#3248]
    3658:	d65f03c0 	ret

000000000000365c <TEE_GetInstanceData>:
TEE_GetInstanceData():
/home/asaf/devel/optee/optee_os/lib/libutee/tee_api.c:232
    365c:	f0000080 	adrp	x0, 16000 <mempool_u32+0xe90>
    3660:	f9465800 	ldr	x0, [x0,#3248]
    3664:	d65f03c0 	ret

0000000000003668 <TEE_MemMove>:
TEE_MemMove():
/home/asaf/devel/optee/optee_os/lib/libutee/tee_api.c:236
    3668:	2a0203e2 	mov	w2, w2
    366c:	140009ce 	b	5da4 <memmove>

0000000000003670 <TEE_MemCompare>:
TEE_MemCompare():
/home/asaf/devel/optee/optee_os/lib/libutee/tee_api.c:241
    3670:	2a0203e2 	mov	w2, w2
    3674:	140009b7 	b	5d50 <memcmp>

0000000000003678 <TEE_MemFill>:
TEE_MemFill():
/home/asaf/devel/optee/optee_os/lib/libutee/tee_api.c:246
    3678:	2a0203e2 	mov	w2, w2
    367c:	140009dd 	b	5df0 <memset>

0000000000003680 <TEE_GetSystemTime>:
TEE_GetSystemTime():
/home/asaf/devel/optee/optee_os/lib/libutee/tee_api.c:252
    3680:	a9bf7bfd 	stp	x29, x30, [sp,#-16]!
/home/asaf/devel/optee/optee_os/lib/libutee/tee_api.c:253
    3684:	aa0003e1 	mov	x1, x0
    3688:	d2800000 	mov	x0, #0x0                   	// #0
/home/asaf/devel/optee/optee_os/lib/libutee/tee_api.c:252
    368c:	910003fd 	mov	x29, sp
/home/asaf/devel/optee/optee_os/lib/libutee/tee_api.c:253
    3690:	97fffcd8 	bl	29f0 <utee_get_time>
/home/asaf/devel/optee/optee_os/lib/libutee/tee_api.c:255
    3694:	34000060 	cbz	w0, 36a0 <TEE_GetSystemTime+0x20>
/home/asaf/devel/optee/optee_os/lib/libutee/tee_api.c:257
    3698:	a8c17bfd 	ldp	x29, x30, [sp],#16
/home/asaf/devel/optee/optee_os/lib/libutee/tee_api.c:256
    369c:	17fffbf9 	b	2680 <TEE_Panic>
/home/asaf/devel/optee/optee_os/lib/libutee/tee_api.c:257
    36a0:	a8c17bfd 	ldp	x29, x30, [sp],#16
    36a4:	d65f03c0 	ret

00000000000036a8 <TEE_Wait>:
TEE_Wait():
/home/asaf/devel/optee/optee_os/lib/libutee/tee_api.c:260
    36a8:	a9be7bfd 	stp	x29, x30, [sp,#-32]!
/home/asaf/devel/optee/optee_os/lib/libutee/tee_api.c:261
    36ac:	2a0003e0 	mov	w0, w0
/home/asaf/devel/optee/optee_os/lib/libutee/tee_api.c:260
    36b0:	910003fd 	mov	x29, sp
    36b4:	f9000bf3 	str	x19, [sp,#16]
/home/asaf/devel/optee/optee_os/lib/libutee/tee_api.c:261
    36b8:	97fffccb 	bl	29e4 <utee_wait>
/home/asaf/devel/optee/optee_os/lib/libutee/tee_api.c:263
    36bc:	7100001f 	cmp	w0, #0x0
    36c0:	129fffa1 	mov	w1, #0xffff0002            	// #-65534
/home/asaf/devel/optee/optee_os/lib/libutee/tee_api.c:261
    36c4:	2a0003f3 	mov	w19, w0
/home/asaf/devel/optee/optee_os/lib/libutee/tee_api.c:263
    36c8:	7a411004 	ccmp	w0, w1, #0x4, ne
    36cc:	54000040 	b.eq	36d4 <TEE_Wait+0x2c>
/home/asaf/devel/optee/optee_os/lib/libutee/tee_api.c:264
    36d0:	97fffbec 	bl	2680 <TEE_Panic>
/home/asaf/devel/optee/optee_os/lib/libutee/tee_api.c:267
    36d4:	2a1303e0 	mov	w0, w19
    36d8:	f9400bf3 	ldr	x19, [sp,#16]
    36dc:	a8c27bfd 	ldp	x29, x30, [sp],#32
    36e0:	d65f03c0 	ret

00000000000036e4 <TEE_GetTAPersistentTime>:
TEE_GetTAPersistentTime():
/home/asaf/devel/optee/optee_os/lib/libutee/tee_api.c:270
    36e4:	a9be7bfd 	stp	x29, x30, [sp,#-32]!
/home/asaf/devel/optee/optee_os/lib/libutee/tee_api.c:273
    36e8:	aa0003e1 	mov	x1, x0
/home/asaf/devel/optee/optee_os/lib/libutee/tee_api.c:270
    36ec:	910003fd 	mov	x29, sp
    36f0:	a90153f3 	stp	x19, x20, [sp,#16]
    36f4:	aa0003f4 	mov	x20, x0
/home/asaf/devel/optee/optee_os/lib/libutee/tee_api.c:273
    36f8:	d2800020 	mov	x0, #0x1                   	// #1
    36fc:	97fffcbd 	bl	29f0 <utee_get_time>
/home/asaf/devel/optee/optee_os/lib/libutee/tee_api.c:275
    3700:	7100001f 	cmp	w0, #0x0
/home/asaf/devel/optee/optee_os/lib/libutee/tee_api.c:273
    3704:	2a0003f3 	mov	w19, w0
/home/asaf/devel/optee/optee_os/lib/libutee/tee_api.c:275
    3708:	1a9f07e1 	cset	w1, ne
    370c:	1299fe00 	mov	w0, #0xffff300f            	// #-53233
    3710:	6b00027f 	cmp	w19, w0
    3714:	1a9f07e0 	cset	w0, ne
    3718:	6a00003f 	tst	w1, w0
    371c:	54000040 	b.eq	3724 <TEE_GetTAPersistentTime+0x40>
/home/asaf/devel/optee/optee_os/lib/libutee/tee_api.c:277
    3720:	29007e9f 	stp	wzr, wzr, [x20]
/home/asaf/devel/optee/optee_os/lib/libutee/tee_api.c:281
    3724:	11402e62 	add	w2, w19, #0xb, lsl #12
    3728:	7100045f 	cmp	w2, #0x1
    372c:	1a9f97e2 	cset	w2, hi
/home/asaf/devel/optee/optee_os/lib/libutee/tee_api.c:280
    3730:	6a02003f 	tst	w1, w2
    3734:	54000100 	b.eq	3754 <TEE_GetTAPersistentTime+0x70>
/home/asaf/devel/optee/optee_os/lib/libutee/tee_api.c:283
    3738:	129ffe61 	mov	w1, #0xffff000c            	// #-65524
    373c:	6b01027f 	cmp	w19, w1
    3740:	1a9f07e1 	cset	w1, ne
    3744:	6a01001f 	tst	w0, w1
    3748:	54000060 	b.eq	3754 <TEE_GetTAPersistentTime+0x70>
/home/asaf/devel/optee/optee_os/lib/libutee/tee_api.c:285
    374c:	2a1303e0 	mov	w0, w19
    3750:	97fffbcc 	bl	2680 <TEE_Panic>
/home/asaf/devel/optee/optee_os/lib/libutee/tee_api.c:288
    3754:	2a1303e0 	mov	w0, w19
    3758:	a94153f3 	ldp	x19, x20, [sp,#16]
    375c:	a8c27bfd 	ldp	x29, x30, [sp],#32
    3760:	d65f03c0 	ret

0000000000003764 <TEE_SetTAPersistentTime>:
TEE_SetTAPersistentTime():
/home/asaf/devel/optee/optee_os/lib/libutee/tee_api.c:291
    3764:	a9be7bfd 	stp	x29, x30, [sp,#-32]!
    3768:	910003fd 	mov	x29, sp
    376c:	f9000bf3 	str	x19, [sp,#16]
/home/asaf/devel/optee/optee_os/lib/libutee/tee_api.c:294
    3770:	97fffca3 	bl	29fc <utee_set_ta_time>
/home/asaf/devel/optee/optee_os/lib/libutee/tee_api.c:297
    3774:	7100001f 	cmp	w0, #0x0
    3778:	129ffe61 	mov	w1, #0xffff000c            	// #-65524
    377c:	7a411004 	ccmp	w0, w1, #0x4, ne
/home/asaf/devel/optee/optee_os/lib/libutee/tee_api.c:294
    3780:	2a0003f3 	mov	w19, w0
/home/asaf/devel/optee/optee_os/lib/libutee/tee_api.c:297
    3784:	1299f7c1 	mov	w1, #0xffff3041            	// #-53183
    3788:	7a411004 	ccmp	w0, w1, #0x4, ne
    378c:	54000040 	b.eq	3794 <TEE_SetTAPersistentTime+0x30>
/home/asaf/devel/optee/optee_os/lib/libutee/tee_api.c:299
    3790:	97fffbbc 	bl	2680 <TEE_Panic>
/home/asaf/devel/optee/optee_os/lib/libutee/tee_api.c:302
    3794:	2a1303e0 	mov	w0, w19
    3798:	f9400bf3 	ldr	x19, [sp,#16]
    379c:	a8c27bfd 	ldp	x29, x30, [sp],#32
    37a0:	d65f03c0 	ret

00000000000037a4 <TEE_GetREETime>:
TEE_GetREETime():
/home/asaf/devel/optee/optee_os/lib/libutee/tee_api.c:305
    37a4:	a9bf7bfd 	stp	x29, x30, [sp,#-16]!
/home/asaf/devel/optee/optee_os/lib/libutee/tee_api.c:306
    37a8:	aa0003e1 	mov	x1, x0
    37ac:	d2800040 	mov	x0, #0x2                   	// #2
/home/asaf/devel/optee/optee_os/lib/libutee/tee_api.c:305
    37b0:	910003fd 	mov	x29, sp
/home/asaf/devel/optee/optee_os/lib/libutee/tee_api.c:306
    37b4:	97fffc8f 	bl	29f0 <utee_get_time>
/home/asaf/devel/optee/optee_os/lib/libutee/tee_api.c:308
    37b8:	34000060 	cbz	w0, 37c4 <TEE_GetREETime+0x20>
/home/asaf/devel/optee/optee_os/lib/libutee/tee_api.c:310
    37bc:	a8c17bfd 	ldp	x29, x30, [sp],#16
/home/asaf/devel/optee/optee_os/lib/libutee/tee_api.c:309
    37c0:	17fffbb0 	b	2680 <TEE_Panic>
/home/asaf/devel/optee/optee_os/lib/libutee/tee_api.c:310
    37c4:	a8c17bfd 	ldp	x29, x30, [sp],#16
    37c8:	d65f03c0 	ret

00000000000037cc <TEE_Malloc>:
TEE_Malloc():
/home/asaf/devel/optee/optee_os/lib/libutee/tee_api.c:314
    37cc:	2a0003e0 	mov	w0, w0
    37d0:	14000398 	b	4630 <tee_user_mem_alloc>

00000000000037d4 <TEE_Realloc>:
TEE_Realloc():
/home/asaf/devel/optee/optee_os/lib/libutee/tee_api.c:323
    37d4:	2a0103e1 	mov	w1, w1
    37d8:	1400043a 	b	48c0 <tee_user_mem_realloc>

00000000000037dc <TEE_Free>:
TEE_Free():
/home/asaf/devel/optee/optee_os/lib/libutee/tee_api.c:328
    37dc:	140003e8 	b	477c <tee_user_mem_free>

00000000000037e0 <TEE_CacheClean>:
TEE_CacheClean():
/home/asaf/devel/optee/optee_os/lib/libutee/tee_api.c:334
    37e0:	d2800002 	mov	x2, #0x0                   	// #0
    37e4:	17fffd2e 	b	2c9c <utee_cache_operation>

00000000000037e8 <TEE_CacheFlush>:
TEE_CacheFlush():
/home/asaf/devel/optee/optee_os/lib/libutee/tee_api.c:338
    37e8:	d2800022 	mov	x2, #0x1                   	// #1
    37ec:	17fffd2c 	b	2c9c <utee_cache_operation>

00000000000037f0 <TEE_CacheInvalidate>:
TEE_CacheInvalidate():
/home/asaf/devel/optee/optee_os/lib/libutee/tee_api.c:343
    37f0:	d2800042 	mov	x2, #0x2                   	// #2
    37f4:	17fffd2a 	b	2c9c <utee_cache_operation>

00000000000037f8 <__utee_from_attr>:
__utee_from_attr():
/home/asaf/devel/optee/optee_os/lib/libutee/tee_api_objects.c:41
    37f8:	52800303 	mov	w3, #0x18                  	// #24
    37fc:	9ba30442 	umaddl	x2, w2, w3, x1
/home/asaf/devel/optee/optee_os/lib/libutee/tee_api_objects.c:44 (discriminator 1)
    3800:	eb02003f 	cmp	x1, x2
    3804:	54000041 	b.ne	380c <__utee_from_attr+0x14>
/home/asaf/devel/optee/optee_os/lib/libutee/tee_api_objects.c:54
    3808:	d65f03c0 	ret
/home/asaf/devel/optee/optee_os/lib/libutee/tee_api_objects.c:45
    380c:	b9400023 	ldr	w3, [x1]
    3810:	b9001003 	str	w3, [x0,#16]
/home/asaf/devel/optee/optee_os/lib/libutee/tee_api_objects.c:46
    3814:	36e80103 	tbz	w3, #29, 3834 <__utee_from_attr+0x3c>
/home/asaf/devel/optee/optee_os/lib/libutee/tee_api_objects.c:47
    3818:	b9400823 	ldr	w3, [x1,#8]
    381c:	f9000003 	str	x3, [x0]
/home/asaf/devel/optee/optee_os/lib/libutee/tee_api_objects.c:48
    3820:	b9400c23 	ldr	w3, [x1,#12]
/home/asaf/devel/optee/optee_os/lib/libutee/tee_api_objects.c:51
    3824:	f9000403 	str	x3, [x0,#8]
    3828:	91006021 	add	x1, x1, #0x18
    382c:	91006000 	add	x0, x0, #0x18
    3830:	17fffff4 	b	3800 <__utee_from_attr+0x8>
/home/asaf/devel/optee/optee_os/lib/libutee/tee_api_objects.c:50
    3834:	f9400423 	ldr	x3, [x1,#8]
    3838:	f9000003 	str	x3, [x0]
/home/asaf/devel/optee/optee_os/lib/libutee/tee_api_objects.c:51
    383c:	b9401023 	ldr	w3, [x1,#16]
    3840:	17fffff9 	b	3824 <__utee_from_attr+0x2c>

0000000000003844 <TEE_GetObjectInfo>:
TEE_GetObjectInfo():
/home/asaf/devel/optee/optee_os/lib/libutee/tee_api_objects.c:64
    3844:	a9be7bfd 	stp	x29, x30, [sp,#-32]!
    3848:	910003fd 	mov	x29, sp
    384c:	f9000bf3 	str	x19, [sp,#16]
    3850:	aa0103f3 	mov	x19, x1
/home/asaf/devel/optee/optee_os/lib/libutee/tee_api_objects.c:67
    3854:	97fffc88 	bl	2a74 <utee_cryp_obj_get_info>
/home/asaf/devel/optee/optee_os/lib/libutee/tee_api_objects.c:69
    3858:	34000040 	cbz	w0, 3860 <TEE_GetObjectInfo+0x1c>
/home/asaf/devel/optee/optee_os/lib/libutee/tee_api_objects.c:70
    385c:	97fffb89 	bl	2680 <TEE_Panic>
/home/asaf/devel/optee/optee_os/lib/libutee/tee_api_objects.c:72
    3860:	b9400261 	ldr	w1, [x19]
    3864:	528017c0 	mov	w0, #0xbe                  	// #190
    3868:	72b40000 	movk	w0, #0xa000, lsl #16
    386c:	6b00003f 	cmp	w1, w0
    3870:	54000081 	b.ne	3880 <TEE_GetObjectInfo+0x3c>
/home/asaf/devel/optee/optee_os/lib/libutee/tee_api_objects.c:74
    3874:	2900fe7f 	stp	wzr, wzr, [x19,#4]
/home/asaf/devel/optee/optee_os/lib/libutee/tee_api_objects.c:76
    3878:	2901fe7f 	stp	wzr, wzr, [x19,#12]
/home/asaf/devel/optee/optee_os/lib/libutee/tee_api_objects.c:78
    387c:	2902fe7f 	stp	wzr, wzr, [x19,#20]
/home/asaf/devel/optee/optee_os/lib/libutee/tee_api_objects.c:80
    3880:	f9400bf3 	ldr	x19, [sp,#16]
    3884:	a8c27bfd 	ldp	x29, x30, [sp],#32
    3888:	d65f03c0 	ret

000000000000388c <TEE_GetObjectInfo1>:
TEE_GetObjectInfo1():
/home/asaf/devel/optee/optee_os/lib/libutee/tee_api_objects.c:83
    388c:	a9be7bfd 	stp	x29, x30, [sp,#-32]!
    3890:	910003fd 	mov	x29, sp
    3894:	f9000bf3 	str	x19, [sp,#16]
/home/asaf/devel/optee/optee_os/lib/libutee/tee_api_objects.c:86
    3898:	97fffc77 	bl	2a74 <utee_cryp_obj_get_info>
/home/asaf/devel/optee/optee_os/lib/libutee/tee_api_objects.c:89
    389c:	52800021 	mov	w1, #0x1                   	// #1
    38a0:	121e7802 	and	w2, w0, #0xfffffffd
    38a4:	7100001f 	cmp	w0, #0x0
    38a8:	72be0201 	movk	w1, #0xf010, lsl #16
/home/asaf/devel/optee/optee_os/lib/libutee/tee_api_objects.c:86
    38ac:	2a0003f3 	mov	w19, w0
/home/asaf/devel/optee/optee_os/lib/libutee/tee_api_objects.c:89
    38b0:	7a411044 	ccmp	w2, w1, #0x4, ne
    38b4:	54000040 	b.eq	38bc <TEE_GetObjectInfo1+0x30>
/home/asaf/devel/optee/optee_os/lib/libutee/tee_api_objects.c:91
    38b8:	97fffb72 	bl	2680 <TEE_Panic>
/home/asaf/devel/optee/optee_os/lib/libutee/tee_api_objects.c:94
    38bc:	2a1303e0 	mov	w0, w19
    38c0:	f9400bf3 	ldr	x19, [sp,#16]
    38c4:	a8c27bfd 	ldp	x29, x30, [sp],#32
    38c8:	d65f03c0 	ret

00000000000038cc <TEE_RestrictObjectUsage1>:
TEE_RestrictObjectUsage1():
/home/asaf/devel/optee/optee_os/lib/libutee/tee_api_objects.c:118
    38cc:	a9be7bfd 	stp	x29, x30, [sp,#-32]!
/home/asaf/devel/optee/optee_os/lib/libutee/tee_api_objects.c:121
    38d0:	2a0103e1 	mov	w1, w1
/home/asaf/devel/optee/optee_os/lib/libutee/tee_api_objects.c:118
    38d4:	910003fd 	mov	x29, sp
    38d8:	f9000bf3 	str	x19, [sp,#16]
/home/asaf/devel/optee/optee_os/lib/libutee/tee_api_objects.c:121
    38dc:	97fffc69 	bl	2a80 <utee_cryp_obj_restrict_usage>
/home/asaf/devel/optee/optee_os/lib/libutee/tee_api_objects.c:124
    38e0:	52800021 	mov	w1, #0x1                   	// #1
    38e4:	121e7802 	and	w2, w0, #0xfffffffd
    38e8:	7100001f 	cmp	w0, #0x0
    38ec:	72be0201 	movk	w1, #0xf010, lsl #16
/home/asaf/devel/optee/optee_os/lib/libutee/tee_api_objects.c:121
    38f0:	2a0003f3 	mov	w19, w0
/home/asaf/devel/optee/optee_os/lib/libutee/tee_api_objects.c:124
    38f4:	7a411044 	ccmp	w2, w1, #0x4, ne
    38f8:	54000040 	b.eq	3900 <TEE_RestrictObjectUsage1+0x34>
/home/asaf/devel/optee/optee_os/lib/libutee/tee_api_objects.c:126
    38fc:	97fffb61 	bl	2680 <TEE_Panic>
/home/asaf/devel/optee/optee_os/lib/libutee/tee_api_objects.c:129
    3900:	2a1303e0 	mov	w0, w19
    3904:	f9400bf3 	ldr	x19, [sp,#16]
    3908:	a8c27bfd 	ldp	x29, x30, [sp],#32
    390c:	d65f03c0 	ret

0000000000003910 <TEE_RestrictObjectUsage>:
TEE_RestrictObjectUsage():
/home/asaf/devel/optee/optee_os/lib/libutee/tee_api_objects.c:103
    3910:	a9bc7bfd 	stp	x29, x30, [sp,#-64]!
    3914:	910003fd 	mov	x29, sp
    3918:	a90153f3 	stp	x19, x20, [sp,#16]
    391c:	aa0003f3 	mov	x19, x0
    3920:	2a0103f4 	mov	w20, w1
/home/asaf/devel/optee/optee_os/lib/libutee/tee_api_objects.c:107
    3924:	910083a1 	add	x1, x29, #0x20
    3928:	97fffc53 	bl	2a74 <utee_cryp_obj_get_info>
/home/asaf/devel/optee/optee_os/lib/libutee/tee_api_objects.c:108
    392c:	b94023a1 	ldr	w1, [x29,#32]
    3930:	528017c0 	mov	w0, #0xbe                  	// #190
    3934:	72b40000 	movk	w0, #0xa000, lsl #16
    3938:	6b00003f 	cmp	w1, w0
    393c:	540000c0 	b.eq	3954 <TEE_RestrictObjectUsage+0x44>
/home/asaf/devel/optee/optee_os/lib/libutee/tee_api_objects.c:111
    3940:	2a1403e1 	mov	w1, w20
    3944:	aa1303e0 	mov	x0, x19
    3948:	97ffffe1 	bl	38cc <TEE_RestrictObjectUsage1>
/home/asaf/devel/optee/optee_os/lib/libutee/tee_api_objects.c:113
    394c:	34000040 	cbz	w0, 3954 <TEE_RestrictObjectUsage+0x44>
/home/asaf/devel/optee/optee_os/lib/libutee/tee_api_objects.c:114
    3950:	97fffb4c 	bl	2680 <TEE_Panic>
/home/asaf/devel/optee/optee_os/lib/libutee/tee_api_objects.c:115
    3954:	a94153f3 	ldp	x19, x20, [sp,#16]
    3958:	a8c47bfd 	ldp	x29, x30, [sp],#64
    395c:	d65f03c0 	ret

0000000000003960 <TEE_GetObjectBufferAttribute>:
TEE_GetObjectBufferAttribute():
/home/asaf/devel/optee/optee_os/lib/libutee/tee_api_objects.c:134
    3960:	a9b97bfd 	stp	x29, x30, [sp,#-112]!
    3964:	910003fd 	mov	x29, sp
    3968:	a90153f3 	stp	x19, x20, [sp,#16]
    396c:	aa0303f4 	mov	x20, x3
    3970:	a9025bf5 	stp	x21, x22, [sp,#32]
    3974:	aa0003f6 	mov	x22, x0
    3978:	f9001bf7 	str	x23, [sp,#48]
    397c:	2a0103f5 	mov	w21, w1
    3980:	aa0203f7 	mov	x23, x2
/home/asaf/devel/optee/optee_os/lib/libutee/tee_api_objects.c:139
    3984:	910143a1 	add	x1, x29, #0x50
    3988:	97fffc3b 	bl	2a74 <utee_cryp_obj_get_info>
    398c:	2a0003f3 	mov	w19, w0
/home/asaf/devel/optee/optee_os/lib/libutee/tee_api_objects.c:140
    3990:	350001a0 	cbnz	w0, 39c4 <TEE_GetObjectBufferAttribute+0x64>
/home/asaf/devel/optee/optee_os/lib/libutee/tee_api_objects.c:145
    3994:	129fff33 	mov	w19, #0xffff0006            	// #-65530
/home/asaf/devel/optee/optee_os/lib/libutee/tee_api_objects.c:144
    3998:	37e80175 	tbnz	w21, #29, 39c4 <TEE_GetObjectBufferAttribute+0x64>
/home/asaf/devel/optee/optee_os/lib/libutee/tee_api_objects.c:149
    399c:	9101c3a3 	add	x3, x29, #0x70
    39a0:	b9400280 	ldr	w0, [x20]
/home/asaf/devel/optee/optee_os/lib/libutee/tee_api_objects.c:150
    39a4:	aa1703e2 	mov	x2, x23
    39a8:	2a1503e1 	mov	w1, w21
/home/asaf/devel/optee/optee_os/lib/libutee/tee_api_objects.c:149
    39ac:	f81d8c60 	str	x0, [x3,#-40]!
/home/asaf/devel/optee/optee_os/lib/libutee/tee_api_objects.c:150
    39b0:	aa1603e0 	mov	x0, x22
    39b4:	97fffc36 	bl	2a8c <utee_cryp_obj_get_attr>
    39b8:	2a0003f3 	mov	w19, w0
/home/asaf/devel/optee/optee_os/lib/libutee/tee_api_objects.c:152
    39bc:	f94027a0 	ldr	x0, [x29,#72]
    39c0:	b9000280 	str	w0, [x20]
/home/asaf/devel/optee/optee_os/lib/libutee/tee_api_objects.c:156
    39c4:	529fff00 	mov	w0, #0xfff8                	// #65528
    39c8:	0b000260 	add	w0, w19, w0
/home/asaf/devel/optee/optee_os/lib/libutee/tee_api_objects.c:155
    39cc:	721c781f 	tst	w0, #0xfffffff7
    39d0:	7a401a64 	ccmp	w19, #0x0, #0x4, ne
    39d4:	54000100 	b.eq	39f4 <TEE_GetObjectBufferAttribute+0x94>
/home/asaf/devel/optee/optee_os/lib/libutee/tee_api_objects.c:158
    39d8:	121e7a61 	and	w1, w19, #0xfffffffd
    39dc:	52800020 	mov	w0, #0x1                   	// #1
    39e0:	72be0200 	movk	w0, #0xf010, lsl #16
    39e4:	6b00003f 	cmp	w1, w0
    39e8:	54000060 	b.eq	39f4 <TEE_GetObjectBufferAttribute+0x94>
/home/asaf/devel/optee/optee_os/lib/libutee/tee_api_objects.c:160
    39ec:	2a1303e0 	mov	w0, w19
    39f0:	97fffb24 	bl	2680 <TEE_Panic>
/home/asaf/devel/optee/optee_os/lib/libutee/tee_api_objects.c:163
    39f4:	2a1303e0 	mov	w0, w19
    39f8:	f9401bf7 	ldr	x23, [sp,#48]
    39fc:	a94153f3 	ldp	x19, x20, [sp,#16]
    3a00:	a9425bf5 	ldp	x21, x22, [sp,#32]
    3a04:	a8c77bfd 	ldp	x29, x30, [sp],#112
    3a08:	d65f03c0 	ret

0000000000003a0c <TEE_GetObjectValueAttribute>:
TEE_GetObjectValueAttribute():
/home/asaf/devel/optee/optee_os/lib/libutee/tee_api_objects.c:168
    3a0c:	a9b97bfd 	stp	x29, x30, [sp,#-112]!
    3a10:	910003fd 	mov	x29, sp
    3a14:	a9025bf5 	stp	x21, x22, [sp,#32]
    3a18:	2a0103f6 	mov	w22, w1
/home/asaf/devel/optee/optee_os/lib/libutee/tee_api_objects.c:172
    3a1c:	d2800101 	mov	x1, #0x8                   	// #8
/home/asaf/devel/optee/optee_os/lib/libutee/tee_api_objects.c:168
    3a20:	a90153f3 	stp	x19, x20, [sp,#16]
/home/asaf/devel/optee/optee_os/lib/libutee/tee_api_objects.c:172
    3a24:	f90027a1 	str	x1, [x29,#72]
/home/asaf/devel/optee/optee_os/lib/libutee/tee_api_objects.c:168
    3a28:	aa0203f5 	mov	x21, x2
    3a2c:	f9001bf7 	str	x23, [sp,#48]
    3a30:	aa0303f4 	mov	x20, x3
/home/asaf/devel/optee/optee_os/lib/libutee/tee_api_objects.c:174
    3a34:	910143a1 	add	x1, x29, #0x50
/home/asaf/devel/optee/optee_os/lib/libutee/tee_api_objects.c:168
    3a38:	aa0003f7 	mov	x23, x0
/home/asaf/devel/optee/optee_os/lib/libutee/tee_api_objects.c:174
    3a3c:	97fffc0e 	bl	2a74 <utee_cryp_obj_get_info>
    3a40:	2a0003f3 	mov	w19, w0
/home/asaf/devel/optee/optee_os/lib/libutee/tee_api_objects.c:175
    3a44:	35000120 	cbnz	w0, 3a68 <TEE_GetObjectValueAttribute+0x5c>
/home/asaf/devel/optee/optee_os/lib/libutee/tee_api_objects.c:180
    3a48:	129fff33 	mov	w19, #0xffff0006            	// #-65530
/home/asaf/devel/optee/optee_os/lib/libutee/tee_api_objects.c:179
    3a4c:	36e800f6 	tbz	w22, #29, 3a68 <TEE_GetObjectValueAttribute+0x5c>
/home/asaf/devel/optee/optee_os/lib/libutee/tee_api_objects.c:184
    3a50:	910123a3 	add	x3, x29, #0x48
    3a54:	910103a2 	add	x2, x29, #0x40
    3a58:	2a1603e1 	mov	w1, w22
    3a5c:	aa1703e0 	mov	x0, x23
    3a60:	97fffc0b 	bl	2a8c <utee_cryp_obj_get_attr>
    3a64:	2a0003f3 	mov	w19, w0
/home/asaf/devel/optee/optee_os/lib/libutee/tee_api_objects.c:188
    3a68:	7100027f 	cmp	w19, #0x0
    3a6c:	129ffee0 	mov	w0, #0xffff0008            	// #-65528
    3a70:	7a401264 	ccmp	w19, w0, #0x4, ne
    3a74:	54000100 	b.eq	3a94 <TEE_GetObjectValueAttribute+0x88>
/home/asaf/devel/optee/optee_os/lib/libutee/tee_api_objects.c:190
    3a78:	121e7a61 	and	w1, w19, #0xfffffffd
    3a7c:	52800020 	mov	w0, #0x1                   	// #1
    3a80:	72be0200 	movk	w0, #0xf010, lsl #16
    3a84:	6b00003f 	cmp	w1, w0
    3a88:	54000060 	b.eq	3a94 <TEE_GetObjectValueAttribute+0x88>
/home/asaf/devel/optee/optee_os/lib/libutee/tee_api_objects.c:192
    3a8c:	2a1303e0 	mov	w0, w19
    3a90:	97fffafc 	bl	2680 <TEE_Panic>
/home/asaf/devel/optee/optee_os/lib/libutee/tee_api_objects.c:194
    3a94:	f94027a0 	ldr	x0, [x29,#72]
    3a98:	f100201f 	cmp	x0, #0x8
    3a9c:	54000060 	b.eq	3aa8 <TEE_GetObjectValueAttribute+0x9c>
/home/asaf/devel/optee/optee_os/lib/libutee/tee_api_objects.c:195
    3aa0:	52800000 	mov	w0, #0x0                   	// #0
    3aa4:	97fffaf7 	bl	2680 <TEE_Panic>
/home/asaf/devel/optee/optee_os/lib/libutee/tee_api_objects.c:197
    3aa8:	350000f3 	cbnz	w19, 3ac4 <TEE_GetObjectValueAttribute+0xb8>
/home/asaf/devel/optee/optee_os/lib/libutee/tee_api_objects.c:198
    3aac:	b4000075 	cbz	x21, 3ab8 <TEE_GetObjectValueAttribute+0xac>
/home/asaf/devel/optee/optee_os/lib/libutee/tee_api_objects.c:199
    3ab0:	b94043a0 	ldr	w0, [x29,#64]
    3ab4:	b90002a0 	str	w0, [x21]
/home/asaf/devel/optee/optee_os/lib/libutee/tee_api_objects.c:200
    3ab8:	b4000074 	cbz	x20, 3ac4 <TEE_GetObjectValueAttribute+0xb8>
/home/asaf/devel/optee/optee_os/lib/libutee/tee_api_objects.c:201
    3abc:	b94047a0 	ldr	w0, [x29,#68]
    3ac0:	b9000280 	str	w0, [x20]
/home/asaf/devel/optee/optee_os/lib/libutee/tee_api_objects.c:205
    3ac4:	2a1303e0 	mov	w0, w19
    3ac8:	f9401bf7 	ldr	x23, [sp,#48]
    3acc:	a94153f3 	ldp	x19, x20, [sp,#16]
    3ad0:	a9425bf5 	ldp	x21, x22, [sp,#32]
    3ad4:	a8c77bfd 	ldp	x29, x30, [sp],#112
    3ad8:	d65f03c0 	ret

0000000000003adc <TEE_CloseObject>:
TEE_CloseObject():
/home/asaf/devel/optee/optee_os/lib/libutee/tee_api_objects.c:211
    3adc:	b4000120 	cbz	x0, 3b00 <TEE_CloseObject+0x24>
/home/asaf/devel/optee/optee_os/lib/libutee/tee_api_objects.c:208
    3ae0:	a9bf7bfd 	stp	x29, x30, [sp,#-16]!
    3ae4:	910003fd 	mov	x29, sp
/home/asaf/devel/optee/optee_os/lib/libutee/tee_api_objects.c:214
    3ae8:	97fffbef 	bl	2aa4 <utee_cryp_obj_close>
/home/asaf/devel/optee/optee_os/lib/libutee/tee_api_objects.c:215
    3aec:	34000060 	cbz	w0, 3af8 <TEE_CloseObject+0x1c>
/home/asaf/devel/optee/optee_os/lib/libutee/tee_api_objects.c:217
    3af0:	a8c17bfd 	ldp	x29, x30, [sp],#16
/home/asaf/devel/optee/optee_os/lib/libutee/tee_api_objects.c:216
    3af4:	17fffae3 	b	2680 <TEE_Panic>
/home/asaf/devel/optee/optee_os/lib/libutee/tee_api_objects.c:217
    3af8:	a8c17bfd 	ldp	x29, x30, [sp],#16
    3afc:	d65f03c0 	ret
    3b00:	d65f03c0 	ret

0000000000003b04 <TEE_AllocateTransientObject>:
TEE_AllocateTransientObject():
/home/asaf/devel/optee/optee_os/lib/libutee/tee_api_objects.c:224
    3b04:	a9bd7bfd 	stp	x29, x30, [sp,#-48]!
/home/asaf/devel/optee/optee_os/lib/libutee/tee_api_objects.c:228
    3b08:	2a0103e1 	mov	w1, w1
    3b0c:	2a0003e0 	mov	w0, w0
/home/asaf/devel/optee/optee_os/lib/libutee/tee_api_objects.c:224
    3b10:	910003fd 	mov	x29, sp
    3b14:	a90153f3 	stp	x19, x20, [sp,#16]
    3b18:	aa0203f4 	mov	x20, x2
/home/asaf/devel/optee/optee_os/lib/libutee/tee_api_objects.c:228
    3b1c:	9100b3a2 	add	x2, x29, #0x2c
    3b20:	97fffbde 	bl	2a98 <utee_cryp_obj_alloc>
/home/asaf/devel/optee/optee_os/lib/libutee/tee_api_objects.c:230
    3b24:	7100001f 	cmp	w0, #0x0
    3b28:	129ffe61 	mov	w1, #0xffff000c            	// #-65524
/home/asaf/devel/optee/optee_os/lib/libutee/tee_api_objects.c:228
    3b2c:	2a0003f3 	mov	w19, w0
/home/asaf/devel/optee/optee_os/lib/libutee/tee_api_objects.c:230
    3b30:	7a411004 	ccmp	w0, w1, #0x4, ne
    3b34:	54000120 	b.eq	3b58 <TEE_AllocateTransientObject+0x54>
/home/asaf/devel/optee/optee_os/lib/libutee/tee_api_objects.c:231
    3b38:	129ffea1 	mov	w1, #0xffff000a            	// #-65526
    3b3c:	6b01001f 	cmp	w0, w1
    3b40:	54000040 	b.eq	3b48 <TEE_AllocateTransientObject+0x44>
/home/asaf/devel/optee/optee_os/lib/libutee/tee_api_objects.c:233
    3b44:	97fffacf 	bl	2680 <TEE_Panic>
/home/asaf/devel/optee/optee_os/lib/libutee/tee_api_objects.c:239
    3b48:	2a1303e0 	mov	w0, w19
    3b4c:	a94153f3 	ldp	x19, x20, [sp,#16]
    3b50:	a8c37bfd 	ldp	x29, x30, [sp],#48
    3b54:	d65f03c0 	ret
/home/asaf/devel/optee/optee_os/lib/libutee/tee_api_objects.c:235
    3b58:	35ffff80 	cbnz	w0, 3b48 <TEE_AllocateTransientObject+0x44>
/home/asaf/devel/optee/optee_os/lib/libutee/tee_api_objects.c:236
    3b5c:	b9402fa0 	ldr	w0, [x29,#44]
    3b60:	f9000280 	str	x0, [x20]
/home/asaf/devel/optee/optee_os/lib/libutee/tee_api_objects.c:238
    3b64:	17fffff9 	b	3b48 <TEE_AllocateTransientObject+0x44>

0000000000003b68 <TEE_FreeTransientObject>:
TEE_FreeTransientObject():
/home/asaf/devel/optee/optee_os/lib/libutee/tee_api_objects.c:246
    3b68:	b4000280 	cbz	x0, 3bb8 <TEE_FreeTransientObject+0x50>
/home/asaf/devel/optee/optee_os/lib/libutee/tee_api_objects.c:242
    3b6c:	a9bc7bfd 	stp	x29, x30, [sp,#-64]!
    3b70:	910003fd 	mov	x29, sp
    3b74:	f9000bf3 	str	x19, [sp,#16]
/home/asaf/devel/optee/optee_os/lib/libutee/tee_api_objects.c:249
    3b78:	910083a1 	add	x1, x29, #0x20
    3b7c:	aa0003f3 	mov	x19, x0
    3b80:	97fffbbd 	bl	2a74 <utee_cryp_obj_get_info>
/home/asaf/devel/optee/optee_os/lib/libutee/tee_api_objects.c:250
    3b84:	34000040 	cbz	w0, 3b8c <TEE_FreeTransientObject+0x24>
/home/asaf/devel/optee/optee_os/lib/libutee/tee_api_objects.c:251
    3b88:	97fffabe 	bl	2680 <TEE_Panic>
/home/asaf/devel/optee/optee_os/lib/libutee/tee_api_objects.c:253
    3b8c:	b9403ba0 	ldr	w0, [x29,#56]
    3b90:	36800060 	tbz	w0, #16, 3b9c <TEE_FreeTransientObject+0x34>
/home/asaf/devel/optee/optee_os/lib/libutee/tee_api_objects.c:254
    3b94:	52800000 	mov	w0, #0x0                   	// #0
    3b98:	97fffaba 	bl	2680 <TEE_Panic>
/home/asaf/devel/optee/optee_os/lib/libutee/tee_api_objects.c:256
    3b9c:	aa1303e0 	mov	x0, x19
    3ba0:	97fffbc1 	bl	2aa4 <utee_cryp_obj_close>
/home/asaf/devel/optee/optee_os/lib/libutee/tee_api_objects.c:257
    3ba4:	34000040 	cbz	w0, 3bac <TEE_FreeTransientObject+0x44>
/home/asaf/devel/optee/optee_os/lib/libutee/tee_api_objects.c:258
    3ba8:	97fffab6 	bl	2680 <TEE_Panic>
/home/asaf/devel/optee/optee_os/lib/libutee/tee_api_objects.c:259
    3bac:	f9400bf3 	ldr	x19, [sp,#16]
    3bb0:	a8c47bfd 	ldp	x29, x30, [sp],#64
    3bb4:	d65f03c0 	ret
    3bb8:	d65f03c0 	ret

0000000000003bbc <TEE_ResetTransientObject>:
TEE_ResetTransientObject():
/home/asaf/devel/optee/optee_os/lib/libutee/tee_api_objects.c:266
    3bbc:	b4000280 	cbz	x0, 3c0c <TEE_ResetTransientObject+0x50>
/home/asaf/devel/optee/optee_os/lib/libutee/tee_api_objects.c:262
    3bc0:	a9bc7bfd 	stp	x29, x30, [sp,#-64]!
    3bc4:	910003fd 	mov	x29, sp
    3bc8:	f9000bf3 	str	x19, [sp,#16]
/home/asaf/devel/optee/optee_os/lib/libutee/tee_api_objects.c:269
    3bcc:	910083a1 	add	x1, x29, #0x20
    3bd0:	aa0003f3 	mov	x19, x0
    3bd4:	97fffba8 	bl	2a74 <utee_cryp_obj_get_info>
/home/asaf/devel/optee/optee_os/lib/libutee/tee_api_objects.c:270
    3bd8:	34000040 	cbz	w0, 3be0 <TEE_ResetTransientObject+0x24>
/home/asaf/devel/optee/optee_os/lib/libutee/tee_api_objects.c:271
    3bdc:	97fffaa9 	bl	2680 <TEE_Panic>
/home/asaf/devel/optee/optee_os/lib/libutee/tee_api_objects.c:273
    3be0:	b9403ba0 	ldr	w0, [x29,#56]
    3be4:	36800060 	tbz	w0, #16, 3bf0 <TEE_ResetTransientObject+0x34>
/home/asaf/devel/optee/optee_os/lib/libutee/tee_api_objects.c:274
    3be8:	52800000 	mov	w0, #0x0                   	// #0
    3bec:	97fffaa5 	bl	2680 <TEE_Panic>
/home/asaf/devel/optee/optee_os/lib/libutee/tee_api_objects.c:276
    3bf0:	aa1303e0 	mov	x0, x19
    3bf4:	97fffbaf 	bl	2ab0 <utee_cryp_obj_reset>
/home/asaf/devel/optee/optee_os/lib/libutee/tee_api_objects.c:277
    3bf8:	34000040 	cbz	w0, 3c00 <TEE_ResetTransientObject+0x44>
/home/asaf/devel/optee/optee_os/lib/libutee/tee_api_objects.c:278
    3bfc:	97fffaa1 	bl	2680 <TEE_Panic>
/home/asaf/devel/optee/optee_os/lib/libutee/tee_api_objects.c:279
    3c00:	f9400bf3 	ldr	x19, [sp,#16]
    3c04:	a8c47bfd 	ldp	x29, x30, [sp],#64
    3c08:	d65f03c0 	ret
    3c0c:	d65f03c0 	ret

0000000000003c10 <TEE_PopulateTransientObject>:
TEE_PopulateTransientObject():
/home/asaf/devel/optee/optee_os/lib/libutee/tee_api_objects.c:284
    3c10:	a9ba7bfd 	stp	x29, x30, [sp,#-96]!
    3c14:	910003fd 	mov	x29, sp
    3c18:	a9025bf5 	stp	x21, x22, [sp,#32]
    3c1c:	2a0203f6 	mov	w22, w2
    3c20:	f9001bf7 	str	x23, [sp,#48]
    3c24:	aa0103f7 	mov	x23, x1
/home/asaf/devel/optee/optee_os/lib/libutee/tee_api_objects.c:287
    3c28:	52800301 	mov	w1, #0x18                  	// #24
/home/asaf/devel/optee/optee_os/lib/libutee/tee_api_objects.c:284
    3c2c:	a90153f3 	stp	x19, x20, [sp,#16]
    3c30:	aa0003f5 	mov	x21, x0
    3c34:	aa1603f3 	mov	x19, x22
/home/asaf/devel/optee/optee_os/lib/libutee/tee_api_objects.c:287
    3c38:	9ba17ec1 	umull	x1, w22, w1
    3c3c:	91005821 	add	x1, x1, #0x16
    3c40:	927c8421 	and	x1, x1, #0x3ffffffff0
    3c44:	cb2163ff 	sub	sp, sp, x1
/home/asaf/devel/optee/optee_os/lib/libutee/tee_api_objects.c:289
    3c48:	910103a1 	add	x1, x29, #0x40
/home/asaf/devel/optee/optee_os/lib/libutee/tee_api_objects.c:287
    3c4c:	910003f4 	mov	x20, sp
/home/asaf/devel/optee/optee_os/lib/libutee/tee_api_objects.c:289
    3c50:	97fffb89 	bl	2a74 <utee_cryp_obj_get_info>
/home/asaf/devel/optee/optee_os/lib/libutee/tee_api_objects.c:290
    3c54:	34000040 	cbz	w0, 3c5c <TEE_PopulateTransientObject+0x4c>
/home/asaf/devel/optee/optee_os/lib/libutee/tee_api_objects.c:291
    3c58:	97fffa8a 	bl	2680 <TEE_Panic>
/home/asaf/devel/optee/optee_os/lib/libutee/tee_api_objects.c:294
    3c5c:	b9405ba0 	ldr	w0, [x29,#88]
    3c60:	36800060 	tbz	w0, #16, 3c6c <TEE_PopulateTransientObject+0x5c>
/home/asaf/devel/optee/optee_os/lib/libutee/tee_api_objects.c:295
    3c64:	52800000 	mov	w0, #0x0                   	// #0
    3c68:	97fffa86 	bl	2680 <TEE_Panic>
/home/asaf/devel/optee/optee_os/lib/libutee/tee_api_objects.c:298
    3c6c:	b9405ba0 	ldr	w0, [x29,#88]
    3c70:	36880060 	tbz	w0, #17, 3c7c <TEE_PopulateTransientObject+0x6c>
/home/asaf/devel/optee/optee_os/lib/libutee/tee_api_objects.c:299
    3c74:	52800000 	mov	w0, #0x0                   	// #0
    3c78:	97fffa82 	bl	2680 <TEE_Panic>
/home/asaf/devel/optee/optee_os/lib/libutee/tee_api_objects.c:301
    3c7c:	2a1303e2 	mov	w2, w19
    3c80:	aa1703e1 	mov	x1, x23
    3c84:	aa1403e0 	mov	x0, x20
    3c88:	97fffedc 	bl	37f8 <__utee_from_attr>
/home/asaf/devel/optee/optee_os/lib/libutee/tee_api_objects.c:302
    3c8c:	aa1403e1 	mov	x1, x20
    3c90:	aa1603e2 	mov	x2, x22
    3c94:	aa1503e0 	mov	x0, x21
    3c98:	97fffb89 	bl	2abc <utee_cryp_obj_populate>
/home/asaf/devel/optee/optee_os/lib/libutee/tee_api_objects.c:303
    3c9c:	7100001f 	cmp	w0, #0x0
    3ca0:	129fff21 	mov	w1, #0xffff0006            	// #-65530
/home/asaf/devel/optee/optee_os/lib/libutee/tee_api_objects.c:302
    3ca4:	2a0003f3 	mov	w19, w0
/home/asaf/devel/optee/optee_os/lib/libutee/tee_api_objects.c:303
    3ca8:	7a411004 	ccmp	w0, w1, #0x4, ne
    3cac:	54000040 	b.eq	3cb4 <TEE_PopulateTransientObject+0xa4>
/home/asaf/devel/optee/optee_os/lib/libutee/tee_api_objects.c:304
    3cb0:	97fffa74 	bl	2680 <TEE_Panic>
/home/asaf/devel/optee/optee_os/lib/libutee/tee_api_objects.c:306
    3cb4:	910003bf 	mov	sp, x29
    3cb8:	2a1303e0 	mov	w0, w19
    3cbc:	f9401bf7 	ldr	x23, [sp,#48]
    3cc0:	a94153f3 	ldp	x19, x20, [sp,#16]
    3cc4:	a9425bf5 	ldp	x21, x22, [sp,#32]
    3cc8:	a8c67bfd 	ldp	x29, x30, [sp],#96
    3ccc:	d65f03c0 	ret

0000000000003cd0 <TEE_InitRefAttribute>:
TEE_InitRefAttribute():
/home/asaf/devel/optee/optee_os/lib/libutee/tee_api_objects.c:310
    3cd0:	a9bd7bfd 	stp	x29, x30, [sp,#-48]!
    3cd4:	910003fd 	mov	x29, sp
    3cd8:	a90153f3 	stp	x19, x20, [sp,#16]
    3cdc:	aa0003f3 	mov	x19, x0
    3ce0:	a9025bf5 	stp	x21, x22, [sp,#32]
    3ce4:	2a0103f4 	mov	w20, w1
    3ce8:	aa0203f6 	mov	x22, x2
    3cec:	2a0303f5 	mov	w21, w3
/home/asaf/devel/optee/optee_os/lib/libutee/tee_api_objects.c:311
    3cf0:	b5000060 	cbnz	x0, 3cfc <TEE_InitRefAttribute+0x2c>
/home/asaf/devel/optee/optee_os/lib/libutee/tee_api_objects.c:312
    3cf4:	52800000 	mov	w0, #0x0                   	// #0
    3cf8:	97fffa62 	bl	2680 <TEE_Panic>
/home/asaf/devel/optee/optee_os/lib/libutee/tee_api_objects.c:313
    3cfc:	36e80074 	tbz	w20, #29, 3d08 <TEE_InitRefAttribute+0x38>
/home/asaf/devel/optee/optee_os/lib/libutee/tee_api_objects.c:314
    3d00:	52800000 	mov	w0, #0x0                   	// #0
    3d04:	97fffa5f 	bl	2680 <TEE_Panic>
/home/asaf/devel/optee/optee_os/lib/libutee/tee_api_objects.c:316
    3d08:	f9000676 	str	x22, [x19,#8]
/home/asaf/devel/optee/optee_os/lib/libutee/tee_api_objects.c:317
    3d0c:	b9001275 	str	w21, [x19,#16]
/home/asaf/devel/optee/optee_os/lib/libutee/tee_api_objects.c:315
    3d10:	b9000274 	str	w20, [x19]
/home/asaf/devel/optee/optee_os/lib/libutee/tee_api_objects.c:318
    3d14:	a9425bf5 	ldp	x21, x22, [sp,#32]
    3d18:	a94153f3 	ldp	x19, x20, [sp,#16]
    3d1c:	a8c37bfd 	ldp	x29, x30, [sp],#48
    3d20:	d65f03c0 	ret

0000000000003d24 <TEE_InitValueAttribute>:
TEE_InitValueAttribute():
/home/asaf/devel/optee/optee_os/lib/libutee/tee_api_objects.c:322
    3d24:	a9bd7bfd 	stp	x29, x30, [sp,#-48]!
    3d28:	910003fd 	mov	x29, sp
    3d2c:	a90153f3 	stp	x19, x20, [sp,#16]
    3d30:	aa0003f3 	mov	x19, x0
    3d34:	a9025bf5 	stp	x21, x22, [sp,#32]
    3d38:	2a0103f4 	mov	w20, w1
    3d3c:	2a0203f6 	mov	w22, w2
    3d40:	2a0303f5 	mov	w21, w3
/home/asaf/devel/optee/optee_os/lib/libutee/tee_api_objects.c:323
    3d44:	b5000060 	cbnz	x0, 3d50 <TEE_InitValueAttribute+0x2c>
/home/asaf/devel/optee/optee_os/lib/libutee/tee_api_objects.c:324
    3d48:	52800000 	mov	w0, #0x0                   	// #0
    3d4c:	97fffa4d 	bl	2680 <TEE_Panic>
/home/asaf/devel/optee/optee_os/lib/libutee/tee_api_objects.c:325
    3d50:	37e80074 	tbnz	w20, #29, 3d5c <TEE_InitValueAttribute+0x38>
/home/asaf/devel/optee/optee_os/lib/libutee/tee_api_objects.c:326
    3d54:	52800000 	mov	w0, #0x0                   	// #0
    3d58:	97fffa4a 	bl	2680 <TEE_Panic>
/home/asaf/devel/optee/optee_os/lib/libutee/tee_api_objects.c:329
    3d5c:	29015676 	stp	w22, w21, [x19,#8]
/home/asaf/devel/optee/optee_os/lib/libutee/tee_api_objects.c:327
    3d60:	b9000274 	str	w20, [x19]
/home/asaf/devel/optee/optee_os/lib/libutee/tee_api_objects.c:330
    3d64:	a9425bf5 	ldp	x21, x22, [sp,#32]
    3d68:	a94153f3 	ldp	x19, x20, [sp,#16]
    3d6c:	a8c37bfd 	ldp	x29, x30, [sp],#48
    3d70:	d65f03c0 	ret

0000000000003d74 <TEE_CopyObjectAttributes1>:
TEE_CopyObjectAttributes1():
/home/asaf/devel/optee/optee_os/lib/libutee/tee_api_objects.c:355
    3d74:	a9b97bfd 	stp	x29, x30, [sp,#-112]!
    3d78:	910003fd 	mov	x29, sp
    3d7c:	a90153f3 	stp	x19, x20, [sp,#16]
    3d80:	aa0103f4 	mov	x20, x1
    3d84:	f90013f5 	str	x21, [sp,#32]
/home/asaf/devel/optee/optee_os/lib/libutee/tee_api_objects.c:360
    3d88:	9100c3a1 	add	x1, x29, #0x30
/home/asaf/devel/optee/optee_os/lib/libutee/tee_api_objects.c:355
    3d8c:	aa0003f5 	mov	x21, x0
/home/asaf/devel/optee/optee_os/lib/libutee/tee_api_objects.c:360
    3d90:	97fffb39 	bl	2a74 <utee_cryp_obj_get_info>
    3d94:	2a0003f3 	mov	w19, w0
/home/asaf/devel/optee/optee_os/lib/libutee/tee_api_objects.c:361
    3d98:	350002a0 	cbnz	w0, 3dec <TEE_CopyObjectAttributes1+0x78>
/home/asaf/devel/optee/optee_os/lib/libutee/tee_api_objects.c:364
    3d9c:	910143a1 	add	x1, x29, #0x50
    3da0:	aa1403e0 	mov	x0, x20
    3da4:	97fffb34 	bl	2a74 <utee_cryp_obj_get_info>
    3da8:	2a0003f3 	mov	w19, w0
/home/asaf/devel/optee/optee_os/lib/libutee/tee_api_objects.c:365
    3dac:	35000200 	cbnz	w0, 3dec <TEE_CopyObjectAttributes1+0x78>
/home/asaf/devel/optee/optee_os/lib/libutee/tee_api_objects.c:368
    3db0:	b9406ba1 	ldr	w1, [x29,#104]
    3db4:	37880041 	tbnz	w1, #17, 3dbc <TEE_CopyObjectAttributes1+0x48>
/home/asaf/devel/optee/optee_os/lib/libutee/tee_api_objects.c:369
    3db8:	97fffa32 	bl	2680 <TEE_Panic>
/home/asaf/devel/optee/optee_os/lib/libutee/tee_api_objects.c:371
    3dbc:	b9404ba0 	ldr	w0, [x29,#72]
    3dc0:	36800060 	tbz	w0, #16, 3dcc <TEE_CopyObjectAttributes1+0x58>
/home/asaf/devel/optee/optee_os/lib/libutee/tee_api_objects.c:372
    3dc4:	52800000 	mov	w0, #0x0                   	// #0
    3dc8:	97fffa2e 	bl	2680 <TEE_Panic>
/home/asaf/devel/optee/optee_os/lib/libutee/tee_api_objects.c:374
    3dcc:	b9404ba0 	ldr	w0, [x29,#72]
    3dd0:	36880060 	tbz	w0, #17, 3ddc <TEE_CopyObjectAttributes1+0x68>
/home/asaf/devel/optee/optee_os/lib/libutee/tee_api_objects.c:375
    3dd4:	52800000 	mov	w0, #0x0                   	// #0
    3dd8:	97fffa2a 	bl	2680 <TEE_Panic>
/home/asaf/devel/optee/optee_os/lib/libutee/tee_api_objects.c:377
    3ddc:	aa1403e1 	mov	x1, x20
    3de0:	aa1503e0 	mov	x0, x21
    3de4:	97fffb39 	bl	2ac8 <utee_cryp_obj_copy>
    3de8:	2a0003f3 	mov	w19, w0
/home/asaf/devel/optee/optee_os/lib/libutee/tee_api_objects.c:382
    3dec:	121e7a60 	and	w0, w19, #0xfffffffd
    3df0:	7100027f 	cmp	w19, #0x0
    3df4:	52800021 	mov	w1, #0x1                   	// #1
    3df8:	72be0201 	movk	w1, #0xf010, lsl #16
    3dfc:	7a411004 	ccmp	w0, w1, #0x4, ne
    3e00:	54000060 	b.eq	3e0c <TEE_CopyObjectAttributes1+0x98>
/home/asaf/devel/optee/optee_os/lib/libutee/tee_api_objects.c:384
    3e04:	2a1303e0 	mov	w0, w19
    3e08:	97fffa1e 	bl	2680 <TEE_Panic>
/home/asaf/devel/optee/optee_os/lib/libutee/tee_api_objects.c:387
    3e0c:	2a1303e0 	mov	w0, w19
    3e10:	f94013f5 	ldr	x21, [sp,#32]
    3e14:	a94153f3 	ldp	x19, x20, [sp,#16]
    3e18:	a8c77bfd 	ldp	x29, x30, [sp],#112
    3e1c:	d65f03c0 	ret

0000000000003e20 <TEE_CopyObjectAttributes>:
TEE_CopyObjectAttributes():
/home/asaf/devel/optee/optee_os/lib/libutee/tee_api_objects.c:340
    3e20:	a9bc7bfd 	stp	x29, x30, [sp,#-64]!
    3e24:	910003fd 	mov	x29, sp
    3e28:	a90153f3 	stp	x19, x20, [sp,#16]
    3e2c:	aa0103f3 	mov	x19, x1
    3e30:	aa0003f4 	mov	x20, x0
/home/asaf/devel/optee/optee_os/lib/libutee/tee_api_objects.c:344
    3e34:	910083a1 	add	x1, x29, #0x20
    3e38:	aa1303e0 	mov	x0, x19
    3e3c:	97fffb0e 	bl	2a74 <utee_cryp_obj_get_info>
/home/asaf/devel/optee/optee_os/lib/libutee/tee_api_objects.c:345
    3e40:	b94023a1 	ldr	w1, [x29,#32]
    3e44:	528017c0 	mov	w0, #0xbe                  	// #190
    3e48:	72b40000 	movk	w0, #0xa000, lsl #16
    3e4c:	6b00003f 	cmp	w1, w0
    3e50:	540000c0 	b.eq	3e68 <TEE_CopyObjectAttributes+0x48>
/home/asaf/devel/optee/optee_os/lib/libutee/tee_api_objects.c:348
    3e54:	aa1303e1 	mov	x1, x19
    3e58:	aa1403e0 	mov	x0, x20
    3e5c:	97ffffc6 	bl	3d74 <TEE_CopyObjectAttributes1>
/home/asaf/devel/optee/optee_os/lib/libutee/tee_api_objects.c:349
    3e60:	34000040 	cbz	w0, 3e68 <TEE_CopyObjectAttributes+0x48>
/home/asaf/devel/optee/optee_os/lib/libutee/tee_api_objects.c:350
    3e64:	97fffa07 	bl	2680 <TEE_Panic>
/home/asaf/devel/optee/optee_os/lib/libutee/tee_api_objects.c:351
    3e68:	a94153f3 	ldp	x19, x20, [sp,#16]
    3e6c:	a8c47bfd 	ldp	x29, x30, [sp],#64
    3e70:	d65f03c0 	ret

0000000000003e74 <TEE_GenerateKey>:
TEE_GenerateKey():
/home/asaf/devel/optee/optee_os/lib/libutee/tee_api_objects.c:391
    3e74:	a9bd7bfd 	stp	x29, x30, [sp,#-48]!
    3e78:	910003fd 	mov	x29, sp
    3e7c:	a9025bf5 	stp	x21, x22, [sp,#32]
    3e80:	aa0003f5 	mov	x21, x0
/home/asaf/devel/optee/optee_os/lib/libutee/tee_api_objects.c:393
    3e84:	52800300 	mov	w0, #0x18                  	// #24
/home/asaf/devel/optee/optee_os/lib/libutee/tee_api_objects.c:391
    3e88:	a90153f3 	stp	x19, x20, [sp,#16]
    3e8c:	2a0103f6 	mov	w22, w1
    3e90:	2a0303f3 	mov	w19, w3
/home/asaf/devel/optee/optee_os/lib/libutee/tee_api_objects.c:393
    3e94:	9ba07c60 	umull	x0, w3, w0
/home/asaf/devel/optee/optee_os/lib/libutee/tee_api_objects.c:391
    3e98:	aa0203e1 	mov	x1, x2
/home/asaf/devel/optee/optee_os/lib/libutee/tee_api_objects.c:395
    3e9c:	2a0303e2 	mov	w2, w3
/home/asaf/devel/optee/optee_os/lib/libutee/tee_api_objects.c:393
    3ea0:	91005800 	add	x0, x0, #0x16
    3ea4:	927c8400 	and	x0, x0, #0x3ffffffff0
    3ea8:	cb2063ff 	sub	sp, sp, x0
/home/asaf/devel/optee/optee_os/lib/libutee/tee_api_objects.c:395
    3eac:	910003e0 	mov	x0, sp
    3eb0:	97fffe52 	bl	37f8 <__utee_from_attr>
/home/asaf/devel/optee/optee_os/lib/libutee/tee_api_objects.c:396
    3eb4:	2a1303e3 	mov	w3, w19
    3eb8:	2a1603e1 	mov	w1, w22
    3ebc:	910003e2 	mov	x2, sp
    3ec0:	aa1503e0 	mov	x0, x21
    3ec4:	97fffb46 	bl	2bdc <utee_cryp_obj_generate_key>
/home/asaf/devel/optee/optee_os/lib/libutee/tee_api_objects.c:399
    3ec8:	7100001f 	cmp	w0, #0x0
    3ecc:	129fff21 	mov	w1, #0xffff0006            	// #-65530
/home/asaf/devel/optee/optee_os/lib/libutee/tee_api_objects.c:396
    3ed0:	2a0003f3 	mov	w19, w0
/home/asaf/devel/optee/optee_os/lib/libutee/tee_api_objects.c:399
    3ed4:	7a411004 	ccmp	w0, w1, #0x4, ne
    3ed8:	54000040 	b.eq	3ee0 <TEE_GenerateKey+0x6c>
/home/asaf/devel/optee/optee_os/lib/libutee/tee_api_objects.c:400
    3edc:	97fff9e9 	bl	2680 <TEE_Panic>
/home/asaf/devel/optee/optee_os/lib/libutee/tee_api_objects.c:403
    3ee0:	910003bf 	mov	sp, x29
    3ee4:	2a1303e0 	mov	w0, w19
    3ee8:	a94153f3 	ldp	x19, x20, [sp,#16]
    3eec:	a9425bf5 	ldp	x21, x22, [sp,#32]
    3ef0:	a8c37bfd 	ldp	x29, x30, [sp],#48
    3ef4:	d65f03c0 	ret

0000000000003ef8 <TEE_OpenPersistentObject>:
TEE_OpenPersistentObject():
/home/asaf/devel/optee/optee_os/lib/libutee/tee_api_objects.c:410
    3ef8:	a9bd7bfd 	stp	x29, x30, [sp,#-48]!
    3efc:	910003fd 	mov	x29, sp
    3f00:	a90153f3 	stp	x19, x20, [sp,#16]
/home/asaf/devel/optee/optee_os/lib/libutee/tee_api_objects.c:415
    3f04:	129ffef3 	mov	w19, #0xffff0008            	// #-65528
/home/asaf/devel/optee/optee_os/lib/libutee/tee_api_objects.c:414
    3f08:	b40001e1 	cbz	x1, 3f44 <TEE_OpenPersistentObject+0x4c>
/home/asaf/devel/optee/optee_os/lib/libutee/tee_api_objects.c:424
    3f0c:	7101005f 	cmp	w2, #0x40
    3f10:	aa0403f4 	mov	x20, x4
/home/asaf/devel/optee/optee_os/lib/libutee/tee_api_objects.c:425
    3f14:	129fff33 	mov	w19, #0xffff0006            	// #-65530
/home/asaf/devel/optee/optee_os/lib/libutee/tee_api_objects.c:424
    3f18:	fa409884 	ccmp	x4, #0x0, #0x4, ls
    3f1c:	54000140 	b.eq	3f44 <TEE_OpenPersistentObject+0x4c>
/home/asaf/devel/optee/optee_os/lib/libutee/tee_api_objects.c:429
    3f20:	9100b3a4 	add	x4, x29, #0x2c
    3f24:	2a0303e3 	mov	w3, w3
    3f28:	2a0203e2 	mov	w2, w2
    3f2c:	2a0003e0 	mov	w0, w0
    3f30:	97fffb04 	bl	2b40 <utee_storage_obj_open>
    3f34:	2a0003f3 	mov	w19, w0
/home/asaf/devel/optee/optee_os/lib/libutee/tee_api_objects.c:431
    3f38:	35000060 	cbnz	w0, 3f44 <TEE_OpenPersistentObject+0x4c>
/home/asaf/devel/optee/optee_os/lib/libutee/tee_api_objects.c:432
    3f3c:	b9402fa0 	ldr	w0, [x29,#44]
    3f40:	f9000280 	str	x0, [x20]
/home/asaf/devel/optee/optee_os/lib/libutee/tee_api_objects.c:436
    3f44:	121d7a60 	and	w0, w19, #0xfffffffb
/home/asaf/devel/optee/optee_os/lib/libutee/tee_api_objects.c:435
    3f48:	7100027f 	cmp	w19, #0x0
    3f4c:	129ffee1 	mov	w1, #0xffff0008            	// #-65528
    3f50:	7a411004 	ccmp	w0, w1, #0x4, ne
    3f54:	54000160 	b.eq	3f80 <TEE_OpenPersistentObject+0x88>
/home/asaf/devel/optee/optee_os/lib/libutee/tee_api_objects.c:437
    3f58:	129fff80 	mov	w0, #0xffff0003            	// #-65533
    3f5c:	6b00027f 	cmp	w19, w0
    3f60:	54000100 	b.eq	3f80 <TEE_OpenPersistentObject+0x88>
/home/asaf/devel/optee/optee_os/lib/libutee/tee_api_objects.c:439
    3f64:	121e7a61 	and	w1, w19, #0xfffffffd
    3f68:	52800020 	mov	w0, #0x1                   	// #1
    3f6c:	72be0200 	movk	w0, #0xf010, lsl #16
    3f70:	6b00003f 	cmp	w1, w0
    3f74:	54000060 	b.eq	3f80 <TEE_OpenPersistentObject+0x88>
/home/asaf/devel/optee/optee_os/lib/libutee/tee_api_objects.c:441
    3f78:	2a1303e0 	mov	w0, w19
    3f7c:	97fff9c1 	bl	2680 <TEE_Panic>
/home/asaf/devel/optee/optee_os/lib/libutee/tee_api_objects.c:444
    3f80:	2a1303e0 	mov	w0, w19
    3f84:	a94153f3 	ldp	x19, x20, [sp,#16]
    3f88:	a8c37bfd 	ldp	x29, x30, [sp],#48
    3f8c:	d65f03c0 	ret

0000000000003f90 <TEE_CreatePersistentObject>:
TEE_CreatePersistentObject():
/home/asaf/devel/optee/optee_os/lib/libutee/tee_api_objects.c:452
    3f90:	a9bd7bfd 	stp	x29, x30, [sp,#-48]!
    3f94:	910003fd 	mov	x29, sp
    3f98:	f9000bf3 	str	x19, [sp,#16]
    3f9c:	aa0703f3 	mov	x19, x7
/home/asaf/devel/optee/optee_os/lib/libutee/tee_api_objects.c:456
    3fa0:	b4000501 	cbz	x1, 4040 <TEE_CreatePersistentObject+0xb0>
/home/asaf/devel/optee/optee_os/lib/libutee/tee_api_objects.c:461
    3fa4:	7101005f 	cmp	w2, #0x40
    3fa8:	54000528 	b.hi	404c <TEE_CreatePersistentObject+0xbc>
/home/asaf/devel/optee/optee_os/lib/libutee/tee_api_objects.c:466
    3fac:	9100b3a7 	add	x7, x29, #0x2c
    3fb0:	2a0603e6 	mov	w6, w6
    3fb4:	2a0303e3 	mov	w3, w3
    3fb8:	2a0203e2 	mov	w2, w2
    3fbc:	2a0003e0 	mov	w0, w0
    3fc0:	97fffae3 	bl	2b4c <utee_storage_obj_create>
/home/asaf/devel/optee/optee_os/lib/libutee/tee_api_objects.c:469
    3fc4:	35000380 	cbnz	w0, 4034 <TEE_CreatePersistentObject+0xa4>
    3fc8:	b9402fa1 	ldr	w1, [x29,#44]
/home/asaf/devel/optee/optee_os/lib/libutee/tee_api_objects.c:470
    3fcc:	b40000b3 	cbz	x19, 3fe0 <TEE_CreatePersistentObject+0x50>
/home/asaf/devel/optee/optee_os/lib/libutee/tee_api_objects.c:471
    3fd0:	f9000261 	str	x1, [x19]
/home/asaf/devel/optee/optee_os/lib/libutee/tee_api_objects.c:490
    3fd4:	f9400bf3 	ldr	x19, [sp,#16]
    3fd8:	a8c37bfd 	ldp	x29, x30, [sp],#48
    3fdc:	d65f03c0 	ret
/home/asaf/devel/optee/optee_os/lib/libutee/tee_api_objects.c:473
    3fe0:	aa0103e0 	mov	x0, x1
    3fe4:	97fffab0 	bl	2aa4 <utee_cryp_obj_close>
/home/asaf/devel/optee/optee_os/lib/libutee/tee_api_objects.c:474
    3fe8:	34ffff60 	cbz	w0, 3fd4 <TEE_CreatePersistentObject+0x44>
/home/asaf/devel/optee/optee_os/lib/libutee/tee_api_objects.c:480
    3fec:	129ffee1 	mov	w1, #0xffff0008            	// #-65528
    3ff0:	6b01001f 	cmp	w0, w1
    3ff4:	129fff81 	mov	w1, #0xffff0003            	// #-65533
    3ff8:	7a411004 	ccmp	w0, w1, #0x4, ne
    3ffc:	54fffec0 	b.eq	3fd4 <TEE_CreatePersistentObject+0x44>
/home/asaf/devel/optee/optee_os/lib/libutee/tee_api_objects.c:482
    4000:	129ffe61 	mov	w1, #0xffff000c            	// #-65524
    4004:	6b01001f 	cmp	w0, w1
    4008:	1299f7c1 	mov	w1, #0xffff3041            	// #-53183
    400c:	7a411004 	ccmp	w0, w1, #0x4, ne
    4010:	54fffe20 	b.eq	3fd4 <TEE_CreatePersistentObject+0x44>
/home/asaf/devel/optee/optee_os/lib/libutee/tee_api_objects.c:484
    4014:	121e7802 	and	w2, w0, #0xfffffffd
    4018:	52800021 	mov	w1, #0x1                   	// #1
    401c:	72be0201 	movk	w1, #0xf010, lsl #16
    4020:	6b01005f 	cmp	w2, w1
    4024:	54fffd80 	b.eq	3fd4 <TEE_CreatePersistentObject+0x44>
/home/asaf/devel/optee/optee_os/lib/libutee/tee_api_objects.c:487
    4028:	97fff996 	bl	2680 <TEE_Panic>
/home/asaf/devel/optee/optee_os/lib/libutee/tee_api_objects.c:489
    402c:	52800000 	mov	w0, #0x0                   	// #0
    4030:	17ffffe9 	b	3fd4 <TEE_CreatePersistentObject+0x44>
/home/asaf/devel/optee/optee_os/lib/libutee/tee_api_objects.c:478
    4034:	b4fffdd3 	cbz	x19, 3fec <TEE_CreatePersistentObject+0x5c>
/home/asaf/devel/optee/optee_os/lib/libutee/tee_api_objects.c:479
    4038:	f900027f 	str	xzr, [x19]
    403c:	17ffffec 	b	3fec <TEE_CreatePersistentObject+0x5c>
/home/asaf/devel/optee/optee_os/lib/libutee/tee_api_objects.c:457
    4040:	129ffee0 	mov	w0, #0xffff0008            	// #-65528
/home/asaf/devel/optee/optee_os/lib/libutee/tee_api_objects.c:478
    4044:	b5ffffa7 	cbnz	x7, 4038 <TEE_CreatePersistentObject+0xa8>
    4048:	17ffffe3 	b	3fd4 <TEE_CreatePersistentObject+0x44>
/home/asaf/devel/optee/optee_os/lib/libutee/tee_api_objects.c:462
    404c:	129fff20 	mov	w0, #0xffff0006            	// #-65530
/home/asaf/devel/optee/optee_os/lib/libutee/tee_api_objects.c:478
    4050:	b5ffff47 	cbnz	x7, 4038 <TEE_CreatePersistentObject+0xa8>
    4054:	17ffffeb 	b	4000 <TEE_CreatePersistentObject+0x70>

0000000000004058 <TEE_CloseAndDeletePersistentObject1>:
TEE_CloseAndDeletePersistentObject1():
/home/asaf/devel/optee/optee_os/lib/libutee/tee_api_objects.c:512
    4058:	a9be7bfd 	stp	x29, x30, [sp,#-32]!
    405c:	910003fd 	mov	x29, sp
    4060:	a90153f3 	stp	x19, x20, [sp,#16]
    4064:	52800074 	mov	w20, #0x3                   	// #3
    4068:	72be0214 	movk	w20, #0xf010, lsl #16
/home/asaf/devel/optee/optee_os/lib/libutee/tee_api_objects.c:516
    406c:	2a1403f3 	mov	w19, w20
/home/asaf/devel/optee/optee_os/lib/libutee/tee_api_objects.c:515
    4070:	b40000e0 	cbz	x0, 408c <TEE_CloseAndDeletePersistentObject1+0x34>
/home/asaf/devel/optee/optee_os/lib/libutee/tee_api_objects.c:518
    4074:	97fffab9 	bl	2b58 <utee_storage_obj_del>
/home/asaf/devel/optee/optee_os/lib/libutee/tee_api_objects.c:520
    4078:	7100001f 	cmp	w0, #0x0
/home/asaf/devel/optee/optee_os/lib/libutee/tee_api_objects.c:518
    407c:	2a0003f3 	mov	w19, w0
/home/asaf/devel/optee/optee_os/lib/libutee/tee_api_objects.c:520
    4080:	7a541004 	ccmp	w0, w20, #0x4, ne
    4084:	54000040 	b.eq	408c <TEE_CloseAndDeletePersistentObject1+0x34>
/home/asaf/devel/optee/optee_os/lib/libutee/tee_api_objects.c:521
    4088:	97fff97e 	bl	2680 <TEE_Panic>
/home/asaf/devel/optee/optee_os/lib/libutee/tee_api_objects.c:524
    408c:	2a1303e0 	mov	w0, w19
    4090:	a94153f3 	ldp	x19, x20, [sp,#16]
    4094:	a8c27bfd 	ldp	x29, x30, [sp],#32
    4098:	d65f03c0 	ret

000000000000409c <TEE_CloseAndDeletePersistentObject>:
TEE_CloseAndDeletePersistentObject():
/home/asaf/devel/optee/optee_os/lib/libutee/tee_api_objects.c:502
    409c:	b4000140 	cbz	x0, 40c4 <TEE_CloseAndDeletePersistentObject+0x28>
/home/asaf/devel/optee/optee_os/lib/libutee/tee_api_objects.c:499
    40a0:	a9bf7bfd 	stp	x29, x30, [sp,#-16]!
    40a4:	910003fd 	mov	x29, sp
/home/asaf/devel/optee/optee_os/lib/libutee/tee_api_objects.c:505
    40a8:	97ffffec 	bl	4058 <TEE_CloseAndDeletePersistentObject1>
/home/asaf/devel/optee/optee_os/lib/libutee/tee_api_objects.c:507
    40ac:	34000080 	cbz	w0, 40bc <TEE_CloseAndDeletePersistentObject+0x20>
/home/asaf/devel/optee/optee_os/lib/libutee/tee_api_objects.c:509
    40b0:	a8c17bfd 	ldp	x29, x30, [sp],#16
/home/asaf/devel/optee/optee_os/lib/libutee/tee_api_objects.c:508
    40b4:	52800000 	mov	w0, #0x0                   	// #0
    40b8:	17fff972 	b	2680 <TEE_Panic>
/home/asaf/devel/optee/optee_os/lib/libutee/tee_api_objects.c:509
    40bc:	a8c17bfd 	ldp	x29, x30, [sp],#16
    40c0:	d65f03c0 	ret
    40c4:	d65f03c0 	ret

00000000000040c8 <TEE_RenamePersistentObject>:
TEE_RenamePersistentObject():
/home/asaf/devel/optee/optee_os/lib/libutee/tee_api_objects.c:530
    40c8:	a9be7bfd 	stp	x29, x30, [sp,#-32]!
    40cc:	910003fd 	mov	x29, sp
    40d0:	f9000bf3 	str	x19, [sp,#16]
/home/asaf/devel/optee/optee_os/lib/libutee/tee_api_objects.c:534
    40d4:	129ffef3 	mov	w19, #0xffff0008            	// #-65528
/home/asaf/devel/optee/optee_os/lib/libutee/tee_api_objects.c:533
    40d8:	b4000100 	cbz	x0, 40f8 <TEE_RenamePersistentObject+0x30>
/home/asaf/devel/optee/optee_os/lib/libutee/tee_api_objects.c:543
    40dc:	7101005f 	cmp	w2, #0x40
/home/asaf/devel/optee/optee_os/lib/libutee/tee_api_objects.c:544
    40e0:	129fff33 	mov	w19, #0xffff0006            	// #-65530
/home/asaf/devel/optee/optee_os/lib/libutee/tee_api_objects.c:543
    40e4:	fa409824 	ccmp	x1, #0x0, #0x4, ls
    40e8:	54000080 	b.eq	40f8 <TEE_RenamePersistentObject+0x30>
/home/asaf/devel/optee/optee_os/lib/libutee/tee_api_objects.c:548
    40ec:	2a0203e2 	mov	w2, w2
    40f0:	97fffa9d 	bl	2b64 <utee_storage_obj_rename>
    40f4:	2a0003f3 	mov	w19, w0
/home/asaf/devel/optee/optee_os/lib/libutee/tee_api_objects.c:552
    40f8:	7100027f 	cmp	w19, #0x0
    40fc:	129fff80 	mov	w0, #0xffff0003            	// #-65533
    4100:	7a401264 	ccmp	w19, w0, #0x4, ne
    4104:	54000100 	b.eq	4124 <TEE_RenamePersistentObject+0x5c>
/home/asaf/devel/optee/optee_os/lib/libutee/tee_api_objects.c:554
    4108:	121e7a61 	and	w1, w19, #0xfffffffd
    410c:	52800020 	mov	w0, #0x1                   	// #1
    4110:	72be0200 	movk	w0, #0xf010, lsl #16
    4114:	6b00003f 	cmp	w1, w0
    4118:	54000060 	b.eq	4124 <TEE_RenamePersistentObject+0x5c>
/home/asaf/devel/optee/optee_os/lib/libutee/tee_api_objects.c:556
    411c:	2a1303e0 	mov	w0, w19
    4120:	97fff958 	bl	2680 <TEE_Panic>
/home/asaf/devel/optee/optee_os/lib/libutee/tee_api_objects.c:559
    4124:	2a1303e0 	mov	w0, w19
    4128:	f9400bf3 	ldr	x19, [sp,#16]
    412c:	a8c27bfd 	ldp	x29, x30, [sp],#32
    4130:	d65f03c0 	ret

0000000000004134 <TEE_AllocatePersistentObjectEnumerator>:
TEE_AllocatePersistentObjectEnumerator():
/home/asaf/devel/optee/optee_os/lib/libutee/tee_api_objects.c:563
    4134:	a9bd7bfd 	stp	x29, x30, [sp,#-48]!
    4138:	910003fd 	mov	x29, sp
    413c:	a90153f3 	stp	x19, x20, [sp,#16]
/home/asaf/devel/optee/optee_os/lib/libutee/tee_api_objects.c:568
    4140:	129fff33 	mov	w19, #0xffff0006            	// #-65530
/home/asaf/devel/optee/optee_os/lib/libutee/tee_api_objects.c:567
    4144:	b40001e0 	cbz	x0, 4180 <TEE_AllocatePersistentObjectEnumerator+0x4c>
    4148:	aa0003f4 	mov	x20, x0
/home/asaf/devel/optee/optee_os/lib/libutee/tee_api_objects.c:570
    414c:	9100b3a0 	add	x0, x29, #0x2c
    4150:	97fffa88 	bl	2b70 <utee_storage_alloc_enum>
    4154:	2a0003f3 	mov	w19, w0
/home/asaf/devel/optee/optee_os/lib/libutee/tee_api_objects.c:572
    4158:	34000040 	cbz	w0, 4160 <TEE_AllocatePersistentObjectEnumerator+0x2c>
/home/asaf/devel/optee/optee_os/lib/libutee/tee_api_objects.c:573
    415c:	b9002fbf 	str	wzr, [x29,#44]
/home/asaf/devel/optee/optee_os/lib/libutee/tee_api_objects.c:575
    4160:	b9402fa0 	ldr	w0, [x29,#44]
/home/asaf/devel/optee/optee_os/lib/libutee/tee_api_objects.c:577
    4164:	7100027f 	cmp	w19, #0x0
/home/asaf/devel/optee/optee_os/lib/libutee/tee_api_objects.c:575
    4168:	f9000280 	str	x0, [x20]
/home/asaf/devel/optee/optee_os/lib/libutee/tee_api_objects.c:577
    416c:	129fff80 	mov	w0, #0xffff0003            	// #-65533
    4170:	7a401264 	ccmp	w19, w0, #0x4, ne
    4174:	54000060 	b.eq	4180 <TEE_AllocatePersistentObjectEnumerator+0x4c>
/home/asaf/devel/optee/optee_os/lib/libutee/tee_api_objects.c:579
    4178:	2a1303e0 	mov	w0, w19
    417c:	97fff941 	bl	2680 <TEE_Panic>
/home/asaf/devel/optee/optee_os/lib/libutee/tee_api_objects.c:582
    4180:	2a1303e0 	mov	w0, w19
    4184:	a94153f3 	ldp	x19, x20, [sp,#16]
    4188:	a8c37bfd 	ldp	x29, x30, [sp],#48
    418c:	d65f03c0 	ret

0000000000004190 <TEE_FreePersistentObjectEnumerator>:
TEE_FreePersistentObjectEnumerator():
/home/asaf/devel/optee/optee_os/lib/libutee/tee_api_objects.c:588
    4190:	b4000120 	cbz	x0, 41b4 <TEE_FreePersistentObjectEnumerator+0x24>
/home/asaf/devel/optee/optee_os/lib/libutee/tee_api_objects.c:585
    4194:	a9bf7bfd 	stp	x29, x30, [sp,#-16]!
    4198:	910003fd 	mov	x29, sp
/home/asaf/devel/optee/optee_os/lib/libutee/tee_api_objects.c:591
    419c:	97fffa78 	bl	2b7c <utee_storage_free_enum>
/home/asaf/devel/optee/optee_os/lib/libutee/tee_api_objects.c:593
    41a0:	34000060 	cbz	w0, 41ac <TEE_FreePersistentObjectEnumerator+0x1c>
/home/asaf/devel/optee/optee_os/lib/libutee/tee_api_objects.c:595
    41a4:	a8c17bfd 	ldp	x29, x30, [sp],#16
/home/asaf/devel/optee/optee_os/lib/libutee/tee_api_objects.c:594
    41a8:	17fff936 	b	2680 <TEE_Panic>
/home/asaf/devel/optee/optee_os/lib/libutee/tee_api_objects.c:595
    41ac:	a8c17bfd 	ldp	x29, x30, [sp],#16
    41b0:	d65f03c0 	ret
    41b4:	d65f03c0 	ret

00000000000041b8 <TEE_ResetPersistentObjectEnumerator>:
TEE_ResetPersistentObjectEnumerator():
/home/asaf/devel/optee/optee_os/lib/libutee/tee_api_objects.c:601
    41b8:	b4000120 	cbz	x0, 41dc <TEE_ResetPersistentObjectEnumerator+0x24>
/home/asaf/devel/optee/optee_os/lib/libutee/tee_api_objects.c:598
    41bc:	a9bf7bfd 	stp	x29, x30, [sp,#-16]!
    41c0:	910003fd 	mov	x29, sp
/home/asaf/devel/optee/optee_os/lib/libutee/tee_api_objects.c:604
    41c4:	97fffa71 	bl	2b88 <utee_storage_reset_enum>
/home/asaf/devel/optee/optee_os/lib/libutee/tee_api_objects.c:606
    41c8:	34000060 	cbz	w0, 41d4 <TEE_ResetPersistentObjectEnumerator+0x1c>
/home/asaf/devel/optee/optee_os/lib/libutee/tee_api_objects.c:608
    41cc:	a8c17bfd 	ldp	x29, x30, [sp],#16
/home/asaf/devel/optee/optee_os/lib/libutee/tee_api_objects.c:607
    41d0:	17fff92c 	b	2680 <TEE_Panic>
/home/asaf/devel/optee/optee_os/lib/libutee/tee_api_objects.c:608
    41d4:	a8c17bfd 	ldp	x29, x30, [sp],#16
    41d8:	d65f03c0 	ret
    41dc:	d65f03c0 	ret

00000000000041e0 <TEE_StartPersistentObjectEnumerator>:
TEE_StartPersistentObjectEnumerator():
/home/asaf/devel/optee/optee_os/lib/libutee/tee_api_objects.c:613
    41e0:	a9be7bfd 	stp	x29, x30, [sp,#-32]!
/home/asaf/devel/optee/optee_os/lib/libutee/tee_api_objects.c:616
    41e4:	2a0103e1 	mov	w1, w1
/home/asaf/devel/optee/optee_os/lib/libutee/tee_api_objects.c:613
    41e8:	910003fd 	mov	x29, sp
    41ec:	f9000bf3 	str	x19, [sp,#16]
/home/asaf/devel/optee/optee_os/lib/libutee/tee_api_objects.c:616
    41f0:	97fffa69 	bl	2b94 <utee_storage_start_enum>
/home/asaf/devel/optee/optee_os/lib/libutee/tee_api_objects.c:619
    41f4:	7100001f 	cmp	w0, #0x0
    41f8:	129ffee1 	mov	w1, #0xffff0008            	// #-65528
/home/asaf/devel/optee/optee_os/lib/libutee/tee_api_objects.c:616
    41fc:	2a0003f3 	mov	w19, w0
/home/asaf/devel/optee/optee_os/lib/libutee/tee_api_objects.c:619
    4200:	7a411004 	ccmp	w0, w1, #0x4, ne
    4204:	540000e0 	b.eq	4220 <TEE_StartPersistentObjectEnumerator+0x40>
/home/asaf/devel/optee/optee_os/lib/libutee/tee_api_objects.c:621
    4208:	121e7802 	and	w2, w0, #0xfffffffd
    420c:	52800021 	mov	w1, #0x1                   	// #1
    4210:	72be0201 	movk	w1, #0xf010, lsl #16
    4214:	6b01005f 	cmp	w2, w1
    4218:	54000040 	b.eq	4220 <TEE_StartPersistentObjectEnumerator+0x40>
/home/asaf/devel/optee/optee_os/lib/libutee/tee_api_objects.c:623
    421c:	97fff919 	bl	2680 <TEE_Panic>
/home/asaf/devel/optee/optee_os/lib/libutee/tee_api_objects.c:626
    4220:	2a1303e0 	mov	w0, w19
    4224:	f9400bf3 	ldr	x19, [sp,#16]
    4228:	a8c27bfd 	ldp	x29, x30, [sp],#32
    422c:	d65f03c0 	ret

0000000000004230 <TEE_GetNextPersistentObject>:
TEE_GetNextPersistentObject():
/home/asaf/devel/optee/optee_os/lib/libutee/tee_api_objects.c:631
    4230:	a9bb7bfd 	stp	x29, x30, [sp,#-80]!
/home/asaf/devel/optee/optee_os/lib/libutee/tee_api_objects.c:642
    4234:	f100005f 	cmp	x2, #0x0
    4238:	fa401864 	ccmp	x3, #0x0, #0x4, ne
/home/asaf/devel/optee/optee_os/lib/libutee/tee_api_objects.c:631
    423c:	910003fd 	mov	x29, sp
    4240:	a90153f3 	stp	x19, x20, [sp,#16]
    4244:	129fff33 	mov	w19, #0xffff0006            	// #-65530
/home/asaf/devel/optee/optee_os/lib/libutee/tee_api_objects.c:642
    4248:	54000180 	b.eq	4278 <TEE_GetNextPersistentObject+0x48>
    424c:	aa0303f4 	mov	x20, x3
/home/asaf/devel/optee/optee_os/lib/libutee/tee_api_objects.c:651
    4250:	910143a3 	add	x3, x29, #0x50
/home/asaf/devel/optee/optee_os/lib/libutee/tee_api_objects.c:650
    4254:	f100003f 	cmp	x1, #0x0
/home/asaf/devel/optee/optee_os/lib/libutee/tee_api_objects.c:651
    4258:	b9400284 	ldr	w4, [x20]
    425c:	f81d8c64 	str	x4, [x3,#-40]!
/home/asaf/devel/optee/optee_os/lib/libutee/tee_api_objects.c:652
    4260:	9100c3a4 	add	x4, x29, #0x30
    4264:	9a810081 	csel	x1, x4, x1, eq
    4268:	97fffa4e 	bl	2ba0 <utee_storage_next_enum>
    426c:	2a0003f3 	mov	w19, w0
/home/asaf/devel/optee/optee_os/lib/libutee/tee_api_objects.c:654
    4270:	f94017a0 	ldr	x0, [x29,#40]
    4274:	b9000280 	str	w0, [x20]
/home/asaf/devel/optee/optee_os/lib/libutee/tee_api_objects.c:657
    4278:	7100027f 	cmp	w19, #0x0
    427c:	129ffee0 	mov	w0, #0xffff0008            	// #-65528
    4280:	7a401264 	ccmp	w19, w0, #0x4, ne
    4284:	54000100 	b.eq	42a4 <TEE_GetNextPersistentObject+0x74>
/home/asaf/devel/optee/optee_os/lib/libutee/tee_api_objects.c:659
    4288:	121e7a61 	and	w1, w19, #0xfffffffd
    428c:	52800020 	mov	w0, #0x1                   	// #1
    4290:	72be0200 	movk	w0, #0xf010, lsl #16
    4294:	6b00003f 	cmp	w1, w0
    4298:	54000060 	b.eq	42a4 <TEE_GetNextPersistentObject+0x74>
/home/asaf/devel/optee/optee_os/lib/libutee/tee_api_objects.c:661
    429c:	2a1303e0 	mov	w0, w19
    42a0:	97fff8f8 	bl	2680 <TEE_Panic>
/home/asaf/devel/optee/optee_os/lib/libutee/tee_api_objects.c:664
    42a4:	2a1303e0 	mov	w0, w19
    42a8:	a94153f3 	ldp	x19, x20, [sp,#16]
    42ac:	a8c57bfd 	ldp	x29, x30, [sp],#80
    42b0:	d65f03c0 	ret

00000000000042b4 <TEE_ReadObjectData>:
TEE_ReadObjectData():
/home/asaf/devel/optee/optee_os/lib/libutee/tee_api_objects.c:670
    42b4:	a9bd7bfd 	stp	x29, x30, [sp,#-48]!
    42b8:	910003fd 	mov	x29, sp
    42bc:	a90153f3 	stp	x19, x20, [sp,#16]
    42c0:	129fff33 	mov	w19, #0xffff0006            	// #-65530
/home/asaf/devel/optee/optee_os/lib/libutee/tee_api_objects.c:674
    42c4:	b4000140 	cbz	x0, 42ec <TEE_ReadObjectData+0x38>
    42c8:	aa0303f4 	mov	x20, x3
/home/asaf/devel/optee/optee_os/lib/libutee/tee_api_objects.c:679
    42cc:	9100c3a3 	add	x3, x29, #0x30
/home/asaf/devel/optee/optee_os/lib/libutee/tee_api_objects.c:680
    42d0:	2a0203e2 	mov	w2, w2
/home/asaf/devel/optee/optee_os/lib/libutee/tee_api_objects.c:679
    42d4:	b9400284 	ldr	w4, [x20]
    42d8:	f81f8c64 	str	x4, [x3,#-8]!
/home/asaf/devel/optee/optee_os/lib/libutee/tee_api_objects.c:680
    42dc:	97fffa34 	bl	2bac <utee_storage_obj_read>
    42e0:	2a0003f3 	mov	w19, w0
/home/asaf/devel/optee/optee_os/lib/libutee/tee_api_objects.c:682
    42e4:	f94017a0 	ldr	x0, [x29,#40]
    42e8:	b9000280 	str	w0, [x20]
/home/asaf/devel/optee/optee_os/lib/libutee/tee_api_objects.c:686
    42ec:	121e7a60 	and	w0, w19, #0xfffffffd
    42f0:	7100027f 	cmp	w19, #0x0
    42f4:	52800021 	mov	w1, #0x1                   	// #1
    42f8:	72be0201 	movk	w1, #0xf010, lsl #16
    42fc:	7a411004 	ccmp	w0, w1, #0x4, ne
    4300:	54000060 	b.eq	430c <TEE_ReadObjectData+0x58>
/home/asaf/devel/optee/optee_os/lib/libutee/tee_api_objects.c:688
    4304:	2a1303e0 	mov	w0, w19
    4308:	97fff8de 	bl	2680 <TEE_Panic>
/home/asaf/devel/optee/optee_os/lib/libutee/tee_api_objects.c:691
    430c:	2a1303e0 	mov	w0, w19
    4310:	a94153f3 	ldp	x19, x20, [sp,#16]
    4314:	a8c37bfd 	ldp	x29, x30, [sp],#48
    4318:	d65f03c0 	ret

000000000000431c <TEE_WriteObjectData>:
TEE_WriteObjectData():
/home/asaf/devel/optee/optee_os/lib/libutee/tee_api_objects.c:695
    431c:	a9be7bfd 	stp	x29, x30, [sp,#-32]!
    4320:	910003fd 	mov	x29, sp
    4324:	f9000bf3 	str	x19, [sp,#16]
    4328:	129fff33 	mov	w19, #0xffff0006            	// #-65530
/home/asaf/devel/optee/optee_os/lib/libutee/tee_api_objects.c:698
    432c:	b4000080 	cbz	x0, 433c <TEE_WriteObjectData+0x20>
/home/asaf/devel/optee/optee_os/lib/libutee/tee_api_objects.c:708
    4330:	2a0203e2 	mov	w2, w2
    4334:	97fffa21 	bl	2bb8 <utee_storage_obj_write>
    4338:	2a0003f3 	mov	w19, w0
/home/asaf/devel/optee/optee_os/lib/libutee/tee_api_objects.c:711
    433c:	7100027f 	cmp	w19, #0x0
    4340:	1299f7c0 	mov	w0, #0xffff3041            	// #-53183
    4344:	7a401264 	ccmp	w19, w0, #0x4, ne
    4348:	54000140 	b.eq	4370 <TEE_WriteObjectData+0x54>
/home/asaf/devel/optee/optee_os/lib/libutee/tee_api_objects.c:714
    434c:	121e7a61 	and	w1, w19, #0xfffffffd
    4350:	52800020 	mov	w0, #0x1                   	// #1
    4354:	72be0200 	movk	w0, #0xf010, lsl #16
    4358:	6b00003f 	cmp	w1, w0
    435c:	1299fe00 	mov	w0, #0xffff300f            	// #-53233
    4360:	7a401264 	ccmp	w19, w0, #0x4, ne
    4364:	54000060 	b.eq	4370 <TEE_WriteObjectData+0x54>
/home/asaf/devel/optee/optee_os/lib/libutee/tee_api_objects.c:716
    4368:	2a1303e0 	mov	w0, w19
    436c:	97fff8c5 	bl	2680 <TEE_Panic>
/home/asaf/devel/optee/optee_os/lib/libutee/tee_api_objects.c:719
    4370:	2a1303e0 	mov	w0, w19
    4374:	f9400bf3 	ldr	x19, [sp,#16]
    4378:	a8c27bfd 	ldp	x29, x30, [sp],#32
    437c:	d65f03c0 	ret

0000000000004380 <TEE_TruncateObjectData>:
TEE_TruncateObjectData():
/home/asaf/devel/optee/optee_os/lib/libutee/tee_api_objects.c:722
    4380:	a9be7bfd 	stp	x29, x30, [sp,#-32]!
    4384:	910003fd 	mov	x29, sp
    4388:	f9000bf3 	str	x19, [sp,#16]
    438c:	129fff33 	mov	w19, #0xffff0006            	// #-65530
/home/asaf/devel/optee/optee_os/lib/libutee/tee_api_objects.c:725
    4390:	b4000080 	cbz	x0, 43a0 <TEE_TruncateObjectData+0x20>
/home/asaf/devel/optee/optee_os/lib/libutee/tee_api_objects.c:730
    4394:	2a0103e1 	mov	w1, w1
    4398:	97fffa0b 	bl	2bc4 <utee_storage_obj_trunc>
    439c:	2a0003f3 	mov	w19, w0
/home/asaf/devel/optee/optee_os/lib/libutee/tee_api_objects.c:733
    43a0:	7100027f 	cmp	w19, #0x0
    43a4:	1299f7c0 	mov	w0, #0xffff3041            	// #-53183
    43a8:	7a401264 	ccmp	w19, w0, #0x4, ne
    43ac:	54000100 	b.eq	43cc <TEE_TruncateObjectData+0x4c>
/home/asaf/devel/optee/optee_os/lib/libutee/tee_api_objects.c:735
    43b0:	121e7a61 	and	w1, w19, #0xfffffffd
    43b4:	52800020 	mov	w0, #0x1                   	// #1
    43b8:	72be0200 	movk	w0, #0xf010, lsl #16
    43bc:	6b00003f 	cmp	w1, w0
    43c0:	54000060 	b.eq	43cc <TEE_TruncateObjectData+0x4c>
/home/asaf/devel/optee/optee_os/lib/libutee/tee_api_objects.c:737
    43c4:	2a1303e0 	mov	w0, w19
    43c8:	97fff8ae 	bl	2680 <TEE_Panic>
/home/asaf/devel/optee/optee_os/lib/libutee/tee_api_objects.c:740
    43cc:	2a1303e0 	mov	w0, w19
    43d0:	f9400bf3 	ldr	x19, [sp,#16]
    43d4:	a8c27bfd 	ldp	x29, x30, [sp],#32
    43d8:	d65f03c0 	ret

00000000000043dc <TEE_SeekObjectData>:
TEE_SeekObjectData():
/home/asaf/devel/optee/optee_os/lib/libutee/tee_api_objects.c:744
    43dc:	a9bb7bfd 	stp	x29, x30, [sp,#-80]!
    43e0:	910003fd 	mov	x29, sp
    43e4:	a90153f3 	stp	x19, x20, [sp,#16]
/home/asaf/devel/optee/optee_os/lib/libutee/tee_api_objects.c:749
    43e8:	129fff33 	mov	w19, #0xffff0006            	// #-65530
/home/asaf/devel/optee/optee_os/lib/libutee/tee_api_objects.c:744
    43ec:	a9025bf5 	stp	x21, x22, [sp,#32]
/home/asaf/devel/optee/optee_os/lib/libutee/tee_api_objects.c:748
    43f0:	b40003e0 	cbz	x0, 446c <TEE_SeekObjectData+0x90>
    43f4:	aa0003f6 	mov	x22, x0
    43f8:	2a0103f4 	mov	w20, w1
    43fc:	2a0203f5 	mov	w21, w2
/home/asaf/devel/optee/optee_os/lib/libutee/tee_api_objects.c:753
    4400:	9100c3a1 	add	x1, x29, #0x30
    4404:	97fff99c 	bl	2a74 <utee_cryp_obj_get_info>
    4408:	2a0003f3 	mov	w19, w0
/home/asaf/devel/optee/optee_os/lib/libutee/tee_api_objects.c:754
    440c:	35000300 	cbnz	w0, 446c <TEE_SeekObjectData+0x90>
/home/asaf/devel/optee/optee_os/lib/libutee/tee_api_objects.c:757
    4410:	710006bf 	cmp	w21, #0x1
    4414:	540000c0 	b.eq	442c <TEE_SeekObjectData+0x50>
    4418:	34000115 	cbz	w21, 4438 <TEE_SeekObjectData+0x5c>
    441c:	71000abf 	cmp	w21, #0x2
    4420:	54000180 	b.eq	4450 <TEE_SeekObjectData+0x74>
/home/asaf/devel/optee/optee_os/lib/libutee/tee_api_objects.c:783
    4424:	129ffef3 	mov	w19, #0xffff0008            	// #-65528
    4428:	14000011 	b	446c <TEE_SeekObjectData+0x90>
/home/asaf/devel/optee/optee_os/lib/libutee/tee_api_objects.c:768
    442c:	b94047a0 	ldr	w0, [x29,#68]
/home/asaf/devel/optee/optee_os/lib/libutee/tee_api_objects.c:765
    4430:	7100029f 	cmp	w20, #0x0
    4434:	5400014c 	b.gt	445c <TEE_SeekObjectData+0x80>
/home/asaf/devel/optee/optee_os/lib/libutee/tee_api_objects.c:787
    4438:	2a1503e2 	mov	w2, w21
    443c:	2a1403e1 	mov	w1, w20
    4440:	aa1603e0 	mov	x0, x22
    4444:	97fff9e3 	bl	2bd0 <utee_storage_obj_seek>
    4448:	2a0003f3 	mov	w19, w0
    444c:	14000008 	b	446c <TEE_SeekObjectData+0x90>
/home/asaf/devel/optee/optee_os/lib/libutee/tee_api_objects.c:775
    4450:	7100029f 	cmp	w20, #0x0
    4454:	54ffff2d 	b.le	4438 <TEE_SeekObjectData+0x5c>
/home/asaf/devel/optee/optee_os/lib/libutee/tee_api_objects.c:777 (discriminator 1)
    4458:	b94043a0 	ldr	w0, [x29,#64]
    445c:	0b000281 	add	w1, w20, w0
/home/asaf/devel/optee/optee_os/lib/libutee/tee_api_objects.c:770 (discriminator 1)
    4460:	1299fe13 	mov	w19, #0xffff300f            	// #-53233
/home/asaf/devel/optee/optee_os/lib/libutee/tee_api_objects.c:775 (discriminator 1)
    4464:	6b01001f 	cmp	w0, w1
    4468:	54fffe89 	b.ls	4438 <TEE_SeekObjectData+0x5c>
/home/asaf/devel/optee/optee_os/lib/libutee/tee_api_objects.c:790
    446c:	7100027f 	cmp	w19, #0x0
    4470:	1299fe00 	mov	w0, #0xffff300f            	// #-53233
    4474:	7a401264 	ccmp	w19, w0, #0x4, ne
    4478:	54000100 	b.eq	4498 <TEE_SeekObjectData+0xbc>
/home/asaf/devel/optee/optee_os/lib/libutee/tee_api_objects.c:792
    447c:	121e7a61 	and	w1, w19, #0xfffffffd
    4480:	52800020 	mov	w0, #0x1                   	// #1
    4484:	72be0200 	movk	w0, #0xf010, lsl #16
    4488:	6b00003f 	cmp	w1, w0
    448c:	54000060 	b.eq	4498 <TEE_SeekObjectData+0xbc>
/home/asaf/devel/optee/optee_os/lib/libutee/tee_api_objects.c:794
    4490:	2a1303e0 	mov	w0, w19
    4494:	97fff87b 	bl	2680 <TEE_Panic>
/home/asaf/devel/optee/optee_os/lib/libutee/tee_api_objects.c:797
    4498:	2a1303e0 	mov	w0, w19
    449c:	a94153f3 	ldp	x19, x20, [sp,#16]
    44a0:	a9425bf5 	ldp	x21, x22, [sp,#32]
    44a4:	a8c57bfd 	ldp	x29, x30, [sp],#80
    44a8:	d65f03c0 	ret

00000000000044ac <utee_get_ta_exec_id>:
utee_get_ta_exec_id():
/home/asaf/devel/optee/optee_os/lib/libutee/arch/arm/utee_misc.c:39
    44ac:	52800000 	mov	w0, #0x0                   	// #0
    44b0:	d65f03c0 	ret

00000000000044b4 <utee_malloc>:
utee_malloc():
/home/asaf/devel/optee/optee_os/lib/libutee/arch/arm/utee_misc.c:44
    44b4:	14000425 	b	5548 <malloc>

00000000000044b8 <utee_realloc>:
utee_realloc():
/home/asaf/devel/optee/optee_os/lib/libutee/arch/arm/utee_misc.c:49
    44b8:	14000448 	b	55d8 <realloc>

00000000000044bc <utee_calloc>:
utee_calloc():
/home/asaf/devel/optee/optee_os/lib/libutee/arch/arm/utee_misc.c:53
    44bc:	aa0103e2 	mov	x2, x1
/home/asaf/devel/optee/optee_os/lib/libutee/arch/arm/utee_misc.c:54
    44c0:	aa0003e1 	mov	x1, x0
    44c4:	aa0203e0 	mov	x0, x2
    44c8:	14000431 	b	558c <calloc>

00000000000044cc <utee_free>:
utee_free():
/home/asaf/devel/optee/optee_os/lib/libutee/arch/arm/utee_misc.c:59
    44cc:	1400042d 	b	5580 <free>

00000000000044d0 <get_rng_array>:
get_rng_array():
/home/asaf/devel/optee/optee_os/lib/libutee/arch/arm/utee_misc.c:71
    44d0:	17fff984 	b	2ae0 <utee_cryp_random_number_generate>

00000000000044d4 <print_buf>:
print_buf():
/home/asaf/devel/optee/optee_os/lib/libutee/tee_user_mem.c:165
    44d4:	d100c3ff 	sub	sp, sp, #0x30
/home/asaf/devel/optee/optee_os/lib/libutee/tee_user_mem.c:166
    44d8:	aa0303e7 	mov	x7, x3
    44dc:	2a0203e6 	mov	w6, w2
    44e0:	52800023 	mov	w3, #0x1                   	// #1
    44e4:	2a0003e2 	mov	w2, w0
    44e8:	d2800000 	mov	x0, #0x0                   	// #0
/home/asaf/devel/optee/optee_os/lib/libutee/tee_user_mem.c:165
    44ec:	a9027bfd 	stp	x29, x30, [sp,#32]
    44f0:	910083fd 	add	x29, sp, #0x20
buf_size():
/home/asaf/devel/optee/optee_os/lib/libutee/tee_user_mem.c:136
    44f4:	f9400885 	ldr	x5, [x4,#16]
print_buf():
/home/asaf/devel/optee/optee_os/lib/libutee/tee_user_mem.c:166
    44f8:	f90003e4 	str	x4, [sp]
buf_size():
/home/asaf/devel/optee/optee_os/lib/libutee/tee_user_mem.c:136
    44fc:	d10084a5 	sub	x5, x5, #0x21
print_buf():
/home/asaf/devel/optee/optee_os/lib/libutee/tee_user_mem.c:166
    4500:	f9000be5 	str	x5, [sp,#16]
buf_addr():
/home/asaf/devel/optee/optee_os/lib/libutee/tee_user_mem.c:131
    4504:	91008085 	add	x5, x4, #0x20
print_buf():
/home/asaf/devel/optee/optee_os/lib/libutee/tee_user_mem.c:166
    4508:	f90007e5 	str	x5, [sp,#8]
    450c:	f0000024 	adrp	x4, b000 <PRIME_TABLE+0x350>
    4510:	aa0103e5 	mov	x5, x1
    4514:	912ed484 	add	x4, x4, #0xbb5
    4518:	52800001 	mov	w1, #0x0                   	// #0
    451c:	9400097c 	bl	6b0c <trace_printf>
/home/asaf/devel/optee/optee_os/lib/libutee/tee_user_mem.c:169
    4520:	a9427bfd 	ldp	x29, x30, [sp,#32]
    4524:	9100c3ff 	add	sp, sp, #0x30
    4528:	d65f03c0 	ret

000000000000452c <check_elem>:
check_elem():
/home/asaf/devel/optee/optee_os/lib/libutee/tee_user_mem.c:240
    452c:	b40007e0 	cbz	x0, 4628 <check_elem+0xfc>
/home/asaf/devel/optee/optee_os/lib/libutee/tee_user_mem.c:236
    4530:	a9be7bfd 	stp	x29, x30, [sp,#-32]!
/home/asaf/devel/optee/optee_os/lib/libutee/tee_user_mem.c:243
    4534:	f240041f 	tst	x0, #0x3
/home/asaf/devel/optee/optee_os/lib/libutee/tee_user_mem.c:236
    4538:	910003fd 	mov	x29, sp
    453c:	f9000bf3 	str	x19, [sp,#16]
    4540:	aa0003f3 	mov	x19, x0
/home/asaf/devel/optee/optee_os/lib/libutee/tee_user_mem.c:243
    4544:	54000160 	b.eq	4570 <check_elem+0x44>
/home/asaf/devel/optee/optee_os/lib/libutee/tee_user_mem.c:244
    4548:	f0000024 	adrp	x4, b000 <PRIME_TABLE+0x350>
    454c:	912f5c84 	add	x4, x4, #0xbd7
    4550:	52800023 	mov	w3, #0x1                   	// #1
    4554:	52800022 	mov	w2, #0x1                   	// #1
    4558:	52801e81 	mov	w1, #0xf4                  	// #244
    455c:	d0000020 	adrp	x0, a000 <mpa_init_static_fmm_context+0x3c>
    4560:	912b8000 	add	x0, x0, #0xae0
    4564:	9400096a 	bl	6b0c <trace_printf>
/home/asaf/devel/optee/optee_os/lib/libutee/tee_user_mem.c:245
    4568:	52800000 	mov	w0, #0x0                   	// #0
    456c:	97fff845 	bl	2680 <TEE_Panic>
/home/asaf/devel/optee/optee_os/lib/libutee/tee_user_mem.c:248
    4570:	f9400264 	ldr	x4, [x19]
/home/asaf/devel/optee/optee_os/lib/libutee/tee_user_mem.c:249
    4574:	b4000224 	cbz	x4, 45b8 <check_elem+0x8c>
/home/asaf/devel/optee/optee_os/lib/libutee/tee_user_mem.c:249 (discriminator 1)
    4578:	f9400480 	ldr	x0, [x4,#8]
    457c:	f9400400 	ldr	x0, [x0,#8]
    4580:	f9400000 	ldr	x0, [x0]
    4584:	eb00027f 	cmp	x19, x0
    4588:	54000180 	b.eq	45b8 <check_elem+0x8c>
/home/asaf/devel/optee/optee_os/lib/libutee/tee_user_mem.c:250
    458c:	f0000023 	adrp	x3, b000 <PRIME_TABLE+0x350>
    4590:	912fb463 	add	x3, x3, #0xbed
    4594:	52801f42 	mov	w2, #0xfa                  	// #250
/home/asaf/devel/optee/optee_os/lib/libutee/tee_user_mem.c:256
    4598:	d0000021 	adrp	x1, a000 <mpa_init_static_fmm_context+0x3c>
    459c:	912b8021 	add	x1, x1, #0xae0
    45a0:	52800020 	mov	w0, #0x1                   	// #1
check_elem_end():
/home/asaf/devel/optee/optee_os/lib/libutee/tee_user_mem.c:228
    45a4:	97ffffcc 	bl	44d4 <print_buf>
/home/asaf/devel/optee/optee_os/lib/libutee/tee_user_mem.c:229
    45a8:	52800000 	mov	w0, #0x0                   	// #0
check_elem():
/home/asaf/devel/optee/optee_os/lib/libutee/tee_user_mem.c:261
    45ac:	f9400bf3 	ldr	x19, [sp,#16]
    45b0:	a8c27bfd 	ldp	x29, x30, [sp],#32
    45b4:	d65f03c0 	ret
/home/asaf/devel/optee/optee_os/lib/libutee/tee_user_mem.c:254
    45b8:	f9400660 	ldr	x0, [x19,#8]
    45bc:	f9400400 	ldr	x0, [x0,#8]
    45c0:	f9400004 	ldr	x4, [x0]
/home/asaf/devel/optee/optee_os/lib/libutee/tee_user_mem.c:255
    45c4:	b4000104 	cbz	x4, 45e4 <check_elem+0xb8>
    45c8:	f9400080 	ldr	x0, [x4]
    45cc:	eb00027f 	cmp	x19, x0
    45d0:	540000a0 	b.eq	45e4 <check_elem+0xb8>
/home/asaf/devel/optee/optee_os/lib/libutee/tee_user_mem.c:256
    45d4:	f0000023 	adrp	x3, b000 <PRIME_TABLE+0x350>
    45d8:	52802002 	mov	w2, #0x100                 	// #256
    45dc:	912fb463 	add	x3, x3, #0xbed
    45e0:	17ffffee 	b	4598 <check_elem+0x6c>
check_elem_end():
/home/asaf/devel/optee/optee_os/lib/libutee/tee_user_mem.c:226
    45e4:	f9400a60 	ldr	x0, [x19,#16]
/home/asaf/devel/optee/optee_os/lib/libutee/tee_user_mem.c:227
    45e8:	92401e61 	and	x1, x19, #0xff
/home/asaf/devel/optee/optee_os/lib/libutee/tee_user_mem.c:226
    45ec:	8b000260 	add	x0, x19, x0
    45f0:	385ff002 	ldurb	w2, [x0,#-1]
/home/asaf/devel/optee/optee_os/lib/libutee/tee_user_mem.c:227
    45f4:	d28018a0 	mov	x0, #0xc5                  	// #197
    45f8:	ca000021 	eor	x1, x1, x0
/home/asaf/devel/optee/optee_os/lib/libutee/tee_user_mem.c:232
    45fc:	52800020 	mov	w0, #0x1                   	// #1
/home/asaf/devel/optee/optee_os/lib/libutee/tee_user_mem.c:226
    4600:	eb01005f 	cmp	x2, x1
    4604:	54fffd40 	b.eq	45ac <check_elem+0x80>
/home/asaf/devel/optee/optee_os/lib/libutee/tee_user_mem.c:228
    4608:	d0000021 	adrp	x1, a000 <mpa_init_static_fmm_context+0x3c>
    460c:	912b8021 	add	x1, x1, #0xae0
    4610:	f0000023 	adrp	x3, b000 <PRIME_TABLE+0x350>
    4614:	aa1303e4 	mov	x4, x19
    4618:	912fe063 	add	x3, x3, #0xbf8
    461c:	52801c82 	mov	w2, #0xe4                  	// #228
    4620:	91004021 	add	x1, x1, #0x10
    4624:	17ffffe0 	b	45a4 <check_elem+0x78>
check_elem():
/home/asaf/devel/optee/optee_os/lib/libutee/tee_user_mem.c:241
    4628:	52800000 	mov	w0, #0x0                   	// #0
    462c:	d65f03c0 	ret

0000000000004630 <tee_user_mem_alloc>:
tee_user_mem_alloc():
/home/asaf/devel/optee/optee_os/lib/libutee/tee_user_mem.c:297
    4630:	a9bd7bfd 	stp	x29, x30, [sp,#-48]!
    4634:	910003fd 	mov	x29, sp
    4638:	a90153f3 	stp	x19, x20, [sp,#16]
    463c:	a9025bf5 	stp	x21, x22, [sp,#32]
/home/asaf/devel/optee/optee_os/lib/libutee/tee_user_mem.c:306
    4640:	36f800e0 	tbz	w0, #31, 465c <tee_user_mem_alloc+0x2c>
/home/asaf/devel/optee/optee_os/lib/libutee/tee_user_mem.c:324
    4644:	d2800013 	mov	x19, #0x0                   	// #0
/home/asaf/devel/optee/optee_os/lib/libutee/tee_user_mem.c:358
    4648:	aa1303e0 	mov	x0, x19
    464c:	a94153f3 	ldp	x19, x20, [sp,#16]
    4650:	a9425bf5 	ldp	x21, x22, [sp,#32]
    4654:	a8c37bfd 	ldp	x29, x30, [sp],#48
    4658:	d65f03c0 	ret
/home/asaf/devel/optee/optee_os/lib/libutee/tee_user_mem.c:313
    465c:	d2800213 	mov	x19, #0x10                  	// #16
/home/asaf/devel/optee/optee_os/lib/libutee/tee_user_mem.c:311
    4660:	b4ffff40 	cbz	x0, 4648 <tee_user_mem_alloc+0x18>
    4664:	2a0103f6 	mov	w22, w1
    4668:	aa0003f4 	mov	x20, x0
/home/asaf/devel/optee/optee_os/lib/libutee/tee_user_mem.c:317
    466c:	340001e1 	cbz	w1, 46a8 <tee_user_mem_alloc+0x78>
    4670:	52b00000 	mov	w0, #0x80000000            	// #-2147483648
    4674:	6b00003f 	cmp	w1, w0
    4678:	54000180 	b.eq	46a8 <tee_user_mem_alloc+0x78>
/home/asaf/devel/optee/optee_os/lib/libutee/tee_user_mem.c:322
    467c:	d0000020 	adrp	x0, a000 <mpa_init_static_fmm_context+0x3c>
    4680:	912b8000 	add	x0, x0, #0xae0
    4684:	2a0103e5 	mov	w5, w1
    4688:	f0000024 	adrp	x4, b000 <PRIME_TABLE+0x350>
    468c:	52800023 	mov	w3, #0x1                   	// #1
    4690:	91301084 	add	x4, x4, #0xc04
    4694:	52800022 	mov	w2, #0x1                   	// #1
    4698:	52802841 	mov	w1, #0x142                 	// #322
    469c:	91008000 	add	x0, x0, #0x20
    46a0:	9400091b 	bl	6b0c <trace_printf>
    46a4:	17ffffe8 	b	4644 <tee_user_mem_alloc+0x14>
/home/asaf/devel/optee/optee_os/lib/libutee/tee_user_mem.c:300
    46a8:	91008695 	add	x21, x20, #0x21
/home/asaf/devel/optee/optee_os/lib/libutee/tee_user_mem.c:327
    46ac:	aa1503e0 	mov	x0, x21
    46b0:	97ffff81 	bl	44b4 <utee_malloc>
    46b4:	aa0003f3 	mov	x19, x0
/home/asaf/devel/optee/optee_os/lib/libutee/tee_user_mem.c:328
    46b8:	b4fffc60 	cbz	x0, 4644 <tee_user_mem_alloc+0x14>
heap_inc():
/home/asaf/devel/optee/optee_os/lib/libutee/tee_user_mem.c:197
    46bc:	d0000082 	adrp	x2, 16000 <mempool_u32+0xe90>
    46c0:	9132e040 	add	x0, x2, #0xcb8
/home/asaf/devel/optee/optee_os/lib/libutee/tee_user_mem.c:199
    46c4:	91002001 	add	x1, x0, #0x8
tee_user_mem_alloc():
/home/asaf/devel/optee/optee_os/lib/libutee/tee_user_mem.c:330
    46c8:	f9000a75 	str	x21, [x19,#16]
heap_inc():
/home/asaf/devel/optee/optee_os/lib/libutee/tee_user_mem.c:197
    46cc:	f9465c43 	ldr	x3, [x2,#3256]
tee_user_mem_alloc():
/home/asaf/devel/optee/optee_os/lib/libutee/tee_user_mem.c:343
    46d0:	aa1303e4 	mov	x4, x19
/home/asaf/devel/optee/optee_os/lib/libutee/tee_user_mem.c:331
    46d4:	b9001a76 	str	w22, [x19,#24]
heap_inc():
/home/asaf/devel/optee/optee_os/lib/libutee/tee_user_mem.c:197
    46d8:	8b150063 	add	x3, x3, x21
    46dc:	f9065c43 	str	x3, [x2,#3256]
/home/asaf/devel/optee/optee_os/lib/libutee/tee_user_mem.c:199
    46e0:	b9400802 	ldr	w2, [x0,#8]
tee_user_mem_alloc():
/home/asaf/devel/optee/optee_os/lib/libutee/tee_user_mem.c:343
    46e4:	f0000023 	adrp	x3, b000 <PRIME_TABLE+0x350>
    46e8:	91307863 	add	x3, x3, #0xc1e
heap_inc():
/home/asaf/devel/optee/optee_os/lib/libutee/tee_user_mem.c:199
    46ec:	11000442 	add	w2, w2, #0x1
    46f0:	b9000802 	str	w2, [x0,#8]
/home/asaf/devel/optee/optee_os/lib/libutee/tee_user_mem.c:200
    46f4:	f9400800 	ldr	x0, [x0,#16]
tee_user_mem_alloc():
/home/asaf/devel/optee/optee_os/lib/libutee/tee_user_mem.c:343
    46f8:	52802ae2 	mov	w2, #0x157                 	// #343
heap_inc():
/home/asaf/devel/optee/optee_os/lib/libutee/tee_user_mem.c:200
    46fc:	8b150015 	add	x21, x0, x21
tee_user_mem_alloc():
/home/asaf/devel/optee/optee_os/lib/libutee/tee_user_mem.c:335
    4700:	b0000040 	adrp	x0, d000 <ta_props>
    4704:	9103c000 	add	x0, x0, #0xf0
heap_inc():
/home/asaf/devel/optee/optee_os/lib/libutee/tee_user_mem.c:200
    4708:	f9000435 	str	x21, [x1,#8]
tee_user_mem_alloc():
/home/asaf/devel/optee/optee_os/lib/libutee/tee_user_mem.c:335
    470c:	f9400401 	ldr	x1, [x0,#8]
    4710:	a900067f 	stp	xzr, x1, [x19]
    4714:	f9000033 	str	x19, [x1]
/home/asaf/devel/optee/optee_os/lib/libutee/tee_user_mem.c:339
    4718:	8b140261 	add	x1, x19, x20
/home/asaf/devel/optee/optee_os/lib/libutee/tee_user_mem.c:335
    471c:	f9000413 	str	x19, [x0,#8]
/home/asaf/devel/optee/optee_os/lib/libutee/tee_user_mem.c:340
    4720:	12800740 	mov	w0, #0xffffffc5            	// #-59
    4724:	4a130000 	eor	w0, w0, w19
buf_addr():
/home/asaf/devel/optee/optee_os/lib/libutee/tee_user_mem.c:131
    4728:	91008273 	add	x19, x19, #0x20
tee_user_mem_alloc():
/home/asaf/devel/optee/optee_os/lib/libutee/tee_user_mem.c:339
    472c:	39008020 	strb	w0, [x1,#32]
/home/asaf/devel/optee/optee_os/lib/libutee/tee_user_mem.c:343
    4730:	d0000020 	adrp	x0, a000 <mpa_init_static_fmm_context+0x3c>
    4734:	912b8000 	add	x0, x0, #0xae0
    4738:	91008001 	add	x1, x0, #0x20
    473c:	52800080 	mov	w0, #0x4                   	// #4
    4740:	97ffff65 	bl	44d4 <print_buf>
/home/asaf/devel/optee/optee_os/lib/libutee/tee_user_mem.c:347
    4744:	350000d6 	cbnz	w22, 475c <tee_user_mem_alloc+0x12c>
/home/asaf/devel/optee/optee_os/lib/libutee/tee_user_mem.c:348
    4748:	aa1403e2 	mov	x2, x20
    474c:	52800001 	mov	w1, #0x0                   	// #0
    4750:	aa1303e0 	mov	x0, x19
    4754:	940005a7 	bl	5df0 <memset>
    4758:	17ffffbc 	b	4648 <tee_user_mem_alloc+0x18>
/home/asaf/devel/optee/optee_os/lib/libutee/tee_user_mem.c:350
    475c:	52b00000 	mov	w0, #0x80000000            	// #-2147483648
    4760:	6b0002df 	cmp	w22, w0
    4764:	54fff721 	b.ne	4648 <tee_user_mem_alloc+0x18>
/home/asaf/devel/optee/optee_os/lib/libutee/tee_user_mem.c:352
    4768:	aa1403e2 	mov	x2, x20
    476c:	52801761 	mov	w1, #0xbb                  	// #187
    4770:	aa1303e0 	mov	x0, x19
    4774:	9400059f 	bl	5df0 <memset>
    4778:	17ffffb4 	b	4648 <tee_user_mem_alloc+0x18>

000000000000477c <tee_user_mem_free>:
tee_user_mem_free():
/home/asaf/devel/optee/optee_os/lib/libutee/tee_user_mem.c:430
    477c:	f100001f 	cmp	x0, #0x0
    4780:	fa501804 	ccmp	x0, #0x10, #0x4, ne
    4784:	540009c0 	b.eq	48bc <tee_user_mem_free+0x140>
/home/asaf/devel/optee/optee_os/lib/libutee/tee_user_mem.c:423
    4788:	a9bd7bfd 	stp	x29, x30, [sp,#-48]!
is_buffer_valid():
/home/asaf/devel/optee/optee_os/lib/libutee/tee_user_mem.c:151
    478c:	b0000041 	adrp	x1, d000 <ta_props>
tee_user_mem_free():
/home/asaf/devel/optee/optee_os/lib/libutee/tee_user_mem.c:423
    4790:	910003fd 	mov	x29, sp
    4794:	a90153f3 	stp	x19, x20, [sp,#16]
is_buffer_valid():
/home/asaf/devel/optee/optee_os/lib/libutee/tee_user_mem.c:151
    4798:	f9407834 	ldr	x20, [x1,#240]
tee_user_mem_free():
/home/asaf/devel/optee/optee_os/lib/libutee/tee_user_mem.c:423
    479c:	a9025bf5 	stp	x21, x22, [sp,#32]
    47a0:	aa0103f6 	mov	x22, x1
is_buffer_valid():
/home/asaf/devel/optee/optee_os/lib/libutee/tee_user_mem.c:151
    47a4:	b50001d4 	cbnz	x20, 47dc <tee_user_mem_free+0x60>
tee_user_mem_free():
/home/asaf/devel/optee/optee_os/lib/libutee/tee_user_mem.c:468
    47a8:	a94153f3 	ldp	x19, x20, [sp,#16]
/home/asaf/devel/optee/optee_os/lib/libutee/tee_user_mem.c:435
    47ac:	aa0003e5 	mov	x5, x0
/home/asaf/devel/optee/optee_os/lib/libutee/tee_user_mem.c:468
    47b0:	a9425bf5 	ldp	x21, x22, [sp,#32]
/home/asaf/devel/optee/optee_os/lib/libutee/tee_user_mem.c:435
    47b4:	d0000020 	adrp	x0, a000 <mpa_init_static_fmm_context+0x3c>
/home/asaf/devel/optee/optee_os/lib/libutee/tee_user_mem.c:468
    47b8:	a8c37bfd 	ldp	x29, x30, [sp],#48
/home/asaf/devel/optee/optee_os/lib/libutee/tee_user_mem.c:435
    47bc:	912b8000 	add	x0, x0, #0xae0
    47c0:	f0000024 	adrp	x4, b000 <PRIME_TABLE+0x350>
    47c4:	52800023 	mov	w3, #0x1                   	// #1
    47c8:	9130f884 	add	x4, x4, #0xc3e
    47cc:	52800022 	mov	w2, #0x1                   	// #1
    47d0:	52803661 	mov	w1, #0x1b3                 	// #435
    47d4:	9100e000 	add	x0, x0, #0x38
    47d8:	140008cd 	b	6b0c <trace_printf>
buf_addr():
/home/asaf/devel/optee/optee_os/lib/libutee/tee_user_mem.c:131
    47dc:	91008281 	add	x1, x20, #0x20
is_buffer_valid():
/home/asaf/devel/optee/optee_os/lib/libutee/tee_user_mem.c:152
    47e0:	eb01001f 	cmp	x0, x1
    47e4:	540000c0 	b.eq	47fc <tee_user_mem_free+0x80>
/home/asaf/devel/optee/optee_os/lib/libutee/tee_user_mem.c:151
    47e8:	f9400294 	ldr	x20, [x20]
    47ec:	17ffffee 	b	47a4 <tee_user_mem_free+0x28>
tee_user_mem_free():
/home/asaf/devel/optee/optee_os/lib/libutee/tee_user_mem.c:451
    47f0:	9103c2d6 	add	x22, x22, #0xf0
    47f4:	f90006c1 	str	x1, [x22,#8]
    47f8:	1400001b 	b	4864 <tee_user_mem_free+0xe8>
/home/asaf/devel/optee/optee_os/lib/libutee/tee_user_mem.c:442
    47fc:	d0000035 	adrp	x21, a000 <mpa_init_static_fmm_context+0x3c>
    4800:	912b82b5 	add	x21, x21, #0xae0
    4804:	9100e2b5 	add	x21, x21, #0x38
    4808:	aa1403e4 	mov	x4, x20
    480c:	f0000023 	adrp	x3, b000 <PRIME_TABLE+0x350>
    4810:	aa1503e1 	mov	x1, x21
    4814:	91316063 	add	x3, x3, #0xc58
    4818:	52803742 	mov	w2, #0x1ba                 	// #442
    481c:	aa0003f3 	mov	x19, x0
    4820:	52800080 	mov	w0, #0x4                   	// #4
    4824:	97ffff2c 	bl	44d4 <print_buf>
/home/asaf/devel/optee/optee_os/lib/libutee/tee_user_mem.c:445
    4828:	aa1403e0 	mov	x0, x20
    482c:	97ffff40 	bl	452c <check_elem>
    4830:	35000140 	cbnz	w0, 4858 <tee_user_mem_free+0xdc>
/home/asaf/devel/optee/optee_os/lib/libutee/tee_user_mem.c:446
    4834:	f0000024 	adrp	x4, b000 <PRIME_TABLE+0x350>
    4838:	9130a484 	add	x4, x4, #0xc29
    483c:	52800023 	mov	w3, #0x1                   	// #1
    4840:	52800022 	mov	w2, #0x1                   	// #1
    4844:	528037c1 	mov	w1, #0x1be                 	// #446
    4848:	aa1503e0 	mov	x0, x21
    484c:	940008b0 	bl	6b0c <trace_printf>
/home/asaf/devel/optee/optee_os/lib/libutee/tee_user_mem.c:447
    4850:	52800000 	mov	w0, #0x0                   	// #0
    4854:	97fff78b 	bl	2680 <TEE_Panic>
    4858:	a97e0660 	ldp	x0, x1, [x19,#-32]
/home/asaf/devel/optee/optee_os/lib/libutee/tee_user_mem.c:451
    485c:	b4fffca0 	cbz	x0, 47f0 <tee_user_mem_free+0x74>
    4860:	f9000401 	str	x1, [x0,#8]
/home/asaf/devel/optee/optee_os/lib/libutee/tee_user_mem.c:453
    4864:	a97e8a61 	ldp	x1, x2, [x19,#-24]
/home/asaf/devel/optee/optee_os/lib/libutee/tee_user_mem.c:451
    4868:	f9000020 	str	x0, [x1]
heap_dec():
/home/asaf/devel/optee/optee_os/lib/libutee/tee_user_mem.c:207
    486c:	d0000081 	adrp	x1, 16000 <mempool_u32+0xe90>
    4870:	9132e020 	add	x0, x1, #0xcb8
    4874:	f9465c23 	ldr	x3, [x1,#3256]
    4878:	cb020063 	sub	x3, x3, x2
    487c:	f9065c23 	str	x3, [x1,#3256]
/home/asaf/devel/optee/optee_os/lib/libutee/tee_user_mem.c:209
    4880:	b9400801 	ldr	w1, [x0,#8]
    4884:	91002003 	add	x3, x0, #0x8
    4888:	51000421 	sub	w1, w1, #0x1
    488c:	b9000801 	str	w1, [x0,#8]
/home/asaf/devel/optee/optee_os/lib/libutee/tee_user_mem.c:210
    4890:	f9400800 	ldr	x0, [x0,#16]
tee_user_mem_free():
/home/asaf/devel/optee/optee_os/lib/libutee/tee_user_mem.c:462
    4894:	52801541 	mov	w1, #0xaa                  	// #170
heap_dec():
/home/asaf/devel/optee/optee_os/lib/libutee/tee_user_mem.c:210
    4898:	cb020000 	sub	x0, x0, x2
    489c:	f9000460 	str	x0, [x3,#8]
tee_user_mem_free():
/home/asaf/devel/optee/optee_os/lib/libutee/tee_user_mem.c:462
    48a0:	aa1403e0 	mov	x0, x20
    48a4:	94000553 	bl	5df0 <memset>
/home/asaf/devel/optee/optee_os/lib/libutee/tee_user_mem.c:465
    48a8:	aa1403e0 	mov	x0, x20
/home/asaf/devel/optee/optee_os/lib/libutee/tee_user_mem.c:468
    48ac:	a9425bf5 	ldp	x21, x22, [sp,#32]
    48b0:	a94153f3 	ldp	x19, x20, [sp,#16]
    48b4:	a8c37bfd 	ldp	x29, x30, [sp],#48
/home/asaf/devel/optee/optee_os/lib/libutee/tee_user_mem.c:465
    48b8:	17ffff05 	b	44cc <utee_free>
    48bc:	d65f03c0 	ret

00000000000048c0 <tee_user_mem_realloc>:
tee_user_mem_realloc():
/home/asaf/devel/optee/optee_os/lib/libutee/tee_user_mem.c:367
    48c0:	a9bd7bfd 	stp	x29, x30, [sp,#-48]!
    48c4:	910003fd 	mov	x29, sp
    48c8:	a90153f3 	stp	x19, x20, [sp,#16]
    48cc:	a9025bf5 	stp	x21, x22, [sp,#32]
/home/asaf/devel/optee/optee_os/lib/libutee/tee_user_mem.c:374
    48d0:	37f80261 	tbnz	w1, #31, 491c <tee_user_mem_realloc+0x5c>
/home/asaf/devel/optee/optee_os/lib/libutee/tee_user_mem.c:384 (discriminator 1)
    48d4:	f100001f 	cmp	x0, #0x0
    48d8:	aa0103f4 	mov	x20, x1
    48dc:	fa501804 	ccmp	x0, #0x10, #0x4, ne
    48e0:	54000080 	b.eq	48f0 <tee_user_mem_realloc+0x30>
is_buffer_valid():
/home/asaf/devel/optee/optee_os/lib/libutee/tee_user_mem.c:151
    48e4:	b0000041 	adrp	x1, d000 <ta_props>
    48e8:	f9407821 	ldr	x1, [x1,#240]
    48ec:	b50000e1 	cbnz	x1, 4908 <tee_user_mem_realloc+0x48>
tee_user_mem_realloc():
/home/asaf/devel/optee/optee_os/lib/libutee/tee_user_mem.c:385
    48f0:	aa1403e0 	mov	x0, x20
    48f4:	52800001 	mov	w1, #0x0                   	// #0
/home/asaf/devel/optee/optee_os/lib/libutee/tee_user_mem.c:416
    48f8:	a94153f3 	ldp	x19, x20, [sp,#16]
    48fc:	a9425bf5 	ldp	x21, x22, [sp,#32]
    4900:	a8c37bfd 	ldp	x29, x30, [sp],#48
/home/asaf/devel/optee/optee_os/lib/libutee/tee_user_mem.c:385
    4904:	17ffff4b 	b	4630 <tee_user_mem_alloc>
buf_addr():
/home/asaf/devel/optee/optee_os/lib/libutee/tee_user_mem.c:131
    4908:	91008023 	add	x3, x1, #0x20
is_buffer_valid():
/home/asaf/devel/optee/optee_os/lib/libutee/tee_user_mem.c:152
    490c:	eb03001f 	cmp	x0, x3
    4910:	540000a0 	b.eq	4924 <tee_user_mem_realloc+0x64>
/home/asaf/devel/optee/optee_os/lib/libutee/tee_user_mem.c:151
    4914:	f9400021 	ldr	x1, [x1]
    4918:	17fffff5 	b	48ec <tee_user_mem_realloc+0x2c>
tee_user_mem_realloc():
/home/asaf/devel/optee/optee_os/lib/libutee/tee_user_mem.c:376
    491c:	d2800016 	mov	x22, #0x0                   	// #0
    4920:	14000012 	b	4968 <tee_user_mem_realloc+0xa8>
buf_size():
/home/asaf/devel/optee/optee_os/lib/libutee/tee_user_mem.c:136
    4924:	f85f0015 	ldur	x21, [x0,#-16]
tee_user_mem_realloc():
    4928:	aa0003f6 	mov	x22, x0
buf_size():
    492c:	d10086b5 	sub	x21, x21, #0x21
tee_user_mem_realloc():
/home/asaf/devel/optee/optee_os/lib/libutee/tee_user_mem.c:396
    4930:	eb15029f 	cmp	x20, x21
    4934:	540001a0 	b.eq	4968 <tee_user_mem_realloc+0xa8>
/home/asaf/devel/optee/optee_os/lib/libutee/tee_user_mem.c:406
    4938:	b9401821 	ldr	w1, [x1,#24]
    493c:	aa0003f3 	mov	x19, x0
    4940:	aa1403e0 	mov	x0, x20
    4944:	97ffff3b 	bl	4630 <tee_user_mem_alloc>
    4948:	aa0003f6 	mov	x22, x0
/home/asaf/devel/optee/optee_os/lib/libutee/tee_user_mem.c:407
    494c:	b40000e0 	cbz	x0, 4968 <tee_user_mem_realloc+0xa8>
/home/asaf/devel/optee/optee_os/lib/libutee/tee_user_mem.c:408
    4950:	eb15029f 	cmp	x20, x21
    4954:	aa1303e1 	mov	x1, x19
    4958:	9a959282 	csel	x2, x20, x21, ls
    495c:	9400050a 	bl	5d84 <memcpy>
/home/asaf/devel/optee/optee_os/lib/libutee/tee_user_mem.c:411
    4960:	aa1303e0 	mov	x0, x19
    4964:	97ffff86 	bl	477c <tee_user_mem_free>
/home/asaf/devel/optee/optee_os/lib/libutee/tee_user_mem.c:416
    4968:	aa1603e0 	mov	x0, x22
    496c:	a94153f3 	ldp	x19, x20, [sp,#16]
    4970:	a9425bf5 	ldp	x21, x22, [sp,#32]
    4974:	a8c37bfd 	ldp	x29, x30, [sp],#48
    4978:	d65f03c0 	ret

000000000000497c <tee_user_mem_mark_heap>:
tee_user_mem_mark_heap():
/home/asaf/devel/optee/optee_os/lib/libutee/tee_user_mem.c:478
    497c:	d0000080 	adrp	x0, 16000 <mempool_u32+0xe90>
    4980:	f9065c1f 	str	xzr, [x0,#3256]
    4984:	d65f03c0 	ret

0000000000004988 <tee_user_mem_check_heap>:
tee_user_mem_check_heap():
/home/asaf/devel/optee/optee_os/lib/libutee/tee_user_mem.c:488
    4988:	a9be7bfd 	stp	x29, x30, [sp,#-32]!
    498c:	910003fd 	mov	x29, sp
    4990:	a90153f3 	stp	x19, x20, [sp,#16]
/home/asaf/devel/optee/optee_os/lib/libutee/tee_user_mem.c:492
    4994:	d0000094 	adrp	x20, 16000 <mempool_u32+0xe90>
    4998:	f9465e93 	ldr	x19, [x20,#3256]
    499c:	b4000213 	cbz	x19, 49dc <tee_user_mem_check_heap+0x54>
/home/asaf/devel/optee/optee_os/lib/libutee/tee_user_mem.c:493
    49a0:	d0000020 	adrp	x0, a000 <mpa_init_static_fmm_context+0x3c>
    49a4:	912b8000 	add	x0, x0, #0xae0
    49a8:	aa1303e5 	mov	x5, x19
    49ac:	f0000024 	adrp	x4, b000 <PRIME_TABLE+0x350>
    49b0:	52800023 	mov	w3, #0x1                   	// #1
    49b4:	91317c84 	add	x4, x4, #0xc5f
    49b8:	52800022 	mov	w2, #0x1                   	// #1
    49bc:	52803da1 	mov	w1, #0x1ed                 	// #493
    49c0:	91014000 	add	x0, x0, #0x50
    49c4:	94000852 	bl	6b0c <trace_printf>
/home/asaf/devel/optee/optee_os/lib/libutee/tee_user_mem.c:495
    49c8:	f9465e93 	ldr	x19, [x20,#3256]
/home/asaf/devel/optee/optee_os/lib/libutee/tee_user_mem.c:502
    49cc:	aa1303e0 	mov	x0, x19
    49d0:	a94153f3 	ldp	x19, x20, [sp,#16]
    49d4:	a8c27bfd 	ldp	x29, x30, [sp],#32
    49d8:	d65f03c0 	ret
is_mem_coherent():
/home/asaf/devel/optee/optee_os/lib/libutee/tee_user_mem.c:268
    49dc:	b0000040 	adrp	x0, d000 <ta_props>
    49e0:	f9407814 	ldr	x20, [x0,#240]
    49e4:	b4ffff54 	cbz	x20, 49cc <tee_user_mem_check_heap+0x44>
/home/asaf/devel/optee/optee_os/lib/libutee/tee_user_mem.c:269
    49e8:	aa1403e0 	mov	x0, x20
    49ec:	97fffed0 	bl	452c <check_elem>
    49f0:	35000160 	cbnz	w0, 4a1c <tee_user_mem_check_heap+0x94>
/home/asaf/devel/optee/optee_os/lib/libutee/tee_user_mem.c:270
    49f4:	d0000023 	adrp	x3, a000 <mpa_init_static_fmm_context+0x3c>
    49f8:	912b8063 	add	x3, x3, #0xae0
    49fc:	9101a063 	add	x3, x3, #0x68
    4a00:	f0000021 	adrp	x1, b000 <PRIME_TABLE+0x350>
    4a04:	f0000020 	adrp	x0, b000 <PRIME_TABLE+0x350>
    4a08:	9131f021 	add	x1, x1, #0xc7c
    4a0c:	91386c00 	add	x0, x0, #0xe1b
    4a10:	528021c2 	mov	w2, #0x10e                 	// #270
    4a14:	94000080 	bl	4c14 <_assert_log>
    4a18:	94000090 	bl	4c58 <_assert_break>
/home/asaf/devel/optee/optee_os/lib/libutee/tee_user_mem.c:268
    4a1c:	f9400294 	ldr	x20, [x20]
    4a20:	17fffff1 	b	49e4 <tee_user_mem_check_heap+0x5c>

0000000000004a24 <tee_user_mem_garbage>:
tee_user_mem_garbage():
/home/asaf/devel/optee/optee_os/lib/libutee/tee_user_mem.c:537
    4a24:	a9bd7bfd 	stp	x29, x30, [sp,#-48]!
tee_user_mem_status():
/home/asaf/devel/optee/optee_os/lib/libutee/tee_user_mem.c:518
    4a28:	b0000040 	adrp	x0, d000 <ta_props>
tee_user_mem_garbage():
/home/asaf/devel/optee/optee_os/lib/libutee/tee_user_mem.c:537
    4a2c:	910003fd 	mov	x29, sp
    4a30:	a90153f3 	stp	x19, x20, [sp,#16]
tee_user_mem_status():
/home/asaf/devel/optee/optee_os/lib/libutee/tee_user_mem.c:519
    4a34:	d0000033 	adrp	x19, a000 <mpa_init_static_fmm_context+0x3c>
tee_user_mem_garbage():
/home/asaf/devel/optee/optee_os/lib/libutee/tee_user_mem.c:537
    4a38:	a9025bf5 	stp	x21, x22, [sp,#32]
tee_user_mem_status():
/home/asaf/devel/optee/optee_os/lib/libutee/tee_user_mem.c:519
    4a3c:	912b8273 	add	x19, x19, #0xae0
/home/asaf/devel/optee/optee_os/lib/libutee/tee_user_mem.c:518
    4a40:	f9407815 	ldr	x21, [x0,#240]
/home/asaf/devel/optee/optee_os/lib/libutee/tee_user_mem.c:519
    4a44:	f0000036 	adrp	x22, b000 <PRIME_TABLE+0x350>
    4a48:	aa0003f4 	mov	x20, x0
    4a4c:	9128c2d6 	add	x22, x22, #0xa30
    4a50:	9101e273 	add	x19, x19, #0x78
/home/asaf/devel/optee/optee_os/lib/libutee/tee_user_mem.c:518
    4a54:	b50000f5 	cbnz	x21, 4a70 <tee_user_mem_garbage+0x4c>
tee_user_mem_garbage():
/home/asaf/devel/optee/optee_os/lib/libutee/tee_user_mem.c:542
    4a58:	f9407a80 	ldr	x0, [x20,#240]
    4a5c:	b50001a0 	cbnz	x0, 4a90 <tee_user_mem_garbage+0x6c>
/home/asaf/devel/optee/optee_os/lib/libutee/tee_user_mem.c:544
    4a60:	a94153f3 	ldp	x19, x20, [sp,#16]
    4a64:	a9425bf5 	ldp	x21, x22, [sp,#32]
    4a68:	a8c37bfd 	ldp	x29, x30, [sp],#48
    4a6c:	d65f03c0 	ret
tee_user_mem_status():
/home/asaf/devel/optee/optee_os/lib/libutee/tee_user_mem.c:519
    4a70:	aa1503e4 	mov	x4, x21
    4a74:	aa1603e3 	mov	x3, x22
    4a78:	528040e2 	mov	w2, #0x207                 	// #519
    4a7c:	aa1303e1 	mov	x1, x19
    4a80:	52800020 	mov	w0, #0x1                   	// #1
    4a84:	97fffe94 	bl	44d4 <print_buf>
/home/asaf/devel/optee/optee_os/lib/libutee/tee_user_mem.c:518
    4a88:	f94002b5 	ldr	x21, [x21]
    4a8c:	17fffff2 	b	4a54 <tee_user_mem_garbage+0x30>
tee_user_mem_garbage():
/home/asaf/devel/optee/optee_os/lib/libutee/tee_user_mem.c:543
    4a90:	91008000 	add	x0, x0, #0x20
    4a94:	97ffff3a 	bl	477c <tee_user_mem_free>
    4a98:	17fffff0 	b	4a58 <tee_user_mem_garbage+0x34>

0000000000004a9c <trace_ext_puts>:
trace_ext_puts():
/home/asaf/devel/optee/optee_os/lib/libutee/trace_ext.c:39
    4a9c:	a9be7bfd 	stp	x29, x30, [sp,#-32]!
    4aa0:	910003fd 	mov	x29, sp
    4aa4:	f9000bf3 	str	x19, [sp,#16]
    4aa8:	aa0003f3 	mov	x19, x0
/home/asaf/devel/optee/optee_os/lib/libutee/trace_ext.c:40
    4aac:	940004d8 	bl	5e0c <strlen>
    4ab0:	aa0003e1 	mov	x1, x0
    4ab4:	aa1303e0 	mov	x0, x19
/home/asaf/devel/optee/optee_os/lib/libutee/trace_ext.c:41
    4ab8:	f9400bf3 	ldr	x19, [sp,#16]
    4abc:	a8c27bfd 	ldp	x29, x30, [sp],#32
/home/asaf/devel/optee/optee_os/lib/libutee/trace_ext.c:40
    4ac0:	17fff7a8 	b	2960 <utee_log>

0000000000004ac4 <trace_ext_get_thread_id>:
trace_ext_get_thread_id():
/home/asaf/devel/optee/optee_os/lib/libutee/trace_ext.c:46
    4ac4:	12800000 	mov	w0, #0xffffffff            	// #-1
    4ac8:	d65f03c0 	ret

0000000000004acc <printf>:
printf():
/home/asaf/devel/optee/optee_os/lib/libutee/trace_ext.c:54
    4acc:	d10883ff 	sub	sp, sp, #0x220
    4ad0:	a9007bfd 	stp	x29, x30, [sp]
    4ad4:	910003fd 	mov	x29, sp
    4ad8:	a90153f3 	stp	x19, x20, [sp,#16]
    4adc:	aa0003f3 	mov	x19, x0
    4ae0:	910403a0 	add	x0, x29, #0x100
    4ae4:	a91e8ba1 	stp	x1, x2, [x29,#488]
    4ae8:	a91f93a3 	stp	x3, x4, [x29,#504]
    4aec:	f90107a5 	str	x5, [x29,#520]
    4af0:	f9010ba6 	str	x6, [x29,#528]
    4af4:	f9010fa7 	str	x7, [x29,#536]
    4af8:	3d801800 	str	q0, [x0,#96]
    4afc:	3d801c01 	str	q1, [x0,#112]
    4b00:	3d802002 	str	q2, [x0,#128]
    4b04:	3d802403 	str	q3, [x0,#144]
    4b08:	3d802804 	str	q4, [x0,#160]
    4b0c:	3d802c05 	str	q5, [x0,#176]
    4b10:	3d803006 	str	q6, [x0,#192]
    4b14:	3d803407 	str	q7, [x0,#208]
/home/asaf/devel/optee/optee_os/lib/libutee/trace_ext.c:59
    4b18:	940007f9 	bl	6afc <trace_get_level>
    4b1c:	7100001f 	cmp	w0, #0x0
    4b20:	5400038d 	b.le	4b90 <printf+0xc4>
/home/asaf/devel/optee/optee_os/lib/libutee/trace_ext.c:62
    4b24:	910883a0 	add	x0, x29, #0x220
    4b28:	a90403a0 	stp	x0, x0, [x29,#64]
    4b2c:	910783a0 	add	x0, x29, #0x1e0
    4b30:	f9002ba0 	str	x0, [x29,#80]
    4b34:	128006e0 	mov	w0, #0xffffffc8            	// #-56
    4b38:	b9005ba0 	str	w0, [x29,#88]
    4b3c:	12800fe0 	mov	w0, #0xffffff80            	// #-128
    4b40:	b9005fa0 	str	w0, [x29,#92]
/home/asaf/devel/optee/optee_os/lib/libutee/trace_ext.c:63
    4b44:	a94407a0 	ldp	x0, x1, [x29,#64]
    4b48:	a90207a0 	stp	x0, x1, [x29,#32]
    4b4c:	a94507a0 	ldp	x0, x1, [x29,#80]
    4b50:	910183b4 	add	x20, x29, #0x60
    4b54:	a90307a0 	stp	x0, x1, [x29,#48]
    4b58:	aa1303e2 	mov	x2, x19
    4b5c:	910083a3 	add	x3, x29, #0x20
    4b60:	d2802001 	mov	x1, #0x100                 	// #256
    4b64:	aa1403e0 	mov	x0, x20
    4b68:	94000465 	bl	5cfc <vsnprintf>
    4b6c:	2a0003f3 	mov	w19, w0
/home/asaf/devel/optee/optee_os/lib/libutee/trace_ext.c:66
    4b70:	37f80060 	tbnz	w0, #31, 4b7c <printf+0xb0>
/home/asaf/devel/optee/optee_os/lib/libutee/trace_ext.c:69
    4b74:	aa1403e0 	mov	x0, x20
    4b78:	97ffffc9 	bl	4a9c <trace_ext_puts>
/home/asaf/devel/optee/optee_os/lib/libutee/trace_ext.c:72
    4b7c:	2a1303e0 	mov	w0, w19
    4b80:	a94153f3 	ldp	x19, x20, [sp,#16]
    4b84:	a9407bfd 	ldp	x29, x30, [sp]
    4b88:	910883ff 	add	sp, sp, #0x220
    4b8c:	d65f03c0 	ret
/home/asaf/devel/optee/optee_os/lib/libutee/trace_ext.c:60
    4b90:	52800013 	mov	w19, #0x0                   	// #0
    4b94:	17fffffa 	b	4b7c <printf+0xb0>

0000000000004b98 <puts>:
puts():
/home/asaf/devel/optee/optee_os/lib/libutee/trace_ext.c:75
    4b98:	a9be7bfd 	stp	x29, x30, [sp,#-32]!
    4b9c:	910003fd 	mov	x29, sp
    4ba0:	f9000bf3 	str	x19, [sp,#16]
    4ba4:	aa0003f3 	mov	x19, x0
/home/asaf/devel/optee/optee_os/lib/libutee/trace_ext.c:76
    4ba8:	940007d5 	bl	6afc <trace_get_level>
    4bac:	7100001f 	cmp	w0, #0x0
    4bb0:	540000cd 	b.le	4bc8 <puts+0x30>
/home/asaf/devel/optee/optee_os/lib/libutee/trace_ext.c:77
    4bb4:	aa1303e0 	mov	x0, x19
    4bb8:	97ffffb9 	bl	4a9c <trace_ext_puts>
/home/asaf/devel/optee/optee_os/lib/libutee/trace_ext.c:78
    4bbc:	f0000020 	adrp	x0, b000 <PRIME_TABLE+0x350>
    4bc0:	9128bc00 	add	x0, x0, #0xa2f
    4bc4:	97ffffb6 	bl	4a9c <trace_ext_puts>
/home/asaf/devel/optee/optee_os/lib/libutee/trace_ext.c:81
    4bc8:	52800020 	mov	w0, #0x1                   	// #1
    4bcc:	f9400bf3 	ldr	x19, [sp,#16]
    4bd0:	a8c27bfd 	ldp	x29, x30, [sp],#32
    4bd4:	d65f03c0 	ret

0000000000004bd8 <putchar>:
putchar():
/home/asaf/devel/optee/optee_os/lib/libutee/trace_ext.c:84
    4bd8:	a9bd7bfd 	stp	x29, x30, [sp,#-48]!
    4bdc:	910003fd 	mov	x29, sp
    4be0:	f9000bf3 	str	x19, [sp,#16]
    4be4:	2a0003f3 	mov	w19, w0
/home/asaf/devel/optee/optee_os/lib/libutee/trace_ext.c:85
    4be8:	3900a3a0 	strb	w0, [x29,#40]
    4bec:	3900a7bf 	strb	wzr, [x29,#41]
/home/asaf/devel/optee/optee_os/lib/libutee/trace_ext.c:87
    4bf0:	940007c3 	bl	6afc <trace_get_level>
    4bf4:	7100001f 	cmp	w0, #0x0
    4bf8:	5400006d 	b.le	4c04 <putchar+0x2c>
/home/asaf/devel/optee/optee_os/lib/libutee/trace_ext.c:88
    4bfc:	9100a3a0 	add	x0, x29, #0x28
    4c00:	97ffffa7 	bl	4a9c <trace_ext_puts>
/home/asaf/devel/optee/optee_os/lib/libutee/trace_ext.c:95
    4c04:	12001e60 	and	w0, w19, #0xff
    4c08:	f9400bf3 	ldr	x19, [sp,#16]
    4c0c:	a8c37bfd 	ldp	x29, x30, [sp],#48
    4c10:	d65f03c0 	ret

0000000000004c14 <_assert_log>:
_assert_log():
/home/asaf/devel/optee/optee_os/lib/libutee/assert.c:39
    4c14:	d10083ff 	sub	sp, sp, #0x20
/home/asaf/devel/optee/optee_os/lib/libutee/assert.c:40
    4c18:	2a0203e7 	mov	w7, w2
    4c1c:	aa0103e6 	mov	x6, x1
    4c20:	aa0003e5 	mov	x5, x0
    4c24:	52800022 	mov	w2, #0x1                   	// #1
    4c28:	52800001 	mov	w1, #0x0                   	// #0
/home/asaf/devel/optee/optee_os/lib/libutee/assert.c:39
    4c2c:	a9017bfd 	stp	x29, x30, [sp,#16]
    4c30:	910043fd 	add	x29, sp, #0x10
/home/asaf/devel/optee/optee_os/lib/libutee/assert.c:40
    4c34:	d2800000 	mov	x0, #0x0                   	// #0
    4c38:	f0000024 	adrp	x4, b000 <PRIME_TABLE+0x350>
    4c3c:	91325c84 	add	x4, x4, #0xc97
    4c40:	f90003e3 	str	x3, [sp]
    4c44:	52800023 	mov	w3, #0x1                   	// #1
    4c48:	940007b1 	bl	6b0c <trace_printf>
/home/asaf/devel/optee/optee_os/lib/libutee/assert.c:42
    4c4c:	a9417bfd 	ldp	x29, x30, [sp,#16]
    4c50:	910083ff 	add	sp, sp, #0x20
    4c54:	d65f03c0 	ret

0000000000004c58 <_assert_break>:
_assert_break():
/home/asaf/devel/optee/optee_os/lib/libutee/assert.c:45
    4c58:	a9bf7bfd 	stp	x29, x30, [sp,#-16]!
/home/asaf/devel/optee/optee_os/lib/libutee/assert.c:46
    4c5c:	d2bfffe0 	mov	x0, #0xffff0000            	// #4294901760
/home/asaf/devel/optee/optee_os/lib/libutee/assert.c:45
    4c60:	910003fd 	mov	x29, sp
/home/asaf/devel/optee/optee_os/lib/libutee/assert.c:46
    4c64:	97fff739 	bl	2948 <utee_panic>
    4c68:	14000000 	b	4c68 <_assert_break+0x10>

0000000000004c6c <raw_malloc_return_hook>:
raw_malloc_return_hook():
/home/asaf/devel/optee/optee_os/lib/libutils/isoc/bget_malloc.c:184
    4c6c:	d0000082 	adrp	x2, 16000 <mempool_u32+0xe90>
    4c70:	91334043 	add	x3, x2, #0xcd0
    4c74:	91002063 	add	x3, x3, #0x8
    4c78:	f9466844 	ldr	x4, [x2,#3280]
    4c7c:	b9402465 	ldr	w5, [x3,#36]
    4c80:	eb0400bf 	cmp	x5, x4
    4c84:	5400004a 	b.ge	4c8c <raw_malloc_return_hook+0x20>
/home/asaf/devel/optee/optee_os/lib/libutils/isoc/bget_malloc.c:185
    4c88:	b9002464 	str	w4, [x3,#36]
/home/asaf/devel/optee/optee_os/lib/libutils/isoc/bget_malloc.c:187
    4c8c:	b5000140 	cbnz	x0, 4cb4 <raw_malloc_return_hook+0x48>
/home/asaf/devel/optee/optee_os/lib/libutils/isoc/bget_malloc.c:188
    4c90:	91334040 	add	x0, x2, #0xcd0
    4c94:	91002000 	add	x0, x0, #0x8
    4c98:	b9402c02 	ldr	w2, [x0,#44]
    4c9c:	11000442 	add	w2, w2, #0x1
    4ca0:	b9002c02 	str	w2, [x0,#44]
/home/asaf/devel/optee/optee_os/lib/libutils/isoc/bget_malloc.c:189
    4ca4:	b9403002 	ldr	w2, [x0,#48]
    4ca8:	eb01005f 	cmp	x2, x1
    4cac:	54000042 	b.cs	4cb4 <raw_malloc_return_hook+0x48>
/home/asaf/devel/optee/optee_os/lib/libutils/isoc/bget_malloc.c:191
    4cb0:	29061001 	stp	w1, w4, [x0,#48]
    4cb4:	d65f03c0 	ret

0000000000004cb8 <create_free_block>:
create_free_block():
/home/asaf/devel/optee/optee_os/lib/libutils/isoc/bget_malloc.c:388
    4cb8:	a9bf7bfd 	stp	x29, x30, [sp,#-16]!
/home/asaf/devel/optee/optee_os/lib/libutils/isoc/bget_malloc.c:389
    4cbc:	8b010003 	add	x3, x0, x1
    4cc0:	eb02007f 	cmp	x3, x2
/home/asaf/devel/optee/optee_os/lib/libutils/isoc/bget_malloc.c:388
    4cc4:	910003fd 	mov	x29, sp
/home/asaf/devel/optee/optee_os/lib/libutils/isoc/bget_malloc.c:389
    4cc8:	54000140 	b.eq	4cf0 <create_free_block+0x38>
/home/asaf/devel/optee/optee_os/lib/libutils/isoc/bget_malloc.c:389 (discriminator 1)
    4ccc:	d0000023 	adrp	x3, a000 <mpa_init_static_fmm_context+0x3c>
    4cd0:	f0000021 	adrp	x1, b000 <PRIME_TABLE+0x350>
    4cd4:	f0000020 	adrp	x0, b000 <PRIME_TABLE+0x350>
    4cd8:	912dc063 	add	x3, x3, #0xb70
    4cdc:	9132f821 	add	x1, x1, #0xcbe
    4ce0:	91337800 	add	x0, x0, #0xcde
    4ce4:	528030a2 	mov	w2, #0x185                 	// #389
/home/asaf/devel/optee/optee_os/lib/libutils/isoc/bget_malloc.c:390 (discriminator 1)
    4ce8:	97ffffcb 	bl	4c14 <_assert_log>
    4cec:	97ffffdb 	bl	4c58 <_assert_break>
/home/asaf/devel/optee/optee_os/lib/libutils/isoc/bget_malloc.c:390
    4cf0:	f9400462 	ldr	x2, [x3,#8]
    4cf4:	b7f80122 	tbnz	x2, #63, 4d18 <create_free_block+0x60>
/home/asaf/devel/optee/optee_os/lib/libutils/isoc/bget_malloc.c:390 (discriminator 1)
    4cf8:	d0000023 	adrp	x3, a000 <mpa_init_static_fmm_context+0x3c>
    4cfc:	f0000021 	adrp	x1, b000 <PRIME_TABLE+0x350>
    4d00:	f0000020 	adrp	x0, b000 <PRIME_TABLE+0x350>
    4d04:	912dc063 	add	x3, x3, #0xb70
    4d08:	528030c2 	mov	w2, #0x186                 	// #390
    4d0c:	9132f821 	add	x1, x1, #0xcbe
    4d10:	9133e800 	add	x0, x0, #0xcfa
    4d14:	17fffff5 	b	4ce8 <create_free_block+0x30>
/home/asaf/devel/optee/optee_os/lib/libutils/isoc/bget_malloc.c:392
    4d18:	f8616802 	ldr	x2, [x0,x1]
    4d1c:	b4000122 	cbz	x2, 4d40 <create_free_block+0x88>
/home/asaf/devel/optee/optee_os/lib/libutils/isoc/bget_malloc.c:392 (discriminator 1)
    4d20:	d0000023 	adrp	x3, a000 <mpa_init_static_fmm_context+0x3c>
    4d24:	f0000021 	adrp	x1, b000 <PRIME_TABLE+0x350>
    4d28:	f0000020 	adrp	x0, b000 <PRIME_TABLE+0x350>
    4d2c:	912dc063 	add	x3, x3, #0xb70
    4d30:	52803102 	mov	w2, #0x188                 	// #392
    4d34:	9132f821 	add	x1, x1, #0xcbe
    4d38:	91342000 	add	x0, x0, #0xd08
    4d3c:	17ffffeb 	b	4ce8 <create_free_block+0x30>
/home/asaf/devel/optee/optee_os/lib/libutils/isoc/bget_malloc.c:395
    4d40:	a900041f 	stp	xzr, x1, [x0]
/home/asaf/devel/optee/optee_os/lib/libutils/isoc/bget_malloc.c:399
    4d44:	f8216801 	str	x1, [x0,x1]
/home/asaf/devel/optee/optee_os/lib/libutils/isoc/bget_malloc.c:402
    4d48:	b0000041 	adrp	x1, d000 <ta_props>
    4d4c:	91040021 	add	x1, x1, #0x100
    4d50:	f9400c23 	ldr	x3, [x1,#24]
    4d54:	f9400862 	ldr	x2, [x3,#16]
    4d58:	eb01005f 	cmp	x2, x1
    4d5c:	54000120 	b.eq	4d80 <create_free_block+0xc8>
/home/asaf/devel/optee/optee_os/lib/libutils/isoc/bget_malloc.c:402 (discriminator 1)
    4d60:	d0000023 	adrp	x3, a000 <mpa_init_static_fmm_context+0x3c>
    4d64:	f0000021 	adrp	x1, b000 <PRIME_TABLE+0x350>
    4d68:	f0000020 	adrp	x0, b000 <PRIME_TABLE+0x350>
    4d6c:	912dc063 	add	x3, x3, #0xb70
    4d70:	52803242 	mov	w2, #0x192                 	// #402
    4d74:	9132f821 	add	x1, x1, #0xcbe
    4d78:	91346800 	add	x0, x0, #0xd1a
    4d7c:	17ffffdb 	b	4ce8 <create_free_block+0x30>
/home/asaf/devel/optee/optee_os/lib/libutils/isoc/bget_malloc.c:403
    4d80:	f9400841 	ldr	x1, [x2,#16]
    4d84:	f9400c21 	ldr	x1, [x1,#24]
    4d88:	eb02003f 	cmp	x1, x2
    4d8c:	54000120 	b.eq	4db0 <create_free_block+0xf8>
/home/asaf/devel/optee/optee_os/lib/libutils/isoc/bget_malloc.c:403 (discriminator 1)
    4d90:	d0000023 	adrp	x3, a000 <mpa_init_static_fmm_context+0x3c>
    4d94:	f0000021 	adrp	x1, b000 <PRIME_TABLE+0x350>
    4d98:	f0000020 	adrp	x0, b000 <PRIME_TABLE+0x350>
    4d9c:	912dc063 	add	x3, x3, #0xb70
    4da0:	52803262 	mov	w2, #0x193                 	// #403
    4da4:	9132f821 	add	x1, x1, #0xcbe
    4da8:	91350c00 	add	x0, x0, #0xd43
    4dac:	17ffffcf 	b	4ce8 <create_free_block+0x30>
/home/asaf/devel/optee/optee_os/lib/libutils/isoc/bget_malloc.c:405
    4db0:	a9010c01 	stp	x1, x3, [x0,#16]
/home/asaf/devel/optee/optee_os/lib/libutils/isoc/bget_malloc.c:406
    4db4:	f9000c20 	str	x0, [x1,#24]
/home/asaf/devel/optee/optee_os/lib/libutils/isoc/bget_malloc.c:407
    4db8:	f9400c01 	ldr	x1, [x0,#24]
    4dbc:	f9000820 	str	x0, [x1,#16]
/home/asaf/devel/optee/optee_os/lib/libutils/isoc/bget_malloc.c:408
    4dc0:	a8c17bfd 	ldp	x29, x30, [sp],#16
    4dc4:	d65f03c0 	ret

0000000000004dc8 <bget>:
bget():
/home/asaf/devel/optee/optee_os/lib/libutils/isoc/bget.c:575
    4dc8:	a9bf7bfd 	stp	x29, x30, [sp,#-16]!
/home/asaf/devel/optee/optee_os/lib/libutils/isoc/bget.c:586
    4dcc:	f100001f 	cmp	x0, #0x0
/home/asaf/devel/optee/optee_os/lib/libutils/isoc/bget.c:575
    4dd0:	910003fd 	mov	x29, sp
/home/asaf/devel/optee/optee_os/lib/libutils/isoc/bget.c:586
    4dd4:	5400016c 	b.gt	4e00 <bget+0x38>
/home/asaf/devel/optee/optee_os/lib/libutils/isoc/bget.c:586 (discriminator 1)
    4dd8:	d0000023 	adrp	x3, a000 <mpa_init_static_fmm_context+0x3c>
    4ddc:	912dc063 	add	x3, x3, #0xb70
    4de0:	f0000021 	adrp	x1, b000 <PRIME_TABLE+0x350>
    4de4:	f0000020 	adrp	x0, b000 <PRIME_TABLE+0x350>
    4de8:	91006063 	add	x3, x3, #0x18
    4dec:	9135b021 	add	x1, x1, #0xd6c
    4df0:	913d6800 	add	x0, x0, #0xf5a
    4df4:	52804942 	mov	w2, #0x24a                 	// #586
/home/asaf/devel/optee/optee_os/lib/libutils/isoc/bget.c:645 (discriminator 1)
    4df8:	97ffff87 	bl	4c14 <_assert_log>
    4dfc:	97ffff97 	bl	4c58 <_assert_break>
/home/asaf/devel/optee/optee_os/lib/libutils/isoc/bget.c:593
    4e00:	f100401f 	cmp	x0, #0x10
/home/asaf/devel/optee/optee_os/lib/libutils/isoc/bget.c:607
    4e04:	b0000042 	adrp	x2, d000 <ta_props>
    4e08:	91040042 	add	x2, x2, #0x100
/home/asaf/devel/optee/optee_os/lib/libutils/isoc/bget.c:593
    4e0c:	d2800201 	mov	x1, #0x10                  	// #16
    4e10:	9a81a001 	csel	x1, x0, x1, ge
/home/asaf/devel/optee/optee_os/lib/libutils/isoc/bget.c:628
    4e14:	aa0203e3 	mov	x3, x2
/home/asaf/devel/optee/optee_os/lib/libutils/isoc/bget.c:593
    4e18:	91003c21 	add	x1, x1, #0xf
    4e1c:	927cec21 	and	x1, x1, #0xfffffffffffffff0
/home/asaf/devel/optee/optee_os/lib/libutils/isoc/bget.c:607
    4e20:	f9400840 	ldr	x0, [x2,#16]
/home/asaf/devel/optee/optee_os/lib/libutils/isoc/bget.c:597
    4e24:	91004021 	add	x1, x1, #0x10
/home/asaf/devel/optee/optee_os/lib/libutils/isoc/bget.c:628
    4e28:	eb03001f 	cmp	x0, x3
    4e2c:	54000061 	b.ne	4e38 <bget+0x70>
/home/asaf/devel/optee/optee_os/lib/libutils/isoc/bget.c:755
    4e30:	d2800000 	mov	x0, #0x0                   	// #0
    4e34:	14000022 	b	4ebc <bget+0xf4>
/home/asaf/devel/optee/optee_os/lib/libutils/isoc/bget.c:629
    4e38:	f9400402 	ldr	x2, [x0,#8]
    4e3c:	eb02003f 	cmp	x1, x2
    4e40:	54000aec 	b.gt	4f9c <bget+0x1d4>
/home/asaf/devel/optee/optee_os/lib/libutils/isoc/bget.c:640
    4e44:	cb010044 	sub	x4, x2, x1
    4e48:	d0000083 	adrp	x3, 16000 <mempool_u32+0xe90>
    4e4c:	f100809f 	cmp	x4, #0x20
    4e50:	540003ad 	b.le	4ec4 <bget+0xfc>
/home/asaf/devel/optee/optee_os/lib/libutils/isoc/bget.c:643
    4e54:	8b040005 	add	x5, x0, x4
/home/asaf/devel/optee/optee_os/lib/libutils/isoc/bget.c:645
    4e58:	f86168a6 	ldr	x6, [x5,x1]
    4e5c:	eb06005f 	cmp	x2, x6
    4e60:	54000140 	b.eq	4e88 <bget+0xc0>
/home/asaf/devel/optee/optee_os/lib/libutils/isoc/bget.c:645 (discriminator 1)
    4e64:	d0000023 	adrp	x3, a000 <mpa_init_static_fmm_context+0x3c>
    4e68:	912dc063 	add	x3, x3, #0xb70
    4e6c:	f0000021 	adrp	x1, b000 <PRIME_TABLE+0x350>
    4e70:	f0000020 	adrp	x0, b000 <PRIME_TABLE+0x350>
    4e74:	91006063 	add	x3, x3, #0x18
    4e78:	528050a2 	mov	w2, #0x285                 	// #645
    4e7c:	9135b021 	add	x1, x1, #0xd6c
    4e80:	91361400 	add	x0, x0, #0xd85
    4e84:	17ffffdd 	b	4df8 <bget+0x30>
/home/asaf/devel/optee/optee_os/lib/libutils/isoc/bget.c:647
    4e88:	f9000404 	str	x4, [x0,#8]
/home/asaf/devel/optee/optee_os/lib/libutils/isoc/bget.c:656
    4e8c:	91334062 	add	x2, x3, #0xcd0
/home/asaf/devel/optee/optee_os/lib/libutils/isoc/bget.c:649
    4e90:	f8246804 	str	x4, [x0,x4]
/home/asaf/devel/optee/optee_os/lib/libutils/isoc/bget.c:651
    4e94:	cb0103e0 	neg	x0, x1
    4e98:	f90004a0 	str	x0, [x5,#8]
/home/asaf/devel/optee/optee_os/lib/libutils/isoc/bget.c:656
    4e9c:	f9466860 	ldr	x0, [x3,#3280]
/home/asaf/devel/optee/optee_os/lib/libutils/isoc/bget.c:653
    4ea0:	f82168bf 	str	xzr, [x5,x1]
/home/asaf/devel/optee/optee_os/lib/libutils/isoc/bget.c:656
    4ea4:	8b010001 	add	x1, x0, x1
/home/asaf/devel/optee/optee_os/lib/libutils/isoc/bget.c:657
    4ea8:	f9402040 	ldr	x0, [x2,#64]
/home/asaf/devel/optee/optee_os/lib/libutils/isoc/bget.c:656
    4eac:	f9066861 	str	x1, [x3,#3280]
/home/asaf/devel/optee/optee_os/lib/libutils/isoc/bget.c:657
    4eb0:	91000400 	add	x0, x0, #0x1
    4eb4:	f9002040 	str	x0, [x2,#64]
/home/asaf/devel/optee/optee_os/lib/libutils/isoc/bget.c:659
    4eb8:	910040a0 	add	x0, x5, #0x10
/home/asaf/devel/optee/optee_os/lib/libutils/isoc/bget.c:756
    4ebc:	a8c17bfd 	ldp	x29, x30, [sp],#16
    4ec0:	d65f03c0 	ret
/home/asaf/devel/optee/optee_os/lib/libutils/isoc/bget.c:666
    4ec4:	f8626801 	ldr	x1, [x0,x2]
/home/asaf/devel/optee/optee_os/lib/libutils/isoc/bget.c:665
    4ec8:	8b020005 	add	x5, x0, x2
/home/asaf/devel/optee/optee_os/lib/libutils/isoc/bget.c:666
    4ecc:	eb01005f 	cmp	x2, x1
    4ed0:	54000140 	b.eq	4ef8 <bget+0x130>
/home/asaf/devel/optee/optee_os/lib/libutils/isoc/bget.c:666 (discriminator 1)
    4ed4:	d0000023 	adrp	x3, a000 <mpa_init_static_fmm_context+0x3c>
    4ed8:	912dc063 	add	x3, x3, #0xb70
    4edc:	f0000021 	adrp	x1, b000 <PRIME_TABLE+0x350>
    4ee0:	f0000020 	adrp	x0, b000 <PRIME_TABLE+0x350>
    4ee4:	91006063 	add	x3, x3, #0x18
    4ee8:	52805342 	mov	w2, #0x29a                 	// #666
    4eec:	9135b021 	add	x1, x1, #0xd6c
    4ef0:	91368400 	add	x0, x0, #0xda1
    4ef4:	17ffffc1 	b	4df8 <bget+0x30>
/home/asaf/devel/optee/optee_os/lib/libutils/isoc/bget.c:671
    4ef8:	f9400c01 	ldr	x1, [x0,#24]
    4efc:	f9400824 	ldr	x4, [x1,#16]
    4f00:	eb04001f 	cmp	x0, x4
    4f04:	54000140 	b.eq	4f2c <bget+0x164>
/home/asaf/devel/optee/optee_os/lib/libutils/isoc/bget.c:671 (discriminator 1)
    4f08:	d0000023 	adrp	x3, a000 <mpa_init_static_fmm_context+0x3c>
    4f0c:	912dc063 	add	x3, x3, #0xb70
    4f10:	f0000021 	adrp	x1, b000 <PRIME_TABLE+0x350>
    4f14:	f0000020 	adrp	x0, b000 <PRIME_TABLE+0x350>
    4f18:	91006063 	add	x3, x3, #0x18
    4f1c:	528053e2 	mov	w2, #0x29f                 	// #671
    4f20:	9135b021 	add	x1, x1, #0xd6c
    4f24:	9136f400 	add	x0, x0, #0xdbd
    4f28:	17ffffb4 	b	4df8 <bget+0x30>
/home/asaf/devel/optee/optee_os/lib/libutils/isoc/bget.c:672
    4f2c:	f9400804 	ldr	x4, [x0,#16]
    4f30:	f9400c86 	ldr	x6, [x4,#24]
    4f34:	eb06001f 	cmp	x0, x6
    4f38:	54000140 	b.eq	4f60 <bget+0x198>
/home/asaf/devel/optee/optee_os/lib/libutils/isoc/bget.c:672 (discriminator 1)
    4f3c:	d0000023 	adrp	x3, a000 <mpa_init_static_fmm_context+0x3c>
    4f40:	912dc063 	add	x3, x3, #0xb70
    4f44:	f0000021 	adrp	x1, b000 <PRIME_TABLE+0x350>
    4f48:	f0000020 	adrp	x0, b000 <PRIME_TABLE+0x350>
    4f4c:	91006063 	add	x3, x3, #0x18
    4f50:	52805402 	mov	w2, #0x2a0                 	// #672
    4f54:	9135b021 	add	x1, x1, #0xd6c
    4f58:	91376000 	add	x0, x0, #0xdd8
    4f5c:	17ffffa7 	b	4df8 <bget+0x30>
/home/asaf/devel/optee/optee_os/lib/libutils/isoc/bget.c:673
    4f60:	f9000824 	str	x4, [x1,#16]
/home/asaf/devel/optee/optee_os/lib/libutils/isoc/bget.c:688
    4f64:	91004000 	add	x0, x0, #0x10
/home/asaf/devel/optee/optee_os/lib/libutils/isoc/bget.c:674
    4f68:	f9400004 	ldr	x4, [x0]
    4f6c:	f9000c81 	str	x1, [x4,#24]
/home/asaf/devel/optee/optee_os/lib/libutils/isoc/bget.c:677
    4f70:	91334064 	add	x4, x3, #0xcd0
    4f74:	f9466861 	ldr	x1, [x3,#3280]
    4f78:	8b020021 	add	x1, x1, x2
    4f7c:	f9066861 	str	x1, [x3,#3280]
/home/asaf/devel/optee/optee_os/lib/libutils/isoc/bget.c:678
    4f80:	f9402081 	ldr	x1, [x4,#64]
/home/asaf/devel/optee/optee_os/lib/libutils/isoc/bget.c:681
    4f84:	cb0203e2 	neg	x2, x2
    4f88:	f81f8002 	stur	x2, [x0,#-8]
/home/asaf/devel/optee/optee_os/lib/libutils/isoc/bget.c:678
    4f8c:	91000421 	add	x1, x1, #0x1
/home/asaf/devel/optee/optee_os/lib/libutils/isoc/bget.c:685
    4f90:	f90000bf 	str	xzr, [x5]
/home/asaf/devel/optee/optee_os/lib/libutils/isoc/bget.c:678
    4f94:	f9002081 	str	x1, [x4,#64]
/home/asaf/devel/optee/optee_os/lib/libutils/isoc/bget.c:690
    4f98:	17ffffc9 	b	4ebc <bget+0xf4>
/home/asaf/devel/optee/optee_os/lib/libutils/isoc/bget.c:693
    4f9c:	f9400800 	ldr	x0, [x0,#16]
    4fa0:	17ffffa2 	b	4e28 <bget+0x60>

0000000000004fa4 <bgetz>:
bgetz():
/home/asaf/devel/optee/optee_os/lib/libutils/isoc/bget.c:764
    4fa4:	a9be7bfd 	stp	x29, x30, [sp,#-32]!
    4fa8:	910003fd 	mov	x29, sp
    4fac:	a90153f3 	stp	x19, x20, [sp,#16]
    4fb0:	aa0003f4 	mov	x20, x0
/home/asaf/devel/optee/optee_os/lib/libutils/isoc/bget.c:765
    4fb4:	97ffff85 	bl	4dc8 <bget>
    4fb8:	aa0003f3 	mov	x19, x0
/home/asaf/devel/optee/optee_os/lib/libutils/isoc/bget.c:767
    4fbc:	b4000300 	cbz	x0, 501c <bgetz+0x78>
/home/asaf/devel/optee/optee_os/lib/libutils/isoc/bget.c:772
    4fc0:	f85f8000 	ldur	x0, [x0,#-8]
/home/asaf/devel/optee/optee_os/lib/libutils/isoc/bget.c:773
    4fc4:	b50001e0 	cbnz	x0, 5000 <bgetz+0x5c>
/home/asaf/devel/optee/optee_os/lib/libutils/isoc/bget.c:777
    4fc8:	f85e8262 	ldur	x2, [x19,#-24]
    4fcc:	d1006042 	sub	x2, x2, #0x18
/home/asaf/devel/optee/optee_os/lib/libutils/isoc/bget.c:781
    4fd0:	eb14005f 	cmp	x2, x20
    4fd4:	540001ca 	b.ge	500c <bgetz+0x68>
    4fd8:	d0000023 	adrp	x3, a000 <mpa_init_static_fmm_context+0x3c>
    4fdc:	912dc063 	add	x3, x3, #0xb70
    4fe0:	91008063 	add	x3, x3, #0x20
    4fe4:	f0000021 	adrp	x1, b000 <PRIME_TABLE+0x350>
    4fe8:	f0000020 	adrp	x0, b000 <PRIME_TABLE+0x350>
    4fec:	9135b021 	add	x1, x1, #0xd6c
    4ff0:	9137cc00 	add	x0, x0, #0xdf3
    4ff4:	528061a2 	mov	w2, #0x30d                 	// #781
    4ff8:	97ffff07 	bl	4c14 <_assert_log>
    4ffc:	97ffff17 	bl	4c58 <_assert_break>
/home/asaf/devel/optee/optee_os/lib/libutils/isoc/bget.c:779
    5000:	928001e2 	mov	x2, #0xfffffffffffffff0    	// #-16
    5004:	cb000042 	sub	x2, x2, x0
    5008:	17fffff2 	b	4fd0 <bgetz+0x2c>
memset_unchecked():
/home/asaf/devel/optee/optee_os/lib/libutils/isoc/bget_malloc.c:163
    500c:	93407c42 	sxtw	x2, w2
    5010:	52800001 	mov	w1, #0x0                   	// #0
    5014:	aa1303e0 	mov	x0, x19
    5018:	94000376 	bl	5df0 <memset>
bgetz():
/home/asaf/devel/optee/optee_os/lib/libutils/isoc/bget.c:785
    501c:	aa1303e0 	mov	x0, x19
    5020:	a94153f3 	ldp	x19, x20, [sp,#16]
    5024:	a8c27bfd 	ldp	x29, x30, [sp],#32
    5028:	d65f03c0 	ret

000000000000502c <brel>:
brel():
/home/asaf/devel/optee/optee_os/lib/libutils/isoc/bget.c:835
    502c:	b0000084 	adrp	x4, 16000 <mempool_u32+0xe90>
    5030:	91334083 	add	x3, x4, #0xcd0
/home/asaf/devel/optee/optee_os/lib/libutils/isoc/bget.c:829
    5034:	a9bf7bfd 	stp	x29, x30, [sp,#-16]!
    5038:	910003fd 	mov	x29, sp
/home/asaf/devel/optee/optee_os/lib/libutils/isoc/bget.c:835
    503c:	f9402462 	ldr	x2, [x3,#72]
    5040:	91000442 	add	x2, x2, #0x1
    5044:	f9002462 	str	x2, [x3,#72]
/home/asaf/devel/optee/optee_os/lib/libutils/isoc/bget.c:837
    5048:	b5000160 	cbnz	x0, 5074 <brel+0x48>
/home/asaf/devel/optee/optee_os/lib/libutils/isoc/bget.c:837 (discriminator 1)
    504c:	b0000023 	adrp	x3, a000 <mpa_init_static_fmm_context+0x3c>
    5050:	912dc063 	add	x3, x3, #0xb70
    5054:	d0000021 	adrp	x1, b000 <PRIME_TABLE+0x350>
    5058:	d0000020 	adrp	x0, b000 <PRIME_TABLE+0x350>
    505c:	9100a063 	add	x3, x3, #0x28
    5060:	9135b021 	add	x1, x1, #0xd6c
    5064:	91380400 	add	x0, x0, #0xe01
    5068:	528068a2 	mov	w2, #0x345                 	// #837
/home/asaf/devel/optee/optee_os/lib/libutils/isoc/bget.c:868 (discriminator 1)
    506c:	97fffeea 	bl	4c14 <_assert_log>
    5070:	97fffefa 	bl	4c58 <_assert_break>
/home/asaf/devel/optee/optee_os/lib/libutils/isoc/bget.c:865
    5074:	f85f8002 	ldur	x2, [x0,#-8]
/home/asaf/devel/optee/optee_os/lib/libutils/isoc/bget.c:868
    5078:	b7f80142 	tbnz	x2, #63, 50a0 <brel+0x74>
/home/asaf/devel/optee/optee_os/lib/libutils/isoc/bget.c:868 (discriminator 1)
    507c:	b0000023 	adrp	x3, a000 <mpa_init_static_fmm_context+0x3c>
    5080:	912dc063 	add	x3, x3, #0xb70
    5084:	d0000021 	adrp	x1, b000 <PRIME_TABLE+0x350>
    5088:	d0000020 	adrp	x0, b000 <PRIME_TABLE+0x350>
    508c:	9100a063 	add	x3, x3, #0x28
    5090:	52806c82 	mov	w2, #0x364                 	// #868
    5094:	9135b021 	add	x1, x1, #0xd6c
    5098:	91383400 	add	x0, x0, #0xe0d
    509c:	17fffff4 	b	506c <brel+0x40>
    50a0:	d1004001 	sub	x1, x0, #0x10
/home/asaf/devel/optee/optee_os/lib/libutils/isoc/bget.c:874
    50a4:	cb020023 	sub	x3, x1, x2
    50a8:	f9400063 	ldr	x3, [x3]
    50ac:	b4000143 	cbz	x3, 50d4 <brel+0xa8>
/home/asaf/devel/optee/optee_os/lib/libutils/isoc/bget.c:874 (discriminator 1)
    50b0:	b0000023 	adrp	x3, a000 <mpa_init_static_fmm_context+0x3c>
    50b4:	912dc063 	add	x3, x3, #0xb70
    50b8:	d0000021 	adrp	x1, b000 <PRIME_TABLE+0x350>
    50bc:	d0000020 	adrp	x0, b000 <PRIME_TABLE+0x350>
    50c0:	9100a063 	add	x3, x3, #0x28
    50c4:	52806d42 	mov	w2, #0x36a                 	// #874
    50c8:	9135b021 	add	x1, x1, #0xd6c
    50cc:	91387400 	add	x0, x0, #0xe1d
    50d0:	17ffffe7 	b	506c <brel+0x40>
/home/asaf/devel/optee/optee_os/lib/libutils/isoc/bget.c:877
    50d4:	f9466883 	ldr	x3, [x4,#3280]
    50d8:	8b030043 	add	x3, x2, x3
    50dc:	f9066883 	str	x3, [x4,#3280]
/home/asaf/devel/optee/optee_os/lib/libutils/isoc/bget.c:878
    50e0:	b6f80143 	tbz	x3, #63, 5108 <brel+0xdc>
/home/asaf/devel/optee/optee_os/lib/libutils/isoc/bget.c:878 (discriminator 1)
    50e4:	b0000023 	adrp	x3, a000 <mpa_init_static_fmm_context+0x3c>
    50e8:	912dc063 	add	x3, x3, #0xb70
    50ec:	d0000021 	adrp	x1, b000 <PRIME_TABLE+0x350>
    50f0:	d0000020 	adrp	x0, b000 <PRIME_TABLE+0x350>
    50f4:	9100a063 	add	x3, x3, #0x28
    50f8:	52806dc2 	mov	w2, #0x36e                 	// #878
    50fc:	9135b021 	add	x1, x1, #0xd6c
    5100:	91392400 	add	x0, x0, #0xe49
    5104:	17ffffda 	b	506c <brel+0x40>
/home/asaf/devel/optee/optee_os/lib/libutils/isoc/bget.c:883
    5108:	f85f0003 	ldur	x3, [x0,#-16]
    510c:	b4000423 	cbz	x3, 5190 <brel+0x164>
/home/asaf/devel/optee/optee_os/lib/libutils/isoc/bget.c:894
    5110:	cb030021 	sub	x1, x1, x3
    5114:	f9400420 	ldr	x0, [x1,#8]
    5118:	eb00007f 	cmp	x3, x0
    511c:	54000140 	b.eq	5144 <brel+0x118>
/home/asaf/devel/optee/optee_os/lib/libutils/isoc/bget.c:894 (discriminator 1)
    5120:	b0000023 	adrp	x3, a000 <mpa_init_static_fmm_context+0x3c>
    5124:	912dc063 	add	x3, x3, #0xb70
    5128:	d0000021 	adrp	x1, b000 <PRIME_TABLE+0x350>
    512c:	d0000020 	adrp	x0, b000 <PRIME_TABLE+0x350>
    5130:	9100a063 	add	x3, x3, #0x28
    5134:	52806fc2 	mov	w2, #0x37e                 	// #894
    5138:	9135b021 	add	x1, x1, #0xd6c
    513c:	91395c00 	add	x0, x0, #0xe57
    5140:	17ffffcb 	b	506c <brel+0x40>
/home/asaf/devel/optee/optee_os/lib/libutils/isoc/bget.c:896
    5144:	cb020062 	sub	x2, x3, x2
    5148:	f9000422 	str	x2, [x1,#8]
/home/asaf/devel/optee/optee_os/lib/libutils/isoc/bget.c:916
    514c:	f9400422 	ldr	x2, [x1,#8]
    5150:	8b020020 	add	x0, x1, x2
/home/asaf/devel/optee/optee_os/lib/libutils/isoc/bget.c:917
    5154:	f9400403 	ldr	x3, [x0,#8]
    5158:	f100007f 	cmp	x3, #0x0
    515c:	54000a0d 	b.le	529c <brel+0x270>
/home/asaf/devel/optee/optee_os/lib/libutils/isoc/bget.c:922
    5160:	f8636804 	ldr	x4, [x0,x3]
    5164:	eb04007f 	cmp	x3, x4
    5168:	540005a0 	b.eq	521c <brel+0x1f0>
/home/asaf/devel/optee/optee_os/lib/libutils/isoc/bget.c:922 (discriminator 1)
    516c:	b0000023 	adrp	x3, a000 <mpa_init_static_fmm_context+0x3c>
    5170:	912dc063 	add	x3, x3, #0xb70
    5174:	d0000021 	adrp	x1, b000 <PRIME_TABLE+0x350>
    5178:	d0000020 	adrp	x0, b000 <PRIME_TABLE+0x350>
    517c:	9100a063 	add	x3, x3, #0x28
    5180:	52807342 	mov	w2, #0x39a                 	// #922
    5184:	9135b021 	add	x1, x1, #0xd6c
    5188:	913a4000 	add	x0, x0, #0xe90
    518c:	17ffffb8 	b	506c <brel+0x40>
/home/asaf/devel/optee/optee_os/lib/libutils/isoc/bget.c:902
    5190:	90000043 	adrp	x3, d000 <ta_props>
    5194:	91040063 	add	x3, x3, #0x100
    5198:	f9400c65 	ldr	x5, [x3,#24]
    519c:	f94008a4 	ldr	x4, [x5,#16]
    51a0:	eb03009f 	cmp	x4, x3
    51a4:	54000140 	b.eq	51cc <brel+0x1a0>
/home/asaf/devel/optee/optee_os/lib/libutils/isoc/bget.c:902 (discriminator 1)
    51a8:	b0000023 	adrp	x3, a000 <mpa_init_static_fmm_context+0x3c>
    51ac:	912dc063 	add	x3, x3, #0xb70
    51b0:	d0000021 	adrp	x1, b000 <PRIME_TABLE+0x350>
    51b4:	d0000020 	adrp	x0, b000 <PRIME_TABLE+0x350>
    51b8:	9100a063 	add	x3, x3, #0x28
    51bc:	528070c2 	mov	w2, #0x386                 	// #902
    51c0:	9135b021 	add	x1, x1, #0xd6c
    51c4:	91346800 	add	x0, x0, #0xd1a
    51c8:	17ffffa9 	b	506c <brel+0x40>
/home/asaf/devel/optee/optee_os/lib/libutils/isoc/bget.c:903
    51cc:	f9400883 	ldr	x3, [x4,#16]
    51d0:	f9400c63 	ldr	x3, [x3,#24]
    51d4:	eb04007f 	cmp	x3, x4
    51d8:	54000140 	b.eq	5200 <brel+0x1d4>
/home/asaf/devel/optee/optee_os/lib/libutils/isoc/bget.c:903 (discriminator 1)
    51dc:	b0000023 	adrp	x3, a000 <mpa_init_static_fmm_context+0x3c>
    51e0:	912dc063 	add	x3, x3, #0xb70
    51e4:	d0000021 	adrp	x1, b000 <PRIME_TABLE+0x350>
    51e8:	d0000020 	adrp	x0, b000 <PRIME_TABLE+0x350>
    51ec:	9100a063 	add	x3, x3, #0x28
    51f0:	528070e2 	mov	w2, #0x387                 	// #903
    51f4:	9135b021 	add	x1, x1, #0xd6c
    51f8:	91350c00 	add	x0, x0, #0xd43
    51fc:	17ffff9c 	b	506c <brel+0x40>
/home/asaf/devel/optee/optee_os/lib/libutils/isoc/bget.c:905
    5200:	a9011423 	stp	x3, x5, [x1,#16]
/home/asaf/devel/optee/optee_os/lib/libutils/isoc/bget.c:869
    5204:	cb0203e2 	neg	x2, x2
/home/asaf/devel/optee/optee_os/lib/libutils/isoc/bget.c:906
    5208:	f9000c61 	str	x1, [x3,#24]
/home/asaf/devel/optee/optee_os/lib/libutils/isoc/bget.c:907
    520c:	f9400c23 	ldr	x3, [x1,#24]
    5210:	f9000861 	str	x1, [x3,#16]
/home/asaf/devel/optee/optee_os/lib/libutils/isoc/bget.c:908
    5214:	f81f8002 	stur	x2, [x0,#-8]
    5218:	17ffffcd 	b	514c <brel+0x120>
/home/asaf/devel/optee/optee_os/lib/libutils/isoc/bget.c:923
    521c:	f9400c04 	ldr	x4, [x0,#24]
    5220:	f9400885 	ldr	x5, [x4,#16]
    5224:	eb05001f 	cmp	x0, x5
    5228:	54000140 	b.eq	5250 <brel+0x224>
/home/asaf/devel/optee/optee_os/lib/libutils/isoc/bget.c:923 (discriminator 1)
    522c:	b0000023 	adrp	x3, a000 <mpa_init_static_fmm_context+0x3c>
    5230:	912dc063 	add	x3, x3, #0xb70
    5234:	d0000021 	adrp	x1, b000 <PRIME_TABLE+0x350>
    5238:	d0000020 	adrp	x0, b000 <PRIME_TABLE+0x350>
    523c:	9100a063 	add	x3, x3, #0x28
    5240:	52807362 	mov	w2, #0x39b                 	// #923
    5244:	9135b021 	add	x1, x1, #0xd6c
    5248:	913b2400 	add	x0, x0, #0xec9
    524c:	17ffff88 	b	506c <brel+0x40>
/home/asaf/devel/optee/optee_os/lib/libutils/isoc/bget.c:924
    5250:	f9400805 	ldr	x5, [x0,#16]
    5254:	f9400ca6 	ldr	x6, [x5,#24]
    5258:	eb06001f 	cmp	x0, x6
    525c:	54000140 	b.eq	5284 <brel+0x258>
/home/asaf/devel/optee/optee_os/lib/libutils/isoc/bget.c:924 (discriminator 1)
    5260:	b0000023 	adrp	x3, a000 <mpa_init_static_fmm_context+0x3c>
    5264:	912dc063 	add	x3, x3, #0xb70
    5268:	d0000021 	adrp	x1, b000 <PRIME_TABLE+0x350>
    526c:	d0000020 	adrp	x0, b000 <PRIME_TABLE+0x350>
    5270:	9100a063 	add	x3, x3, #0x28
    5274:	52807382 	mov	w2, #0x39c                 	// #924
    5278:	9135b021 	add	x1, x1, #0xd6c
    527c:	913b9800 	add	x0, x0, #0xee6
    5280:	17ffff7b 	b	506c <brel+0x40>
/home/asaf/devel/optee/optee_os/lib/libutils/isoc/bget.c:925
    5284:	f9000885 	str	x5, [x4,#16]
/home/asaf/devel/optee/optee_os/lib/libutils/isoc/bget.c:926
    5288:	f9400800 	ldr	x0, [x0,#16]
    528c:	f9000c04 	str	x4, [x0,#24]
/home/asaf/devel/optee/optee_os/lib/libutils/isoc/bget.c:927
    5290:	8b030040 	add	x0, x2, x3
    5294:	f9000420 	str	x0, [x1,#8]
/home/asaf/devel/optee/optee_os/lib/libutils/isoc/bget.c:936
    5298:	8b000020 	add	x0, x1, x0
/home/asaf/devel/optee/optee_os/lib/libutils/isoc/bget.c:942
    529c:	f9400402 	ldr	x2, [x0,#8]
    52a0:	b7f80142 	tbnz	x2, #63, 52c8 <brel+0x29c>
/home/asaf/devel/optee/optee_os/lib/libutils/isoc/bget.c:942 (discriminator 1)
    52a4:	b0000023 	adrp	x3, a000 <mpa_init_static_fmm_context+0x3c>
    52a8:	912dc063 	add	x3, x3, #0xb70
    52ac:	d0000021 	adrp	x1, b000 <PRIME_TABLE+0x350>
    52b0:	d0000020 	adrp	x0, b000 <PRIME_TABLE+0x350>
    52b4:	9100a063 	add	x3, x3, #0x28
    52b8:	528075c2 	mov	w2, #0x3ae                 	// #942
    52bc:	9135b021 	add	x1, x1, #0xd6c
    52c0:	913c0c00 	add	x0, x0, #0xf03
    52c4:	17ffff6a 	b	506c <brel+0x40>
/home/asaf/devel/optee/optee_os/lib/libutils/isoc/bget.c:947
    52c8:	f9400421 	ldr	x1, [x1,#8]
    52cc:	f9000001 	str	x1, [x0]
/home/asaf/devel/optee/optee_os/lib/libutils/isoc/bget.c:975
    52d0:	a8c17bfd 	ldp	x29, x30, [sp],#16
    52d4:	d65f03c0 	ret

00000000000052d8 <bgetr>:
bgetr():
/home/asaf/devel/optee/optee_os/lib/libutils/isoc/bget.c:795
    52d8:	a9bd7bfd 	stp	x29, x30, [sp,#-48]!
    52dc:	910003fd 	mov	x29, sp
    52e0:	a90153f3 	stp	x19, x20, [sp,#16]
    52e4:	aa0003f3 	mov	x19, x0
    52e8:	f90013f5 	str	x21, [sp,#32]
    52ec:	aa0103f4 	mov	x20, x1
/home/asaf/devel/optee/optee_os/lib/libutils/isoc/bget.c:800
    52f0:	aa0103e0 	mov	x0, x1
    52f4:	97fffeb5 	bl	4dc8 <bget>
    52f8:	aa0003f5 	mov	x21, x0
    52fc:	b4000320 	cbz	x0, 5360 <bgetr+0x88>
/home/asaf/devel/optee/optee_os/lib/libutils/isoc/bget.c:803
    5300:	b4000313 	cbz	x19, 5360 <bgetr+0x88>
/home/asaf/devel/optee/optee_os/lib/libutils/isoc/bget.c:817
    5304:	f85f8261 	ldur	x1, [x19,#-8]
    5308:	928001e3 	mov	x3, #0xfffffffffffffff0    	// #-16
    530c:	cb010063 	sub	x3, x3, x1
/home/asaf/devel/optee/optee_os/lib/libutils/isoc/bget.c:818
    5310:	f100007f 	cmp	x3, #0x0
    5314:	5400016c 	b.gt	5340 <bgetr+0x68>
    5318:	b0000023 	adrp	x3, a000 <mpa_init_static_fmm_context+0x3c>
    531c:	912dc063 	add	x3, x3, #0xb70
    5320:	9100c063 	add	x3, x3, #0x30
    5324:	d0000021 	adrp	x1, b000 <PRIME_TABLE+0x350>
    5328:	d0000020 	adrp	x0, b000 <PRIME_TABLE+0x350>
    532c:	9135b021 	add	x1, x1, #0xd6c
    5330:	913c5000 	add	x0, x0, #0xf14
    5334:	52806642 	mov	w2, #0x332                 	// #818
    5338:	97fffe37 	bl	4c14 <_assert_log>
    533c:	97fffe47 	bl	4c58 <_assert_break>
/home/asaf/devel/optee/optee_os/lib/libutils/isoc/bget.c:819
    5340:	93407e81 	sxtw	x1, w20
    5344:	93407c62 	sxtw	x2, w3
    5348:	eb03029f 	cmp	x20, x3
    534c:	9a81a042 	csel	x2, x2, x1, ge
    5350:	aa1303e1 	mov	x1, x19
    5354:	9400028c 	bl	5d84 <memcpy>
/home/asaf/devel/optee/optee_os/lib/libutils/isoc/bget.c:821
    5358:	aa1303e0 	mov	x0, x19
    535c:	97ffff34 	bl	502c <brel>
/home/asaf/devel/optee/optee_os/lib/libutils/isoc/bget.c:823
    5360:	aa1503e0 	mov	x0, x21
    5364:	f94013f5 	ldr	x21, [sp,#32]
    5368:	a94153f3 	ldp	x19, x20, [sp,#16]
    536c:	a8c37bfd 	ldp	x29, x30, [sp],#48
    5370:	d65f03c0 	ret

0000000000005374 <bpool>:
bpool():
/home/asaf/devel/optee/optee_os/lib/libutils/isoc/bget.c:999
    5374:	a9bf7bfd 	stp	x29, x30, [sp,#-16]!
/home/asaf/devel/optee/optee_os/lib/libutils/isoc/bget.c:1004
    5378:	927cec21 	and	x1, x1, #0xfffffffffffffff0
/home/asaf/devel/optee/optee_os/lib/libutils/isoc/bget.c:1023
    537c:	f1004021 	subs	x1, x1, #0x10
/home/asaf/devel/optee/optee_os/lib/libutils/isoc/bget.c:999
    5380:	910003fd 	mov	x29, sp
/home/asaf/devel/optee/optee_os/lib/libutils/isoc/bget.c:1023
    5384:	54000165 	b.pl	53b0 <bpool+0x3c>
    5388:	b0000023 	adrp	x3, a000 <mpa_init_static_fmm_context+0x3c>
    538c:	912dc063 	add	x3, x3, #0xb70
    5390:	d0000021 	adrp	x1, b000 <PRIME_TABLE+0x350>
    5394:	d0000020 	adrp	x0, b000 <PRIME_TABLE+0x350>
    5398:	9100e063 	add	x3, x3, #0x38
    539c:	9135b021 	add	x1, x1, #0xd6c
    53a0:	913c7800 	add	x0, x0, #0xf1e
    53a4:	52807fe2 	mov	w2, #0x3ff                 	// #1023
/home/asaf/devel/optee/optee_os/lib/libutils/isoc/bget.c:1033 (discriminator 1)
    53a8:	97fffe1b 	bl	4c14 <_assert_log>
    53ac:	97fffe2b 	bl	4c58 <_assert_break>
/home/asaf/devel/optee/optee_os/lib/libutils/isoc/bget.c:1033
    53b0:	90000042 	adrp	x2, d000 <ta_props>
    53b4:	91040042 	add	x2, x2, #0x100
    53b8:	f9400c44 	ldr	x4, [x2,#24]
    53bc:	f9400883 	ldr	x3, [x4,#16]
/home/asaf/devel/optee/optee_os/lib/libutils/isoc/bget.c:1029
    53c0:	f900001f 	str	xzr, [x0]
/home/asaf/devel/optee/optee_os/lib/libutils/isoc/bget.c:1033
    53c4:	eb02007f 	cmp	x3, x2
    53c8:	54000140 	b.eq	53f0 <bpool+0x7c>
/home/asaf/devel/optee/optee_os/lib/libutils/isoc/bget.c:1033 (discriminator 1)
    53cc:	b0000023 	adrp	x3, a000 <mpa_init_static_fmm_context+0x3c>
    53d0:	912dc063 	add	x3, x3, #0xb70
    53d4:	d0000021 	adrp	x1, b000 <PRIME_TABLE+0x350>
    53d8:	d0000020 	adrp	x0, b000 <PRIME_TABLE+0x350>
    53dc:	9100e063 	add	x3, x3, #0x38
    53e0:	52808122 	mov	w2, #0x409                 	// #1033
    53e4:	9135b021 	add	x1, x1, #0xd6c
    53e8:	91346800 	add	x0, x0, #0xd1a
    53ec:	17ffffef 	b	53a8 <bpool+0x34>
/home/asaf/devel/optee/optee_os/lib/libutils/isoc/bget.c:1034
    53f0:	f9400862 	ldr	x2, [x3,#16]
    53f4:	f9400c42 	ldr	x2, [x2,#24]
    53f8:	eb03005f 	cmp	x2, x3
    53fc:	54000140 	b.eq	5424 <bpool+0xb0>
/home/asaf/devel/optee/optee_os/lib/libutils/isoc/bget.c:1034 (discriminator 1)
    5400:	b0000023 	adrp	x3, a000 <mpa_init_static_fmm_context+0x3c>
    5404:	912dc063 	add	x3, x3, #0xb70
    5408:	d0000021 	adrp	x1, b000 <PRIME_TABLE+0x350>
    540c:	d0000020 	adrp	x0, b000 <PRIME_TABLE+0x350>
    5410:	9100e063 	add	x3, x3, #0x38
    5414:	52808142 	mov	w2, #0x40a                 	// #1034
    5418:	9135b021 	add	x1, x1, #0xd6c
    541c:	91350c00 	add	x0, x0, #0xd43
    5420:	17ffffe2 	b	53a8 <bpool+0x34>
/home/asaf/devel/optee/optee_os/lib/libutils/isoc/bget.c:1036
    5424:	a9011002 	stp	x2, x4, [x0,#16]
/home/asaf/devel/optee/optee_os/lib/libutils/isoc/bget.c:1037
    5428:	f9000c40 	str	x0, [x2,#24]
/home/asaf/devel/optee/optee_os/lib/libutils/isoc/bget.c:1038
    542c:	f9400c02 	ldr	x2, [x0,#24]
    5430:	f9000840 	str	x0, [x2,#16]
/home/asaf/devel/optee/optee_os/lib/libutils/isoc/bget.c:1054
    5434:	8b010002 	add	x2, x0, x1
/home/asaf/devel/optee/optee_os/lib/libutils/isoc/bget.c:1049
    5438:	f9000401 	str	x1, [x0,#8]
/home/asaf/devel/optee/optee_os/lib/libutils/isoc/bget.c:1055
    543c:	f8216801 	str	x1, [x0,x1]
/home/asaf/devel/optee/optee_os/lib/libutils/isoc/bget.c:1058
    5440:	d2f00000 	mov	x0, #0x8000000000000000    	// #-9223372036854775808
    5444:	f9000440 	str	x0, [x2,#8]
/home/asaf/devel/optee/optee_os/lib/libutils/isoc/bget.c:1059
    5448:	a8c17bfd 	ldp	x29, x30, [sp],#16
    544c:	d65f03c0 	ret

0000000000005450 <bstats>:
bstats():
/home/asaf/devel/optee/optee_os/lib/libutils/isoc/bget.c:1071
    5450:	b0000087 	adrp	x7, 16000 <mempool_u32+0xe90>
    5454:	913340e8 	add	x8, x7, #0xcd0
/home/asaf/devel/optee/optee_os/lib/libutils/isoc/bget.c:1069
    5458:	90000045 	adrp	x5, d000 <ta_props>
    545c:	910400a5 	add	x5, x5, #0x100
/home/asaf/devel/optee/optee_os/lib/libutils/isoc/bget.c:1071
    5460:	f9402109 	ldr	x9, [x8,#64]
/home/asaf/devel/optee/optee_os/lib/libutils/isoc/bget.c:1069
    5464:	f94008a6 	ldr	x6, [x5,#16]
/home/asaf/devel/optee/optee_os/lib/libutils/isoc/bget.c:1071
    5468:	f9000069 	str	x9, [x3]
/home/asaf/devel/optee/optee_os/lib/libutils/isoc/bget.c:1072
    546c:	f9402503 	ldr	x3, [x8,#72]
    5470:	f9000083 	str	x3, [x4]
/home/asaf/devel/optee/optee_os/lib/libutils/isoc/bget.c:1073
    5474:	f94668e3 	ldr	x3, [x7,#3280]
    5478:	f9000003 	str	x3, [x0]
/home/asaf/devel/optee/optee_os/lib/libutils/isoc/bget.c:1075
    547c:	92800000 	mov	x0, #0xffffffffffffffff    	// #-1
/home/asaf/devel/optee/optee_os/lib/libutils/isoc/bget.c:1074
    5480:	f900003f 	str	xzr, [x1]
/home/asaf/devel/optee/optee_os/lib/libutils/isoc/bget.c:1075
    5484:	f9000040 	str	x0, [x2]
/home/asaf/devel/optee/optee_os/lib/libutils/isoc/bget.c:1076
    5488:	eb0500df 	cmp	x6, x5
    548c:	54000041 	b.ne	5494 <bstats+0x44>
    5490:	d65f03c0 	ret
/home/asaf/devel/optee/optee_os/lib/libutils/isoc/bget.c:1077
    5494:	f94004c3 	ldr	x3, [x6,#8]
    5498:	f100007f 	cmp	x3, #0x0
    549c:	540001ac 	b.gt	54d0 <bstats+0x80>
/home/asaf/devel/optee/optee_os/lib/libutils/isoc/bget.c:1077 (discriminator 1)
    54a0:	b0000023 	adrp	x3, a000 <mpa_init_static_fmm_context+0x3c>
    54a4:	912dc063 	add	x3, x3, #0xb70
    54a8:	91010063 	add	x3, x3, #0x40
    54ac:	d0000021 	adrp	x1, b000 <PRIME_TABLE+0x350>
    54b0:	d0000020 	adrp	x0, b000 <PRIME_TABLE+0x350>
    54b4:	9135b021 	add	x1, x1, #0xd6c
    54b8:	913d4c00 	add	x0, x0, #0xf53
/home/asaf/devel/optee/optee_os/lib/libutils/isoc/bget.c:1068 (discriminator 1)
    54bc:	a9bf7bfd 	stp	x29, x30, [sp,#-16]!
/home/asaf/devel/optee/optee_os/lib/libutils/isoc/bget.c:1077 (discriminator 1)
    54c0:	528086a2 	mov	w2, #0x435                 	// #1077
/home/asaf/devel/optee/optee_os/lib/libutils/isoc/bget.c:1068 (discriminator 1)
    54c4:	910003fd 	mov	x29, sp
/home/asaf/devel/optee/optee_os/lib/libutils/isoc/bget.c:1077 (discriminator 1)
    54c8:	97fffdd3 	bl	4c14 <_assert_log>
    54cc:	97fffde3 	bl	4c58 <_assert_break>
/home/asaf/devel/optee/optee_os/lib/libutils/isoc/bget.c:1078
    54d0:	f9400020 	ldr	x0, [x1]
    54d4:	8b030000 	add	x0, x0, x3
    54d8:	f9000020 	str	x0, [x1]
/home/asaf/devel/optee/optee_os/lib/libutils/isoc/bget.c:1079
    54dc:	f9400043 	ldr	x3, [x2]
    54e0:	f94004c0 	ldr	x0, [x6,#8]
    54e4:	eb03001f 	cmp	x0, x3
    54e8:	5400004d 	b.le	54f0 <bstats+0xa0>
/home/asaf/devel/optee/optee_os/lib/libutils/isoc/bget.c:1080
    54ec:	f9000040 	str	x0, [x2]
/home/asaf/devel/optee/optee_os/lib/libutils/isoc/bget.c:1082
    54f0:	f94008c6 	ldr	x6, [x6,#16]
    54f4:	17ffffe5 	b	5488 <bstats+0x38>

00000000000054f8 <malloc_reset_stats>:
malloc_reset_stats():
/home/asaf/devel/optee/optee_os/lib/libutils/isoc/bget_malloc.c:200
    54f8:	b0000080 	adrp	x0, 16000 <mempool_u32+0xe90>
    54fc:	91334000 	add	x0, x0, #0xcd0
    5500:	b9002c1f 	str	wzr, [x0,#44]
/home/asaf/devel/optee/optee_os/lib/libutils/isoc/bget_malloc.c:202
    5504:	2906fc1f 	stp	wzr, wzr, [x0,#52]
/home/asaf/devel/optee/optee_os/lib/libutils/isoc/bget_malloc.c:203
    5508:	b9003c1f 	str	wzr, [x0,#60]
/home/asaf/devel/optee/optee_os/lib/libutils/isoc/bget_malloc.c:200
    550c:	d65f03c0 	ret

0000000000005510 <malloc_get_stats>:
malloc_get_stats():
/home/asaf/devel/optee/optee_os/lib/libutils/isoc/bget_malloc.c:208
    5510:	a9be7bfd 	stp	x29, x30, [sp,#-32]!
/home/asaf/devel/optee/optee_os/lib/libutils/isoc/bget_malloc.c:211
    5514:	d2800702 	mov	x2, #0x38                  	// #56
/home/asaf/devel/optee/optee_os/lib/libutils/isoc/bget_malloc.c:208
    5518:	910003fd 	mov	x29, sp
    551c:	f9000bf3 	str	x19, [sp,#16]
/home/asaf/devel/optee/optee_os/lib/libutils/isoc/bget_malloc.c:211
    5520:	b0000093 	adrp	x19, 16000 <mempool_u32+0xe90>
    5524:	91334261 	add	x1, x19, #0xcd0
    5528:	91002021 	add	x1, x1, #0x8
    552c:	94000216 	bl	5d84 <memcpy>
    5530:	aa0003e3 	mov	x3, x0
/home/asaf/devel/optee/optee_os/lib/libutils/isoc/bget_malloc.c:212
    5534:	f9466a60 	ldr	x0, [x19,#3280]
/home/asaf/devel/optee/optee_os/lib/libutils/isoc/bget_malloc.c:214
    5538:	f9400bf3 	ldr	x19, [sp,#16]
/home/asaf/devel/optee/optee_os/lib/libutils/isoc/bget_malloc.c:212
    553c:	b9002060 	str	w0, [x3,#32]
/home/asaf/devel/optee/optee_os/lib/libutils/isoc/bget_malloc.c:214
    5540:	a8c27bfd 	ldp	x29, x30, [sp],#32
    5544:	d65f03c0 	ret

0000000000005548 <malloc>:
malloc():
/home/asaf/devel/optee/optee_os/lib/libutils/isoc/bget_malloc.c:822
    5548:	a9be7bfd 	stp	x29, x30, [sp,#-32]!
raw_malloc():
/home/asaf/devel/optee/optee_os/lib/libutils/isoc/bget_malloc.c:323
    554c:	f100001f 	cmp	x0, #0x0
malloc():
/home/asaf/devel/optee/optee_os/lib/libutils/isoc/bget_malloc.c:822
    5550:	910003fd 	mov	x29, sp
    5554:	a90153f3 	stp	x19, x20, [sp,#16]
    5558:	aa0003f3 	mov	x19, x0
raw_malloc():
/home/asaf/devel/optee/optee_os/lib/libutils/isoc/bget_malloc.c:326
    555c:	9a9f1400 	csinc	x0, x0, xzr, ne
    5560:	97fffe1a 	bl	4dc8 <bget>
/home/asaf/devel/optee/optee_os/lib/libutils/isoc/bget_malloc.c:328
    5564:	aa1303e1 	mov	x1, x19
/home/asaf/devel/optee/optee_os/lib/libutils/isoc/bget_malloc.c:326
    5568:	aa0003f4 	mov	x20, x0
/home/asaf/devel/optee/optee_os/lib/libutils/isoc/bget_malloc.c:328
    556c:	97fffdc0 	bl	4c6c <raw_malloc_return_hook>
malloc():
/home/asaf/devel/optee/optee_os/lib/libutils/isoc/bget_malloc.c:829
    5570:	aa1403e0 	mov	x0, x20
    5574:	a94153f3 	ldp	x19, x20, [sp,#16]
    5578:	a8c27bfd 	ldp	x29, x30, [sp],#32
    557c:	d65f03c0 	ret

0000000000005580 <free>:
raw_free():
/home/asaf/devel/optee/optee_os/lib/libutils/isoc/bget_malloc.c:337
    5580:	b4000040 	cbz	x0, 5588 <free+0x8>
/home/asaf/devel/optee/optee_os/lib/libutils/isoc/bget_malloc.c:338
    5584:	17fffeaa 	b	502c <brel>
    5588:	d65f03c0 	ret

000000000000558c <calloc>:
calloc():
/home/asaf/devel/optee/optee_os/lib/libutils/isoc/bget_malloc.c:840
    558c:	a9be7bfd 	stp	x29, x30, [sp,#-32]!
    5590:	910003fd 	mov	x29, sp
    5594:	a90153f3 	stp	x19, x20, [sp,#16]
raw_calloc():
/home/asaf/devel/optee/optee_os/lib/libutils/isoc/bget_malloc.c:344
    5598:	9b017c13 	mul	x19, x0, x1
/home/asaf/devel/optee/optee_os/lib/libutils/isoc/bget_malloc.c:345
    559c:	d2800014 	mov	x20, #0x0                   	// #0
/home/asaf/devel/optee/optee_os/lib/libutils/isoc/bget_malloc.c:350
    55a0:	eb13001f 	cmp	x0, x19
    55a4:	fa539022 	ccmp	x1, x19, #0x2, ls
    55a8:	540000a8 	b.hi	55bc <calloc+0x30>
/home/asaf/devel/optee/optee_os/lib/libutils/isoc/bget_malloc.c:354
    55ac:	f100027f 	cmp	x19, #0x0
/home/asaf/devel/optee/optee_os/lib/libutils/isoc/bget_malloc.c:357
    55b0:	9a9f1660 	csinc	x0, x19, xzr, ne
    55b4:	97fffe7c 	bl	4fa4 <bgetz>
    55b8:	aa0003f4 	mov	x20, x0
/home/asaf/devel/optee/optee_os/lib/libutils/isoc/bget_malloc.c:359
    55bc:	aa1303e1 	mov	x1, x19
    55c0:	aa1403e0 	mov	x0, x20
    55c4:	97fffdaa 	bl	4c6c <raw_malloc_return_hook>
calloc():
/home/asaf/devel/optee/optee_os/lib/libutils/isoc/bget_malloc.c:847
    55c8:	aa1403e0 	mov	x0, x20
    55cc:	a94153f3 	ldp	x19, x20, [sp,#16]
    55d0:	a8c27bfd 	ldp	x29, x30, [sp],#32
    55d4:	d65f03c0 	ret

00000000000055d8 <realloc>:
realloc():
/home/asaf/devel/optee/optee_os/lib/libutils/isoc/bget_malloc.c:855
    55d8:	a9be7bfd 	stp	x29, x30, [sp,#-32]!
raw_realloc():
/home/asaf/devel/optee/optee_os/lib/libutils/isoc/bget_malloc.c:377
    55dc:	f100003f 	cmp	x1, #0x0
realloc():
/home/asaf/devel/optee/optee_os/lib/libutils/isoc/bget_malloc.c:855
    55e0:	910003fd 	mov	x29, sp
    55e4:	a90153f3 	stp	x19, x20, [sp,#16]
    55e8:	aa0103f3 	mov	x19, x1
raw_realloc():
/home/asaf/devel/optee/optee_os/lib/libutils/isoc/bget_malloc.c:380
    55ec:	9a9f1421 	csinc	x1, x1, xzr, ne
    55f0:	97ffff3a 	bl	52d8 <bgetr>
/home/asaf/devel/optee/optee_os/lib/libutils/isoc/bget_malloc.c:382
    55f4:	aa1303e1 	mov	x1, x19
/home/asaf/devel/optee/optee_os/lib/libutils/isoc/bget_malloc.c:380
    55f8:	aa0003f4 	mov	x20, x0
/home/asaf/devel/optee/optee_os/lib/libutils/isoc/bget_malloc.c:382
    55fc:	97fffd9c 	bl	4c6c <raw_malloc_return_hook>
realloc():
/home/asaf/devel/optee/optee_os/lib/libutils/isoc/bget_malloc.c:862
    5600:	aa1403e0 	mov	x0, x20
    5604:	a94153f3 	ldp	x19, x20, [sp,#16]
    5608:	a8c27bfd 	ldp	x29, x30, [sp],#32
    560c:	d65f03c0 	ret

0000000000005610 <memalign>:
memalign():
/home/asaf/devel/optee/optee_os/lib/libutils/isoc/bget_malloc.c:865
    5610:	a9bd7bfd 	stp	x29, x30, [sp,#-48]!
    5614:	910003fd 	mov	x29, sp
    5618:	a90153f3 	stp	x19, x20, [sp,#16]
    561c:	a9025bf5 	stp	x21, x22, [sp,#32]
raw_memalign():
/home/asaf/devel/optee/optee_os/lib/libutils/isoc/bget_malloc.c:541
    5620:	b4001bc0 	cbz	x0, 5998 <memalign+0x388>
    5624:	cb0003f3 	neg	x19, x0
    5628:	ea33001f 	bics	xzr, x0, x19
    562c:	54001b61 	b.ne	5998 <memalign+0x388>
    5630:	aa0103f5 	mov	x21, x1
    5634:	aa0003f4 	mov	x20, x0
/home/asaf/devel/optee/optee_os/lib/libutils/isoc/bget_malloc.c:548
    5638:	f100401f 	cmp	x0, #0x10
    563c:	54000188 	b.hi	566c <memalign+0x5c>
raw_malloc():
/home/asaf/devel/optee/optee_os/lib/libutils/isoc/bget_malloc.c:323
    5640:	f100003f 	cmp	x1, #0x0
/home/asaf/devel/optee/optee_os/lib/libutils/isoc/bget_malloc.c:326
    5644:	9a9f1420 	csinc	x0, x1, xzr, ne
    5648:	97fffde0 	bl	4dc8 <bget>
    564c:	aa0003f3 	mov	x19, x0
/home/asaf/devel/optee/optee_os/lib/libutils/isoc/bget_malloc.c:328
    5650:	aa1503e1 	mov	x1, x21
raw_memalign():
/home/asaf/devel/optee/optee_os/lib/libutils/isoc/bget_malloc.c:595
    5654:	97fffd86 	bl	4c6c <raw_malloc_return_hook>
memalign():
/home/asaf/devel/optee/optee_os/lib/libutils/isoc/bget_malloc.c:872
    5658:	aa1303e0 	mov	x0, x19
    565c:	a94153f3 	ldp	x19, x20, [sp,#16]
    5660:	a9425bf5 	ldp	x21, x22, [sp,#32]
    5664:	a8c37bfd 	ldp	x29, x30, [sp],#48
    5668:	d65f03c0 	ret
raw_memalign():
/home/asaf/devel/optee/optee_os/lib/libutils/isoc/bget_malloc.c:551
    566c:	91008036 	add	x22, x1, #0x20
    5670:	8b0002d6 	add	x22, x22, x0
/home/asaf/devel/optee/optee_os/lib/libutils/isoc/bget_malloc.c:555
    5674:	eb16001f 	cmp	x0, x22
    5678:	fa569022 	ccmp	x1, x22, #0x2, ls
    567c:	540018e8 	b.hi	5998 <memalign+0x388>
/home/asaf/devel/optee/optee_os/lib/libutils/isoc/bget_malloc.c:558
    5680:	aa1603e0 	mov	x0, x22
    5684:	97fffdd1 	bl	4dc8 <bget>
    5688:	aa0003e1 	mov	x1, x0
/home/asaf/devel/optee/optee_os/lib/libutils/isoc/bget_malloc.c:559
    568c:	b40017e0 	cbz	x0, 5988 <memalign+0x378>
/home/asaf/devel/optee/optee_os/lib/libutils/isoc/bget_malloc.c:562
    5690:	d1000680 	sub	x0, x20, #0x1
    5694:	ea00003f 	tst	x1, x0
    5698:	54000a80 	b.eq	57e8 <memalign+0x1d8>
/home/asaf/devel/optee/optee_os/lib/libutils/isoc/bget_malloc.c:575
    569c:	8b010280 	add	x0, x20, x1
/home/asaf/devel/optee/optee_os/lib/libutils/isoc/bget_malloc.c:580
    56a0:	8b160036 	add	x22, x1, x22
/home/asaf/devel/optee/optee_os/lib/libutils/isoc/bget_malloc.c:576
    56a4:	8a000273 	and	x19, x19, x0
/home/asaf/devel/optee/optee_os/lib/libutils/isoc/bget_malloc.c:578
    56a8:	cb010260 	sub	x0, x19, x1
/home/asaf/devel/optee/optee_os/lib/libutils/isoc/bget_malloc.c:579
    56ac:	8b140274 	add	x20, x19, x20
    56b0:	f1007c1f 	cmp	x0, #0x1f
    56b4:	9a939293 	csel	x19, x20, x19, ls
/home/asaf/devel/optee/optee_os/lib/libutils/isoc/bget_malloc.c:580
    56b8:	8b1302a0 	add	x0, x21, x19
    56bc:	eb16001f 	cmp	x0, x22
    56c0:	54000169 	b.ls	56ec <memalign+0xdc>
    56c4:	b0000023 	adrp	x3, a000 <mpa_init_static_fmm_context+0x3c>
    56c8:	912dc063 	add	x3, x3, #0xb70
    56cc:	d0000021 	adrp	x1, b000 <PRIME_TABLE+0x350>
    56d0:	d0000020 	adrp	x0, b000 <PRIME_TABLE+0x350>
    56d4:	91012063 	add	x3, x3, #0x48
    56d8:	9132f821 	add	x1, x1, #0xcbe
    56dc:	913d8c00 	add	x0, x0, #0xf63
    56e0:	52804882 	mov	w2, #0x244                 	// #580
brel_before():
/home/asaf/devel/optee/optee_os/lib/libutils/isoc/bget_malloc.c:417
    56e4:	97fffd4c 	bl	4c14 <_assert_log>
    56e8:	97fffd5c 	bl	4c58 <_assert_break>
    56ec:	eb13003f 	cmp	x1, x19
    56f0:	54000143 	b.cc	5718 <memalign+0x108>
    56f4:	b0000023 	adrp	x3, a000 <mpa_init_static_fmm_context+0x3c>
    56f8:	912dc063 	add	x3, x3, #0xb70
    56fc:	d0000021 	adrp	x1, b000 <PRIME_TABLE+0x350>
    5700:	d0000020 	adrp	x0, b000 <PRIME_TABLE+0x350>
    5704:	91016063 	add	x3, x3, #0x58
    5708:	52803422 	mov	w2, #0x1a1                 	// #417
    570c:	9132f821 	add	x1, x1, #0xcbe
    5710:	913e3c00 	add	x0, x0, #0xf8f
    5714:	17fffff4 	b	56e4 <memalign+0xd4>
/home/asaf/devel/optee/optee_os/lib/libutils/isoc/bget_malloc.c:419
    5718:	cb010274 	sub	x20, x19, x1
/home/asaf/devel/optee/optee_os/lib/libutils/isoc/bget_malloc.c:420
    571c:	f1007e9f 	cmp	x20, #0x1f
    5720:	54000148 	b.hi	5748 <memalign+0x138>
    5724:	b0000023 	adrp	x3, a000 <mpa_init_static_fmm_context+0x3c>
    5728:	912dc063 	add	x3, x3, #0xb70
    572c:	d0000021 	adrp	x1, b000 <PRIME_TABLE+0x350>
    5730:	d0000020 	adrp	x0, b000 <PRIME_TABLE+0x350>
    5734:	91016063 	add	x3, x3, #0x58
    5738:	52803482 	mov	w2, #0x1a4                 	// #420
    573c:	9132f821 	add	x1, x1, #0xcbe
    5740:	913e8800 	add	x0, x0, #0xfa2
    5744:	17ffffe8 	b	56e4 <memalign+0xd4>
/home/asaf/devel/optee/optee_os/lib/libutils/isoc/bget_malloc.c:424
    5748:	f85f8022 	ldur	x2, [x1,#-8]
/home/asaf/devel/optee/optee_os/lib/libutils/isoc/bget_malloc.c:423
    574c:	d1004020 	sub	x0, x1, #0x10
/home/asaf/devel/optee/optee_os/lib/libutils/isoc/bget_malloc.c:429
    5750:	f85f0021 	ldur	x1, [x1,#-16]
    5754:	8b020282 	add	x2, x20, x2
    5758:	b40003e1 	cbz	x1, 57d4 <memalign+0x1c4>
/home/asaf/devel/optee/optee_os/lib/libutils/isoc/bget_malloc.c:434
    575c:	cb010000 	sub	x0, x0, x1
/home/asaf/devel/optee/optee_os/lib/libutils/isoc/bget_malloc.c:435
    5760:	f9400403 	ldr	x3, [x0,#8]
    5764:	eb03003f 	cmp	x1, x3
    5768:	54000140 	b.eq	5790 <memalign+0x180>
    576c:	b0000023 	adrp	x3, a000 <mpa_init_static_fmm_context+0x3c>
    5770:	912dc063 	add	x3, x3, #0xb70
    5774:	d0000021 	adrp	x1, b000 <PRIME_TABLE+0x350>
    5778:	d0000020 	adrp	x0, b000 <PRIME_TABLE+0x350>
    577c:	91016063 	add	x3, x3, #0x58
    5780:	52803662 	mov	w2, #0x1b3                 	// #435
    5784:	9132f821 	add	x1, x1, #0xcbe
    5788:	913f2400 	add	x0, x0, #0xfc9
    578c:	17ffffd6 	b	56e4 <memalign+0xd4>
/home/asaf/devel/optee/optee_os/lib/libutils/isoc/bget_malloc.c:436
    5790:	8b010281 	add	x1, x20, x1
    5794:	f9000401 	str	x1, [x0,#8]
/home/asaf/devel/optee/optee_os/lib/libutils/isoc/bget_malloc.c:441
    5798:	a93f0a61 	stp	x1, x2, [x19,#-16]
/home/asaf/devel/optee/optee_os/lib/libutils/isoc/bget_malloc.c:455
    579c:	b0000081 	adrp	x1, 16000 <mempool_u32+0xe90>
    57a0:	f9466820 	ldr	x0, [x1,#3280]
    57a4:	cb140014 	sub	x20, x0, x20
    57a8:	f9066834 	str	x20, [x1,#3280]
/home/asaf/devel/optee/optee_os/lib/libutils/isoc/bget_malloc.c:456
    57ac:	b6f80214 	tbz	x20, #63, 57ec <memalign+0x1dc>
    57b0:	b0000023 	adrp	x3, a000 <mpa_init_static_fmm_context+0x3c>
    57b4:	912dc063 	add	x3, x3, #0xb70
    57b8:	91016063 	add	x3, x3, #0x58
    57bc:	52803902 	mov	w2, #0x1c8                 	// #456
brel_after():
/home/asaf/devel/optee/optee_os/lib/libutils/isoc/bget_malloc.c:528
    57c0:	d0000021 	adrp	x1, b000 <PRIME_TABLE+0x350>
    57c4:	d0000020 	adrp	x0, b000 <PRIME_TABLE+0x350>
    57c8:	9132f821 	add	x1, x1, #0xcbe
    57cc:	91392400 	add	x0, x0, #0xe49
    57d0:	17ffffc5 	b	56e4 <memalign+0xd4>
brel_before():
/home/asaf/devel/optee/optee_os/lib/libutils/isoc/bget_malloc.c:449
    57d4:	f81f8262 	stur	x2, [x19,#-8]
/home/asaf/devel/optee/optee_os/lib/libutils/isoc/bget_malloc.c:451
    57d8:	aa1403e1 	mov	x1, x20
    57dc:	d1004262 	sub	x2, x19, #0x10
    57e0:	97fffd36 	bl	4cb8 <create_free_block>
    57e4:	17ffffee 	b	579c <memalign+0x18c>
raw_memalign():
/home/asaf/devel/optee/optee_os/lib/libutils/isoc/bget_malloc.c:562
    57e8:	aa0103f3 	mov	x19, x1
brel_after():
/home/asaf/devel/optee/optee_os/lib/libutils/isoc/bget_malloc.c:472
    57ec:	f10042bf 	cmp	x21, #0x10
    57f0:	d2800200 	mov	x0, #0x10                  	// #16
    57f4:	9a8022a0 	csel	x0, x21, x0, cs
/home/asaf/devel/optee/optee_os/lib/libutils/isoc/bget_malloc.c:476
    57f8:	f85f8262 	ldur	x2, [x19,#-8]
/home/asaf/devel/optee/optee_os/lib/libutils/isoc/bget_malloc.c:472
    57fc:	91003c00 	add	x0, x0, #0xf
/home/asaf/devel/optee/optee_os/lib/libutils/isoc/bget_malloc.c:476
    5800:	d1004264 	sub	x4, x19, #0x10
/home/asaf/devel/optee/optee_os/lib/libutils/isoc/bget_malloc.c:472
    5804:	927cec00 	and	x0, x0, #0xfffffffffffffff0
/home/asaf/devel/optee/optee_os/lib/libutils/isoc/bget_malloc.c:476
    5808:	cb0203f4 	neg	x20, x2
/home/asaf/devel/optee/optee_os/lib/libutils/isoc/bget_malloc.c:475
    580c:	91004001 	add	x1, x0, #0x10
/home/asaf/devel/optee/optee_os/lib/libutils/isoc/bget_malloc.c:476
    5810:	eb14003f 	cmp	x1, x20
    5814:	5400014d 	b.le	583c <memalign+0x22c>
    5818:	b0000023 	adrp	x3, a000 <mpa_init_static_fmm_context+0x3c>
    581c:	912dc063 	add	x3, x3, #0xb70
    5820:	d0000021 	adrp	x1, b000 <PRIME_TABLE+0x350>
    5824:	d0000020 	adrp	x0, b000 <PRIME_TABLE+0x350>
    5828:	9101a063 	add	x3, x3, #0x68
    582c:	52803b82 	mov	w2, #0x1dc                 	// #476
    5830:	9132f821 	add	x1, x1, #0xcbe
    5834:	913fa800 	add	x0, x0, #0xfea
    5838:	17ffffab 	b	56e4 <memalign+0xd4>
/home/asaf/devel/optee/optee_os/lib/libutils/isoc/bget_malloc.c:482
    583c:	cb010294 	sub	x20, x20, x1
/home/asaf/devel/optee/optee_os/lib/libutils/isoc/bget_malloc.c:483
    5840:	f1007e9f 	cmp	x20, #0x1f
    5844:	54000a4d 	b.le	598c <memalign+0x37c>
/home/asaf/devel/optee/optee_os/lib/libutils/isoc/bget_malloc.c:486
    5848:	928001e3 	mov	x3, #0xfffffffffffffff0    	// #-16
    584c:	cb020063 	sub	x3, x3, x2
    5850:	8b030262 	add	x2, x19, x3
/home/asaf/devel/optee/optee_os/lib/libutils/isoc/bget_malloc.c:490
    5854:	cb0103e1 	neg	x1, x1
    5858:	f9000481 	str	x1, [x4,#8]
    585c:	8b000260 	add	x0, x19, x0
/home/asaf/devel/optee/optee_os/lib/libutils/isoc/bget_malloc.c:491
    5860:	f9400441 	ldr	x1, [x2,#8]
    5864:	f100003f 	cmp	x1, #0x0
    5868:	540008ad 	b.le	597c <memalign+0x36c>
/home/asaf/devel/optee/optee_os/lib/libutils/isoc/bget_malloc.c:497
    586c:	f8636a63 	ldr	x3, [x19,x3]
    5870:	b4000143 	cbz	x3, 5898 <memalign+0x288>
    5874:	b0000023 	adrp	x3, a000 <mpa_init_static_fmm_context+0x3c>
    5878:	912dc063 	add	x3, x3, #0xb70
    587c:	d0000021 	adrp	x1, b000 <PRIME_TABLE+0x350>
    5880:	f0000020 	adrp	x0, c000 <__func__.3637+0x608>
    5884:	9101a063 	add	x3, x3, #0x68
    5888:	52803e22 	mov	w2, #0x1f1                 	// #497
    588c:	9132f821 	add	x1, x1, #0xcbe
    5890:	91000000 	add	x0, x0, #0x0
    5894:	17ffff94 	b	56e4 <memalign+0xd4>
/home/asaf/devel/optee/optee_os/lib/libutils/isoc/bget_malloc.c:498
    5898:	f8616843 	ldr	x3, [x2,x1]
    589c:	eb03003f 	cmp	x1, x3
    58a0:	54000140 	b.eq	58c8 <memalign+0x2b8>
    58a4:	b0000023 	adrp	x3, a000 <mpa_init_static_fmm_context+0x3c>
    58a8:	912dc063 	add	x3, x3, #0xb70
    58ac:	d0000021 	adrp	x1, b000 <PRIME_TABLE+0x350>
    58b0:	f0000020 	adrp	x0, c000 <__func__.3637+0x608>
    58b4:	9101a063 	add	x3, x3, #0x68
    58b8:	52803e42 	mov	w2, #0x1f2                 	// #498
    58bc:	9132f821 	add	x1, x1, #0xcbe
    58c0:	91005800 	add	x0, x0, #0x16
    58c4:	17ffff88 	b	56e4 <memalign+0xd4>
/home/asaf/devel/optee/optee_os/lib/libutils/isoc/bget_malloc.c:502
    58c8:	8b010283 	add	x3, x20, x1
    58cc:	a9000c1f 	stp	xzr, x3, [x0]
/home/asaf/devel/optee/optee_os/lib/libutils/isoc/bget_malloc.c:505
    58d0:	f8616843 	ldr	x3, [x2,x1]
    58d4:	8b140063 	add	x3, x3, x20
    58d8:	f8216843 	str	x3, [x2,x1]
/home/asaf/devel/optee/optee_os/lib/libutils/isoc/bget_malloc.c:511
    58dc:	f9400c41 	ldr	x1, [x2,#24]
    58e0:	f9400823 	ldr	x3, [x1,#16]
    58e4:	eb03005f 	cmp	x2, x3
    58e8:	54000140 	b.eq	5910 <memalign+0x300>
    58ec:	b0000023 	adrp	x3, a000 <mpa_init_static_fmm_context+0x3c>
    58f0:	912dc063 	add	x3, x3, #0xb70
    58f4:	d0000021 	adrp	x1, b000 <PRIME_TABLE+0x350>
    58f8:	f0000020 	adrp	x0, c000 <__func__.3637+0x608>
    58fc:	9101a063 	add	x3, x3, #0x68
    5900:	52803fe2 	mov	w2, #0x1ff                 	// #511
    5904:	9132f821 	add	x1, x1, #0xcbe
    5908:	9100d400 	add	x0, x0, #0x35
    590c:	17ffff76 	b	56e4 <memalign+0xd4>
/home/asaf/devel/optee/optee_os/lib/libutils/isoc/bget_malloc.c:512
    5910:	f9400843 	ldr	x3, [x2,#16]
    5914:	f9400c64 	ldr	x4, [x3,#24]
    5918:	eb04005f 	cmp	x2, x4
    591c:	54000140 	b.eq	5944 <memalign+0x334>
    5920:	b0000023 	adrp	x3, a000 <mpa_init_static_fmm_context+0x3c>
    5924:	912dc063 	add	x3, x3, #0xb70
    5928:	d0000021 	adrp	x1, b000 <PRIME_TABLE+0x350>
    592c:	f0000020 	adrp	x0, c000 <__func__.3637+0x608>
    5930:	9101a063 	add	x3, x3, #0x68
    5934:	52804002 	mov	w2, #0x200                 	// #512
    5938:	9132f821 	add	x1, x1, #0xcbe
    593c:	91015000 	add	x0, x0, #0x54
    5940:	17ffff69 	b	56e4 <memalign+0xd4>
/home/asaf/devel/optee/optee_os/lib/libutils/isoc/bget_malloc.c:515
    5944:	a9010403 	stp	x3, x1, [x0,#16]
/home/asaf/devel/optee/optee_os/lib/libutils/isoc/bget_malloc.c:519
    5948:	f9000820 	str	x0, [x1,#16]
/home/asaf/devel/optee/optee_os/lib/libutils/isoc/bget_malloc.c:520
    594c:	f9400801 	ldr	x1, [x0,#16]
    5950:	f9000c20 	str	x0, [x1,#24]
/home/asaf/devel/optee/optee_os/lib/libutils/isoc/bget_malloc.c:527
    5954:	b0000081 	adrp	x1, 16000 <mempool_u32+0xe90>
    5958:	f9466820 	ldr	x0, [x1,#3280]
    595c:	cb140014 	sub	x20, x0, x20
    5960:	f9066834 	str	x20, [x1,#3280]
/home/asaf/devel/optee/optee_os/lib/libutils/isoc/bget_malloc.c:528
    5964:	b6f80154 	tbz	x20, #63, 598c <memalign+0x37c>
    5968:	b0000023 	adrp	x3, a000 <mpa_init_static_fmm_context+0x3c>
    596c:	912dc063 	add	x3, x3, #0xb70
    5970:	9101a063 	add	x3, x3, #0x68
    5974:	52804202 	mov	w2, #0x210                 	// #528
    5978:	17ffff92 	b	57c0 <memalign+0x1b0>
/home/asaf/devel/optee/optee_os/lib/libutils/isoc/bget_malloc.c:523
    597c:	aa1403e1 	mov	x1, x20
    5980:	97fffcce 	bl	4cb8 <create_free_block>
    5984:	17fffff4 	b	5954 <memalign+0x344>
raw_memalign():
/home/asaf/devel/optee/optee_os/lib/libutils/isoc/bget_malloc.c:559
    5988:	d2800013 	mov	x19, #0x0                   	// #0
/home/asaf/devel/optee/optee_os/lib/libutils/isoc/bget_malloc.c:595
    598c:	aa1503e1 	mov	x1, x21
    5990:	aa1303e0 	mov	x0, x19
    5994:	17ffff30 	b	5654 <memalign+0x44>
/home/asaf/devel/optee/optee_os/lib/libutils/isoc/bget_malloc.c:542
    5998:	d2800013 	mov	x19, #0x0                   	// #0
memalign():
/home/asaf/devel/optee/optee_os/lib/libutils/isoc/bget_malloc.c:871
    599c:	17ffff2f 	b	5658 <memalign+0x48>

00000000000059a0 <malloc_add_pool>:
malloc_add_pool():
/home/asaf/devel/optee/optee_os/lib/libutils/isoc/bget_malloc.c:883
    59a0:	a9bc7bfd 	stp	x29, x30, [sp,#-64]!
    59a4:	910003fd 	mov	x29, sp
    59a8:	a90153f3 	stp	x19, x20, [sp,#16]
/home/asaf/devel/optee/optee_os/lib/libutils/isoc/bget_malloc.c:888
    59ac:	8b010013 	add	x19, x0, x1
/home/asaf/devel/optee/optee_os/lib/libutils/isoc/bget_malloc.c:883
    59b0:	a9025bf5 	stp	x21, x22, [sp,#32]
/home/asaf/devel/optee/optee_os/lib/libutils/isoc/bget_malloc.c:894
    59b4:	91003c00 	add	x0, x0, #0xf
/home/asaf/devel/optee/optee_os/lib/libutils/isoc/bget_malloc.c:883
    59b8:	a90363f7 	stp	x23, x24, [sp,#48]
/home/asaf/devel/optee/optee_os/lib/libutils/isoc/bget_malloc.c:894
    59bc:	927cec14 	and	x20, x0, #0xfffffffffffffff0
/home/asaf/devel/optee/optee_os/lib/libutils/isoc/bget_malloc.c:895
    59c0:	927cee73 	and	x19, x19, #0xfffffffffffffff0
/home/asaf/devel/optee/optee_os/lib/libutils/isoc/bget_malloc.c:896
    59c4:	eb13029f 	cmp	x20, x19
    59c8:	54000163 	b.cc	59f4 <malloc_add_pool+0x54>
/home/asaf/devel/optee/optee_os/lib/libutils/isoc/bget_malloc.c:896 (discriminator 1)
    59cc:	b0000023 	adrp	x3, a000 <mpa_init_static_fmm_context+0x3c>
    59d0:	912dc063 	add	x3, x3, #0xb70
    59d4:	d0000021 	adrp	x1, b000 <PRIME_TABLE+0x350>
    59d8:	f0000020 	adrp	x0, c000 <__func__.3637+0x608>
    59dc:	9101e063 	add	x3, x3, #0x78
    59e0:	9132f821 	add	x1, x1, #0xcbe
    59e4:	9101cc00 	add	x0, x0, #0x73
    59e8:	52807002 	mov	w2, #0x380                 	// #896
/home/asaf/devel/optee/optee_os/lib/libutils/isoc/bget_malloc.c:908 (discriminator 1)
    59ec:	97fffc8a 	bl	4c14 <_assert_log>
    59f0:	97fffc9a 	bl	4c58 <_assert_break>
/home/asaf/devel/optee/optee_os/lib/libutils/isoc/bget_malloc.c:898
    59f4:	cb140273 	sub	x19, x19, x20
    59f8:	f100be7f 	cmp	x19, #0x2f
    59fc:	54000449 	b.ls	5a84 <malloc_add_pool+0xe4>
/home/asaf/devel/optee/optee_os/lib/libutils/isoc/bget_malloc.c:906
    5a00:	b0000095 	adrp	x21, 16000 <mempool_u32+0xe90>
    5a04:	913342b5 	add	x21, x21, #0xcd0
/home/asaf/devel/optee/optee_os/lib/libutils/isoc/bget_malloc.c:905
    5a08:	aa1303e1 	mov	x1, x19
    5a0c:	aa1403e0 	mov	x0, x20
    5a10:	97fffe59 	bl	5374 <bpool>
raw_realloc():
/home/asaf/devel/optee/optee_os/lib/libutils/isoc/bget_malloc.c:380
    5a14:	a94502b6 	ldp	x22, x0, [x21,#80]
malloc_add_pool():
/home/asaf/devel/optee/optee_os/lib/libutils/isoc/bget_malloc.c:906
    5a18:	910006d6 	add	x22, x22, #0x1
/home/asaf/devel/optee/optee_os/lib/libutils/isoc/bget_malloc.c:907
    5a1c:	d37ceed7 	lsl	x23, x22, #4
raw_realloc():
/home/asaf/devel/optee/optee_os/lib/libutils/isoc/bget_malloc.c:377
    5a20:	f10002ff 	cmp	x23, #0x0
/home/asaf/devel/optee/optee_os/lib/libutils/isoc/bget_malloc.c:380
    5a24:	9a9f16e1 	csinc	x1, x23, xzr, ne
    5a28:	97fffe2c 	bl	52d8 <bgetr>
    5a2c:	aa0003f8 	mov	x24, x0
/home/asaf/devel/optee/optee_os/lib/libutils/isoc/bget_malloc.c:382
    5a30:	aa1703e1 	mov	x1, x23
    5a34:	97fffc8e 	bl	4c6c <raw_malloc_return_hook>
malloc_add_pool():
/home/asaf/devel/optee/optee_os/lib/libutils/isoc/bget_malloc.c:908
    5a38:	b5000158 	cbnz	x24, 5a60 <malloc_add_pool+0xc0>
/home/asaf/devel/optee/optee_os/lib/libutils/isoc/bget_malloc.c:908 (discriminator 1)
    5a3c:	b0000023 	adrp	x3, a000 <mpa_init_static_fmm_context+0x3c>
    5a40:	912dc063 	add	x3, x3, #0xb70
    5a44:	d0000021 	adrp	x1, b000 <PRIME_TABLE+0x350>
    5a48:	f0000020 	adrp	x0, c000 <__func__.3637+0x608>
    5a4c:	9101e063 	add	x3, x3, #0x78
    5a50:	52807182 	mov	w2, #0x38c                 	// #908
    5a54:	9132f821 	add	x1, x1, #0xcbe
    5a58:	9101fc00 	add	x0, x0, #0x7f
    5a5c:	17ffffe4 	b	59ec <malloc_add_pool+0x4c>
/home/asaf/devel/optee/optee_os/lib/libutils/isoc/bget_malloc.c:910
    5a60:	f9402aa0 	ldr	x0, [x21,#80]
/home/asaf/devel/optee/optee_os/lib/libutils/isoc/bget_malloc.c:909
    5a64:	a90562b6 	stp	x22, x24, [x21,#80]
/home/asaf/devel/optee/optee_os/lib/libutils/isoc/bget_malloc.c:910
    5a68:	d37cec00 	lsl	x0, x0, #4
    5a6c:	8b000301 	add	x1, x24, x0
    5a70:	f8206b14 	str	x20, [x24,x0]
/home/asaf/devel/optee/optee_os/lib/libutils/isoc/bget_malloc.c:911
    5a74:	f9000433 	str	x19, [x1,#8]
/home/asaf/devel/optee/optee_os/lib/libutils/isoc/bget_malloc.c:913
    5a78:	b94032a1 	ldr	w1, [x21,#48]
    5a7c:	0b130033 	add	w19, w1, w19
    5a80:	b90032b3 	str	w19, [x21,#48]
/home/asaf/devel/optee/optee_os/lib/libutils/isoc/bget_malloc.c:917
    5a84:	a94153f3 	ldp	x19, x20, [sp,#16]
    5a88:	a9425bf5 	ldp	x21, x22, [sp,#32]
    5a8c:	a94363f7 	ldp	x23, x24, [sp,#48]
    5a90:	a8c47bfd 	ldp	x29, x30, [sp],#64
    5a94:	d65f03c0 	ret

0000000000005a98 <malloc_buffer_is_within_alloced>:
malloc_buffer_is_within_alloced():
/home/asaf/devel/optee/optee_os/lib/libutils/isoc/bget_malloc.c:924
    5a98:	8b010001 	add	x1, x0, x1
/home/asaf/devel/optee/optee_os/lib/libutils/isoc/bget_malloc.c:931
    5a9c:	eb01001f 	cmp	x0, x1
    5aa0:	54000b88 	b.hi	5c10 <malloc_buffer_is_within_alloced+0x178>
    5aa4:	aa0003e5 	mov	x5, x0
bpool_foreach_iterator_init():
/home/asaf/devel/optee/optee_os/lib/libutils/isoc/bget_malloc.c:246
    5aa8:	b0000080 	adrp	x0, 16000 <mempool_u32+0xe90>
    5aac:	91334000 	add	x0, x0, #0xcd0
/home/asaf/devel/optee/optee_os/lib/libutils/isoc/bget_malloc.c:245
    5ab0:	d2800006 	mov	x6, #0x0                   	// #0
bpool_foreach_pool():
/home/asaf/devel/optee/optee_os/lib/libutils/isoc/bget_malloc.c:255
    5ab4:	d2f0000b 	mov	x11, #0x8000000000000000    	// #-9223372036854775808
bget_buf_size():
/home/asaf/devel/optee/optee_os/lib/libutils/isoc/bget_malloc.c:617
    5ab8:	928001e9 	mov	x9, #0xfffffffffffffff0    	// #-16
bpool_foreach_iterator_init():
/home/asaf/devel/optee/optee_os/lib/libutils/isoc/bget_malloc.c:246
    5abc:	a9451c0a 	ldp	x10, x7, [x0,#80]
    5ac0:	f94000e3 	ldr	x3, [x7]
bpool_foreach_pool():
/home/asaf/devel/optee/optee_os/lib/libutils/isoc/bget_malloc.c:253
    5ac4:	f9400462 	ldr	x2, [x3,#8]
bpool_foreach():
/home/asaf/devel/optee/optee_os/lib/libutils/isoc/bget_malloc.c:295
    5ac8:	aa0303e4 	mov	x4, x3
bpool_foreach_pool():
/home/asaf/devel/optee/optee_os/lib/libutils/isoc/bget_malloc.c:255
    5acc:	eb0b005f 	cmp	x2, x11
    5ad0:	540009a0 	b.eq	5c04 <malloc_buffer_is_within_alloced+0x16c>
malloc_buffer_is_within_alloced():
/home/asaf/devel/optee/optee_os/lib/libutils/isoc/bget_malloc.c:920
    5ad4:	a9bf7bfd 	stp	x29, x30, [sp,#-16]!
    5ad8:	910003fd 	mov	x29, sp
    5adc:	1400000d 	b	5b10 <malloc_buffer_is_within_alloced+0x78>
bpool_foreach_pool():
/home/asaf/devel/optee/optee_os/lib/libutils/isoc/bget_malloc.c:272
    5ae0:	91004084 	add	x4, x4, #0x10
malloc_buffer_is_within_alloced():
/home/asaf/devel/optee/optee_os/lib/libutils/isoc/bget_malloc.c:940
    5ae4:	8b020082 	add	x2, x4, x2
/home/asaf/devel/optee/optee_os/lib/libutils/isoc/bget_malloc.c:942
    5ae8:	eb02003f 	cmp	x1, x2
    5aec:	1a9f87e2 	cset	w2, ls
    5af0:	eb0400bf 	cmp	x5, x4
    5af4:	1a9f37e0 	cset	w0, cs
    5af8:	6a000040 	ands	w0, w2, w0
    5afc:	540007a1 	b.ne	5bf0 <malloc_buffer_is_within_alloced+0x158>
bpool_foreach_pool():
/home/asaf/devel/optee/optee_os/lib/libutils/isoc/bget_malloc.c:253
    5b00:	f9400462 	ldr	x2, [x3,#8]
bpool_foreach():
/home/asaf/devel/optee/optee_os/lib/libutils/isoc/bget_malloc.c:295
    5b04:	aa0303e4 	mov	x4, x3
bpool_foreach_pool():
/home/asaf/devel/optee/optee_os/lib/libutils/isoc/bget_malloc.c:255
    5b08:	eb0b005f 	cmp	x2, x11
    5b0c:	540006a0 	b.eq	5be0 <malloc_buffer_is_within_alloced+0x148>
/home/asaf/devel/optee/optee_os/lib/libutils/isoc/bget_malloc.c:258
    5b10:	b6f80242 	tbz	x2, #63, 5b58 <malloc_buffer_is_within_alloced+0xc0>
/home/asaf/devel/optee/optee_os/lib/libutils/isoc/bget_malloc.c:260
    5b14:	cb0203e8 	neg	x8, x2
/home/asaf/devel/optee/optee_os/lib/libutils/isoc/bget_malloc.c:262
    5b18:	52800000 	mov	w0, #0x0                   	// #0
/home/asaf/devel/optee/optee_os/lib/libutils/isoc/bget_malloc.c:275
    5b1c:	8b080063 	add	x3, x3, x8
bpool_foreach():
/home/asaf/devel/optee/optee_os/lib/libutils/isoc/bget_malloc.c:286
    5b20:	35ffff00 	cbnz	w0, 5b00 <malloc_buffer_is_within_alloced+0x68>
bget_buf_size():
/home/asaf/devel/optee/optee_os/lib/libutils/isoc/bget_malloc.c:617
    5b24:	cb020122 	sub	x2, x9, x2
/home/asaf/devel/optee/optee_os/lib/libutils/isoc/bget_malloc.c:618
    5b28:	f100005f 	cmp	x2, #0x0
    5b2c:	54fffdac 	b.gt	5ae0 <malloc_buffer_is_within_alloced+0x48>
    5b30:	b0000023 	adrp	x3, a000 <mpa_init_static_fmm_context+0x3c>
    5b34:	912dc063 	add	x3, x3, #0xb70
    5b38:	91022063 	add	x3, x3, #0x88
    5b3c:	d0000021 	adrp	x1, b000 <PRIME_TABLE+0x350>
    5b40:	d0000020 	adrp	x0, b000 <PRIME_TABLE+0x350>
    5b44:	9132f821 	add	x1, x1, #0xcbe
    5b48:	913c5000 	add	x0, x0, #0xf14
    5b4c:	52804d42 	mov	w2, #0x26a                 	// #618
    5b50:	97fffc31 	bl	4c14 <_assert_log>
    5b54:	97fffc41 	bl	4c58 <_assert_break>
bpool_foreach_pool():
/home/asaf/devel/optee/optee_os/lib/libutils/isoc/bget_malloc.c:268
    5b58:	f9400c60 	ldr	x0, [x3,#24]
    5b5c:	f9400800 	ldr	x0, [x0,#16]
    5b60:	eb00007f 	cmp	x3, x0
    5b64:	54000160 	b.eq	5b90 <malloc_buffer_is_within_alloced+0xf8>
    5b68:	b0000023 	adrp	x3, a000 <mpa_init_static_fmm_context+0x3c>
    5b6c:	912dc063 	add	x3, x3, #0xb70
    5b70:	91026063 	add	x3, x3, #0x98
    5b74:	d0000021 	adrp	x1, b000 <PRIME_TABLE+0x350>
    5b78:	d0000020 	adrp	x0, b000 <PRIME_TABLE+0x350>
    5b7c:	9132f821 	add	x1, x1, #0xcbe
    5b80:	9136f400 	add	x0, x0, #0xdbd
    5b84:	52802182 	mov	w2, #0x10c                 	// #268
    5b88:	97fffc23 	bl	4c14 <_assert_log>
    5b8c:	97fffc33 	bl	4c58 <_assert_break>
/home/asaf/devel/optee/optee_os/lib/libutils/isoc/bget_malloc.c:269
    5b90:	f9400860 	ldr	x0, [x3,#16]
    5b94:	f9400c00 	ldr	x0, [x0,#24]
    5b98:	eb00007f 	cmp	x3, x0
    5b9c:	54000160 	b.eq	5bc8 <malloc_buffer_is_within_alloced+0x130>
    5ba0:	b0000023 	adrp	x3, a000 <mpa_init_static_fmm_context+0x3c>
    5ba4:	912dc063 	add	x3, x3, #0xb70
    5ba8:	91026063 	add	x3, x3, #0x98
    5bac:	d0000021 	adrp	x1, b000 <PRIME_TABLE+0x350>
    5bb0:	d0000020 	adrp	x0, b000 <PRIME_TABLE+0x350>
    5bb4:	9132f821 	add	x1, x1, #0xcbe
    5bb8:	91376000 	add	x0, x0, #0xdd8
    5bbc:	528021a2 	mov	w2, #0x10d                 	// #269
    5bc0:	97fffc15 	bl	4c14 <_assert_log>
    5bc4:	97fffc25 	bl	4c58 <_assert_break>
    5bc8:	aa0203e8 	mov	x8, x2
/home/asaf/devel/optee/optee_os/lib/libutils/isoc/bget_malloc.c:265
    5bcc:	52800020 	mov	w0, #0x1                   	// #1
    5bd0:	17ffffd3 	b	5b1c <malloc_buffer_is_within_alloced+0x84>
bpool_foreach():
/home/asaf/devel/optee/optee_os/lib/libutils/isoc/bget_malloc.c:295
    5bd4:	d37cecc0 	lsl	x0, x6, #4
    5bd8:	f86068e3 	ldr	x3, [x7,x0]
    5bdc:	17ffffc9 	b	5b00 <malloc_buffer_is_within_alloced+0x68>
/home/asaf/devel/optee/optee_os/lib/libutils/isoc/bget_malloc.c:291
    5be0:	910004c6 	add	x6, x6, #0x1
    5be4:	eb0a00df 	cmp	x6, x10
    5be8:	54ffff63 	b.cc	5bd4 <malloc_buffer_is_within_alloced+0x13c>
malloc_buffer_is_within_alloced():
/home/asaf/devel/optee/optee_os/lib/libutils/isoc/bget_malloc.c:925
    5bec:	52800000 	mov	w0, #0x0                   	// #0
/home/asaf/devel/optee/optee_os/lib/libutils/isoc/bget_malloc.c:952
    5bf0:	a8c17bfd 	ldp	x29, x30, [sp],#16
    5bf4:	d65f03c0 	ret
bpool_foreach():
/home/asaf/devel/optee/optee_os/lib/libutils/isoc/bget_malloc.c:295
    5bf8:	d37cecc0 	lsl	x0, x6, #4
    5bfc:	f86068e3 	ldr	x3, [x7,x0]
    5c00:	17ffffb1 	b	5ac4 <malloc_buffer_is_within_alloced+0x2c>
/home/asaf/devel/optee/optee_os/lib/libutils/isoc/bget_malloc.c:291
    5c04:	910004c6 	add	x6, x6, #0x1
    5c08:	eb0a00df 	cmp	x6, x10
    5c0c:	54ffff63 	b.cc	5bf8 <malloc_buffer_is_within_alloced+0x160>
malloc_buffer_is_within_alloced():
/home/asaf/devel/optee/optee_os/lib/libutils/isoc/bget_malloc.c:925
    5c10:	52800000 	mov	w0, #0x0                   	// #0
/home/asaf/devel/optee/optee_os/lib/libutils/isoc/bget_malloc.c:951
    5c14:	d65f03c0 	ret

0000000000005c18 <malloc_buffer_overlaps_heap>:
malloc_buffer_overlaps_heap():
/home/asaf/devel/optee/optee_os/lib/libutils/isoc/bget_malloc.c:964
    5c18:	b0000082 	adrp	x2, 16000 <mempool_u32+0xe90>
    5c1c:	91334042 	add	x2, x2, #0xcd0
/home/asaf/devel/optee/optee_os/lib/libutils/isoc/bget_malloc.c:957
    5c20:	8b010001 	add	x1, x0, x1
/home/asaf/devel/optee/optee_os/lib/libutils/isoc/bget_malloc.c:964
    5c24:	d2800005 	mov	x5, #0x0                   	// #0
    5c28:	a9450c47 	ldp	x7, x3, [x2,#80]
/home/asaf/devel/optee/optee_os/lib/libutils/isoc/bget_malloc.c:964 (discriminator 1)
    5c2c:	eb0700bf 	cmp	x5, x7
    5c30:	54000081 	b.ne	5c40 <malloc_buffer_overlaps_heap+0x28>
/home/asaf/devel/optee/optee_os/lib/libutils/isoc/bget_malloc.c:959
    5c34:	52800002 	mov	w2, #0x0                   	// #0
/home/asaf/devel/optee/optee_os/lib/libutils/isoc/bget_malloc.c:982
    5c38:	2a0203e0 	mov	w0, w2
    5c3c:	d65f03c0 	ret
/home/asaf/devel/optee/optee_os/lib/libutils/isoc/bget_malloc.c:966
    5c40:	a9401066 	ldp	x6, x4, [x3]
/home/asaf/devel/optee/optee_os/lib/libutils/isoc/bget_malloc.c:968
    5c44:	eb01001f 	cmp	x0, x1
    5c48:	1a9f97e2 	cset	w2, hi
/home/asaf/devel/optee/optee_os/lib/libutils/isoc/bget_malloc.c:966
    5c4c:	8b0400c4 	add	x4, x6, x4
/home/asaf/devel/optee/optee_os/lib/libutils/isoc/bget_malloc.c:968
    5c50:	eb0400df 	cmp	x6, x4
    5c54:	1a9f97e8 	cset	w8, hi
    5c58:	2a080042 	orr	w2, w2, w8
    5c5c:	35fffee2 	cbnz	w2, 5c38 <malloc_buffer_overlaps_heap+0x20>
/home/asaf/devel/optee/optee_os/lib/libutils/isoc/bget_malloc.c:973
    5c60:	eb06003f 	cmp	x1, x6
    5c64:	91004063 	add	x3, x3, #0x10
    5c68:	1a9f97e2 	cset	w2, hi
    5c6c:	eb04001f 	cmp	x0, x4
    5c70:	1a9f27e4 	cset	w4, cc
    5c74:	2a040042 	orr	w2, w2, w4
    5c78:	35fffe02 	cbnz	w2, 5c38 <malloc_buffer_overlaps_heap+0x20>
/home/asaf/devel/optee/optee_os/lib/libutils/isoc/bget_malloc.c:964 (discriminator 2)
    5c7c:	910004a5 	add	x5, x5, #0x1
    5c80:	17ffffeb 	b	5c2c <malloc_buffer_overlaps_heap+0x14>

0000000000005c84 <snprintf>:
snprintf():
/home/asaf/devel/optee/optee_os/lib/libutils/isoc/snprintf.c:32
    5c84:	a9b07bfd 	stp	x29, x30, [sp,#-256]!
    5c88:	910003fd 	mov	x29, sp
    5c8c:	a90d93a3 	stp	x3, x4, [x29,#216]
/home/asaf/devel/optee/optee_os/lib/libutils/isoc/snprintf.c:36
    5c90:	910403a3 	add	x3, x29, #0x100
    5c94:	a9030fa3 	stp	x3, x3, [x29,#48]
    5c98:	910343a3 	add	x3, x29, #0xd0
    5c9c:	f90023a3 	str	x3, [x29,#64]
    5ca0:	128004e3 	mov	w3, #0xffffffd8            	// #-40
    5ca4:	b9004ba3 	str	w3, [x29,#72]
    5ca8:	12800fe3 	mov	w3, #0xffffff80            	// #-128
    5cac:	b9004fa3 	str	w3, [x29,#76]
/home/asaf/devel/optee/optee_os/lib/libutils/isoc/snprintf.c:37
    5cb0:	910043a3 	add	x3, x29, #0x10
/home/asaf/devel/optee/optee_os/lib/libutils/isoc/snprintf.c:32
    5cb4:	a90e9ba5 	stp	x5, x6, [x29,#232]
/home/asaf/devel/optee/optee_os/lib/libutils/isoc/snprintf.c:37
    5cb8:	a94317a4 	ldp	x4, x5, [x29,#48]
    5cbc:	a90117a4 	stp	x4, x5, [x29,#16]
    5cc0:	a94417a4 	ldp	x4, x5, [x29,#64]
    5cc4:	a90217a4 	stp	x4, x5, [x29,#32]
/home/asaf/devel/optee/optee_os/lib/libutils/isoc/snprintf.c:32
    5cc8:	3d8017a0 	str	q0, [x29,#80]
/home/asaf/devel/optee/optee_os/lib/libutils/isoc/snprintf.c:37
    5ccc:	52800004 	mov	w4, #0x0                   	// #0
/home/asaf/devel/optee/optee_os/lib/libutils/isoc/snprintf.c:32
    5cd0:	3d801ba1 	str	q1, [x29,#96]
    5cd4:	3d801fa2 	str	q2, [x29,#112]
    5cd8:	3d8023a3 	str	q3, [x29,#128]
    5cdc:	3d8027a4 	str	q4, [x29,#144]
    5ce0:	3d802ba5 	str	q5, [x29,#160]
    5ce4:	3d802fa6 	str	q6, [x29,#176]
    5ce8:	3d8033a7 	str	q7, [x29,#192]
    5cec:	f9007fa7 	str	x7, [x29,#248]
/home/asaf/devel/optee/optee_os/lib/libutils/isoc/snprintf.c:37
    5cf0:	9400004e 	bl	5e28 <__vsnprintf>
/home/asaf/devel/optee/optee_os/lib/libutils/isoc/snprintf.c:41
    5cf4:	a8d07bfd 	ldp	x29, x30, [sp],#256
    5cf8:	d65f03c0 	ret

0000000000005cfc <vsnprintf>:
vsnprintf():
/home/asaf/devel/optee/optee_os/lib/libutils/isoc/snprintf.c:44
    5cfc:	a9bb7bfd 	stp	x29, x30, [sp,#-80]!
    5d00:	910003fd 	mov	x29, sp
    5d04:	a90153f3 	stp	x19, x20, [sp,#16]
    5d08:	aa0003f3 	mov	x19, x0
    5d0c:	f90013f5 	str	x21, [sp,#32]
    5d10:	aa0103f4 	mov	x20, x1
    5d14:	aa0203f5 	mov	x21, x2
/home/asaf/devel/optee/optee_os/lib/libutils/isoc/snprintf.c:45
    5d18:	aa0303e1 	mov	x1, x3
    5d1c:	9100c3a0 	add	x0, x29, #0x30
    5d20:	d2800402 	mov	x2, #0x20                  	// #32
    5d24:	94000018 	bl	5d84 <memcpy>
    5d28:	aa0003e3 	mov	x3, x0
    5d2c:	aa1503e2 	mov	x2, x21
    5d30:	aa1403e1 	mov	x1, x20
    5d34:	52800004 	mov	w4, #0x0                   	// #0
    5d38:	aa1303e0 	mov	x0, x19
    5d3c:	9400003b 	bl	5e28 <__vsnprintf>
/home/asaf/devel/optee/optee_os/lib/libutils/isoc/snprintf.c:46
    5d40:	f94013f5 	ldr	x21, [sp,#32]
    5d44:	a94153f3 	ldp	x19, x20, [sp,#16]
    5d48:	a8c57bfd 	ldp	x29, x30, [sp],#80
    5d4c:	d65f03c0 	ret

0000000000005d50 <memcmp>:
memcmp():
/home/asaf/devel/optee/optee_os/lib/libutils/isoc/newlib/memcmp.c:89
    5d50:	d2800004 	mov	x4, #0x0                   	// #0
    5d54:	eb04005f 	cmp	x2, x4
    5d58:	54000061 	b.ne	5d64 <memcmp+0x14>
/home/asaf/devel/optee/optee_os/lib/libutils/isoc/newlib/memcmp.c:95
    5d5c:	52800000 	mov	w0, #0x0                   	// #0
/home/asaf/devel/optee/optee_os/lib/libutils/isoc/newlib/memcmp.c:135
    5d60:	d65f03c0 	ret
/home/asaf/devel/optee/optee_os/lib/libutils/isoc/newlib/memcmp.c:90
    5d64:	38646803 	ldrb	w3, [x0,x4]
    5d68:	91000484 	add	x4, x4, #0x1
    5d6c:	8b040025 	add	x5, x1, x4
    5d70:	385ff0a5 	ldurb	w5, [x5,#-1]
    5d74:	6b05007f 	cmp	w3, w5
    5d78:	54fffee0 	b.eq	5d54 <memcmp+0x4>
/home/asaf/devel/optee/optee_os/lib/libutils/isoc/newlib/memcmp.c:91
    5d7c:	4b050060 	sub	w0, w3, w5
    5d80:	d65f03c0 	ret

0000000000005d84 <memcpy>:
memcpy():
/home/asaf/devel/optee/optee_os/lib/libutils/isoc/newlib/memcpy.c:93
    5d84:	d2800003 	mov	x3, #0x0                   	// #0
    5d88:	eb03005f 	cmp	x2, x3
    5d8c:	54000041 	b.ne	5d94 <memcpy+0x10>
/home/asaf/devel/optee/optee_os/lib/libutils/isoc/newlib/memcpy.c:134
    5d90:	d65f03c0 	ret
/home/asaf/devel/optee/optee_os/lib/libutils/isoc/newlib/memcpy.c:94
    5d94:	38636824 	ldrb	w4, [x1,x3]
    5d98:	38236804 	strb	w4, [x0,x3]
    5d9c:	91000463 	add	x3, x3, #0x1
    5da0:	17fffffa 	b	5d88 <memcpy+0x4>

0000000000005da4 <memmove>:
memmove():
/home/asaf/devel/optee/optee_os/lib/libutils/isoc/newlib/memmove.c:95
    5da4:	eb01001f 	cmp	x0, x1
    5da8:	54000089 	b.ls	5db8 <memmove+0x14>
/home/asaf/devel/optee/optee_os/lib/libutils/isoc/newlib/memmove.c:95 (discriminator 1)
    5dac:	8b020023 	add	x3, x1, x2
    5db0:	eb03001f 	cmp	x0, x3
    5db4:	540000e3 	b.cc	5dd0 <memmove+0x2c>
    5db8:	d2800003 	mov	x3, #0x0                   	// #0
/home/asaf/devel/optee/optee_os/lib/libutils/isoc/newlib/memmove.c:102
    5dbc:	eb03005f 	cmp	x2, x3
    5dc0:	54000101 	b.ne	5de0 <memmove+0x3c>
/home/asaf/devel/optee/optee_os/lib/libutils/isoc/newlib/memmove.c:156
    5dc4:	d65f03c0 	ret
/home/asaf/devel/optee/optee_os/lib/libutils/isoc/newlib/memmove.c:100
    5dc8:	38626823 	ldrb	w3, [x1,x2]
    5dcc:	38226803 	strb	w3, [x0,x2]
/home/asaf/devel/optee/optee_os/lib/libutils/isoc/newlib/memmove.c:99
    5dd0:	d1000442 	sub	x2, x2, #0x1
    5dd4:	b100045f 	cmn	x2, #0x1
    5dd8:	54ffff81 	b.ne	5dc8 <memmove+0x24>
    5ddc:	d65f03c0 	ret
/home/asaf/devel/optee/optee_os/lib/libutils/isoc/newlib/memmove.c:103
    5de0:	38636824 	ldrb	w4, [x1,x3]
    5de4:	38236804 	strb	w4, [x0,x3]
    5de8:	91000463 	add	x3, x3, #0x1
    5dec:	17fffff4 	b	5dbc <memmove+0x18>

0000000000005df0 <memset>:
memset():
/home/asaf/devel/optee/optee_os/lib/libutils/isoc/newlib/memset.c:124
    5df0:	d2800003 	mov	x3, #0x0                   	// #0
    5df4:	eb03005f 	cmp	x2, x3
    5df8:	54000041 	b.ne	5e00 <memset+0x10>
/home/asaf/devel/optee/optee_os/lib/libutils/isoc/newlib/memset.c:128
    5dfc:	d65f03c0 	ret
/home/asaf/devel/optee/optee_os/lib/libutils/isoc/newlib/memset.c:125
    5e00:	38236801 	strb	w1, [x0,x3]
    5e04:	91000463 	add	x3, x3, #0x1
    5e08:	17fffffb 	b	5df4 <memset+0x4>

0000000000005e0c <strlen>:
strlen():
/home/asaf/devel/optee/optee_os/lib/libutils/isoc/newlib/strlen.c:116
    5e0c:	aa0003e1 	mov	x1, x0
    5e10:	39400022 	ldrb	w2, [x1]
    5e14:	35000062 	cbnz	w2, 5e20 <strlen+0x14>
/home/asaf/devel/optee/optee_os/lib/libutils/isoc/newlib/strlen.c:119
    5e18:	cb000020 	sub	x0, x1, x0
    5e1c:	d65f03c0 	ret
/home/asaf/devel/optee/optee_os/lib/libutils/isoc/newlib/strlen.c:117
    5e20:	91000421 	add	x1, x1, #0x1
    5e24:	17fffffb 	b	5e10 <strlen+0x4>

0000000000005e28 <__vsnprintf>:
__vsnprintf():
/home/asaf/devel/optee/optee_os/lib/libutils/ext/snprintk.c:136
    5e28:	d103c3ff 	sub	sp, sp, #0xf0
    5e2c:	a9037bfd 	stp	x29, x30, [sp,#48]
    5e30:	9100c3fd 	add	x29, sp, #0x30
    5e34:	a90803a1 	stp	x1, x0, [x29,#128]
    5e38:	12001c80 	and	w0, w4, #0xff
    5e3c:	b9007fa0 	str	w0, [x29,#124]
/home/asaf/devel/optee/optee_os/lib/libutils/ext/snprintk.c:140
    5e40:	f94047a0 	ldr	x0, [x29,#136]
/home/asaf/devel/optee/optee_os/lib/libutils/ext/snprintk.c:136
    5e44:	a90453f3 	stp	x19, x20, [sp,#64]
    5e48:	a90873fb 	stp	x27, x28, [sp,#128]
kprintf():
/home/asaf/devel/optee/optee_os/lib/libutils/ext/snprintk.c:266
    5e4c:	5280001b 	mov	w27, #0x0                   	// #0
    5e50:	b9401874 	ldr	w20, [x3,#24]
    5e54:	a9407073 	ldp	x19, x28, [x3]
__vsnprintf():
/home/asaf/devel/optee/optee_os/lib/libutils/ext/snprintk.c:136
    5e58:	a90663f7 	stp	x23, x24, [sp,#96]
    5e5c:	a9076bf9 	stp	x25, x26, [sp,#112]
    5e60:	910263b8 	add	x24, x29, #0x98
    5e64:	a9055bf5 	stp	x21, x22, [sp,#80]
    5e68:	aa0203f9 	mov	x25, x2
/home/asaf/devel/optee/optee_os/lib/libutils/ext/snprintk.c:140
    5e6c:	8b01001a 	add	x26, x0, x1
    5e70:	aa0003f6 	mov	x22, x0
kprintf():
/home/asaf/devel/optee/optee_os/lib/libutils/ext/snprintk.c:268
    5e74:	d2800017 	mov	x23, #0x0                   	// #0
/home/asaf/devel/optee/optee_os/lib/libutils/ext/snprintk.c:274
    5e78:	39400320 	ldrb	w0, [x25]
    5e7c:	7100941f 	cmp	w0, #0x25
    5e80:	7a401804 	ccmp	w0, #0x0, #0x4, ne
    5e84:	540003c1 	b.ne	5efc <__vsnprintf+0xd4>
/home/asaf/devel/optee/optee_os/lib/libutils/ext/snprintk.c:278
    5e88:	34005780 	cbz	w0, 6978 <__vsnprintf+0xb50>
/home/asaf/devel/optee/optee_os/lib/libutils/ext/snprintk.c:286
    5e8c:	12800004 	mov	w4, #0xffffffff            	// #-1
/home/asaf/devel/optee/optee_os/lib/libutils/ext/snprintk.c:281
    5e90:	91000722 	add	x2, x25, #0x1
    5e94:	2a1403e0 	mov	w0, w20
/home/asaf/devel/optee/optee_os/lib/libutils/ext/snprintk.c:323
    5e98:	2a0403e5 	mov	w5, w4
/home/asaf/devel/optee/optee_os/lib/libutils/ext/snprintk.c:287
    5e9c:	52800001 	mov	w1, #0x0                   	// #0
/home/asaf/devel/optee/optee_os/lib/libutils/ext/snprintk.c:285
    5ea0:	5280000a 	mov	w10, #0x0                   	// #0
/home/asaf/devel/optee/optee_os/lib/libutils/ext/snprintk.c:283
    5ea4:	52800015 	mov	w21, #0x0                   	// #0
/home/asaf/devel/optee/optee_os/lib/libutils/ext/snprintk.c:298
    5ea8:	52800406 	mov	w6, #0x20                  	// #32
/home/asaf/devel/optee/optee_os/lib/libutils/ext/snprintk.c:289
    5eac:	39400048 	ldrb	w8, [x2]
    5eb0:	91000459 	add	x25, x2, #0x1
/home/asaf/devel/optee/optee_os/lib/libutils/ext/snprintk.c:290
    5eb4:	71018d1f 	cmp	w8, #0x63
    5eb8:	54001b80 	b.eq	6228 <__vsnprintf+0x400>
    5ebc:	5400080c 	b.gt	5fbc <__vsnprintf+0x194>
    5ec0:	7100c11f 	cmp	w8, #0x30
    5ec4:	54001960 	b.eq	61f0 <__vsnprintf+0x3c8>
    5ec8:	540003cc 	b.gt	5f40 <__vsnprintf+0x118>
    5ecc:	7100a91f 	cmp	w8, #0x2a
    5ed0:	540012c0 	b.eq	6128 <__vsnprintf+0x300>
    5ed4:	5400024c 	b.gt	5f1c <__vsnprintf+0xf4>
    5ed8:	7100811f 	cmp	w8, #0x20
    5edc:	540011c0 	b.eq	6114 <__vsnprintf+0x2ec>
    5ee0:	71008d1f 	cmp	w8, #0x23
    5ee4:	540011e0 	b.eq	6120 <__vsnprintf+0x2f8>
/home/asaf/devel/optee/optee_os/lib/libutils/ext/snprintk.c:540
    5ee8:	34005488 	cbz	w8, 6978 <__vsnprintf+0xb50>
/home/asaf/devel/optee/optee_os/lib/libutils/ext/snprintk.c:544
    5eec:	910303a3 	add	x3, x29, #0xc0
    5ef0:	2a0003f4 	mov	w20, w0
    5ef4:	381d8c68 	strb	w8, [x3,#-40]!
    5ef8:	140000d4 	b	6248 <__vsnprintf+0x420>
/home/asaf/devel/optee/optee_os/lib/libutils/ext/snprintk.c:275
    5efc:	1100077b 	add	w27, w27, #0x1
/home/asaf/devel/optee/optee_os/lib/libutils/ext/snprintk.c:276
    5f00:	b40000b6 	cbz	x22, 5f14 <__vsnprintf+0xec>
    5f04:	eb16035f 	cmp	x26, x22
    5f08:	54000069 	b.ls	5f14 <__vsnprintf+0xec>
    5f0c:	390002c0 	strb	w0, [x22]
    5f10:	910006d6 	add	x22, x22, #0x1
/home/asaf/devel/optee/optee_os/lib/libutils/ext/snprintk.c:274
    5f14:	91000739 	add	x25, x25, #0x1
    5f18:	17ffffd8 	b	5e78 <__vsnprintf+0x50>
/home/asaf/devel/optee/optee_os/lib/libutils/ext/snprintk.c:290
    5f1c:	7100b51f 	cmp	w8, #0x2d
    5f20:	54001120 	b.eq	6144 <__vsnprintf+0x31c>
    5f24:	7100b91f 	cmp	w8, #0x2e
    5f28:	54001280 	b.eq	6178 <__vsnprintf+0x350>
    5f2c:	7100ad1f 	cmp	w8, #0x2b
    5f30:	54fffdc1 	b.ne	5ee8 <__vsnprintf+0xc0>
/home/asaf/devel/optee/optee_os/lib/libutils/ext/snprintk.c:318
    5f34:	2a0803e1 	mov	w1, w8
/home/asaf/devel/optee/optee_os/lib/libutils/ext/snprintk.c:321
    5f38:	aa1903e2 	mov	x2, x25
    5f3c:	17ffffdc 	b	5eac <__vsnprintf+0x84>
/home/asaf/devel/optee/optee_os/lib/libutils/ext/snprintk.c:290
    5f40:	7101111f 	cmp	w8, #0x44
    5f44:	54001920 	b.eq	6268 <__vsnprintf+0x440>
    5f48:	5400018c 	b.gt	5f78 <__vsnprintf+0x150>
    5f4c:	7100e51f 	cmp	w8, #0x39
    5f50:	54fffccc 	b.gt	5ee8 <__vsnprintf+0xc0>
    5f54:	5280000a 	mov	w10, #0x0                   	// #0
/home/asaf/devel/optee/optee_os/lib/libutils/ext/snprintk.c:345
    5f58:	5100c108 	sub	w8, w8, #0x30
    5f5c:	52800142 	mov	w2, #0xa                   	// #10
    5f60:	1b02214a 	madd	w10, w10, w2, w8
/home/asaf/devel/optee/optee_os/lib/libutils/ext/snprintk.c:346
    5f64:	38401728 	ldrb	w8, [x25],#1
/home/asaf/devel/optee/optee_os/lib/libutils/ext/snprintk.c:347
    5f68:	5100c102 	sub	w2, w8, #0x30
    5f6c:	7100245f 	cmp	w2, #0x9
    5f70:	54ffff49 	b.ls	5f58 <__vsnprintf+0x130>
    5f74:	17ffffd0 	b	5eb4 <__vsnprintf+0x8c>
/home/asaf/devel/optee/optee_os/lib/libutils/ext/snprintk.c:290
    5f78:	7101551f 	cmp	w8, #0x55
    5f7c:	54003c40 	b.eq	6704 <__vsnprintf+0x8dc>
    5f80:	7101611f 	cmp	w8, #0x58
    5f84:	54000ac0 	b.eq	60dc <__vsnprintf+0x2b4>
    5f88:	71013d1f 	cmp	w8, #0x4f
    5f8c:	54fffae1 	b.ne	5ee8 <__vsnprintf+0xc0>
/home/asaf/devel/optee/optee_os/lib/libutils/ext/snprintk.c:407
    5f90:	321c02b5 	orr	w21, w21, #0x10
/home/asaf/devel/optee/optee_os/lib/libutils/ext/snprintk.c:410
    5f94:	36382695 	tbz	w21, #7, 6464 <__vsnprintf+0x63c>
    5f98:	37f827e0 	tbnz	w0, #31, 6494 <__vsnprintf+0x66c>
    5f9c:	91003e61 	add	x1, x19, #0xf
    5fa0:	2a0003f4 	mov	w20, w0
    5fa4:	aa1303e0 	mov	x0, x19
    5fa8:	927df033 	and	x19, x1, #0xfffffffffffffff8
    5fac:	f9400005 	ldr	x5, [x0]
/home/asaf/devel/optee/optee_os/lib/libutils/ext/snprintk.c:411
    5fb0:	52800000 	mov	w0, #0x0                   	// #0
/home/asaf/devel/optee/optee_os/lib/libutils/ext/snprintk.c:481
    5fb4:	52800001 	mov	w1, #0x0                   	// #0
    5fb8:	140000b8 	b	6298 <__vsnprintf+0x470>
/home/asaf/devel/optee/optee_os/lib/libutils/ext/snprintk.c:290
    5fbc:	7101bd1f 	cmp	w8, #0x6f
    5fc0:	54fffea0 	b.eq	5f94 <__vsnprintf+0x16c>
    5fc4:	5400024c 	b.gt	600c <__vsnprintf+0x1e4>
    5fc8:	7101a51f 	cmp	w8, #0x69
    5fcc:	54001500 	b.eq	626c <__vsnprintf+0x444>
    5fd0:	540000ec 	b.gt	5fec <__vsnprintf+0x1c4>
    5fd4:	7101911f 	cmp	w8, #0x64
    5fd8:	540014a0 	b.eq	626c <__vsnprintf+0x444>
    5fdc:	7101a11f 	cmp	w8, #0x68
    5fe0:	54fff841 	b.ne	5ee8 <__vsnprintf+0xc0>
/home/asaf/devel/optee/optee_os/lib/libutils/ext/snprintk.c:351
    5fe4:	321a02b5 	orr	w21, w21, #0x40
    5fe8:	17ffffd4 	b	5f38 <__vsnprintf+0x110>
/home/asaf/devel/optee/optee_os/lib/libutils/ext/snprintk.c:290
    5fec:	7101b11f 	cmp	w8, #0x6c
    5ff0:	54001040 	b.eq	61f8 <__vsnprintf+0x3d0>
    5ff4:	7101b91f 	cmp	w8, #0x6e
    5ff8:	54001d40 	b.eq	63a0 <__vsnprintf+0x578>
    5ffc:	7101a91f 	cmp	w8, #0x6a
    6000:	54fff741 	b.ne	5ee8 <__vsnprintf+0xc0>
/home/asaf/devel/optee/optee_os/lib/libutils/ext/snprintk.c:354
    6004:	321902b5 	orr	w21, w21, #0x80
    6008:	17ffffcc 	b	5f38 <__vsnprintf+0x110>
/home/asaf/devel/optee/optee_os/lib/libutils/ext/snprintk.c:290
    600c:	7101d11f 	cmp	w8, #0x74
    6010:	54001040 	b.eq	6218 <__vsnprintf+0x3f0>
    6014:	5400046c 	b.gt	60a0 <__vsnprintf+0x278>
    6018:	7101c51f 	cmp	w8, #0x71
    601c:	54000f60 	b.eq	6208 <__vsnprintf+0x3e0>
    6020:	540026cb 	b.lt	64f8 <__vsnprintf+0x6d0>
    6024:	7101cd1f 	cmp	w8, #0x73
    6028:	54fff601 	b.ne	5ee8 <__vsnprintf+0xc0>
/home/asaf/devel/optee/optee_os/lib/libutils/ext/snprintk.c:441
    602c:	37f83480 	tbnz	w0, #31, 66bc <__vsnprintf+0x894>
    6030:	91003e61 	add	x1, x19, #0xf
    6034:	2a0003f4 	mov	w20, w0
    6038:	aa1303e0 	mov	x0, x19
    603c:	927df033 	and	x19, x1, #0xfffffffffffffff8
    6040:	f9400003 	ldr	x3, [x0]
/home/asaf/devel/optee/optee_os/lib/libutils/ext/snprintk.c:443
    6044:	d0000020 	adrp	x0, c000 <__func__.3637+0x608>
    6048:	91020400 	add	x0, x0, #0x81
    604c:	f100007f 	cmp	x3, #0x0
    6050:	9a830003 	csel	x3, x0, x3, eq
/home/asaf/devel/optee/optee_os/lib/libutils/ext/snprintk.c:444
    6054:	3100049f 	cmn	w4, #0x1
    6058:	540033e0 	b.eq	66d4 <__vsnprintf+0x8ac>
/home/asaf/devel/optee/optee_os/lib/libutils/ext/snprintk.c:450
    605c:	93407c82 	sxtw	x2, w4
    6060:	aa0303e0 	mov	x0, x3
    6064:	290d2ba8 	stp	w8, w10, [x29,#104]
    6068:	52800001 	mov	w1, #0x0                   	// #0
    606c:	f9003ba3 	str	x3, [x29,#112]
    6070:	b9007ba4 	str	w4, [x29,#120]
    6074:	94000332 	bl	6d3c <memchr>
/home/asaf/devel/optee/optee_os/lib/libutils/ext/snprintk.c:452
    6078:	294d2ba8 	ldp	w8, w10, [x29,#104]
    607c:	b9407ba4 	ldr	w4, [x29,#120]
    6080:	f9403ba3 	ldr	x3, [x29,#112]
    6084:	b4000080 	cbz	x0, 6094 <__vsnprintf+0x26c>
/home/asaf/devel/optee/optee_os/lib/libutils/ext/snprintk.c:453
    6088:	cb030000 	sub	x0, x0, x3
    608c:	6b00009f 	cmp	w4, w0
    6090:	1a80d084 	csel	w4, w4, w0, le
/home/asaf/devel/optee/optee_os/lib/libutils/ext/snprintk.c:284
    6094:	52800000 	mov	w0, #0x0                   	// #0
/home/asaf/devel/optee/optee_os/lib/libutils/ext/snprintk.c:460
    6098:	52800001 	mov	w1, #0x0                   	// #0
    609c:	14000144 	b	65ac <__vsnprintf+0x784>
/home/asaf/devel/optee/optee_os/lib/libutils/ext/snprintk.c:290
    60a0:	7101e11f 	cmp	w8, #0x78
    60a4:	540037e0 	b.eq	67a0 <__vsnprintf+0x978>
    60a8:	7101e91f 	cmp	w8, #0x7a
    60ac:	54000ba0 	b.eq	6220 <__vsnprintf+0x3f8>
    60b0:	7101d51f 	cmp	w8, #0x75
    60b4:	54fff1a1 	b.ne	5ee8 <__vsnprintf+0xc0>
/home/asaf/devel/optee/optee_os/lib/libutils/ext/snprintk.c:466
    60b8:	363832b5 	tbz	w21, #7, 670c <__vsnprintf+0x8e4>
    60bc:	37f83400 	tbnz	w0, #31, 673c <__vsnprintf+0x914>
    60c0:	91003e61 	add	x1, x19, #0xf
    60c4:	2a0003f4 	mov	w20, w0
    60c8:	aa1303e0 	mov	x0, x19
    60cc:	927df033 	and	x19, x1, #0xfffffffffffffff8
    60d0:	f9400005 	ldr	x5, [x0]
/home/asaf/devel/optee/optee_os/lib/libutils/ext/snprintk.c:467
    60d4:	52800020 	mov	w0, #0x1                   	// #1
    60d8:	17ffffb7 	b	5fb4 <__vsnprintf+0x18c>
/home/asaf/devel/optee/optee_os/lib/libutils/ext/snprintk.c:470
    60dc:	90000037 	adrp	x23, a000 <mpa_init_static_fmm_context+0x3c>
    60e0:	913082f7 	add	x23, x23, #0xc20
/home/asaf/devel/optee/optee_os/lib/libutils/ext/snprintk.c:474
    60e4:	36383675 	tbz	w21, #7, 67b0 <__vsnprintf+0x988>
    60e8:	37f837c0 	tbnz	w0, #31, 67e0 <__vsnprintf+0x9b8>
    60ec:	91003e61 	add	x1, x19, #0xf
    60f0:	2a0003f4 	mov	w20, w0
    60f4:	aa1303e0 	mov	x0, x19
    60f8:	927df033 	and	x19, x1, #0xfffffffffffffff8
    60fc:	f9400005 	ldr	x5, [x0]
/home/asaf/devel/optee/optee_os/lib/libutils/ext/snprintk.c:477
    6100:	36000075 	tbz	w21, #0, 610c <__vsnprintf+0x2e4>
    6104:	b4000045 	cbz	x5, 610c <__vsnprintf+0x2e4>
/home/asaf/devel/optee/optee_os/lib/libutils/ext/snprintk.c:478
    6108:	321f02b5 	orr	w21, w21, #0x2
/home/asaf/devel/optee/optee_os/lib/libutils/ext/snprintk.c:475
    610c:	52800040 	mov	w0, #0x2                   	// #2
    6110:	17ffffa9 	b	5fb4 <__vsnprintf+0x18c>
/home/asaf/devel/optee/optee_os/lib/libutils/ext/snprintk.c:298
    6114:	7100003f 	cmp	w1, #0x0
    6118:	1a861021 	csel	w1, w1, w6, ne
    611c:	17ffff87 	b	5f38 <__vsnprintf+0x110>
/home/asaf/devel/optee/optee_os/lib/libutils/ext/snprintk.c:301
    6120:	320002b5 	orr	w21, w21, #0x1
    6124:	17ffff85 	b	5f38 <__vsnprintf+0x110>
/home/asaf/devel/optee/optee_os/lib/libutils/ext/snprintk.c:310
    6128:	37f80120 	tbnz	w0, #31, 614c <__vsnprintf+0x324>
    612c:	91002e63 	add	x3, x19, #0xb
    6130:	aa1303e2 	mov	x2, x19
    6134:	927df073 	and	x19, x3, #0xfffffffffffffff8
    6138:	b940004a 	ldr	w10, [x2]
    613c:	36ffefea 	tbz	w10, #31, 5f38 <__vsnprintf+0x110>
/home/asaf/devel/optee/optee_os/lib/libutils/ext/snprintk.c:312
    6140:	4b0a03ea 	neg	w10, w10
/home/asaf/devel/optee/optee_os/lib/libutils/ext/snprintk.c:315
    6144:	321e02b5 	orr	w21, w21, #0x4
    6148:	17ffff7c 	b	5f38 <__vsnprintf+0x110>
/home/asaf/devel/optee/optee_os/lib/libutils/ext/snprintk.c:310
    614c:	11002003 	add	w3, w0, #0x8
    6150:	7100007f 	cmp	w3, #0x0
    6154:	540000cd 	b.le	616c <__vsnprintf+0x344>
    6158:	91002e67 	add	x7, x19, #0xb
    615c:	aa1303e2 	mov	x2, x19
    6160:	2a0303e0 	mov	w0, w3
    6164:	927df0f3 	and	x19, x7, #0xfffffffffffffff8
    6168:	17fffff4 	b	6138 <__vsnprintf+0x310>
    616c:	8b20c382 	add	x2, x28, w0, sxtw
    6170:	2a0303e0 	mov	w0, w3
    6174:	17fffff1 	b	6138 <__vsnprintf+0x310>
/home/asaf/devel/optee/optee_os/lib/libutils/ext/snprintk.c:321
    6178:	39400328 	ldrb	w8, [x25]
    617c:	91000723 	add	x3, x25, #0x1
    6180:	7100a91f 	cmp	w8, #0x2a
    6184:	54000140 	b.eq	61ac <__vsnprintf+0x384>
    6188:	aa0303f9 	mov	x25, x3
    618c:	52800004 	mov	w4, #0x0                   	// #0
/home/asaf/devel/optee/optee_os/lib/libutils/ext/snprintk.c:327
    6190:	5100c102 	sub	w2, w8, #0x30
    6194:	7100245f 	cmp	w2, #0x9
    6198:	54ffe8e8 	b.hi	5eb4 <__vsnprintf+0x8c>
/home/asaf/devel/optee/optee_os/lib/libutils/ext/snprintk.c:328
    619c:	52800143 	mov	w3, #0xa                   	// #10
/home/asaf/devel/optee/optee_os/lib/libutils/ext/snprintk.c:329
    61a0:	38401728 	ldrb	w8, [x25],#1
/home/asaf/devel/optee/optee_os/lib/libutils/ext/snprintk.c:328
    61a4:	1b030884 	madd	w4, w4, w3, w2
    61a8:	17fffffa 	b	6190 <__vsnprintf+0x368>
/home/asaf/devel/optee/optee_os/lib/libutils/ext/snprintk.c:322
    61ac:	37f80160 	tbnz	w0, #31, 61d8 <__vsnprintf+0x3b0>
    61b0:	91002e64 	add	x4, x19, #0xb
    61b4:	2a0003e2 	mov	w2, w0
    61b8:	aa1303e0 	mov	x0, x19
    61bc:	927df093 	and	x19, x4, #0xfffffffffffffff8
/home/asaf/devel/optee/optee_os/lib/libutils/ext/snprintk.c:323
    61c0:	b9400004 	ldr	w4, [x0]
/home/asaf/devel/optee/optee_os/lib/libutils/ext/snprintk.c:321
    61c4:	aa0303f9 	mov	x25, x3
/home/asaf/devel/optee/optee_os/lib/libutils/ext/snprintk.c:323
    61c8:	2a0203e0 	mov	w0, w2
    61cc:	7100009f 	cmp	w4, #0x0
    61d0:	1a85a084 	csel	w4, w4, w5, ge
    61d4:	17ffff59 	b	5f38 <__vsnprintf+0x110>
/home/asaf/devel/optee/optee_os/lib/libutils/ext/snprintk.c:322
    61d8:	11002002 	add	w2, w0, #0x8
    61dc:	8b20c380 	add	x0, x28, w0, sxtw
    61e0:	7100005f 	cmp	w2, #0x0
    61e4:	54fffeed 	b.le	61c0 <__vsnprintf+0x398>
    61e8:	91002e64 	add	x4, x19, #0xb
    61ec:	17fffff3 	b	61b8 <__vsnprintf+0x390>
/home/asaf/devel/optee/optee_os/lib/libutils/ext/snprintk.c:339
    61f0:	321602b5 	orr	w21, w21, #0x400
    61f4:	17ffff51 	b	5f38 <__vsnprintf+0x110>
/home/asaf/devel/optee/optee_os/lib/libutils/ext/snprintk.c:357
    61f8:	39400322 	ldrb	w2, [x25]
    61fc:	7101b05f 	cmp	w2, #0x6c
    6200:	54000081 	b.ne	6210 <__vsnprintf+0x3e8>
/home/asaf/devel/optee/optee_os/lib/libutils/ext/snprintk.c:358
    6204:	91000739 	add	x25, x25, #0x1
/home/asaf/devel/optee/optee_os/lib/libutils/ext/snprintk.c:365
    6208:	321b02b5 	orr	w21, w21, #0x20
    620c:	17ffff4b 	b	5f38 <__vsnprintf+0x110>
/home/asaf/devel/optee/optee_os/lib/libutils/ext/snprintk.c:361
    6210:	321c02b5 	orr	w21, w21, #0x10
    6214:	17ffff49 	b	5f38 <__vsnprintf+0x110>
/home/asaf/devel/optee/optee_os/lib/libutils/ext/snprintk.c:368
    6218:	321802b5 	orr	w21, w21, #0x100
    621c:	17ffff47 	b	5f38 <__vsnprintf+0x110>
/home/asaf/devel/optee/optee_os/lib/libutils/ext/snprintk.c:371
    6220:	321702b5 	orr	w21, w21, #0x200
    6224:	17ffff45 	b	5f38 <__vsnprintf+0x110>
/home/asaf/devel/optee/optee_os/lib/libutils/ext/snprintk.c:374
    6228:	37f80140 	tbnz	w0, #31, 6250 <__vsnprintf+0x428>
    622c:	91002e61 	add	x1, x19, #0xb
    6230:	2a0003f4 	mov	w20, w0
    6234:	aa1303e0 	mov	x0, x19
    6238:	927df033 	and	x19, x1, #0xfffffffffffffff8
    623c:	910303a3 	add	x3, x29, #0xc0
    6240:	b9400000 	ldr	w0, [x0]
    6244:	381d8c60 	strb	w0, [x3,#-40]!
/home/asaf/devel/optee/optee_os/lib/libutils/ext/snprintk.c:545
    6248:	52800024 	mov	w4, #0x1                   	// #1
    624c:	17ffff92 	b	6094 <__vsnprintf+0x26c>
/home/asaf/devel/optee/optee_os/lib/libutils/ext/snprintk.c:374
    6250:	11002014 	add	w20, w0, #0x8
    6254:	8b20c380 	add	x0, x28, w0, sxtw
    6258:	7100029f 	cmp	w20, #0x0
    625c:	54ffff0d 	b.le	623c <__vsnprintf+0x414>
    6260:	91002e61 	add	x1, x19, #0xb
    6264:	17fffff4 	b	6234 <__vsnprintf+0x40c>
/home/asaf/devel/optee/optee_os/lib/libutils/ext/snprintk.c:379
    6268:	321c02b5 	orr	w21, w21, #0x10
/home/asaf/devel/optee/optee_os/lib/libutils/ext/snprintk.c:383
    626c:	36380515 	tbz	w21, #7, 630c <__vsnprintf+0x4e4>
    6270:	37f80660 	tbnz	w0, #31, 633c <__vsnprintf+0x514>
    6274:	91003e62 	add	x2, x19, #0xf
    6278:	2a0003f4 	mov	w20, w0
    627c:	aa1303e0 	mov	x0, x19
    6280:	927df053 	and	x19, x2, #0xfffffffffffffff8
    6284:	f9400005 	ldr	x5, [x0]
/home/asaf/devel/optee/optee_os/lib/libutils/ext/snprintk.c:388
    6288:	52800020 	mov	w0, #0x1                   	// #1
/home/asaf/devel/optee/optee_os/lib/libutils/ext/snprintk.c:384
    628c:	b6f80065 	tbz	x5, #63, 6298 <__vsnprintf+0x470>
/home/asaf/devel/optee/optee_os/lib/libutils/ext/snprintk.c:385
    6290:	cb0503e5 	neg	x5, x5
/home/asaf/devel/optee/optee_os/lib/libutils/ext/snprintk.c:386
    6294:	528005a1 	mov	w1, #0x2d                  	// #45
/home/asaf/devel/optee/optee_os/lib/libutils/ext/snprintk.c:488
    6298:	3100049f 	cmn	w4, #0x1
    629c:	12157aa2 	and	w2, w21, #0xfffffbff
    62a0:	1a951055 	csel	w21, w2, w21, ne
/home/asaf/devel/optee/optee_os/lib/libutils/ext/snprintk.c:496
    62a4:	f10000bf 	cmp	x5, #0x0
    62a8:	7a400880 	ccmp	w4, #0x0, #0x0, eq
/home/asaf/devel/optee/optee_os/lib/libutils/ext/snprintk.c:495
    62ac:	91009703 	add	x3, x24, #0x25
/home/asaf/devel/optee/optee_os/lib/libutils/ext/snprintk.c:496
    62b0:	54000260 	b.eq	62fc <__vsnprintf+0x4d4>
/home/asaf/devel/optee/optee_os/lib/libutils/ext/snprintk.c:502
    62b4:	7100041f 	cmp	w0, #0x1
    62b8:	54002c60 	b.eq	6844 <__vsnprintf+0xa1c>
    62bc:	7100081f 	cmp	w0, #0x2
    62c0:	54002e40 	b.eq	6888 <__vsnprintf+0xa60>
    62c4:	91009700 	add	x0, x24, #0x25
/home/asaf/devel/optee/optee_os/lib/libutils/ext/snprintk.c:505
    62c8:	120008a2 	and	w2, w5, #0x7
    62cc:	d1000403 	sub	x3, x0, #0x1
    62d0:	1100c042 	add	w2, w2, #0x30
    62d4:	381ff002 	sturb	w2, [x0,#-1]
/home/asaf/devel/optee/optee_os/lib/libutils/ext/snprintk.c:506
    62d8:	d343fca5 	lsr	x5, x5, #3
/home/asaf/devel/optee/optee_os/lib/libutils/ext/snprintk.c:507
    62dc:	b5002c45 	cbnz	x5, 6864 <__vsnprintf+0xa3c>
/home/asaf/devel/optee/optee_os/lib/libutils/ext/snprintk.c:509
    62e0:	7100c05f 	cmp	w2, #0x30
    62e4:	1a9f07e2 	cset	w2, ne
    62e8:	6a0202bf 	tst	w21, w2
    62ec:	54000080 	b.eq	62fc <__vsnprintf+0x4d4>
/home/asaf/devel/optee/optee_os/lib/libutils/ext/snprintk.c:510
    62f0:	52800602 	mov	w2, #0x30                  	// #48
    62f4:	381ff062 	sturb	w2, [x3,#-1]
    62f8:	d1000803 	sub	x3, x0, #0x2
/home/asaf/devel/optee/optee_os/lib/libutils/ext/snprintk.c:536
    62fc:	91009702 	add	x2, x24, #0x25
    6300:	2a0403e0 	mov	w0, w4
    6304:	4b030044 	sub	w4, w2, w3
    6308:	140000a9 	b	65ac <__vsnprintf+0x784>
/home/asaf/devel/optee/optee_os/lib/libutils/ext/snprintk.c:383
    630c:	3747fb35 	tbnz	w21, #8, 6270 <__vsnprintf+0x448>
    6310:	374ffb15 	tbnz	w21, #9, 6270 <__vsnprintf+0x448>
    6314:	372ffaf5 	tbnz	w21, #5, 6270 <__vsnprintf+0x448>
    6318:	3727fad5 	tbnz	w21, #4, 6270 <__vsnprintf+0x448>
    631c:	36300295 	tbz	w21, #6, 636c <__vsnprintf+0x544>
    6320:	37f801a0 	tbnz	w0, #31, 6354 <__vsnprintf+0x52c>
    6324:	91002e62 	add	x2, x19, #0xb
    6328:	2a0003f4 	mov	w20, w0
    632c:	aa1303e0 	mov	x0, x19
    6330:	927df053 	and	x19, x2, #0xfffffffffffffff8
    6334:	79800005 	ldrsh	x5, [x0]
    6338:	17ffffd4 	b	6288 <__vsnprintf+0x460>
    633c:	11002014 	add	w20, w0, #0x8
    6340:	8b20c380 	add	x0, x28, w0, sxtw
    6344:	7100029f 	cmp	w20, #0x0
    6348:	54fff9ed 	b.le	6284 <__vsnprintf+0x45c>
    634c:	91003e62 	add	x2, x19, #0xf
    6350:	17ffffcb 	b	627c <__vsnprintf+0x454>
    6354:	11002014 	add	w20, w0, #0x8
    6358:	8b20c380 	add	x0, x28, w0, sxtw
    635c:	7100029f 	cmp	w20, #0x0
    6360:	54fffead 	b.le	6334 <__vsnprintf+0x50c>
    6364:	91002e62 	add	x2, x19, #0xb
    6368:	17fffff1 	b	632c <__vsnprintf+0x504>
    636c:	37f800e0 	tbnz	w0, #31, 6388 <__vsnprintf+0x560>
    6370:	91002e62 	add	x2, x19, #0xb
    6374:	2a0003f4 	mov	w20, w0
    6378:	aa1303e0 	mov	x0, x19
    637c:	927df053 	and	x19, x2, #0xfffffffffffffff8
    6380:	b9800005 	ldrsw	x5, [x0]
    6384:	17ffffc1 	b	6288 <__vsnprintf+0x460>
    6388:	11002014 	add	w20, w0, #0x8
    638c:	8b20c380 	add	x0, x28, w0, sxtw
    6390:	7100029f 	cmp	w20, #0x0
    6394:	54ffff6d 	b.le	6380 <__vsnprintf+0x558>
    6398:	91002e62 	add	x2, x19, #0xb
    639c:	17fffff7 	b	6378 <__vsnprintf+0x550>
/home/asaf/devel/optee/optee_os/lib/libutils/ext/snprintk.c:391
    63a0:	36380155 	tbz	w21, #7, 63c8 <__vsnprintf+0x5a0>
/home/asaf/devel/optee/optee_os/lib/libutils/ext/snprintk.c:400
    63a4:	37f802c0 	tbnz	w0, #31, 63fc <__vsnprintf+0x5d4>
    63a8:	91003e61 	add	x1, x19, #0xf
    63ac:	2a0003f4 	mov	w20, w0
    63b0:	aa1303e0 	mov	x0, x19
    63b4:	927df033 	and	x19, x1, #0xfffffffffffffff8
    63b8:	f9400000 	ldr	x0, [x0]
    63bc:	93407f61 	sxtw	x1, w27
    63c0:	f9000001 	str	x1, [x0]
    63c4:	17fffead 	b	5e78 <__vsnprintf+0x50>
/home/asaf/devel/optee/optee_os/lib/libutils/ext/snprintk.c:393
    63c8:	3747fef5 	tbnz	w21, #8, 63a4 <__vsnprintf+0x57c>
/home/asaf/devel/optee/optee_os/lib/libutils/ext/snprintk.c:395
    63cc:	374ffed5 	tbnz	w21, #9, 63a4 <__vsnprintf+0x57c>
/home/asaf/devel/optee/optee_os/lib/libutils/ext/snprintk.c:397
    63d0:	372ffeb5 	tbnz	w21, #5, 63a4 <__vsnprintf+0x57c>
/home/asaf/devel/optee/optee_os/lib/libutils/ext/snprintk.c:399
    63d4:	3727fe95 	tbnz	w21, #4, 63a4 <__vsnprintf+0x57c>
/home/asaf/devel/optee/optee_os/lib/libutils/ext/snprintk.c:401
    63d8:	363002b5 	tbz	w21, #6, 642c <__vsnprintf+0x604>
/home/asaf/devel/optee/optee_os/lib/libutils/ext/snprintk.c:402
    63dc:	37f801c0 	tbnz	w0, #31, 6414 <__vsnprintf+0x5ec>
    63e0:	91003e61 	add	x1, x19, #0xf
    63e4:	2a0003f4 	mov	w20, w0
    63e8:	aa1303e0 	mov	x0, x19
    63ec:	927df033 	and	x19, x1, #0xfffffffffffffff8
    63f0:	f9400000 	ldr	x0, [x0]
    63f4:	7900001b 	strh	w27, [x0]
    63f8:	17fffea0 	b	5e78 <__vsnprintf+0x50>
/home/asaf/devel/optee/optee_os/lib/libutils/ext/snprintk.c:400
    63fc:	11002014 	add	w20, w0, #0x8
    6400:	8b20c380 	add	x0, x28, w0, sxtw
    6404:	7100029f 	cmp	w20, #0x0
    6408:	54fffd8d 	b.le	63b8 <__vsnprintf+0x590>
    640c:	91003e61 	add	x1, x19, #0xf
    6410:	17ffffe8 	b	63b0 <__vsnprintf+0x588>
/home/asaf/devel/optee/optee_os/lib/libutils/ext/snprintk.c:402
    6414:	11002014 	add	w20, w0, #0x8
    6418:	8b20c380 	add	x0, x28, w0, sxtw
    641c:	7100029f 	cmp	w20, #0x0
    6420:	54fffe8d 	b.le	63f0 <__vsnprintf+0x5c8>
    6424:	91003e61 	add	x1, x19, #0xf
    6428:	17fffff0 	b	63e8 <__vsnprintf+0x5c0>
/home/asaf/devel/optee/optee_os/lib/libutils/ext/snprintk.c:404
    642c:	37f80100 	tbnz	w0, #31, 644c <__vsnprintf+0x624>
    6430:	91003e61 	add	x1, x19, #0xf
    6434:	2a0003f4 	mov	w20, w0
    6438:	aa1303e0 	mov	x0, x19
    643c:	927df033 	and	x19, x1, #0xfffffffffffffff8
    6440:	f9400000 	ldr	x0, [x0]
    6444:	b900001b 	str	w27, [x0]
    6448:	17fffe8c 	b	5e78 <__vsnprintf+0x50>
    644c:	11002014 	add	w20, w0, #0x8
    6450:	8b20c380 	add	x0, x28, w0, sxtw
    6454:	7100029f 	cmp	w20, #0x0
    6458:	54ffff4d 	b.le	6440 <__vsnprintf+0x618>
    645c:	91003e61 	add	x1, x19, #0xf
    6460:	17fffff6 	b	6438 <__vsnprintf+0x610>
/home/asaf/devel/optee/optee_os/lib/libutils/ext/snprintk.c:410
    6464:	3747d9b5 	tbnz	w21, #8, 5f98 <__vsnprintf+0x170>
    6468:	374fd995 	tbnz	w21, #9, 5f98 <__vsnprintf+0x170>
    646c:	372fd975 	tbnz	w21, #5, 5f98 <__vsnprintf+0x170>
    6470:	3727d955 	tbnz	w21, #4, 5f98 <__vsnprintf+0x170>
    6474:	36300295 	tbz	w21, #6, 64c4 <__vsnprintf+0x69c>
    6478:	37f801a0 	tbnz	w0, #31, 64ac <__vsnprintf+0x684>
    647c:	91002e61 	add	x1, x19, #0xb
    6480:	2a0003f4 	mov	w20, w0
    6484:	aa1303e0 	mov	x0, x19
    6488:	927df033 	and	x19, x1, #0xfffffffffffffff8
    648c:	79400005 	ldrh	w5, [x0]
    6490:	17fffec8 	b	5fb0 <__vsnprintf+0x188>
    6494:	11002014 	add	w20, w0, #0x8
    6498:	8b20c380 	add	x0, x28, w0, sxtw
    649c:	7100029f 	cmp	w20, #0x0
    64a0:	54ffd86d 	b.le	5fac <__vsnprintf+0x184>
    64a4:	91003e61 	add	x1, x19, #0xf
    64a8:	17fffebf 	b	5fa4 <__vsnprintf+0x17c>
    64ac:	11002014 	add	w20, w0, #0x8
    64b0:	8b20c380 	add	x0, x28, w0, sxtw
    64b4:	7100029f 	cmp	w20, #0x0
    64b8:	54fffead 	b.le	648c <__vsnprintf+0x664>
    64bc:	91002e61 	add	x1, x19, #0xb
    64c0:	17fffff1 	b	6484 <__vsnprintf+0x65c>
    64c4:	37f800e0 	tbnz	w0, #31, 64e0 <__vsnprintf+0x6b8>
    64c8:	91002e61 	add	x1, x19, #0xb
    64cc:	2a0003f4 	mov	w20, w0
    64d0:	aa1303e0 	mov	x0, x19
    64d4:	927df033 	and	x19, x1, #0xfffffffffffffff8
    64d8:	b9400005 	ldr	w5, [x0]
    64dc:	17fffeb5 	b	5fb0 <__vsnprintf+0x188>
    64e0:	11002014 	add	w20, w0, #0x8
    64e4:	8b20c380 	add	x0, x28, w0, sxtw
    64e8:	7100029f 	cmp	w20, #0x0
    64ec:	54ffff6d 	b.le	64d8 <__vsnprintf+0x6b0>
    64f0:	91002e61 	add	x1, x19, #0xb
    64f4:	17fffff7 	b	64d0 <__vsnprintf+0x6a8>
/home/asaf/devel/optee/optee_os/lib/libutils/ext/snprintk.c:414
    64f8:	b9407fa1 	ldr	w1, [x29,#124]
    64fc:	34000b81 	cbz	w1, 666c <__vsnprintf+0x844>
    6500:	39400321 	ldrb	w1, [x25]
    6504:	7101543f 	cmp	w1, #0x55
    6508:	54000b21 	b.ne	666c <__vsnprintf+0x844>
    650c:	39400721 	ldrb	w1, [x25,#1]
    6510:	7101b03f 	cmp	w1, #0x6c
    6514:	54000ac1 	b.ne	666c <__vsnprintf+0x844>
/home/asaf/devel/optee/optee_os/lib/libutils/ext/snprintk.c:419
    6518:	91000b39 	add	x25, x25, #0x2
/home/asaf/devel/optee/optee_os/lib/libutils/ext/snprintk.c:420
    651c:	37f809c0 	tbnz	w0, #31, 6654 <__vsnprintf+0x82c>
    6520:	91003e61 	add	x1, x19, #0xf
    6524:	2a0003f4 	mov	w20, w0
    6528:	aa1303e0 	mov	x0, x19
    652c:	927df033 	and	x19, x1, #0xfffffffffffffff8
    6530:	f9400000 	ldr	x0, [x0]
uuid2str():
/home/asaf/devel/optee/optee_os/lib/libutils/ext/snprintk.c:222
    6534:	d0000022 	adrp	x2, c000 <__func__.3637+0x608>
    6538:	b90073aa 	str	w10, [x29,#112]
    653c:	91022042 	add	x2, x2, #0x88
    6540:	b9007ba8 	str	w8, [x29,#120]
    6544:	39403c01 	ldrb	w1, [x0,#15]
    6548:	79400804 	ldrh	w4, [x0,#4]
    654c:	39402407 	ldrb	w7, [x0,#9]
    6550:	39402006 	ldrb	w6, [x0,#8]
    6554:	79400c05 	ldrh	w5, [x0,#6]
    6558:	b9002be1 	str	w1, [sp,#40]
    655c:	39403801 	ldrb	w1, [x0,#14]
    6560:	b90023e1 	str	w1, [sp,#32]
    6564:	39403401 	ldrb	w1, [x0,#13]
    6568:	b9001be1 	str	w1, [sp,#24]
    656c:	39403001 	ldrb	w1, [x0,#12]
    6570:	b90013e1 	str	w1, [sp,#16]
    6574:	39402c01 	ldrb	w1, [x0,#11]
    6578:	b9000be1 	str	w1, [sp,#8]
    657c:	39402801 	ldrb	w1, [x0,#10]
    6580:	b90003e1 	str	w1, [sp]
    6584:	d28004a1 	mov	x1, #0x25                  	// #37
    6588:	b9400003 	ldr	w3, [x0]
    658c:	aa1803e0 	mov	x0, x24
    6590:	94000125 	bl	6a24 <snprintk>
    6594:	2a0003e4 	mov	w4, w0
    6598:	b94073aa 	ldr	w10, [x29,#112]
kprintf():
/home/asaf/devel/optee/optee_os/lib/libutils/ext/snprintk.c:422
    659c:	aa1803e3 	mov	x3, x24
    65a0:	b9407ba8 	ldr	w8, [x29,#120]
/home/asaf/devel/optee/optee_os/lib/libutils/ext/snprintk.c:284
    65a4:	52800000 	mov	w0, #0x0                   	// #0
/home/asaf/devel/optee/optee_os/lib/libutils/ext/snprintk.c:423
    65a8:	52800001 	mov	w1, #0x0                   	// #0
/home/asaf/devel/optee/optee_os/lib/libutils/ext/snprintk.c:564
    65ac:	6b04001f 	cmp	w0, w4
    65b0:	1a84a006 	csel	w6, w0, w4, ge
/home/asaf/devel/optee/optee_os/lib/libutils/ext/snprintk.c:565
    65b4:	34001781 	cbz	w1, 68a4 <__vsnprintf+0xa7c>
/home/asaf/devel/optee/optee_os/lib/libutils/ext/snprintk.c:566
    65b8:	110004c6 	add	w6, w6, #0x1
/home/asaf/devel/optee/optee_os/lib/libutils/ext/snprintk.c:571
    65bc:	6b06015f 	cmp	w10, w6
    65c0:	1a86a142 	csel	w2, w10, w6, ge
    65c4:	0b02037b 	add	w27, w27, w2
/home/asaf/devel/optee/optee_os/lib/libutils/ext/snprintk.c:574
    65c8:	52808082 	mov	w2, #0x404                 	// #1028
    65cc:	6a0202a2 	ands	w2, w21, w2
    65d0:	540000a1 	b.ne	65e4 <__vsnprintf+0x7bc>
/home/asaf/devel/optee/optee_os/lib/libutils/ext/snprintk.c:575
    65d4:	4b060145 	sub	w5, w10, w6
/home/asaf/devel/optee/optee_os/lib/libutils/ext/snprintk.c:577
    65d8:	52800407 	mov	w7, #0x20                  	// #32
/home/asaf/devel/optee/optee_os/lib/libutils/ext/snprintk.c:576
    65dc:	710000bf 	cmp	w5, #0x0
    65e0:	540016ac 	b.gt	68b4 <__vsnprintf+0xa8c>
/home/asaf/devel/optee/optee_os/lib/libutils/ext/snprintk.c:581
    65e4:	34001801 	cbz	w1, 68e4 <__vsnprintf+0xabc>
/home/asaf/devel/optee/optee_os/lib/libutils/ext/snprintk.c:582
    65e8:	b5001756 	cbnz	x22, 68d0 <__vsnprintf+0xaa8>
/home/asaf/devel/optee/optee_os/lib/libutils/ext/snprintk.c:585
    65ec:	d2800016 	mov	x22, #0x0                   	// #0
/home/asaf/devel/optee/optee_os/lib/libutils/ext/snprintk.c:589
    65f0:	7110005f 	cmp	w2, #0x400
    65f4:	540000a1 	b.ne	6608 <__vsnprintf+0x7e0>
/home/asaf/devel/optee/optee_os/lib/libutils/ext/snprintk.c:590
    65f8:	4b060141 	sub	w1, w10, w6
/home/asaf/devel/optee/optee_os/lib/libutils/ext/snprintk.c:592
    65fc:	52800602 	mov	w2, #0x30                  	// #48
/home/asaf/devel/optee/optee_os/lib/libutils/ext/snprintk.c:591
    6600:	7100003f 	cmp	w1, #0x0
    6604:	540018ec 	b.gt	6920 <__vsnprintf+0xaf8>
/home/asaf/devel/optee/optee_os/lib/libutils/ext/snprintk.c:596
    6608:	4b040000 	sub	w0, w0, w4
/home/asaf/devel/optee/optee_os/lib/libutils/ext/snprintk.c:598
    660c:	52800601 	mov	w1, #0x30                  	// #48
/home/asaf/devel/optee/optee_os/lib/libutils/ext/snprintk.c:597
    6610:	7100001f 	cmp	w0, #0x0
    6614:	5400194c 	b.gt	693c <__vsnprintf+0xb14>
    6618:	8b244064 	add	x4, x3, w4, uxtw
/home/asaf/devel/optee/optee_os/lib/libutils/ext/snprintk.c:601
    661c:	eb04007f 	cmp	x3, x4
    6620:	540019c1 	b.ne	6958 <__vsnprintf+0xb30>
/home/asaf/devel/optee/optee_os/lib/libutils/ext/snprintk.c:604
    6624:	3617c2b5 	tbz	w21, #2, 5e78 <__vsnprintf+0x50>
/home/asaf/devel/optee/optee_os/lib/libutils/ext/snprintk.c:605
    6628:	4b06014a 	sub	w10, w10, w6
/home/asaf/devel/optee/optee_os/lib/libutils/ext/snprintk.c:607
    662c:	52800400 	mov	w0, #0x20                  	// #32
/home/asaf/devel/optee/optee_os/lib/libutils/ext/snprintk.c:606
    6630:	7100015f 	cmp	w10, #0x0
    6634:	54ffc22d 	b.le	5e78 <__vsnprintf+0x50>
/home/asaf/devel/optee/optee_os/lib/libutils/ext/snprintk.c:607
    6638:	b40000b6 	cbz	x22, 664c <__vsnprintf+0x824>
    663c:	eb16035f 	cmp	x26, x22
    6640:	54000069 	b.ls	664c <__vsnprintf+0x824>
    6644:	390002c0 	strb	w0, [x22]
    6648:	910006d6 	add	x22, x22, #0x1
    664c:	5100054a 	sub	w10, w10, #0x1
    6650:	17fffff8 	b	6630 <__vsnprintf+0x808>
/home/asaf/devel/optee/optee_os/lib/libutils/ext/snprintk.c:420
    6654:	11002014 	add	w20, w0, #0x8
    6658:	8b20c380 	add	x0, x28, w0, sxtw
    665c:	7100029f 	cmp	w20, #0x0
    6660:	54fff68d 	b.le	6530 <__vsnprintf+0x708>
    6664:	91003e61 	add	x1, x19, #0xf
    6668:	17ffffb0 	b	6528 <__vsnprintf+0x700>
/home/asaf/devel/optee/optee_os/lib/libutils/ext/snprintk.c:434
    666c:	37f801c0 	tbnz	w0, #31, 66a4 <__vsnprintf+0x87c>
    6670:	91003e61 	add	x1, x19, #0xf
    6674:	2a0003f4 	mov	w20, w0
    6678:	aa1303e0 	mov	x0, x19
    667c:	927df033 	and	x19, x1, #0xfffffffffffffff8
/home/asaf/devel/optee/optee_os/lib/libutils/ext/snprintk.c:436
    6680:	90000037 	adrp	x23, a000 <mpa_init_static_fmm_context+0x3c>
    6684:	913082f7 	add	x23, x23, #0xc20
/home/asaf/devel/optee/optee_os/lib/libutils/ext/snprintk.c:434
    6688:	f9400005 	ldr	x5, [x0]
/home/asaf/devel/optee/optee_os/lib/libutils/ext/snprintk.c:437
    668c:	321f02b5 	orr	w21, w21, #0x2
/home/asaf/devel/optee/optee_os/lib/libutils/ext/snprintk.c:436
    6690:	910062f7 	add	x23, x23, #0x18
/home/asaf/devel/optee/optee_os/lib/libutils/ext/snprintk.c:481
    6694:	52800001 	mov	w1, #0x0                   	// #0
/home/asaf/devel/optee/optee_os/lib/libutils/ext/snprintk.c:438
    6698:	52800f08 	mov	w8, #0x78                  	// #120
/home/asaf/devel/optee/optee_os/lib/libutils/ext/snprintk.c:435
    669c:	52800040 	mov	w0, #0x2                   	// #2
    66a0:	17fffefe 	b	6298 <__vsnprintf+0x470>
/home/asaf/devel/optee/optee_os/lib/libutils/ext/snprintk.c:434
    66a4:	11002014 	add	w20, w0, #0x8
    66a8:	8b20c380 	add	x0, x28, w0, sxtw
    66ac:	7100029f 	cmp	w20, #0x0
    66b0:	54fffe8d 	b.le	6680 <__vsnprintf+0x858>
    66b4:	91003e61 	add	x1, x19, #0xf
    66b8:	17fffff0 	b	6678 <__vsnprintf+0x850>
/home/asaf/devel/optee/optee_os/lib/libutils/ext/snprintk.c:441
    66bc:	11002014 	add	w20, w0, #0x8
    66c0:	8b20c380 	add	x0, x28, w0, sxtw
    66c4:	7100029f 	cmp	w20, #0x0
    66c8:	54ffcbcd 	b.le	6040 <__vsnprintf+0x218>
    66cc:	91003e61 	add	x1, x19, #0xf
    66d0:	17fffe5a 	b	6038 <__vsnprintf+0x210>
/home/asaf/devel/optee/optee_os/lib/libutils/ext/snprintk.c:459
    66d4:	aa0303e0 	mov	x0, x3
    66d8:	b9006fa8 	str	w8, [x29,#108]
    66dc:	f9003ba3 	str	x3, [x29,#112]
    66e0:	b9007baa 	str	w10, [x29,#120]
    66e4:	97fffdca 	bl	5e0c <strlen>
/home/asaf/devel/optee/optee_os/lib/libutils/ext/snprintk.c:460
    66e8:	52800001 	mov	w1, #0x0                   	// #0
/home/asaf/devel/optee/optee_os/lib/libutils/ext/snprintk.c:459
    66ec:	2a0003e4 	mov	w4, w0
    66f0:	b9406fa8 	ldr	w8, [x29,#108]
/home/asaf/devel/optee/optee_os/lib/libutils/ext/snprintk.c:284
    66f4:	52800000 	mov	w0, #0x0                   	// #0
    66f8:	b9407baa 	ldr	w10, [x29,#120]
    66fc:	f9403ba3 	ldr	x3, [x29,#112]
    6700:	17ffffab 	b	65ac <__vsnprintf+0x784>
/home/asaf/devel/optee/optee_os/lib/libutils/ext/snprintk.c:463
    6704:	321c02b5 	orr	w21, w21, #0x10
    6708:	17fffe6c 	b	60b8 <__vsnprintf+0x290>
/home/asaf/devel/optee/optee_os/lib/libutils/ext/snprintk.c:466
    670c:	3747cd95 	tbnz	w21, #8, 60bc <__vsnprintf+0x294>
    6710:	374fcd75 	tbnz	w21, #9, 60bc <__vsnprintf+0x294>
    6714:	372fcd55 	tbnz	w21, #5, 60bc <__vsnprintf+0x294>
    6718:	3727cd35 	tbnz	w21, #4, 60bc <__vsnprintf+0x294>
    671c:	36300295 	tbz	w21, #6, 676c <__vsnprintf+0x944>
    6720:	37f801a0 	tbnz	w0, #31, 6754 <__vsnprintf+0x92c>
    6724:	91002e61 	add	x1, x19, #0xb
    6728:	2a0003f4 	mov	w20, w0
    672c:	aa1303e0 	mov	x0, x19
    6730:	927df033 	and	x19, x1, #0xfffffffffffffff8
    6734:	79400005 	ldrh	w5, [x0]
    6738:	17fffe67 	b	60d4 <__vsnprintf+0x2ac>
    673c:	11002014 	add	w20, w0, #0x8
    6740:	8b20c380 	add	x0, x28, w0, sxtw
    6744:	7100029f 	cmp	w20, #0x0
    6748:	54ffcc4d 	b.le	60d0 <__vsnprintf+0x2a8>
    674c:	91003e61 	add	x1, x19, #0xf
    6750:	17fffe5e 	b	60c8 <__vsnprintf+0x2a0>
    6754:	11002014 	add	w20, w0, #0x8
    6758:	8b20c380 	add	x0, x28, w0, sxtw
    675c:	7100029f 	cmp	w20, #0x0
    6760:	54fffead 	b.le	6734 <__vsnprintf+0x90c>
    6764:	91002e61 	add	x1, x19, #0xb
    6768:	17fffff1 	b	672c <__vsnprintf+0x904>
    676c:	37f800e0 	tbnz	w0, #31, 6788 <__vsnprintf+0x960>
    6770:	91002e61 	add	x1, x19, #0xb
    6774:	2a0003f4 	mov	w20, w0
    6778:	aa1303e0 	mov	x0, x19
    677c:	927df033 	and	x19, x1, #0xfffffffffffffff8
    6780:	b9400005 	ldr	w5, [x0]
    6784:	17fffe54 	b	60d4 <__vsnprintf+0x2ac>
    6788:	11002014 	add	w20, w0, #0x8
    678c:	8b20c380 	add	x0, x28, w0, sxtw
    6790:	7100029f 	cmp	w20, #0x0
    6794:	54ffff6d 	b.le	6780 <__vsnprintf+0x958>
    6798:	91002e61 	add	x1, x19, #0xb
    679c:	17fffff7 	b	6778 <__vsnprintf+0x950>
/home/asaf/devel/optee/optee_os/lib/libutils/ext/snprintk.c:473
    67a0:	90000037 	adrp	x23, a000 <mpa_init_static_fmm_context+0x3c>
    67a4:	913082f7 	add	x23, x23, #0xc20
    67a8:	910062f7 	add	x23, x23, #0x18
    67ac:	17fffe4e 	b	60e4 <__vsnprintf+0x2bc>
/home/asaf/devel/optee/optee_os/lib/libutils/ext/snprintk.c:474
    67b0:	3747c9d5 	tbnz	w21, #8, 60e8 <__vsnprintf+0x2c0>
    67b4:	374fc9b5 	tbnz	w21, #9, 60e8 <__vsnprintf+0x2c0>
    67b8:	372fc995 	tbnz	w21, #5, 60e8 <__vsnprintf+0x2c0>
    67bc:	3727c975 	tbnz	w21, #4, 60e8 <__vsnprintf+0x2c0>
    67c0:	36300295 	tbz	w21, #6, 6810 <__vsnprintf+0x9e8>
    67c4:	37f801a0 	tbnz	w0, #31, 67f8 <__vsnprintf+0x9d0>
    67c8:	91002e61 	add	x1, x19, #0xb
    67cc:	2a0003f4 	mov	w20, w0
    67d0:	aa1303e0 	mov	x0, x19
    67d4:	927df033 	and	x19, x1, #0xfffffffffffffff8
    67d8:	79400005 	ldrh	w5, [x0]
    67dc:	17fffe49 	b	6100 <__vsnprintf+0x2d8>
    67e0:	11002014 	add	w20, w0, #0x8
    67e4:	8b20c380 	add	x0, x28, w0, sxtw
    67e8:	7100029f 	cmp	w20, #0x0
    67ec:	54ffc88d 	b.le	60fc <__vsnprintf+0x2d4>
    67f0:	91003e61 	add	x1, x19, #0xf
    67f4:	17fffe40 	b	60f4 <__vsnprintf+0x2cc>
    67f8:	11002014 	add	w20, w0, #0x8
    67fc:	8b20c380 	add	x0, x28, w0, sxtw
    6800:	7100029f 	cmp	w20, #0x0
    6804:	54fffead 	b.le	67d8 <__vsnprintf+0x9b0>
    6808:	91002e61 	add	x1, x19, #0xb
    680c:	17fffff1 	b	67d0 <__vsnprintf+0x9a8>
    6810:	37f800e0 	tbnz	w0, #31, 682c <__vsnprintf+0xa04>
    6814:	91002e61 	add	x1, x19, #0xb
    6818:	2a0003f4 	mov	w20, w0
    681c:	aa1303e0 	mov	x0, x19
    6820:	927df033 	and	x19, x1, #0xfffffffffffffff8
    6824:	b9400005 	ldr	w5, [x0]
    6828:	17fffe36 	b	6100 <__vsnprintf+0x2d8>
    682c:	11002014 	add	w20, w0, #0x8
    6830:	8b20c380 	add	x0, x28, w0, sxtw
    6834:	7100029f 	cmp	w20, #0x0
    6838:	54ffff6d 	b.le	6824 <__vsnprintf+0x9fc>
    683c:	91002e61 	add	x1, x19, #0xb
    6840:	17fffff7 	b	681c <__vsnprintf+0x9f4>
/home/asaf/devel/optee/optee_os/lib/libutils/ext/snprintk.c:502
    6844:	91009700 	add	x0, x24, #0x25
/home/asaf/devel/optee/optee_os/lib/libutils/ext/snprintk.c:516
    6848:	d2800146 	mov	x6, #0xa                   	// #10
/home/asaf/devel/optee/optee_os/lib/libutils/ext/snprintk.c:515
    684c:	f10024bf 	cmp	x5, #0x9
    6850:	d1000403 	sub	x3, x0, #0x1
    6854:	540000c8 	b.hi	686c <__vsnprintf+0xa44>
/home/asaf/devel/optee/optee_os/lib/libutils/ext/snprintk.c:519
    6858:	1100c0a2 	add	w2, w5, #0x30
    685c:	381ff002 	sturb	w2, [x0,#-1]
    6860:	17fffea7 	b	62fc <__vsnprintf+0x4d4>
/home/asaf/devel/optee/optee_os/lib/libutils/ext/snprintk.c:507
    6864:	aa0303e0 	mov	x0, x3
    6868:	17fffe98 	b	62c8 <__vsnprintf+0x4a0>
/home/asaf/devel/optee/optee_os/lib/libutils/ext/snprintk.c:516
    686c:	aa0303e0 	mov	x0, x3
    6870:	9ac608a3 	udiv	x3, x5, x6
    6874:	9b069462 	msub	x2, x3, x6, x5
/home/asaf/devel/optee/optee_os/lib/libutils/ext/snprintk.c:517
    6878:	aa0303e5 	mov	x5, x3
/home/asaf/devel/optee/optee_os/lib/libutils/ext/snprintk.c:516
    687c:	1100c042 	add	w2, w2, #0x30
    6880:	39000002 	strb	w2, [x0]
    6884:	17fffff2 	b	684c <__vsnprintf+0xa24>
/home/asaf/devel/optee/optee_os/lib/libutils/ext/snprintk.c:502
    6888:	91009703 	add	x3, x24, #0x25
/home/asaf/devel/optee/optee_os/lib/libutils/ext/snprintk.c:524
    688c:	92400ca0 	and	x0, x5, #0xf
/home/asaf/devel/optee/optee_os/lib/libutils/ext/snprintk.c:525
    6890:	d344fca5 	lsr	x5, x5, #4
/home/asaf/devel/optee/optee_os/lib/libutils/ext/snprintk.c:524
    6894:	38606ae0 	ldrb	w0, [x23,x0]
    6898:	381ffc60 	strb	w0, [x3,#-1]!
/home/asaf/devel/optee/optee_os/lib/libutils/ext/snprintk.c:526
    689c:	b5ffff85 	cbnz	x5, 688c <__vsnprintf+0xa64>
    68a0:	17fffe97 	b	62fc <__vsnprintf+0x4d4>
/home/asaf/devel/optee/optee_os/lib/libutils/ext/snprintk.c:568
    68a4:	110008c2 	add	w2, w6, #0x2
    68a8:	f27f02bf 	tst	x21, #0x2
    68ac:	1a861046 	csel	w6, w2, w6, ne
    68b0:	17ffff43 	b	65bc <__vsnprintf+0x794>
/home/asaf/devel/optee/optee_os/lib/libutils/ext/snprintk.c:577
    68b4:	b40000b6 	cbz	x22, 68c8 <__vsnprintf+0xaa0>
    68b8:	eb16035f 	cmp	x26, x22
    68bc:	54000069 	b.ls	68c8 <__vsnprintf+0xaa0>
    68c0:	390002c7 	strb	w7, [x22]
    68c4:	910006d6 	add	x22, x22, #0x1
    68c8:	510004a5 	sub	w5, w5, #0x1
    68cc:	17ffff44 	b	65dc <__vsnprintf+0x7b4>
/home/asaf/devel/optee/optee_os/lib/libutils/ext/snprintk.c:582
    68d0:	eb16035f 	cmp	x26, x22
    68d4:	54ffe8e9 	b.ls	65f0 <__vsnprintf+0x7c8>
    68d8:	390002c1 	strb	w1, [x22]
    68dc:	910006d6 	add	x22, x22, #0x1
    68e0:	17ffff44 	b	65f0 <__vsnprintf+0x7c8>
/home/asaf/devel/optee/optee_os/lib/libutils/ext/snprintk.c:583
    68e4:	360fe875 	tbz	w21, #1, 65f0 <__vsnprintf+0x7c8>
/home/asaf/devel/optee/optee_os/lib/libutils/ext/snprintk.c:584
    68e8:	b4ffe836 	cbz	x22, 65ec <__vsnprintf+0x7c4>
    68ec:	eb16035f 	cmp	x26, x22
    68f0:	54ffe809 	b.ls	65f0 <__vsnprintf+0x7c8>
    68f4:	52800601 	mov	w1, #0x30                  	// #48
    68f8:	390002c1 	strb	w1, [x22]
/home/asaf/devel/optee/optee_os/lib/libutils/ext/snprintk.c:585
    68fc:	b10006c1 	adds	x1, x22, #0x1
    6900:	54ffe760 	b.eq	65ec <__vsnprintf+0x7c4>
    6904:	eb01035f 	cmp	x26, x1
    6908:	54000089 	b.ls	6918 <__vsnprintf+0xaf0>
    690c:	390006c8 	strb	w8, [x22,#1]
    6910:	91000ad6 	add	x22, x22, #0x2
    6914:	17ffff37 	b	65f0 <__vsnprintf+0x7c8>
    6918:	aa0103f6 	mov	x22, x1
    691c:	17ffff35 	b	65f0 <__vsnprintf+0x7c8>
/home/asaf/devel/optee/optee_os/lib/libutils/ext/snprintk.c:592
    6920:	b40000b6 	cbz	x22, 6934 <__vsnprintf+0xb0c>
    6924:	eb16035f 	cmp	x26, x22
    6928:	54000069 	b.ls	6934 <__vsnprintf+0xb0c>
    692c:	390002c2 	strb	w2, [x22]
    6930:	910006d6 	add	x22, x22, #0x1
    6934:	51000421 	sub	w1, w1, #0x1
    6938:	17ffff32 	b	6600 <__vsnprintf+0x7d8>
/home/asaf/devel/optee/optee_os/lib/libutils/ext/snprintk.c:598
    693c:	b40000b6 	cbz	x22, 6950 <__vsnprintf+0xb28>
    6940:	eb16035f 	cmp	x26, x22
    6944:	54000069 	b.ls	6950 <__vsnprintf+0xb28>
    6948:	390002c1 	strb	w1, [x22]
    694c:	910006d6 	add	x22, x22, #0x1
    6950:	51000400 	sub	w0, w0, #0x1
    6954:	17ffff2f 	b	6610 <__vsnprintf+0x7e8>
/home/asaf/devel/optee/optee_os/lib/libutils/ext/snprintk.c:602
    6958:	b40000d6 	cbz	x22, 6970 <__vsnprintf+0xb48>
    695c:	eb16035f 	cmp	x26, x22
    6960:	54000089 	b.ls	6970 <__vsnprintf+0xb48>
    6964:	39400060 	ldrb	w0, [x3]
    6968:	910006d6 	add	x22, x22, #0x1
    696c:	381ff2c0 	sturb	w0, [x22,#-1]
/home/asaf/devel/optee/optee_os/lib/libutils/ext/snprintk.c:601
    6970:	91000463 	add	x3, x3, #0x1
    6974:	17ffff2a 	b	661c <__vsnprintf+0x7f4>
__vsnprintf():
/home/asaf/devel/optee/optee_os/lib/libutils/ext/snprintk.c:142
    6978:	f94047a0 	ldr	x0, [x29,#136]
    697c:	f100001f 	cmp	x0, #0x0
    6980:	f94043a0 	ldr	x0, [x29,#128]
    6984:	fa401804 	ccmp	x0, #0x0, #0x4, ne
    6988:	540000c0 	b.eq	69a0 <__vsnprintf+0xb78>
/home/asaf/devel/optee/optee_os/lib/libutils/ext/snprintk.c:144
    698c:	f94043a1 	ldr	x1, [x29,#128]
    6990:	93407f60 	sxtw	x0, w27
    6994:	eb00003f 	cmp	x1, x0
    6998:	54000168 	b.hi	69c4 <__vsnprintf+0xb9c>
/home/asaf/devel/optee/optee_os/lib/libutils/ext/snprintk.c:145
    699c:	381ff35f 	sturb	wzr, [x26,#-1]
/home/asaf/devel/optee/optee_os/lib/libutils/ext/snprintk.c:150
    69a0:	2a1b03e0 	mov	w0, w27
    69a4:	a94453f3 	ldp	x19, x20, [sp,#64]
    69a8:	a9455bf5 	ldp	x21, x22, [sp,#80]
    69ac:	a94663f7 	ldp	x23, x24, [sp,#96]
    69b0:	a9476bf9 	ldp	x25, x26, [sp,#112]
    69b4:	a94873fb 	ldp	x27, x28, [sp,#128]
    69b8:	a9437bfd 	ldp	x29, x30, [sp,#48]
    69bc:	9103c3ff 	add	sp, sp, #0xf0
    69c0:	d65f03c0 	ret
/home/asaf/devel/optee/optee_os/lib/libutils/ext/snprintk.c:147
    69c4:	f94047a1 	ldr	x1, [x29,#136]
    69c8:	3820683f 	strb	wzr, [x1,x0]
/home/asaf/devel/optee/optee_os/lib/libutils/ext/snprintk.c:149
    69cc:	17fffff5 	b	69a0 <__vsnprintf+0xb78>

00000000000069d0 <vsnprintk>:
vsnprintk():
/home/asaf/devel/optee/optee_os/lib/libutils/ext/snprintk.c:128
    69d0:	a9bb7bfd 	stp	x29, x30, [sp,#-80]!
    69d4:	910003fd 	mov	x29, sp
    69d8:	a90153f3 	stp	x19, x20, [sp,#16]
    69dc:	aa0003f3 	mov	x19, x0
    69e0:	f90013f5 	str	x21, [sp,#32]
    69e4:	aa0103f4 	mov	x20, x1
    69e8:	aa0203f5 	mov	x21, x2
/home/asaf/devel/optee/optee_os/lib/libutils/ext/snprintk.c:129
    69ec:	aa0303e1 	mov	x1, x3
    69f0:	9100c3a0 	add	x0, x29, #0x30
    69f4:	d2800402 	mov	x2, #0x20                  	// #32
    69f8:	97fffce3 	bl	5d84 <memcpy>
    69fc:	aa0003e3 	mov	x3, x0
    6a00:	aa1503e2 	mov	x2, x21
    6a04:	aa1403e1 	mov	x1, x20
    6a08:	52800024 	mov	w4, #0x1                   	// #1
    6a0c:	aa1303e0 	mov	x0, x19
    6a10:	97fffd06 	bl	5e28 <__vsnprintf>
/home/asaf/devel/optee/optee_os/lib/libutils/ext/snprintk.c:130
    6a14:	f94013f5 	ldr	x21, [sp,#32]
    6a18:	a94153f3 	ldp	x19, x20, [sp,#16]
    6a1c:	a8c57bfd 	ldp	x29, x30, [sp],#80
    6a20:	d65f03c0 	ret

0000000000006a24 <snprintk>:
snprintk():
/home/asaf/devel/optee/optee_os/lib/libutils/ext/snprintk.c:111
    6a24:	a9b07bfd 	stp	x29, x30, [sp,#-256]!
    6a28:	910003fd 	mov	x29, sp
    6a2c:	a90d93a3 	stp	x3, x4, [x29,#216]
/home/asaf/devel/optee/optee_os/lib/libutils/ext/snprintk.c:115
    6a30:	910403a3 	add	x3, x29, #0x100
    6a34:	a9030fa3 	stp	x3, x3, [x29,#48]
    6a38:	910343a3 	add	x3, x29, #0xd0
    6a3c:	f90023a3 	str	x3, [x29,#64]
    6a40:	128004e3 	mov	w3, #0xffffffd8            	// #-40
    6a44:	b9004ba3 	str	w3, [x29,#72]
    6a48:	12800fe3 	mov	w3, #0xffffff80            	// #-128
    6a4c:	b9004fa3 	str	w3, [x29,#76]
/home/asaf/devel/optee/optee_os/lib/libutils/ext/snprintk.c:116
    6a50:	910043a3 	add	x3, x29, #0x10
/home/asaf/devel/optee/optee_os/lib/libutils/ext/snprintk.c:111
    6a54:	a90e9ba5 	stp	x5, x6, [x29,#232]
/home/asaf/devel/optee/optee_os/lib/libutils/ext/snprintk.c:116
    6a58:	a94317a4 	ldp	x4, x5, [x29,#48]
    6a5c:	a90117a4 	stp	x4, x5, [x29,#16]
    6a60:	a94417a4 	ldp	x4, x5, [x29,#64]
/home/asaf/devel/optee/optee_os/lib/libutils/ext/snprintk.c:111
    6a64:	3d8017a0 	str	q0, [x29,#80]
    6a68:	3d801ba1 	str	q1, [x29,#96]
    6a6c:	3d801fa2 	str	q2, [x29,#112]
    6a70:	3d8023a3 	str	q3, [x29,#128]
    6a74:	3d8027a4 	str	q4, [x29,#144]
    6a78:	3d802ba5 	str	q5, [x29,#160]
    6a7c:	3d802fa6 	str	q6, [x29,#176]
    6a80:	3d8033a7 	str	q7, [x29,#192]
    6a84:	f9007fa7 	str	x7, [x29,#248]
/home/asaf/devel/optee/optee_os/lib/libutils/ext/snprintk.c:116
    6a88:	a90217a4 	stp	x4, x5, [x29,#32]
    6a8c:	97ffffd1 	bl	69d0 <vsnprintk>
/home/asaf/devel/optee/optee_os/lib/libutils/ext/snprintk.c:120
    6a90:	a8d07bfd 	ldp	x29, x30, [sp],#256
    6a94:	d65f03c0 	ret

0000000000006a98 <buf_compare_ct>:
buf_compare_ct():
/home/asaf/devel/optee/optee_os/lib/libutils/ext/buf_compare_ct.c:35
    6a98:	d2800004 	mov	x4, #0x0                   	// #0
/home/asaf/devel/optee/optee_os/lib/libutils/ext/buf_compare_ct.c:31
    6a9c:	52800003 	mov	w3, #0x0                   	// #0
/home/asaf/devel/optee/optee_os/lib/libutils/ext/buf_compare_ct.c:35
    6aa0:	eb04005f 	cmp	x2, x4
    6aa4:	540000c1 	b.ne	6abc <buf_compare_ct+0x24>
/home/asaf/devel/optee/optee_os/lib/libutils/ext/buf_compare_ct.c:41
    6aa8:	2a831063 	orr	w3, w3, w3, asr #4
/home/asaf/devel/optee/optee_os/lib/libutils/ext/buf_compare_ct.c:42
    6aac:	2a830863 	orr	w3, w3, w3, asr #2
/home/asaf/devel/optee/optee_os/lib/libutils/ext/buf_compare_ct.c:43
    6ab0:	2a830463 	orr	w3, w3, w3, asr #1
/home/asaf/devel/optee/optee_os/lib/libutils/ext/buf_compare_ct.c:47
    6ab4:	12000060 	and	w0, w3, #0x1
    6ab8:	d65f03c0 	ret
/home/asaf/devel/optee/optee_os/lib/libutils/ext/buf_compare_ct.c:36
    6abc:	38646805 	ldrb	w5, [x0,x4]
    6ac0:	38646826 	ldrb	w6, [x1,x4]
    6ac4:	91000484 	add	x4, x4, #0x1
    6ac8:	4a0600a5 	eor	w5, w5, w6
    6acc:	12001ca5 	and	w5, w5, #0xff
    6ad0:	2a050063 	orr	w3, w3, w5
    6ad4:	17fffff3 	b	6aa0 <buf_compare_ct+0x8>

0000000000006ad8 <trace_set_level>:
trace_set_level():
/home/asaf/devel/optee/optee_os/lib/libutils/ext/trace.c:43
    6ad8:	51000401 	sub	w1, w0, #0x1
    6adc:	71000c3f 	cmp	w1, #0x3
    6ae0:	d0000021 	adrp	x1, c000 <__func__.3637+0x608>
    6ae4:	54000088 	b.hi	6af4 <trace_set_level+0x1c>
/home/asaf/devel/optee/optee_os/lib/libutils/ext/trace.c:46
    6ae8:	f941d821 	ldr	x1, [x1,#944]
    6aec:	b9000020 	str	w0, [x1]
    6af0:	d65f03c0 	ret
    6af4:	52800080 	mov	w0, #0x4                   	// #4
    6af8:	17fffffc 	b	6ae8 <trace_set_level+0x10>

0000000000006afc <trace_get_level>:
trace_get_level():
/home/asaf/devel/optee/optee_os/lib/libutils/ext/trace.c:52
    6afc:	d0000020 	adrp	x0, c000 <__func__.3637+0x608>
    6b00:	f941d800 	ldr	x0, [x0,#944]
    6b04:	b9400000 	ldr	w0, [x0]
    6b08:	d65f03c0 	ret

0000000000006b0c <trace_printf>:
trace_printf():
/home/asaf/devel/optee/optee_os/lib/libutils/ext/trace.c:73
    6b0c:	d108c3ff 	sub	sp, sp, #0x230
    6b10:	a9007bfd 	stp	x29, x30, [sp]
    6b14:	910003fd 	mov	x29, sp
    6b18:	f9010fa5 	str	x5, [x29,#536]
    6b1c:	910403a5 	add	x5, x29, #0x100
    6b20:	a9046bf9 	stp	x25, x26, [sp,#64]
/home/asaf/devel/optee/optee_os/lib/libutils/ext/trace.c:80
    6b24:	72001c79 	ands	w25, w3, #0xff
/home/asaf/devel/optee/optee_os/lib/libutils/ext/trace.c:73
    6b28:	a90153f3 	stp	x19, x20, [sp,#16]
    6b2c:	a9025bf5 	stp	x21, x22, [sp,#32]
    6b30:	a90363f7 	stp	x23, x24, [sp,#48]
    6b34:	f90113a6 	str	x6, [x29,#544]
    6b38:	f90117a7 	str	x7, [x29,#552]
    6b3c:	3d8024a0 	str	q0, [x5,#144]
    6b40:	3d8028a1 	str	q1, [x5,#160]
    6b44:	3d802ca2 	str	q2, [x5,#176]
    6b48:	3d8030a3 	str	q3, [x5,#192]
    6b4c:	3d8034a4 	str	q4, [x5,#208]
    6b50:	3d8038a5 	str	q5, [x5,#224]
    6b54:	3d803ca6 	str	q6, [x5,#240]
    6b58:	910803a5 	add	x5, x29, #0x200
    6b5c:	3d8000a7 	str	q7, [x5]
/home/asaf/devel/optee/optee_os/lib/libutils/ext/trace.c:80
    6b60:	54000e20 	b.eq	6d24 <trace_printf+0x218>
/home/asaf/devel/optee/optee_os/lib/libutils/ext/trace.c:80 (discriminator 1)
    6b64:	d0000023 	adrp	x3, c000 <__func__.3637+0x608>
    6b68:	f941d863 	ldr	x3, [x3,#944]
    6b6c:	b9400063 	ldr	w3, [x3]
    6b70:	6b02007f 	cmp	w3, w2
    6b74:	54000cab 	b.lt	6d08 <trace_printf+0x1fc>
trace_level_to_string():
/home/asaf/devel/optee/optee_os/lib/libutils/ext/trace.c:64
    6b78:	51000443 	sub	w3, w2, #0x1
/home/asaf/devel/optee/optee_os/lib/libutils/ext/trace.c:67
    6b7c:	90000025 	adrp	x5, a000 <mpa_init_static_fmm_context+0x3c>
/home/asaf/devel/optee/optee_os/lib/libutils/ext/trace.c:64
    6b80:	71000c7f 	cmp	w3, #0x3
/home/asaf/devel/optee/optee_os/lib/libutils/ext/trace.c:67
    6b84:	913140a5 	add	x5, x5, #0xc50
/home/asaf/devel/optee/optee_os/lib/libutils/ext/trace.c:64
    6b88:	1a9f9043 	csel	w3, w2, wzr, ls
/home/asaf/devel/optee/optee_os/lib/libutils/ext/trace.c:67
    6b8c:	52800126 	mov	w6, #0x9                   	// #9
    6b90:	9b261463 	smaddl	x3, w3, w6, x5
trace_printf():
/home/asaf/devel/optee/optee_os/lib/libutils/ext/trace.c:83
    6b94:	910243b4 	add	x20, x29, #0x90
    6b98:	2a0203fa 	mov	w26, w2
    6b9c:	2a0103f8 	mov	w24, w1
    6ba0:	aa0003f6 	mov	x22, x0
    6ba4:	d0000022 	adrp	x2, c000 <__func__.3637+0x608>
    6ba8:	aa0403f7 	mov	x23, x4
    6bac:	91030842 	add	x2, x2, #0xc2
    6bb0:	d2802001 	mov	x1, #0x100                 	// #256
    6bb4:	aa1403e0 	mov	x0, x20
    6bb8:	97ffff9b 	bl	6a24 <snprintk>
/home/asaf/devel/optee/optee_os/lib/libutils/ext/trace.c:85
    6bbc:	37f80a60 	tbnz	w0, #31, 6d08 <trace_printf+0x1fc>
/home/asaf/devel/optee/optee_os/lib/libutils/ext/trace.c:87
    6bc0:	93407c13 	sxtw	x19, w0
/home/asaf/devel/optee/optee_os/lib/libutils/ext/trace.c:89
    6bc4:	34000099 	cbz	w25, 6bd4 <trace_printf+0xc8>
/home/asaf/devel/optee/optee_os/lib/libutils/ext/trace.c:89 (discriminator 1)
    6bc8:	52800340 	mov	w0, #0x1a                  	// #26
    6bcc:	1ada2401 	lsr	w1, w0, w26
    6bd0:	36000181 	tbz	w1, #0, 6c00 <trace_printf+0xf4>
/home/asaf/devel/optee/optee_os/lib/libutils/ext/trace.c:92
    6bd4:	97fff7bc 	bl	4ac4 <trace_ext_get_thread_id>
/home/asaf/devel/optee/optee_os/lib/libutils/ext/trace.c:94
    6bd8:	37f80140 	tbnz	w0, #31, 6c00 <trace_printf+0xf4>
/home/asaf/devel/optee/optee_os/lib/libutils/ext/trace.c:95
    6bdc:	2a0003e3 	mov	w3, w0
    6be0:	d0000022 	adrp	x2, c000 <__func__.3637+0x608>
    6be4:	d2802001 	mov	x1, #0x100                 	// #256
    6be8:	91031842 	add	x2, x2, #0xc6
    6bec:	cb130021 	sub	x1, x1, x19
    6bf0:	8b130280 	add	x0, x20, x19
    6bf4:	97ffff8c 	bl	6a24 <snprintk>
/home/asaf/devel/optee/optee_os/lib/libutils/ext/trace.c:97
    6bf8:	37f80880 	tbnz	w0, #31, 6d08 <trace_printf+0x1fc>
/home/asaf/devel/optee/optee_os/lib/libutils/ext/trace.c:99
    6bfc:	8b20c273 	add	x19, x19, w0, sxtw
/home/asaf/devel/optee/optee_os/lib/libutils/ext/trace.c:102
    6c00:	d0000023 	adrp	x3, c000 <__func__.3637+0x608>
    6c04:	d0000022 	adrp	x2, c000 <__func__.3637+0x608>
    6c08:	d2802001 	mov	x1, #0x100                 	// #256
    6c0c:	91033842 	add	x2, x2, #0xce
    6c10:	f941e063 	ldr	x3, [x3,#960]
    6c14:	cb130021 	sub	x1, x1, x19
    6c18:	8b130280 	add	x0, x20, x19
    6c1c:	97ffff82 	bl	6a24 <snprintk>
/home/asaf/devel/optee/optee_os/lib/libutils/ext/trace.c:104
    6c20:	37f80740 	tbnz	w0, #31, 6d08 <trace_printf+0x1fc>
/home/asaf/devel/optee/optee_os/lib/libutils/ext/trace.c:106
    6c24:	8b20c273 	add	x19, x19, w0, sxtw
/home/asaf/devel/optee/optee_os/lib/libutils/ext/trace.c:108
    6c28:	34000099 	cbz	w25, 6c38 <trace_printf+0x12c>
/home/asaf/devel/optee/optee_os/lib/libutils/ext/trace.c:108 (discriminator 1)
    6c2c:	52800342 	mov	w2, #0x1a                  	// #26
    6c30:	1ada2455 	lsr	w21, w2, w26
    6c34:	36000195 	tbz	w21, #0, 6c64 <trace_printf+0x158>
/home/asaf/devel/optee/optee_os/lib/libutils/ext/trace.c:111
    6c38:	b4000176 	cbz	x22, 6c64 <trace_printf+0x158>
/home/asaf/devel/optee/optee_os/lib/libutils/ext/trace.c:112
    6c3c:	d0000022 	adrp	x2, c000 <__func__.3637+0x608>
    6c40:	d2802001 	mov	x1, #0x100                 	// #256
    6c44:	2a1803e4 	mov	w4, w24
    6c48:	aa1603e3 	mov	x3, x22
    6c4c:	91034842 	add	x2, x2, #0xd2
    6c50:	cb130021 	sub	x1, x1, x19
    6c54:	8b130280 	add	x0, x20, x19
    6c58:	97ffff73 	bl	6a24 <snprintk>
/home/asaf/devel/optee/optee_os/lib/libutils/ext/trace.c:114
    6c5c:	37f80560 	tbnz	w0, #31, 6d08 <trace_printf+0x1fc>
/home/asaf/devel/optee/optee_os/lib/libutils/ext/trace.c:116
    6c60:	8b20c273 	add	x19, x19, w0, sxtw
/home/asaf/devel/optee/optee_os/lib/libutils/ext/trace.c:119
    6c64:	d2802015 	mov	x21, #0x100                 	// #256
    6c68:	b0000022 	adrp	x2, b000 <PRIME_TABLE+0x350>
    6c6c:	cb1302a1 	sub	x1, x21, x19
    6c70:	912fd842 	add	x2, x2, #0xbf6
    6c74:	8b130280 	add	x0, x20, x19
    6c78:	97ffff6b 	bl	6a24 <snprintk>
/home/asaf/devel/optee/optee_os/lib/libutils/ext/trace.c:120
    6c7c:	37f80460 	tbnz	w0, #31, 6d08 <trace_printf+0x1fc>
/home/asaf/devel/optee/optee_os/lib/libutils/ext/trace.c:122
    6c80:	8b20c273 	add	x19, x19, w0, sxtw
/home/asaf/devel/optee/optee_os/lib/libutils/ext/trace.c:124
    6c84:	9108c3a0 	add	x0, x29, #0x230
    6c88:	a90703a0 	stp	x0, x0, [x29,#112]
    6c8c:	910843a0 	add	x0, x29, #0x210
    6c90:	f90043a0 	str	x0, [x29,#128]
    6c94:	128002e0 	mov	w0, #0xffffffe8            	// #-24
    6c98:	b9008ba0 	str	w0, [x29,#136]
    6c9c:	12800fe0 	mov	w0, #0xffffff80            	// #-128
    6ca0:	b9008fa0 	str	w0, [x29,#140]
/home/asaf/devel/optee/optee_os/lib/libutils/ext/trace.c:125
    6ca4:	910143a3 	add	x3, x29, #0x50
    6ca8:	a94707a0 	ldp	x0, x1, [x29,#112]
    6cac:	a90507a0 	stp	x0, x1, [x29,#80]
    6cb0:	a94807a0 	ldp	x0, x1, [x29,#128]
    6cb4:	a90607a0 	stp	x0, x1, [x29,#96]
    6cb8:	cb1302a1 	sub	x1, x21, x19
    6cbc:	8b130280 	add	x0, x20, x19
    6cc0:	aa1703e2 	mov	x2, x23
    6cc4:	97ffff43 	bl	69d0 <vsnprintk>
/home/asaf/devel/optee/optee_os/lib/libutils/ext/trace.c:128
    6cc8:	7100001f 	cmp	w0, #0x0
    6ccc:	8b20c261 	add	x1, x19, w0, sxtw
    6cd0:	9a93c033 	csel	x19, x1, x19, gt
    6cd4:	d2801fc0 	mov	x0, #0xfe                  	// #254
    6cd8:	f103fa7f 	cmp	x19, #0xfe
    6cdc:	9a809273 	csel	x19, x19, x0, ls
/home/asaf/devel/optee/optee_os/lib/libutils/ext/trace.c:133
    6ce0:	52800140 	mov	w0, #0xa                   	// #10
    6ce4:	38336a80 	strb	w0, [x20,x19]
/home/asaf/devel/optee/optee_os/lib/libutils/ext/trace.c:134
    6ce8:	b4000093 	cbz	x19, 6cf8 <trace_printf+0x1ec>
/home/asaf/devel/optee/optee_os/lib/libutils/ext/trace.c:134 (discriminator 1)
    6cec:	38736a80 	ldrb	w0, [x20,x19]
    6cf0:	7100281f 	cmp	w0, #0xa
    6cf4:	540001e0 	b.eq	6d30 <trace_printf+0x224>
/home/asaf/devel/optee/optee_os/lib/libutils/ext/trace.c:137
    6cf8:	91024ba0 	add	x0, x29, #0x92
    6cfc:	3833681f 	strb	wzr, [x0,x19]
/home/asaf/devel/optee/optee_os/lib/libutils/ext/trace.c:139
    6d00:	aa1403e0 	mov	x0, x20
    6d04:	97fff766 	bl	4a9c <trace_ext_puts>
/home/asaf/devel/optee/optee_os/lib/libutils/ext/trace.c:140
    6d08:	a94153f3 	ldp	x19, x20, [sp,#16]
    6d0c:	a9425bf5 	ldp	x21, x22, [sp,#32]
    6d10:	a94363f7 	ldp	x23, x24, [sp,#48]
    6d14:	a9446bf9 	ldp	x25, x26, [sp,#64]
    6d18:	a9407bfd 	ldp	x29, x30, [sp]
    6d1c:	9108c3ff 	add	sp, sp, #0x230
    6d20:	d65f03c0 	ret
trace_level_to_string():
/home/asaf/devel/optee/optee_os/lib/libutils/ext/trace.c:62
    6d24:	d0000023 	adrp	x3, c000 <__func__.3637+0x608>
    6d28:	9102e463 	add	x3, x3, #0xb9
    6d2c:	17ffff9a 	b	6b94 <trace_printf+0x88>
trace_printf():
/home/asaf/devel/optee/optee_os/lib/libutils/ext/trace.c:135
    6d30:	d1000673 	sub	x19, x19, #0x1
    6d34:	17ffffed 	b	6ce8 <trace_printf+0x1dc>

0000000000006d38 <dhex_dump>:
dhex_dump():
/home/asaf/devel/optee/optee_os/lib/libutils/ext/trace.c:251
    6d38:	d65f03c0 	ret

0000000000006d3c <memchr>:
memchr():
/home/asaf/devel/optee/optee_os/lib/libutils/isoc/newlib/memchr.c:108
    6d3c:	12001c21 	and	w1, w1, #0xff
    6d40:	8b020002 	add	x2, x0, x2
/home/asaf/devel/optee/optee_os/lib/libutils/isoc/newlib/memchr.c:152
    6d44:	eb02001f 	cmp	x0, x2
    6d48:	54000061 	b.ne	6d54 <memchr+0x18>
/home/asaf/devel/optee/optee_os/lib/libutils/isoc/newlib/memchr.c:158
    6d4c:	d2800000 	mov	x0, #0x0                   	// #0
/home/asaf/devel/optee/optee_os/lib/libutils/isoc/newlib/memchr.c:159
    6d50:	d65f03c0 	ret
/home/asaf/devel/optee/optee_os/lib/libutils/isoc/newlib/memchr.c:153
    6d54:	39400003 	ldrb	w3, [x0]
    6d58:	6b01007f 	cmp	w3, w1
    6d5c:	54ffffa0 	b.eq	6d50 <memchr+0x14>
/home/asaf/devel/optee/optee_os/lib/libutils/isoc/newlib/memchr.c:155
    6d60:	91000400 	add	x0, x0, #0x1
    6d64:	17fffff8 	b	6d44 <memchr+0x8>

0000000000006d68 <__mpa_set_unused_digits_to_zero>:
__mpa_set_unused_digits_to_zero():
/home/asaf/devel/optee/optee_os/lib/libmpa/mpa_misc.c:59
    6d68:	b9400401 	ldr	w1, [x0,#4]
/home/asaf/devel/optee/optee_os/lib/libmpa/mpa_misc.c:60
    6d6c:	b8408402 	ldr	w2, [x0],#8
/home/asaf/devel/optee/optee_os/lib/libmpa/mpa_misc.c:59
    6d70:	7100003f 	cmp	w1, #0x0
    6d74:	5a81a423 	cneg	w3, w1, lt
/home/asaf/devel/optee/optee_os/lib/libmpa/mpa_misc.c:60
    6d78:	52800001 	mov	w1, #0x0                   	// #0
    6d7c:	4b030042 	sub	w2, w2, w3
    6d80:	8b23c800 	add	x0, x0, w3, sxtw #2
    6d84:	d37e7442 	ubfiz	x2, x2, #2, #30
    6d88:	17fffc1a 	b	5df0 <memset>

0000000000006d8c <mpa_wipe>:
mpa_wipe():
/home/asaf/devel/optee/optee_os/lib/libmpa/mpa_misc.c:77
    6d8c:	a9be7bfd 	stp	x29, x30, [sp,#-32]!
/home/asaf/devel/optee/optee_os/lib/libmpa/mpa_misc.c:78
    6d90:	52800001 	mov	w1, #0x0                   	// #0
/home/asaf/devel/optee/optee_os/lib/libmpa/mpa_misc.c:77
    6d94:	910003fd 	mov	x29, sp
    6d98:	f9000bf3 	str	x19, [sp,#16]
    6d9c:	aa0003f3 	mov	x19, x0
/home/asaf/devel/optee/optee_os/lib/libmpa/mpa_misc.c:78
    6da0:	b8408402 	ldr	w2, [x0],#8
    6da4:	d37e7442 	ubfiz	x2, x2, #2, #30
    6da8:	97fffc12 	bl	5df0 <memset>
/home/asaf/devel/optee/optee_os/lib/libmpa/mpa_misc.c:79
    6dac:	b900067f 	str	wzr, [x19,#4]
/home/asaf/devel/optee/optee_os/lib/libmpa/mpa_misc.c:80
    6db0:	f9400bf3 	ldr	x19, [sp,#16]
    6db4:	a8c27bfd 	ldp	x29, x30, [sp],#32
    6db8:	d65f03c0 	ret

0000000000006dbc <mpa_copy>:
mpa_copy():
/home/asaf/devel/optee/optee_os/lib/libmpa/mpa_misc.c:93
    6dbc:	eb01001f 	cmp	x0, x1
    6dc0:	54000260 	b.eq	6e0c <mpa_copy+0x50>
/home/asaf/devel/optee/optee_os/lib/libmpa/mpa_misc.c:92
    6dc4:	a9be7bfd 	stp	x29, x30, [sp,#-32]!
    6dc8:	910003fd 	mov	x29, sp
    6dcc:	a90153f3 	stp	x19, x20, [sp,#16]
    6dd0:	aa0103f3 	mov	x19, x1
    6dd4:	aa0003f4 	mov	x20, x0
/home/asaf/devel/optee/optee_os/lib/libmpa/mpa_misc.c:96
    6dd8:	91002021 	add	x1, x1, #0x8
    6ddc:	91002000 	add	x0, x0, #0x8
    6de0:	b9400662 	ldr	w2, [x19,#4]
    6de4:	7100005f 	cmp	w2, #0x0
    6de8:	5a82a442 	cneg	w2, w2, lt
    6dec:	531e7442 	lsl	w2, w2, #2
    6df0:	93407c42 	sxtw	x2, w2
    6df4:	97fffbe4 	bl	5d84 <memcpy>
/home/asaf/devel/optee/optee_os/lib/libmpa/mpa_misc.c:97
    6df8:	b9400660 	ldr	w0, [x19,#4]
    6dfc:	b9000680 	str	w0, [x20,#4]
/home/asaf/devel/optee/optee_os/lib/libmpa/mpa_misc.c:98
    6e00:	a94153f3 	ldp	x19, x20, [sp,#16]
    6e04:	a8c27bfd 	ldp	x29, x30, [sp],#32
    6e08:	d65f03c0 	ret
    6e0c:	d65f03c0 	ret

0000000000006e10 <mpa_abs>:
mpa_abs():
/home/asaf/devel/optee/optee_os/lib/libmpa/mpa_misc.c:106
    6e10:	a9be7bfd 	stp	x29, x30, [sp,#-32]!
    6e14:	910003fd 	mov	x29, sp
    6e18:	f9000bf3 	str	x19, [sp,#16]
    6e1c:	aa0003f3 	mov	x19, x0
/home/asaf/devel/optee/optee_os/lib/libmpa/mpa_misc.c:107
    6e20:	97ffffe7 	bl	6dbc <mpa_copy>
/home/asaf/devel/optee/optee_os/lib/libmpa/mpa_misc.c:108
    6e24:	b9400660 	ldr	w0, [x19,#4]
    6e28:	36f80060 	tbz	w0, #31, 6e34 <mpa_abs+0x24>
/home/asaf/devel/optee/optee_os/lib/libmpa/mpa_misc.c:108 (discriminator 1)
    6e2c:	4b0003e0 	neg	w0, w0
    6e30:	b9000660 	str	w0, [x19,#4]
/home/asaf/devel/optee/optee_os/lib/libmpa/mpa_misc.c:109
    6e34:	f9400bf3 	ldr	x19, [sp,#16]
    6e38:	a8c27bfd 	ldp	x29, x30, [sp],#32
    6e3c:	d65f03c0 	ret

0000000000006e40 <mpa_highest_bit_index>:
mpa_highest_bit_index():
/home/asaf/devel/optee/optee_os/lib/libmpa/mpa_misc.c:123
    6e40:	b9400401 	ldr	w1, [x0,#4]
    6e44:	7100003f 	cmp	w1, #0x0
    6e48:	540001a0 	b.eq	6e7c <mpa_highest_bit_index+0x3c>
/home/asaf/devel/optee/optee_os/lib/libmpa/mpa_misc.c:126
    6e4c:	5a81a421 	cneg	w1, w1, lt
    6e50:	51000421 	sub	w1, w1, #0x1
    6e54:	8b21c800 	add	x0, x0, w1, sxtw #2
    6e58:	b9400802 	ldr	w2, [x0,#8]
/home/asaf/devel/optee/optee_os/lib/libmpa/mpa_misc.c:128
    6e5c:	52800000 	mov	w0, #0x0                   	// #0
/home/asaf/devel/optee/optee_os/lib/libmpa/mpa_misc.c:129
    6e60:	53017c42 	lsr	w2, w2, #1
/home/asaf/devel/optee/optee_os/lib/libmpa/mpa_misc.c:130
    6e64:	34000082 	cbz	w2, 6e74 <mpa_highest_bit_index+0x34>
/home/asaf/devel/optee/optee_os/lib/libmpa/mpa_misc.c:128 (discriminator 2)
    6e68:	11000400 	add	w0, w0, #0x1
    6e6c:	7100801f 	cmp	w0, #0x20
    6e70:	54ffff81 	b.ne	6e60 <mpa_highest_bit_index+0x20>
/home/asaf/devel/optee/optee_os/lib/libmpa/mpa_misc.c:133
    6e74:	0b011400 	add	w0, w0, w1, lsl #5
    6e78:	d65f03c0 	ret
/home/asaf/devel/optee/optee_os/lib/libmpa/mpa_misc.c:124
    6e7c:	12800000 	mov	w0, #0xffffffff            	// #-1
/home/asaf/devel/optee/optee_os/lib/libmpa/mpa_misc.c:134
    6e80:	d65f03c0 	ret

0000000000006e84 <mpa_get_bit>:
mpa_get_bit():
/home/asaf/devel/optee/optee_os/lib/libmpa/mpa_misc.c:153
    6e84:	b9400402 	ldr	w2, [x0,#4]
/home/asaf/devel/optee/optee_os/lib/libmpa/mpa_misc.c:150
    6e88:	53057c23 	lsr	w3, w1, #5
/home/asaf/devel/optee/optee_os/lib/libmpa/mpa_misc.c:153
    6e8c:	7100005f 	cmp	w2, #0x0
    6e90:	5a82a442 	cneg	w2, w2, lt
    6e94:	6b02007f 	cmp	w3, w2
    6e98:	54000148 	b.hi	6ec0 <mpa_get_bit+0x3c>
/home/asaf/devel/optee/optee_os/lib/libmpa/mpa_misc.c:156
    6e9c:	d37e6863 	ubfiz	x3, x3, #2, #27
/home/asaf/devel/optee/optee_os/lib/libmpa/mpa_misc.c:155
    6ea0:	12001021 	and	w1, w1, #0x1f
/home/asaf/devel/optee/optee_os/lib/libmpa/mpa_misc.c:156
    6ea4:	8b030000 	add	x0, x0, x3
/home/asaf/devel/optee/optee_os/lib/libmpa/mpa_misc.c:155
    6ea8:	d2800022 	mov	x2, #0x1                   	// #1
    6eac:	9ac12041 	lsl	x1, x2, x1
/home/asaf/devel/optee/optee_os/lib/libmpa/mpa_misc.c:156
    6eb0:	b9400800 	ldr	w0, [x0,#8]
    6eb4:	ea00003f 	tst	x1, x0
    6eb8:	1a9f07e0 	cset	w0, ne
    6ebc:	d65f03c0 	ret
    6ec0:	52800000 	mov	w0, #0x0                   	// #0
/home/asaf/devel/optee/optee_os/lib/libmpa/mpa_misc.c:157
    6ec4:	d65f03c0 	ret

0000000000006ec8 <mpa_can_hold>:
mpa_can_hold():
/home/asaf/devel/optee/optee_os/lib/libmpa/mpa_misc.c:167
    6ec8:	b9400421 	ldr	w1, [x1,#4]
    6ecc:	b9400000 	ldr	w0, [x0]
    6ed0:	7100003f 	cmp	w1, #0x0
    6ed4:	5a81a421 	cneg	w1, w1, lt
    6ed8:	6b01001f 	cmp	w0, w1
/home/asaf/devel/optee/optee_os/lib/libmpa/mpa_misc.c:168
    6edc:	1a9f37e0 	cset	w0, cs
    6ee0:	d65f03c0 	ret

0000000000006ee4 <mpa_parity>:
mpa_parity():
/home/asaf/devel/optee/optee_os/lib/libmpa/mpa_misc.c:178
    6ee4:	b9400800 	ldr	w0, [x0,#8]
/home/asaf/devel/optee/optee_os/lib/libmpa/mpa_misc.c:179
    6ee8:	12000000 	and	w0, w0, #0x1
    6eec:	d65f03c0 	ret

0000000000006ef0 <mpa_constant_one>:
mpa_constant_one():
/home/asaf/devel/optee/optee_os/lib/libmpa/mpa_misc.c:189
    6ef0:	90000020 	adrp	x0, a000 <mpa_init_static_fmm_context+0x3c>
    6ef4:	91320000 	add	x0, x0, #0xc80
    6ef8:	d65f03c0 	ret

0000000000006efc <__mpa_montgomery_mul_add>:
__mpa_montgomery_mul_add():
/home/asaf/devel/optee/optee_os/lib/libmpa/mpa_montgomery.c:56
    6efc:	34000222 	cbz	w2, 6f40 <__mpa_montgomery_mul_add+0x44>
/home/asaf/devel/optee/optee_os/lib/libmpa/mpa_montgomery.c:58
    6f00:	91002007 	add	x7, x0, #0x8
    6f04:	d2800025 	mov	x5, #0x1                   	// #1
/home/asaf/devel/optee/optee_os/lib/libmpa/mpa_montgomery.c:59
    6f08:	aa0703e3 	mov	x3, x7
/home/asaf/devel/optee/optee_os/lib/libmpa/mpa_montgomery.c:60
    6f0c:	52800004 	mov	w4, #0x0                   	// #0
/home/asaf/devel/optee/optee_os/lib/libmpa/mpa_montgomery.c:61
    6f10:	b9400428 	ldr	w8, [x1,#4]
    6f14:	510004a6 	sub	w6, w5, #0x1
    6f18:	910004a5 	add	x5, x5, #0x1
    6f1c:	6b0800df 	cmp	w6, w8
    6f20:	5400012b 	b.lt	6f44 <__mpa_montgomery_mul_add+0x48>
/home/asaf/devel/optee/optee_os/lib/libmpa/mpa_montgomery.c:68
    6f24:	350001e4 	cbnz	w4, 6f60 <__mpa_montgomery_mul_add+0x64>
/home/asaf/devel/optee/optee_os/lib/libmpa/mpa_montgomery.c:73
    6f28:	cb070063 	sub	x3, x3, x7
/home/asaf/devel/optee/optee_os/lib/libmpa/mpa_montgomery.c:74
    6f2c:	b9400401 	ldr	w1, [x0,#4]
/home/asaf/devel/optee/optee_os/lib/libmpa/mpa_montgomery.c:73
    6f30:	9342fc63 	asr	x3, x3, #2
/home/asaf/devel/optee/optee_os/lib/libmpa/mpa_montgomery.c:74
    6f34:	6b01007f 	cmp	w3, w1
    6f38:	5400004d 	b.le	6f40 <__mpa_montgomery_mul_add+0x44>
/home/asaf/devel/optee/optee_os/lib/libmpa/mpa_montgomery.c:75
    6f3c:	b9000403 	str	w3, [x0,#4]
    6f40:	d65f03c0 	ret
/home/asaf/devel/optee/optee_os/lib/libmpa/mpa_montgomery.c:62
    6f44:	b9400066 	ldr	w6, [x3]
    6f48:	8b2440c4 	add	x4, x6, w4, uxtw
    6f4c:	b8657826 	ldr	w6, [x1,x5,lsl #2]
    6f50:	9ba210c4 	umaddl	x4, w6, w2, x4
/home/asaf/devel/optee/optee_os/lib/libmpa/mpa_montgomery.c:65
    6f54:	b8004464 	str	w4, [x3],#4
/home/asaf/devel/optee/optee_os/lib/libmpa/mpa_montgomery.c:66
    6f58:	d360fc84 	lsr	x4, x4, #32
    6f5c:	17ffffed 	b	6f10 <__mpa_montgomery_mul_add+0x14>
/home/asaf/devel/optee/optee_os/lib/libmpa/mpa_montgomery.c:69
    6f60:	b9400061 	ldr	w1, [x3]
    6f64:	8b244024 	add	x4, x1, w4, uxtw
/home/asaf/devel/optee/optee_os/lib/libmpa/mpa_montgomery.c:70
    6f68:	b8004464 	str	w4, [x3],#4
/home/asaf/devel/optee/optee_os/lib/libmpa/mpa_montgomery.c:71
    6f6c:	d360fc84 	lsr	x4, x4, #32
    6f70:	17ffffed 	b	6f24 <__mpa_montgomery_mul_add+0x28>

0000000000006f74 <__mpa_montgomery_sub_ack>:
__mpa_montgomery_sub_ack():
/home/asaf/devel/optee/optee_os/lib/libmpa/mpa_montgomery.c:97
    6f74:	91002002 	add	x2, x0, #0x8
/home/asaf/devel/optee/optee_os/lib/libmpa/mpa_montgomery.c:100
    6f78:	d2800026 	mov	x6, #0x1                   	// #1
/home/asaf/devel/optee/optee_os/lib/libmpa/mpa_montgomery.c:98
    6f7c:	52800004 	mov	w4, #0x0                   	// #0
/home/asaf/devel/optee/optee_os/lib/libmpa/mpa_montgomery.c:100
    6f80:	b9400423 	ldr	w3, [x1,#4]
    6f84:	510004c5 	sub	w5, w6, #0x1
    6f88:	910004c6 	add	x6, x6, #0x1
    6f8c:	6b05007f 	cmp	w3, w5
    6f90:	540000cc 	b.gt	6fa8 <__mpa_montgomery_sub_ack+0x34>
/home/asaf/devel/optee/optee_os/lib/libmpa/mpa_montgomery.c:109
    6f94:	350001a4 	cbnz	w4, 6fc8 <__mpa_montgomery_sub_ack+0x54>
/home/asaf/devel/optee/optee_os/lib/libmpa/mpa_montgomery.c:115
    6f98:	b9400401 	ldr	w1, [x0,#4]
    6f9c:	6b0100bf 	cmp	w5, w1
    6fa0:	5400026a 	b.ge	6fec <__mpa_montgomery_sub_ack+0x78>
    6fa4:	d65f03c0 	ret
/home/asaf/devel/optee/optee_os/lib/libmpa/mpa_montgomery.c:101
    6fa8:	b8667825 	ldr	w5, [x1,x6,lsl #2]
    6fac:	b9400043 	ldr	w3, [x2]
    6fb0:	cb050063 	sub	x3, x3, x5
    6fb4:	cb244063 	sub	x3, x3, w4, uxtw
/home/asaf/devel/optee/optee_os/lib/libmpa/mpa_montgomery.c:103
    6fb8:	b8004443 	str	w3, [x2],#4
/home/asaf/devel/optee/optee_os/lib/libmpa/mpa_montgomery.c:104
    6fbc:	d360fc63 	lsr	x3, x3, #32
    6fc0:	4b0303e4 	neg	w4, w3
    6fc4:	17ffffef 	b	6f80 <__mpa_montgomery_sub_ack+0xc>
/home/asaf/devel/optee/optee_os/lib/libmpa/mpa_montgomery.c:110
    6fc8:	b9400041 	ldr	w1, [x2]
/home/asaf/devel/optee/optee_os/lib/libmpa/mpa_montgomery.c:113
    6fcc:	110004a5 	add	w5, w5, #0x1
/home/asaf/devel/optee/optee_os/lib/libmpa/mpa_montgomery.c:110
    6fd0:	cb244023 	sub	x3, x1, w4, uxtw
/home/asaf/devel/optee/optee_os/lib/libmpa/mpa_montgomery.c:111
    6fd4:	b8004443 	str	w3, [x2],#4
/home/asaf/devel/optee/optee_os/lib/libmpa/mpa_montgomery.c:112
    6fd8:	d360fc63 	lsr	x3, x3, #32
    6fdc:	4b0303e4 	neg	w4, w3
    6fe0:	17ffffed 	b	6f94 <__mpa_montgomery_sub_ack+0x20>
/home/asaf/devel/optee/optee_os/lib/libmpa/mpa_montgomery.c:118
    6fe4:	51000421 	sub	w1, w1, #0x1
    6fe8:	b9000401 	str	w1, [x0,#4]
/home/asaf/devel/optee/optee_os/lib/libmpa/mpa_montgomery.c:117
    6fec:	b9400401 	ldr	w1, [x0,#4]
    6ff0:	7100003f 	cmp	w1, #0x0
    6ff4:	5400006d 	b.le	7000 <__mpa_montgomery_sub_ack+0x8c>
/home/asaf/devel/optee/optee_os/lib/libmpa/mpa_montgomery.c:117 (discriminator 1)
    6ff8:	b85fcc43 	ldr	w3, [x2,#-4]!
    6ffc:	34ffff43 	cbz	w3, 6fe4 <__mpa_montgomery_sub_ack+0x70>
    7000:	d65f03c0 	ret

0000000000007004 <__mpa_montgomery_mul>:
__mpa_montgomery_mul():
/home/asaf/devel/optee/optee_os/lib/libmpa/mpa_montgomery.c:137
    7004:	a9bb7bfd 	stp	x29, x30, [sp,#-80]!
    7008:	910003fd 	mov	x29, sp
    700c:	a90363f7 	stp	x23, x24, [sp,#48]
    7010:	aa0103f7 	mov	x23, x1
    7014:	a9046bf9 	stp	x25, x26, [sp,#64]
    7018:	910022f9 	add	x25, x23, #0x8
/home/asaf/devel/optee/optee_os/lib/libmpa/mpa_montgomery.c:144
    701c:	52800018 	mov	w24, #0x0                   	// #0
/home/asaf/devel/optee/optee_os/lib/libmpa/mpa_montgomery.c:137
    7020:	a90153f3 	stp	x19, x20, [sp,#16]
    7024:	a9025bf5 	stp	x21, x22, [sp,#32]
    7028:	aa0003f3 	mov	x19, x0
    702c:	aa0203f6 	mov	x22, x2
    7030:	aa0303f4 	mov	x20, x3
    7034:	2a0403f5 	mov	w21, w4
/home/asaf/devel/optee/optee_os/lib/libmpa/mpa_montgomery.c:142
    7038:	97ffff55 	bl	6d8c <mpa_wipe>
/home/asaf/devel/optee/optee_os/lib/libmpa/mpa_montgomery.c:144 (discriminator 1)
    703c:	b9400680 	ldr	w0, [x20,#4]
    7040:	6b00031f 	cmp	w24, w0
    7044:	540001ab 	b.lt	7078 <__mpa_montgomery_mul+0x74>
/home/asaf/devel/optee/optee_os/lib/libmpa/mpa_montgomery.c:161
    7048:	aa1403e1 	mov	x1, x20
    704c:	aa1303e0 	mov	x0, x19
    7050:	94000af3 	bl	9c1c <__mpa_abs_cmp>
    7054:	37f805e0 	tbnz	w0, #31, 7110 <__mpa_montgomery_mul+0x10c>
/home/asaf/devel/optee/optee_os/lib/libmpa/mpa_montgomery.c:162
    7058:	aa1403e1 	mov	x1, x20
    705c:	aa1303e0 	mov	x0, x19
/home/asaf/devel/optee/optee_os/lib/libmpa/mpa_montgomery.c:163
    7060:	a9425bf5 	ldp	x21, x22, [sp,#32]
    7064:	a94153f3 	ldp	x19, x20, [sp,#16]
    7068:	a94363f7 	ldp	x23, x24, [sp,#48]
    706c:	a9446bf9 	ldp	x25, x26, [sp,#64]
    7070:	a8c57bfd 	ldp	x29, x30, [sp],#80
/home/asaf/devel/optee/optee_os/lib/libmpa/mpa_montgomery.c:162
    7074:	17ffffc0 	b	6f74 <__mpa_montgomery_sub_ack>
/home/asaf/devel/optee/optee_os/lib/libmpa/mpa_montgomery.c:146
    7078:	b94006e1 	ldr	w1, [x23,#4]
    707c:	52800002 	mov	w2, #0x0                   	// #0
/home/asaf/devel/optee/optee_os/lib/libmpa/mpa_montgomery.c:145
    7080:	b9400a69 	ldr	w9, [x19,#8]
/home/asaf/devel/optee/optee_os/lib/libmpa/mpa_montgomery.c:146
    7084:	7100003f 	cmp	w1, #0x0
    7088:	5a81a421 	cneg	w1, w1, lt
    708c:	6b01031f 	cmp	w24, w1
    7090:	5400004a 	b.ge	7098 <__mpa_montgomery_mul+0x94>
/home/asaf/devel/optee/optee_os/lib/libmpa/mpa_montgomery.c:146 (discriminator 1)
    7094:	b9400322 	ldr	w2, [x25]
/home/asaf/devel/optee/optee_os/lib/libmpa/mpa_montgomery.c:147
    7098:	b94006c1 	ldr	w1, [x22,#4]
    709c:	52800000 	mov	w0, #0x0                   	// #0
    70a0:	34000041 	cbz	w1, 70a8 <__mpa_montgomery_mul+0xa4>
/home/asaf/devel/optee/optee_os/lib/libmpa/mpa_montgomery.c:147 (discriminator 1)
    70a4:	b9400ac0 	ldr	w0, [x22,#8]
/home/asaf/devel/optee/optee_os/lib/libmpa/mpa_montgomery.c:145
    70a8:	1b002440 	madd	w0, w2, w0, w9
/home/asaf/devel/optee/optee_os/lib/libmpa/mpa_montgomery.c:149
    70ac:	aa1603e1 	mov	x1, x22
/home/asaf/devel/optee/optee_os/lib/libmpa/mpa_montgomery.c:145
    70b0:	1b157c1a 	mul	w26, w0, w21
/home/asaf/devel/optee/optee_os/lib/libmpa/mpa_montgomery.c:149
    70b4:	aa1303e0 	mov	x0, x19
    70b8:	97ffff91 	bl	6efc <__mpa_montgomery_mul_add>
/home/asaf/devel/optee/optee_os/lib/libmpa/mpa_montgomery.c:151
    70bc:	2a1a03e2 	mov	w2, w26
    70c0:	aa1403e1 	mov	x1, x20
    70c4:	aa1303e0 	mov	x0, x19
    70c8:	97ffff8d 	bl	6efc <__mpa_montgomery_mul_add>
/home/asaf/devel/optee/optee_os/lib/libmpa/mpa_montgomery.c:154
    70cc:	b9400660 	ldr	w0, [x19,#4]
    70d0:	91002261 	add	x1, x19, #0x8
/home/asaf/devel/optee/optee_os/lib/libmpa/mpa_montgomery.c:155
    70d4:	52800002 	mov	w2, #0x0                   	// #0
/home/asaf/devel/optee/optee_os/lib/libmpa/mpa_montgomery.c:154
    70d8:	51000400 	sub	w0, w0, #0x1
    70dc:	b9000660 	str	w0, [x19,#4]
    70e0:	91001021 	add	x1, x1, #0x4
/home/asaf/devel/optee/optee_os/lib/libmpa/mpa_montgomery.c:155 (discriminator 1)
    70e4:	6b00005f 	cmp	w2, w0
    70e8:	540000cb 	b.lt	7100 <__mpa_montgomery_mul+0xfc>
/home/asaf/devel/optee/optee_os/lib/libmpa/mpa_montgomery.c:157 (discriminator 2)
    70ec:	8b20ca60 	add	x0, x19, w0, sxtw #2
/home/asaf/devel/optee/optee_os/lib/libmpa/mpa_montgomery.c:144 (discriminator 2)
    70f0:	11000718 	add	w24, w24, #0x1
    70f4:	91001339 	add	x25, x25, #0x4
/home/asaf/devel/optee/optee_os/lib/libmpa/mpa_montgomery.c:157 (discriminator 2)
    70f8:	b900081f 	str	wzr, [x0,#8]
    70fc:	17ffffd0 	b	703c <__mpa_montgomery_mul+0x38>
/home/asaf/devel/optee/optee_os/lib/libmpa/mpa_montgomery.c:156 (discriminator 3)
    7100:	b9400023 	ldr	w3, [x1]
    7104:	11000442 	add	w2, w2, #0x1
    7108:	b81fc023 	stur	w3, [x1,#-4]
    710c:	17fffff5 	b	70e0 <__mpa_montgomery_mul+0xdc>
/home/asaf/devel/optee/optee_os/lib/libmpa/mpa_montgomery.c:163
    7110:	a94153f3 	ldp	x19, x20, [sp,#16]
    7114:	a9425bf5 	ldp	x21, x22, [sp,#32]
    7118:	a94363f7 	ldp	x23, x24, [sp,#48]
    711c:	a9446bf9 	ldp	x25, x26, [sp,#64]
    7120:	a8c57bfd 	ldp	x29, x30, [sp],#80
    7124:	d65f03c0 	ret

0000000000007128 <mpa_compute_fmm_context>:
mpa_compute_fmm_context():
/home/asaf/devel/optee/optee_os/lib/libmpa/mpa_montgomery.c:179
    7128:	a9ba7bfd 	stp	x29, x30, [sp,#-96]!
    712c:	910003fd 	mov	x29, sp
    7130:	a90363f7 	stp	x23, x24, [sp,#48]
    7134:	aa0203f8 	mov	x24, x2
/home/asaf/devel/optee/optee_os/lib/libmpa/mpa_montgomery.c:193
    7138:	b9400402 	ldr	w2, [x0,#4]
/home/asaf/devel/optee/optee_os/lib/libmpa/mpa_montgomery.c:179
    713c:	aa0303f7 	mov	x23, x3
    7140:	a90153f3 	stp	x19, x20, [sp,#16]
    7144:	aa0103f4 	mov	x20, x1
/home/asaf/devel/optee/optee_os/lib/libmpa/mpa_montgomery.c:193
    7148:	7100005f 	cmp	w2, #0x0
/home/asaf/devel/optee/optee_os/lib/libmpa/mpa_montgomery.c:179
    714c:	aa0403f3 	mov	x19, x4
    7150:	a9025bf5 	stp	x21, x22, [sp,#32]
/home/asaf/devel/optee/optee_os/lib/libmpa/mpa_montgomery.c:194
    7154:	52800021 	mov	w1, #0x1                   	// #1
/home/asaf/devel/optee/optee_os/lib/libmpa/mpa_montgomery.c:193
    7158:	5a82a455 	cneg	w21, w2, lt
/home/asaf/devel/optee/optee_os/lib/libmpa/mpa_montgomery.c:179
    715c:	aa0003f6 	mov	x22, x0
/home/asaf/devel/optee/optee_os/lib/libmpa/mpa_montgomery.c:194
    7160:	aa1403e0 	mov	x0, x20
    7164:	94000175 	bl	7738 <mpa_set_word>
/home/asaf/devel/optee/optee_os/lib/libmpa/mpa_montgomery.c:195
    7168:	531b6aa2 	lsl	w2, w21, #5
    716c:	aa1403e1 	mov	x1, x20
    7170:	aa1403e0 	mov	x0, x20
    7174:	940007b8 	bl	9054 <mpa_shift_left>
/home/asaf/devel/optee/optee_os/lib/libmpa/mpa_montgomery.c:196
    7178:	aa1603e2 	mov	x2, x22
    717c:	aa1403e1 	mov	x1, x20
    7180:	aa1403e0 	mov	x0, x20
    7184:	aa1303e3 	mov	x3, x19
    7188:	94000d78 	bl	a768 <mpa_mod>
/home/asaf/devel/optee/optee_os/lib/libmpa/mpa_montgomery.c:202
    718c:	52800035 	mov	w21, #0x1                   	// #1
/home/asaf/devel/optee/optee_os/lib/libmpa/mpa_montgomery.c:199
    7190:	aa1603e3 	mov	x3, x22
    7194:	aa1403e2 	mov	x2, x20
    7198:	aa1303e4 	mov	x4, x19
    719c:	aa1403e1 	mov	x1, x20
    71a0:	aa1803e0 	mov	x0, x24
    71a4:	94000db9 	bl	a888 <mpa_mul_mod>
/home/asaf/devel/optee/optee_os/lib/libmpa/mpa_montgomery.c:204
    71a8:	b9400ac0 	ldr	w0, [x22,#8]
/home/asaf/devel/optee/optee_os/lib/libmpa/mpa_montgomery.c:206
    71ac:	910103b6 	add	x22, x29, #0x40
    71b0:	aa1303e1 	mov	x1, x19
/home/asaf/devel/optee/optee_os/lib/libmpa/mpa_montgomery.c:203
    71b4:	290a57b5 	stp	w21, w21, [x29,#80]
/home/asaf/devel/optee/optee_os/lib/libmpa/mpa_montgomery.c:204
    71b8:	b9005ba0 	str	w0, [x29,#88]
/home/asaf/devel/optee/optee_os/lib/libmpa/mpa_montgomery.c:207
    71bc:	910123b8 	add	x24, x29, #0x48
/home/asaf/devel/optee/optee_os/lib/libmpa/mpa_montgomery.c:206
    71c0:	aa1603e0 	mov	x0, x22
    71c4:	94000610 	bl	8a04 <mpa_alloc_static_temp_var>
/home/asaf/devel/optee/optee_os/lib/libmpa/mpa_montgomery.c:207
    71c8:	aa1303e1 	mov	x1, x19
    71cc:	aa1803e0 	mov	x0, x24
    71d0:	9400060d 	bl	8a04 <mpa_alloc_static_temp_var>
/home/asaf/devel/optee/optee_os/lib/libmpa/mpa_montgomery.c:209
    71d4:	b0000034 	adrp	x20, c000 <__func__.3637+0x608>
    71d8:	a94403a1 	ldp	x1, x0, [x29,#64]
    71dc:	aa1303e5 	mov	x5, x19
    71e0:	f941f294 	ldr	x20, [x20,#992]
    71e4:	910143a3 	add	x3, x29, #0x50
    71e8:	d2800002 	mov	x2, #0x0                   	// #0
    71ec:	aa1403e4 	mov	x4, x20
    71f0:	94000544 	bl	8700 <mpa_extended_gcd>
/home/asaf/devel/optee/optee_os/lib/libmpa/mpa_montgomery.c:211
    71f4:	f94027a0 	ldr	x0, [x29,#72]
    71f8:	2a1503e1 	mov	w1, w21
    71fc:	94000adb 	bl	9d68 <mpa_cmp_short>
    7200:	2a0003f5 	mov	w21, w0
/home/asaf/devel/optee/optee_os/lib/libmpa/mpa_montgomery.c:213
    7204:	35000160 	cbnz	w0, 7230 <mpa_compute_fmm_context+0x108>
/home/asaf/devel/optee/optee_os/lib/libmpa/mpa_montgomery.c:229
    7208:	f94023a1 	ldr	x1, [x29,#64]
    720c:	b9400420 	ldr	w0, [x1,#4]
    7210:	37f800a0 	tbnz	w0, #31, 7224 <mpa_compute_fmm_context+0xfc>
/home/asaf/devel/optee/optee_os/lib/libmpa/mpa_montgomery.c:230
    7214:	aa1303e3 	mov	x3, x19
    7218:	aa1403e2 	mov	x2, x20
    721c:	aa0103e0 	mov	x0, x1
    7220:	94000970 	bl	97e0 <mpa_sub>
/home/asaf/devel/optee/optee_os/lib/libmpa/mpa_montgomery.c:234
    7224:	f94023a0 	ldr	x0, [x29,#64]
    7228:	b9400800 	ldr	w0, [x0,#8]
    722c:	b90002e0 	str	w0, [x23]
/home/asaf/devel/optee/optee_os/lib/libmpa/mpa_montgomery.c:238
    7230:	aa1303e1 	mov	x1, x19
    7234:	aa1803e0 	mov	x0, x24
    7238:	940005f7 	bl	8a14 <mpa_free_static_temp_var>
/home/asaf/devel/optee/optee_os/lib/libmpa/mpa_montgomery.c:239
    723c:	aa1303e1 	mov	x1, x19
    7240:	aa1603e0 	mov	x0, x22
    7244:	940005f4 	bl	8a14 <mpa_free_static_temp_var>
/home/asaf/devel/optee/optee_os/lib/libmpa/mpa_montgomery.c:241
    7248:	710002bf 	cmp	w21, #0x0
/home/asaf/devel/optee/optee_os/lib/libmpa/mpa_montgomery.c:244
    724c:	a94153f3 	ldp	x19, x20, [sp,#16]
    7250:	5a9f03e0 	csetm	w0, ne
    7254:	a9425bf5 	ldp	x21, x22, [sp,#32]
    7258:	a94363f7 	ldp	x23, x24, [sp,#48]
    725c:	a8c67bfd 	ldp	x29, x30, [sp],#96
    7260:	d65f03c0 	ret

0000000000007264 <mpa_montgomery_mul>:
mpa_montgomery_mul():
/home/asaf/devel/optee/optee_os/lib/libmpa/mpa_montgomery.c:257
    7264:	a9ba7bfd 	stp	x29, x30, [sp,#-96]!
    7268:	910003fd 	mov	x29, sp
    726c:	a90153f3 	stp	x19, x20, [sp,#16]
/home/asaf/devel/optee/optee_os/lib/libmpa/mpa_montgomery.c:260
    7270:	910163b3 	add	x19, x29, #0x58
/home/asaf/devel/optee/optee_os/lib/libmpa/mpa_montgomery.c:257
    7274:	aa0503f4 	mov	x20, x5
    7278:	a9025bf5 	stp	x21, x22, [sp,#32]
    727c:	a90363f7 	stp	x23, x24, [sp,#48]
    7280:	aa0003f5 	mov	x21, x0
    7284:	f90023f9 	str	x25, [sp,#64]
    7288:	aa0103f6 	mov	x22, x1
    728c:	aa0203f7 	mov	x23, x2
/home/asaf/devel/optee/optee_os/lib/libmpa/mpa_montgomery.c:260
    7290:	aa0503e1 	mov	x1, x5
/home/asaf/devel/optee/optee_os/lib/libmpa/mpa_montgomery.c:257
    7294:	aa0303f8 	mov	x24, x3
    7298:	2a0403f9 	mov	w25, w4
/home/asaf/devel/optee/optee_os/lib/libmpa/mpa_montgomery.c:260
    729c:	aa1303e0 	mov	x0, x19
    72a0:	940005d9 	bl	8a04 <mpa_alloc_static_temp_var>
/home/asaf/devel/optee/optee_os/lib/libmpa/mpa_montgomery.c:262
    72a4:	f9402fa0 	ldr	x0, [x29,#88]
    72a8:	2a1903e4 	mov	w4, w25
    72ac:	aa1803e3 	mov	x3, x24
    72b0:	aa1703e2 	mov	x2, x23
    72b4:	aa1603e1 	mov	x1, x22
    72b8:	97ffff53 	bl	7004 <__mpa_montgomery_mul>
/home/asaf/devel/optee/optee_os/lib/libmpa/mpa_montgomery.c:264
    72bc:	f9402fa1 	ldr	x1, [x29,#88]
    72c0:	aa1503e0 	mov	x0, x21
    72c4:	97fffebe 	bl	6dbc <mpa_copy>
/home/asaf/devel/optee/optee_os/lib/libmpa/mpa_montgomery.c:265
    72c8:	aa1403e1 	mov	x1, x20
    72cc:	aa1303e0 	mov	x0, x19
    72d0:	940005d1 	bl	8a14 <mpa_free_static_temp_var>
/home/asaf/devel/optee/optee_os/lib/libmpa/mpa_montgomery.c:266
    72d4:	f94023f9 	ldr	x25, [sp,#64]
    72d8:	a94153f3 	ldp	x19, x20, [sp,#16]
    72dc:	a9425bf5 	ldp	x21, x22, [sp,#32]
    72e0:	a94363f7 	ldp	x23, x24, [sp,#48]
    72e4:	a8c67bfd 	ldp	x29, x30, [sp],#96
    72e8:	d65f03c0 	ret

00000000000072ec <mpa_is_prob_prime>:
mpa_is_prob_prime():
/home/asaf/devel/optee/optee_os/lib/libmpa/mpa_primetest.c:89
    72ec:	a9b37bfd 	stp	x29, x30, [sp,#-208]!
    72f0:	910003fd 	mov	x29, sp
    72f4:	a9025bf5 	stp	x21, x22, [sp,#32]
    72f8:	2a0103f6 	mov	w22, w1
is_small_prime():
/home/asaf/devel/optee/optee_os/lib/libmpa/mpa_primetest.c:136
    72fc:	b9400401 	ldr	w1, [x0,#4]
mpa_is_prob_prime():
/home/asaf/devel/optee/optee_os/lib/libmpa/mpa_primetest.c:89
    7300:	a90153f3 	stp	x19, x20, [sp,#16]
    7304:	aa0003f4 	mov	x20, x0
is_small_prime():
/home/asaf/devel/optee/optee_os/lib/libmpa/mpa_primetest.c:136
    7308:	7100003f 	cmp	w1, #0x0
mpa_is_prob_prime():
/home/asaf/devel/optee/optee_os/lib/libmpa/mpa_primetest.c:89
    730c:	a90363f7 	stp	x23, x24, [sp,#48]
    7310:	a9046bf9 	stp	x25, x26, [sp,#64]
is_small_prime():
/home/asaf/devel/optee/optee_os/lib/libmpa/mpa_primetest.c:136
    7314:	5a81a421 	cneg	w1, w1, lt
mpa_is_prob_prime():
/home/asaf/devel/optee/optee_os/lib/libmpa/mpa_primetest.c:89
    7318:	a90573fb 	stp	x27, x28, [sp,#80]
    731c:	aa0203f3 	mov	x19, x2
is_small_prime():
/home/asaf/devel/optee/optee_os/lib/libmpa/mpa_primetest.c:136
    7320:	7100043f 	cmp	w1, #0x1
    7324:	5400018d 	b.le	7354 <mpa_is_prob_prime+0x68>
/home/asaf/devel/optee/optee_os/lib/libmpa/mpa_primetest.c:137
    7328:	97fffeef 	bl	6ee4 <mpa_parity>
    732c:	35000d80 	cbnz	w0, 74dc <mpa_is_prob_prime+0x1f0>
    7330:	52800019 	mov	w25, #0x0                   	// #0
mpa_is_prob_prime():
/home/asaf/devel/optee/optee_os/lib/libmpa/mpa_primetest.c:107
    7334:	2a1903e0 	mov	w0, w25
    7338:	a94153f3 	ldp	x19, x20, [sp,#16]
    733c:	a9425bf5 	ldp	x21, x22, [sp,#32]
    7340:	a94363f7 	ldp	x23, x24, [sp,#48]
    7344:	a9446bf9 	ldp	x25, x26, [sp,#64]
    7348:	a94573fb 	ldp	x27, x28, [sp,#80]
    734c:	a8cd7bfd 	ldp	x29, x30, [sp],#208
    7350:	d65f03c0 	ret
is_small_prime():
/home/asaf/devel/optee/optee_os/lib/libmpa/mpa_primetest.c:139
    7354:	940000fe 	bl	774c <mpa_get_word>
    7358:	2a0003f5 	mov	w21, w0
/home/asaf/devel/optee/optee_os/lib/libmpa/mpa_primetest.c:140
    735c:	32000000 	orr	w0, w0, #0x1
    7360:	7100041f 	cmp	w0, #0x1
    7364:	54fffe60 	b.eq	7330 <mpa_is_prob_prime+0x44>
/home/asaf/devel/optee/optee_os/lib/libmpa/mpa_primetest.c:143
    7368:	52800039 	mov	w25, #0x1                   	// #1
/home/asaf/devel/optee/optee_os/lib/libmpa/mpa_primetest.c:142
    736c:	71000abf 	cmp	w21, #0x2
    7370:	54fffe20 	b.eq	7334 <mpa_is_prob_prime+0x48>
/home/asaf/devel/optee/optee_os/lib/libmpa/mpa_primetest.c:144
    7374:	3607fdf5 	tbz	w21, #0, 7330 <mpa_is_prob_prime+0x44>
/home/asaf/devel/optee/optee_os/lib/libmpa/mpa_primetest.c:148
    7378:	529869e1 	mov	w1, #0xc34f                	// #49999
    737c:	aa1403e0 	mov	x0, x20
    7380:	94000a7a 	bl	9d68 <mpa_cmp_short>
    7384:	7100001f 	cmp	w0, #0x0
    7388:	54000aac 	b.gt	74dc <mpa_is_prob_prime+0x1f0>
/home/asaf/devel/optee/optee_os/lib/libmpa/mpa_primetest.c:150
    738c:	51000eb5 	sub	w21, w21, #0x3
check_table():
/home/asaf/devel/optee/optee_os/lib/libmpa/mpa_primetest.c:117
    7390:	f0000000 	adrp	x0, a000 <mpa_init_static_fmm_context+0x3c>
    7394:	9132c000 	add	x0, x0, #0xcb0
    7398:	d3467ea1 	ubfx	x1, x21, #6, #26
    739c:	d34116b5 	ubfx	x21, x21, #1, #5
    73a0:	b8617802 	ldr	w2, [x0,x1,lsl #2]
    73a4:	1ad52440 	lsr	w0, w2, w21
    73a8:	0a190019 	and	w25, w0, w25
    73ac:	17ffffe2 	b	7334 <mpa_is_prob_prime+0x48>
primality_test_miller_rabin():
/home/asaf/devel/optee/optee_os/lib/libmpa/mpa_primetest.c:228
    73b0:	f94057a1 	ldr	x1, [x29,#168]
    73b4:	52800022 	mov	w2, #0x1                   	// #1
/home/asaf/devel/optee/optee_os/lib/libmpa/mpa_primetest.c:229
    73b8:	11000718 	add	w24, w24, #0x1
/home/asaf/devel/optee/optee_os/lib/libmpa/mpa_primetest.c:228
    73bc:	aa0103e0 	mov	x0, x1
    73c0:	94000789 	bl	91e4 <mpa_shift_right>
    73c4:	1400008e 	b	75fc <mpa_is_prob_prime+0x310>
/home/asaf/devel/optee/optee_os/lib/libmpa/mpa_primetest.c:234
    73c8:	36f803b7 	tbz	w23, #31, 743c <mpa_is_prob_prime+0x150>
/home/asaf/devel/optee/optee_os/lib/libmpa/mpa_primetest.c:235
    73cc:	f9403ba0 	ldr	x0, [x29,#112]
/home/asaf/devel/optee/optee_os/lib/libmpa/mpa_primetest.c:237
    73d0:	52800039 	mov	w25, #0x1                   	// #1
/home/asaf/devel/optee/optee_os/lib/libmpa/mpa_primetest.c:235
    73d4:	91312000 	add	x0, x0, #0xc48
    73d8:	b8767801 	ldr	w1, [x0,x22,lsl #2]
    73dc:	f94053a0 	ldr	x0, [x29,#160]
    73e0:	940000ae 	bl	7698 <mpa_set_S32>
/home/asaf/devel/optee/optee_os/lib/libmpa/mpa_primetest.c:236
    73e4:	f94053a1 	ldr	x1, [x29,#160]
    73e8:	aa1403e0 	mov	x0, x20
    73ec:	94000a45 	bl	9d00 <mpa_cmp>
    73f0:	34000220 	cbz	w0, 7434 <mpa_is_prob_prime+0x148>
/home/asaf/devel/optee/optee_os/lib/libmpa/mpa_primetest.c:254
    73f4:	b9409fa6 	ldr	w6, [x29,#156]
    73f8:	aa1303e7 	mov	x7, x19
    73fc:	a94a0ba1 	ldp	x1, x2, [x29,#160]
    7400:	aa1403e3 	mov	x3, x20
    7404:	a94b93a0 	ldp	x0, x4, [x29,#184]
/home/asaf/devel/optee/optee_os/lib/libmpa/mpa_primetest.c:255
    7408:	52800019 	mov	w25, #0x0                   	// #0
/home/asaf/devel/optee/optee_os/lib/libmpa/mpa_primetest.c:254
    740c:	f94067a5 	ldr	x5, [x29,#200]
    7410:	94000a77 	bl	9dec <mpa_exp_mod>
/home/asaf/devel/optee/optee_os/lib/libmpa/mpa_primetest.c:258
    7414:	f9405fa0 	ldr	x0, [x29,#184]
    7418:	52800021 	mov	w1, #0x1                   	// #1
    741c:	94000a53 	bl	9d68 <mpa_cmp_short>
/home/asaf/devel/optee/optee_os/lib/libmpa/mpa_primetest.c:259
    7420:	7100001f 	cmp	w0, #0x0
/home/asaf/devel/optee/optee_os/lib/libmpa/mpa_primetest.c:258
    7424:	2a0003e2 	mov	w2, w0
/home/asaf/devel/optee/optee_os/lib/libmpa/mpa_primetest.c:259
    7428:	7a400b24 	ccmp	w25, #0x0, #0x4, eq
    742c:	540002ed 	b.le	7488 <mpa_is_prob_prime+0x19c>
/home/asaf/devel/optee/optee_os/lib/libmpa/mpa_primetest.c:260
    7430:	52800019 	mov	w25, #0x0                   	// #0
    7434:	910006d6 	add	x22, x22, #0x1
    7438:	1400007b 	b	7624 <mpa_is_prob_prime+0x338>
/home/asaf/devel/optee/optee_os/lib/libmpa/mpa_primetest.c:246
    743c:	f9405ba1 	ldr	x1, [x29,#176]
    7440:	aa1303e3 	mov	x3, x19
    7444:	52800022 	mov	w2, #0x1                   	// #1
    7448:	aa0103e0 	mov	x0, x1
    744c:	940009a6 	bl	9ae4 <mpa_sub_word>
/home/asaf/devel/optee/optee_os/lib/libmpa/mpa_primetest.c:248
    7450:	f94053a0 	ldr	x0, [x29,#160]
    7454:	f9405ba1 	ldr	x1, [x29,#176]
    7458:	94000660 	bl	8dd8 <mpa_get_random>
/home/asaf/devel/optee/optee_os/lib/libmpa/mpa_primetest.c:249
    745c:	f9405ba1 	ldr	x1, [x29,#176]
    7460:	aa1303e3 	mov	x3, x19
    7464:	52800022 	mov	w2, #0x1                   	// #1
    7468:	aa0103e0 	mov	x0, x1
    746c:	9400094f 	bl	99a8 <mpa_add_word>
/home/asaf/devel/optee/optee_os/lib/libmpa/mpa_primetest.c:251
    7470:	f94053a1 	ldr	x1, [x29,#160]
    7474:	aa1303e3 	mov	x3, x19
    7478:	52800042 	mov	w2, #0x2                   	// #2
    747c:	aa0103e0 	mov	x0, x1
    7480:	9400094a 	bl	99a8 <mpa_add_word>
    7484:	17ffffdc 	b	73f4 <mpa_is_prob_prime+0x108>
/home/asaf/devel/optee/optee_os/lib/libmpa/mpa_primetest.c:264
    7488:	a94b03a1 	ldp	x1, x0, [x29,#176]
    748c:	b90067a2 	str	w2, [x29,#100]
    7490:	94000a1c 	bl	9d00 <mpa_cmp>
    7494:	34000200 	cbz	w0, 74d4 <mpa_is_prob_prime+0x1e8>
/home/asaf/devel/optee/optee_os/lib/libmpa/mpa_primetest.c:265
    7498:	b94067a2 	ldr	w2, [x29,#100]
    749c:	2a190042 	orr	w2, w2, w25
/home/asaf/devel/optee/optee_os/lib/libmpa/mpa_primetest.c:264
    74a0:	340001a2 	cbz	w2, 74d4 <mpa_is_prob_prime+0x1e8>
/home/asaf/devel/optee/optee_os/lib/libmpa/mpa_primetest.c:270
    74a4:	11000739 	add	w25, w25, #0x1
/home/asaf/devel/optee/optee_os/lib/libmpa/mpa_primetest.c:271
    74a8:	6b19031f 	cmp	w24, w25
    74ac:	54fffc2d 	b.le	7430 <mpa_is_prob_prime+0x144>
/home/asaf/devel/optee/optee_os/lib/libmpa/mpa_primetest.c:272
    74b0:	a94b93a1 	ldp	x1, x4, [x29,#184]
    74b4:	aa1303e7 	mov	x7, x19
    74b8:	b9409fa6 	ldr	w6, [x29,#156]
    74bc:	aa1403e3 	mov	x3, x20
    74c0:	f94037a2 	ldr	x2, [x29,#104]
    74c4:	aa0103e0 	mov	x0, x1
    74c8:	f94067a5 	ldr	x5, [x29,#200]
    74cc:	94000a48 	bl	9dec <mpa_exp_mod>
    74d0:	17ffffd1 	b	7414 <mpa_is_prob_prime+0x128>
/home/asaf/devel/optee/optee_os/lib/libmpa/mpa_primetest.c:264
    74d4:	12800019 	mov	w25, #0xffffffff            	// #-1
    74d8:	17ffffd7 	b	7434 <mpa_is_prob_prime+0x148>
has_small_factors():
/home/asaf/devel/optee/optee_os/lib/libmpa/mpa_primetest.c:170
    74dc:	910323b5 	add	x21, x29, #0xc8
    74e0:	aa1303e1 	mov	x1, x19
    74e4:	aa1503e0 	mov	x0, x21
    74e8:	94000547 	bl	8a04 <mpa_alloc_static_temp_var>
/home/asaf/devel/optee/optee_os/lib/libmpa/mpa_primetest.c:171
    74ec:	f94067a0 	ldr	x0, [x29,#200]
    74f0:	f0000018 	adrp	x24, a000 <mpa_init_static_fmm_context+0x3c>
    74f4:	9132c317 	add	x23, x24, #0xcb0
    74f8:	aa1303e3 	mov	x3, x19
    74fc:	9131e2e2 	add	x2, x23, #0xc78
    7500:	aa1403e1 	mov	x1, x20
    7504:	94000437 	bl	85e0 <mpa_gcd>
/home/asaf/devel/optee/optee_os/lib/libmpa/mpa_primetest.c:172
    7508:	f94067a0 	ldr	x0, [x29,#200]
    750c:	52800021 	mov	w1, #0x1                   	// #1
    7510:	94000a16 	bl	9d68 <mpa_cmp_short>
    7514:	2a0003f9 	mov	w25, w0
/home/asaf/devel/optee/optee_os/lib/libmpa/mpa_primetest.c:173
    7518:	aa1303e1 	mov	x1, x19
    751c:	aa1503e0 	mov	x0, x21
    7520:	9400053d 	bl	8a14 <mpa_free_static_temp_var>
    7524:	f9003bb8 	str	x24, [x29,#112]
mpa_is_prob_prime():
/home/asaf/devel/optee/optee_os/lib/libmpa/mpa_primetest.c:98
    7528:	35fff059 	cbnz	w25, 7330 <mpa_is_prob_prime+0x44>
primality_test_miller_rabin():
/home/asaf/devel/optee/optee_os/lib/libmpa/mpa_primetest.c:202
    752c:	910303a0 	add	x0, x29, #0xc0
    7530:	aa1303e1 	mov	x1, x19
    7534:	f90043a0 	str	x0, [x29,#128]
    7538:	94000533 	bl	8a04 <mpa_alloc_static_temp_var>
/home/asaf/devel/optee/optee_os/lib/libmpa/mpa_primetest.c:203
    753c:	aa1303e1 	mov	x1, x19
    7540:	aa1503e0 	mov	x0, x21
    7544:	94000530 	bl	8a04 <mpa_alloc_static_temp_var>
/home/asaf/devel/optee/optee_os/lib/libmpa/mpa_primetest.c:206
    7548:	52800019 	mov	w25, #0x0                   	// #0
/home/asaf/devel/optee/optee_os/lib/libmpa/mpa_primetest.c:205
    754c:	a94c0ba1 	ldp	x1, x2, [x29,#192]
    7550:	aa1303e4 	mov	x4, x19
    7554:	910273a3 	add	x3, x29, #0x9c
    7558:	aa1403e0 	mov	x0, x20
    755c:	97fffef3 	bl	7128 <mpa_compute_fmm_context>
    7560:	3100041f 	cmn	w0, #0x1
    7564:	540008c0 	b.eq	767c <mpa_is_prob_prime+0x390>
/home/asaf/devel/optee/optee_os/lib/libmpa/mpa_primetest.c:210
    7568:	910283bc 	add	x28, x29, #0xa0
    756c:	aa1303e1 	mov	x1, x19
    7570:	aa1c03e0 	mov	x0, x28
/home/asaf/devel/optee/optee_os/lib/libmpa/mpa_primetest.c:211
    7574:	9102a3bb 	add	x27, x29, #0xa8
/home/asaf/devel/optee/optee_os/lib/libmpa/mpa_primetest.c:210
    7578:	94000523 	bl	8a04 <mpa_alloc_static_temp_var>
/home/asaf/devel/optee/optee_os/lib/libmpa/mpa_primetest.c:212
    757c:	9102c3ba 	add	x26, x29, #0xb0
/home/asaf/devel/optee/optee_os/lib/libmpa/mpa_primetest.c:211
    7580:	aa1303e1 	mov	x1, x19
    7584:	aa1b03e0 	mov	x0, x27
    7588:	9400051f 	bl	8a04 <mpa_alloc_static_temp_var>
/home/asaf/devel/optee/optee_os/lib/libmpa/mpa_primetest.c:212
    758c:	aa1303e1 	mov	x1, x19
    7590:	aa1a03e0 	mov	x0, x26
    7594:	9400051c 	bl	8a04 <mpa_alloc_static_temp_var>
/home/asaf/devel/optee/optee_os/lib/libmpa/mpa_primetest.c:213
    7598:	9102e3a0 	add	x0, x29, #0xb8
    759c:	aa1303e1 	mov	x1, x19
    75a0:	f9003fa0 	str	x0, [x29,#120]
    75a4:	94000518 	bl	8a04 <mpa_alloc_static_temp_var>
/home/asaf/devel/optee/optee_os/lib/libmpa/mpa_primetest.c:216
    75a8:	9130e2e1 	add	x1, x23, #0xc38
    75ac:	aa1403e0 	mov	x0, x20
    75b0:	940009d4 	bl	9d00 <mpa_cmp>
    75b4:	2a0003f7 	mov	w23, w0
/home/asaf/devel/optee/optee_os/lib/libmpa/mpa_primetest.c:215
    75b8:	531f7c00 	lsr	w0, w0, #31
    75bc:	b9008ba0 	str	w0, [x29,#136]
/home/asaf/devel/optee/optee_os/lib/libmpa/mpa_primetest.c:219
    75c0:	528000e0 	mov	w0, #0x7                   	// #7
    75c4:	b9008fa0 	str	w0, [x29,#140]
/home/asaf/devel/optee/optee_os/lib/libmpa/mpa_primetest.c:218
    75c8:	37f800b7 	tbnz	w23, #31, 75dc <mpa_is_prob_prime+0x2f0>
/home/asaf/devel/optee/optee_os/lib/libmpa/mpa_primetest.c:221
    75cc:	110006d6 	add	w22, w22, #0x1
    75d0:	52800040 	mov	w0, #0x2                   	// #2
    75d4:	1ac00ec0 	sdiv	w0, w22, w0
    75d8:	b9008fa0 	str	w0, [x29,#140]
/home/asaf/devel/optee/optee_os/lib/libmpa/mpa_primetest.c:223
    75dc:	f9405ba0 	ldr	x0, [x29,#176]
    75e0:	aa1403e1 	mov	x1, x20
    75e4:	aa1303e3 	mov	x3, x19
    75e8:	52800022 	mov	w2, #0x1                   	// #1
/home/asaf/devel/optee/optee_os/lib/libmpa/mpa_primetest.c:225
    75ec:	52800018 	mov	w24, #0x0                   	// #0
/home/asaf/devel/optee/optee_os/lib/libmpa/mpa_primetest.c:223
    75f0:	9400093d 	bl	9ae4 <mpa_sub_word>
/home/asaf/devel/optee/optee_os/lib/libmpa/mpa_primetest.c:224
    75f4:	a94a87a0 	ldp	x0, x1, [x29,#168]
    75f8:	97fffdf1 	bl	6dbc <mpa_copy>
/home/asaf/devel/optee/optee_os/lib/libmpa/mpa_primetest.c:227
    75fc:	f94057a0 	ldr	x0, [x29,#168]
    7600:	97fffe39 	bl	6ee4 <mpa_parity>
    7604:	34ffed60 	cbz	w0, 73b0 <mpa_is_prob_prime+0xc4>
/home/asaf/devel/optee/optee_os/lib/libmpa/mpa_primetest.c:272
    7608:	f9403ba0 	ldr	x0, [x29,#112]
/home/asaf/devel/optee/optee_os/lib/libmpa/mpa_primetest.c:227
    760c:	d2800016 	mov	x22, #0x0                   	// #0
    7610:	12800019 	mov	w25, #0xffffffff            	// #-1
/home/asaf/devel/optee/optee_os/lib/libmpa/mpa_primetest.c:272
    7614:	9132c000 	add	x0, x0, #0xcb0
    7618:	f9003ba0 	str	x0, [x29,#112]
    761c:	9131a000 	add	x0, x0, #0xc68
    7620:	f90037a0 	str	x0, [x29,#104]
/home/asaf/devel/optee/optee_os/lib/libmpa/mpa_primetest.c:233
    7624:	b9408fa1 	ldr	w1, [x29,#140]
    7628:	3100073f 	cmn	w25, #0x1
    762c:	1a9f17e0 	cset	w0, eq
    7630:	6b16003f 	cmp	w1, w22
    7634:	1a9fd7e1 	cset	w1, gt
    7638:	6a01001f 	tst	w0, w1
    763c:	54ffec61 	b.ne	73c8 <mpa_is_prob_prime+0xdc>
/home/asaf/devel/optee/optee_os/lib/libmpa/mpa_primetest.c:280
    7640:	b9408ba1 	ldr	w1, [x29,#136]
    7644:	6a00003f 	tst	w1, w0
/home/asaf/devel/optee/optee_os/lib/libmpa/mpa_primetest.c:282
    7648:	aa1303e1 	mov	x1, x19
/home/asaf/devel/optee/optee_os/lib/libmpa/mpa_primetest.c:280
    764c:	1a9f0739 	csinc	w25, w25, wzr, eq
/home/asaf/devel/optee/optee_os/lib/libmpa/mpa_primetest.c:282
    7650:	aa1c03e0 	mov	x0, x28
    7654:	940004f0 	bl	8a14 <mpa_free_static_temp_var>
/home/asaf/devel/optee/optee_os/lib/libmpa/mpa_primetest.c:283
    7658:	aa1303e1 	mov	x1, x19
    765c:	aa1b03e0 	mov	x0, x27
    7660:	940004ed 	bl	8a14 <mpa_free_static_temp_var>
/home/asaf/devel/optee/optee_os/lib/libmpa/mpa_primetest.c:284
    7664:	aa1303e1 	mov	x1, x19
    7668:	aa1a03e0 	mov	x0, x26
    766c:	940004ea 	bl	8a14 <mpa_free_static_temp_var>
/home/asaf/devel/optee/optee_os/lib/libmpa/mpa_primetest.c:285
    7670:	f9403fa0 	ldr	x0, [x29,#120]
    7674:	aa1303e1 	mov	x1, x19
    7678:	940004e7 	bl	8a14 <mpa_free_static_temp_var>
/home/asaf/devel/optee/optee_os/lib/libmpa/mpa_primetest.c:287
    767c:	f94043a0 	ldr	x0, [x29,#128]
    7680:	aa1303e1 	mov	x1, x19
    7684:	940004e4 	bl	8a14 <mpa_free_static_temp_var>
/home/asaf/devel/optee/optee_os/lib/libmpa/mpa_primetest.c:288
    7688:	aa1303e1 	mov	x1, x19
    768c:	aa1503e0 	mov	x0, x21
    7690:	940004e1 	bl	8a14 <mpa_free_static_temp_var>
    7694:	17ffff28 	b	7334 <mpa_is_prob_prime+0x48>

0000000000007698 <mpa_set_S32>:
mpa_set_S32():
/home/asaf/devel/optee/optee_os/lib/libmpa/mpa_conv.c:37
    7698:	7100003f 	cmp	w1, #0x0
    769c:	54000100 	b.eq	76bc <mpa_set_S32+0x24>
/home/asaf/devel/optee/optee_os/lib/libmpa/mpa_conv.c:38
    76a0:	52800022 	mov	w2, #0x1                   	// #1
    76a4:	5a82a442 	cneg	w2, w2, lt
    76a8:	b9000402 	str	w2, [x0,#4]
/home/asaf/devel/optee/optee_os/lib/libmpa/mpa_conv.c:41
    76ac:	7100003f 	cmp	w1, #0x0
    76b0:	5a81a421 	cneg	w1, w1, lt
    76b4:	b9000801 	str	w1, [x0,#8]
    76b8:	d65f03c0 	ret
/home/asaf/devel/optee/optee_os/lib/libmpa/mpa_conv.c:40
    76bc:	b900041f 	str	wzr, [x0,#4]
    76c0:	17fffffb 	b	76ac <mpa_set_S32+0x14>

00000000000076c4 <mpa_get_S32>:
mpa_get_S32():
/home/asaf/devel/optee/optee_os/lib/libmpa/mpa_conv.c:57
    76c4:	b9400422 	ldr	w2, [x1,#4]
/home/asaf/devel/optee/optee_os/lib/libmpa/mpa_conv.c:55
    76c8:	aa0003e4 	mov	x4, x0
/home/asaf/devel/optee/optee_os/lib/libmpa/mpa_conv.c:57
    76cc:	7100005f 	cmp	w2, #0x0
    76d0:	5a82a440 	cneg	w0, w2, lt
    76d4:	7100041f 	cmp	w0, #0x1
    76d8:	540002cc 	b.gt	7730 <mpa_get_S32+0x6c>
/home/asaf/devel/optee/optee_os/lib/libmpa/mpa_conv.c:59
    76dc:	b9400823 	ldr	w3, [x1,#8]
    76e0:	52b00000 	mov	w0, #0x80000000            	// #-2147483648
    76e4:	7100005f 	cmp	w2, #0x0
    76e8:	7a40b060 	ccmp	w3, w0, #0x0, lt
/home/asaf/devel/optee/optee_os/lib/libmpa/mpa_conv.c:58
    76ec:	12800000 	mov	w0, #0xffffffff            	// #-1
/home/asaf/devel/optee/optee_os/lib/libmpa/mpa_conv.c:59
    76f0:	54000088 	b.hi	7700 <mpa_get_S32+0x3c>
/home/asaf/devel/optee/optee_os/lib/libmpa/mpa_conv.c:61
    76f4:	36f80083 	tbz	w3, #31, 7704 <mpa_get_S32+0x40>
/home/asaf/devel/optee/optee_os/lib/libmpa/mpa_conv.c:64 (discriminator 1)
    76f8:	2a0003e1 	mov	w1, w0
/home/asaf/devel/optee/optee_os/lib/libmpa/mpa_conv.c:61 (discriminator 1)
    76fc:	37f800c2 	tbnz	w2, #31, 7714 <mpa_get_S32+0x50>
/home/asaf/devel/optee/optee_os/lib/libmpa/mpa_conv.c:70
    7700:	d65f03c0 	ret
/home/asaf/devel/optee/optee_os/lib/libmpa/mpa_conv.c:64
    7704:	34000102 	cbz	w2, 7724 <mpa_get_S32+0x60>
/home/asaf/devel/optee/optee_os/lib/libmpa/mpa_conv.c:64 (discriminator 4)
    7708:	12800001 	mov	w1, #0xffffffff            	// #-1
    770c:	6b01005f 	cmp	w2, w1
    7710:	5a81d421 	cneg	w1, w1, gt
/home/asaf/devel/optee/optee_os/lib/libmpa/mpa_conv.c:64 (discriminator 8)
    7714:	1b037c21 	mul	w1, w1, w3
/home/asaf/devel/optee/optee_os/lib/libmpa/mpa_conv.c:65 (discriminator 8)
    7718:	52800000 	mov	w0, #0x0                   	// #0
/home/asaf/devel/optee/optee_os/lib/libmpa/mpa_conv.c:64 (discriminator 8)
    771c:	b9000081 	str	w1, [x4]
/home/asaf/devel/optee/optee_os/lib/libmpa/mpa_conv.c:65 (discriminator 8)
    7720:	d65f03c0 	ret
/home/asaf/devel/optee/optee_os/lib/libmpa/mpa_conv.c:64
    7724:	52800003 	mov	w3, #0x0                   	// #0
    7728:	52800021 	mov	w1, #0x1                   	// #1
    772c:	17fffffa 	b	7714 <mpa_get_S32+0x50>
/home/asaf/devel/optee/optee_os/lib/libmpa/mpa_conv.c:58
    7730:	12800000 	mov	w0, #0xffffffff            	// #-1
    7734:	17fffff3 	b	7700 <mpa_get_S32+0x3c>

0000000000007738 <mpa_set_word>:
mpa_set_word():
/home/asaf/devel/optee/optee_os/lib/libmpa/mpa_conv.c:80
    7738:	7100003f 	cmp	w1, #0x0
/home/asaf/devel/optee/optee_os/lib/libmpa/mpa_conv.c:79
    773c:	b9000801 	str	w1, [x0,#8]
/home/asaf/devel/optee/optee_os/lib/libmpa/mpa_conv.c:80
    7740:	1a9f07e1 	cset	w1, ne
    7744:	b9000401 	str	w1, [x0,#4]
    7748:	d65f03c0 	ret

000000000000774c <mpa_get_word>:
mpa_get_word():
/home/asaf/devel/optee/optee_os/lib/libmpa/mpa_conv.c:91
    774c:	b9400401 	ldr	w1, [x0,#4]
    7750:	34000061 	cbz	w1, 775c <mpa_get_word+0x10>
/home/asaf/devel/optee/optee_os/lib/libmpa/mpa_conv.c:91 (discriminator 1)
    7754:	b9400800 	ldr	w0, [x0,#8]
    7758:	d65f03c0 	ret
/home/asaf/devel/optee/optee_os/lib/libmpa/mpa_conv.c:91
    775c:	52800000 	mov	w0, #0x0                   	// #0
/home/asaf/devel/optee/optee_os/lib/libmpa/mpa_conv.c:92
    7760:	d65f03c0 	ret

0000000000007764 <__mpa_div_dword>:
__mpa_div_dword():
/home/asaf/devel/optee/optee_os/lib/libmpa/mpa_div.c:81
    7764:	2a0003e0 	mov	w0, w0
__mpa_soft_div():
/home/asaf/devel/optee/optee_os/lib/libmpa/mpa_div.c:46
    7768:	2a0203e2 	mov	w2, w2
__mpa_div_dword():
/home/asaf/devel/optee/optee_os/lib/libmpa/mpa_div.c:81
    776c:	8b018001 	add	x1, x0, x1, lsl #32
__mpa_soft_div():
/home/asaf/devel/optee/optee_os/lib/libmpa/mpa_div.c:45
    7770:	d2800024 	mov	x4, #0x1                   	// #1
/home/asaf/devel/optee/optee_os/lib/libmpa/mpa_div.c:48
    7774:	b6f800c2 	tbz	x2, #63, 778c <__mpa_div_dword+0x28>
    7778:	d2800000 	mov	x0, #0x0                   	// #0
/home/asaf/devel/optee/optee_os/lib/libmpa/mpa_div.c:53
    777c:	b50000e4 	cbnz	x4, 7798 <__mpa_div_dword+0x34>
/home/asaf/devel/optee/optee_os/lib/libmpa/mpa_div.c:62
    7780:	b4000043 	cbz	x3, 7788 <__mpa_div_dword+0x24>
/home/asaf/devel/optee/optee_os/lib/libmpa/mpa_div.c:63
    7784:	b9000061 	str	w1, [x3]
__mpa_div_dword():
/home/asaf/devel/optee/optee_os/lib/libmpa/mpa_div.c:89
    7788:	d65f03c0 	ret
__mpa_soft_div():
/home/asaf/devel/optee/optee_os/lib/libmpa/mpa_div.c:49
    778c:	d37ff842 	lsl	x2, x2, #1
/home/asaf/devel/optee/optee_os/lib/libmpa/mpa_div.c:50
    7790:	d37ff884 	lsl	x4, x4, #1
    7794:	17fffff8 	b	7774 <__mpa_div_dword+0x10>
/home/asaf/devel/optee/optee_os/lib/libmpa/mpa_div.c:54
    7798:	eb02003f 	cmp	x1, x2
    779c:	54000063 	b.cc	77a8 <__mpa_div_dword+0x44>
/home/asaf/devel/optee/optee_os/lib/libmpa/mpa_div.c:55
    77a0:	cb020021 	sub	x1, x1, x2
/home/asaf/devel/optee/optee_os/lib/libmpa/mpa_div.c:56
    77a4:	8b040000 	add	x0, x0, x4
/home/asaf/devel/optee/optee_os/lib/libmpa/mpa_div.c:58
    77a8:	d341fc42 	lsr	x2, x2, #1
/home/asaf/devel/optee/optee_os/lib/libmpa/mpa_div.c:59
    77ac:	d341fc84 	lsr	x4, x4, #1
    77b0:	17fffff3 	b	777c <__mpa_div_dword+0x18>

00000000000077b4 <__mpa_div_q_r_internal_word>:
__mpa_div_q_r_internal_word():
/home/asaf/devel/optee/optee_os/lib/libmpa/mpa_div.c:269
    77b4:	a9ba7bfd 	stp	x29, x30, [sp,#-96]!
    77b8:	910003fd 	mov	x29, sp
    77bc:	a9025bf5 	stp	x21, x22, [sp,#32]
    77c0:	aa0103f5 	mov	x21, x1
/home/asaf/devel/optee/optee_os/lib/libmpa/mpa_div.c:277
    77c4:	b9400441 	ldr	w1, [x2,#4]
/home/asaf/devel/optee/optee_os/lib/libmpa/mpa_div.c:269
    77c8:	aa0203f6 	mov	x22, x2
    77cc:	a90153f3 	stp	x19, x20, [sp,#16]
    77d0:	2a0303f4 	mov	w20, w3
/home/asaf/devel/optee/optee_os/lib/libmpa/mpa_div.c:277
    77d4:	7100003f 	cmp	w1, #0x0
/home/asaf/devel/optee/optee_os/lib/libmpa/mpa_div.c:269
    77d8:	a90363f7 	stp	x23, x24, [sp,#48]
    77dc:	a9046bf9 	stp	x25, x26, [sp,#64]
/home/asaf/devel/optee/optee_os/lib/libmpa/mpa_div.c:277
    77e0:	5a81a421 	cneg	w1, w1, lt
    77e4:	7100043f 	cmp	w1, #0x1
    77e8:	540001e1 	b.ne	7824 <__mpa_div_q_r_internal_word+0x70>
/home/asaf/devel/optee/optee_os/lib/libmpa/mpa_div.c:278
    77ec:	b9400841 	ldr	w1, [x2,#8]
    77f0:	1ac30821 	udiv	w1, w1, w3
    77f4:	97ffffd1 	bl	7738 <mpa_set_word>
/home/asaf/devel/optee/optee_os/lib/libmpa/mpa_div.c:279
    77f8:	b9400ac0 	ldr	w0, [x22,#8]
    77fc:	1ad40801 	udiv	w1, w0, w20
    7800:	1b148021 	msub	w1, w1, w20, w0
    7804:	aa1503e0 	mov	x0, x21
    7808:	97ffffcc 	bl	7738 <mpa_set_word>
/home/asaf/devel/optee/optee_os/lib/libmpa/mpa_div.c:301
    780c:	a94153f3 	ldp	x19, x20, [sp,#16]
    7810:	a9425bf5 	ldp	x21, x22, [sp,#32]
    7814:	a94363f7 	ldp	x23, x24, [sp,#48]
    7818:	a9446bf9 	ldp	x25, x26, [sp,#64]
    781c:	a8c67bfd 	ldp	x29, x30, [sp],#96
    7820:	d65f03c0 	ret
/home/asaf/devel/optee/optee_os/lib/libmpa/mpa_div.c:282
    7824:	aa0203e1 	mov	x1, x2
    7828:	aa0003f3 	mov	x19, x0
    782c:	aa1503e0 	mov	x0, x21
    7830:	97fffd63 	bl	6dbc <mpa_copy>
/home/asaf/devel/optee/optee_os/lib/libmpa/mpa_div.c:283
    7834:	52800001 	mov	w1, #0x0                   	// #0
    7838:	aa1303e0 	mov	x0, x19
    783c:	97ffffbf 	bl	7738 <mpa_set_word>
/home/asaf/devel/optee/optee_os/lib/libmpa/mpa_div.c:289
    7840:	910173ba 	add	x26, x29, #0x5c
/home/asaf/devel/optee/optee_os/lib/libmpa/mpa_div.c:285
    7844:	b94006a1 	ldr	w1, [x21,#4]
    7848:	7100003f 	cmp	w1, #0x0
    784c:	5a81a421 	cneg	w1, w1, lt
    7850:	51000422 	sub	w2, w1, #0x1
/home/asaf/devel/optee/optee_os/lib/libmpa/mpa_div.c:287
    7854:	93407c42 	sxtw	x2, w2
    7858:	8b020aa0 	add	x0, x21, x2, lsl #2
    785c:	91000843 	add	x3, x2, #0x2
    7860:	d37ef477 	lsl	x23, x3, #2
    7864:	cb21c063 	sub	x3, x3, w1, sxtw
    7868:	51000821 	sub	w1, w1, #0x2
    786c:	d37ef478 	lsl	x24, x3, #2
    7870:	937e7c21 	sbfiz	x1, x1, #2, #32
    7874:	b9400800 	ldr	w0, [x0,#8]
    7878:	cb020821 	sub	x1, x1, x2, lsl #2
    787c:	8b0102b9 	add	x25, x21, x1
/home/asaf/devel/optee/optee_os/lib/libmpa/mpa_div.c:286
    7880:	52800001 	mov	w1, #0x0                   	// #0
/home/asaf/devel/optee/optee_os/lib/libmpa/mpa_div.c:288
    7884:	eb1802ff 	cmp	x23, x24
    7888:	54000281 	b.ne	78d8 <__mpa_div_q_r_internal_word+0x124>
/home/asaf/devel/optee/optee_os/lib/libmpa/mpa_div.c:296
    788c:	b9400aa0 	ldr	w0, [x21,#8]
    7890:	7100001f 	cmp	w0, #0x0
    7894:	1a9f07e0 	cset	w0, ne
    7898:	b90006a0 	str	w0, [x21,#4]
/home/asaf/devel/optee/optee_os/lib/libmpa/mpa_div.c:297
    789c:	b94006c0 	ldr	w0, [x22,#4]
    78a0:	7100001f 	cmp	w0, #0x0
    78a4:	5a80a400 	cneg	w0, w0, lt
    78a8:	51000400 	sub	w0, w0, #0x1
    78ac:	93407c00 	sxtw	x0, w0
    78b0:	2a0003e1 	mov	w1, w0
/home/asaf/devel/optee/optee_os/lib/libmpa/mpa_div.c:298
    78b4:	3100041f 	cmn	w0, #0x1
    78b8:	540000a0 	b.eq	78cc <__mpa_div_q_r_internal_word+0x118>
    78bc:	d1000400 	sub	x0, x0, #0x1
/home/asaf/devel/optee/optee_os/lib/libmpa/mpa_div.c:298 (discriminator 1)
    78c0:	8b000a62 	add	x2, x19, x0, lsl #2
    78c4:	b9400c42 	ldr	w2, [x2,#12]
    78c8:	34ffff42 	cbz	w2, 78b0 <__mpa_div_q_r_internal_word+0xfc>
/home/asaf/devel/optee/optee_os/lib/libmpa/mpa_div.c:300
    78cc:	11000420 	add	w0, w1, #0x1
    78d0:	b9000660 	str	w0, [x19,#4]
    78d4:	17ffffce 	b	780c <__mpa_div_q_r_internal_word+0x58>
/home/asaf/devel/optee/optee_os/lib/libmpa/mpa_div.c:289
    78d8:	aa1a03e3 	mov	x3, x26
    78dc:	2a1403e2 	mov	w2, w20
    78e0:	97ffffa1 	bl	7764 <__mpa_div_dword>
/home/asaf/devel/optee/optee_os/lib/libmpa/mpa_div.c:290
    78e4:	b8376a60 	str	w0, [x19,x23]
/home/asaf/devel/optee/optee_os/lib/libmpa/mpa_div.c:291
    78e8:	b9405fa1 	ldr	w1, [x29,#92]
    78ec:	b8376aa1 	str	w1, [x21,x23]
/home/asaf/devel/optee/optee_os/lib/libmpa/mpa_div.c:293
    78f0:	b8776b20 	ldr	w0, [x25,x23]
    78f4:	d10012f7 	sub	x23, x23, #0x4
    78f8:	17ffffe3 	b	7884 <__mpa_div_q_r_internal_word+0xd0>

00000000000078fc <__mpa_div_q_r>:
__mpa_div_q_r():
/home/asaf/devel/optee/optee_os/lib/libmpa/mpa_div.c:324
    78fc:	a9b07bfd 	stp	x29, x30, [sp,#-256]!
    7900:	910003fd 	mov	x29, sp
    7904:	a90363f7 	stp	x23, x24, [sp,#48]
    7908:	aa0103f8 	mov	x24, x1
/home/asaf/devel/optee/optee_os/lib/libmpa/mpa_div.c:328
    790c:	b9400441 	ldr	w1, [x2,#4]
/home/asaf/devel/optee/optee_os/lib/libmpa/mpa_div.c:324
    7910:	a90153f3 	stp	x19, x20, [sp,#16]
    7914:	a9025bf5 	stp	x21, x22, [sp,#32]
    7918:	a9046bf9 	stp	x25, x26, [sp,#64]
    791c:	a90573fb 	stp	x27, x28, [sp,#80]
/home/asaf/devel/optee/optee_os/lib/libmpa/mpa_div.c:328
    7920:	35000181 	cbnz	w1, 7950 <__mpa_div_q_r+0x54>
/home/asaf/devel/optee/optee_os/lib/libmpa/mpa_div.c:344
    7924:	97ffff85 	bl	7738 <mpa_set_word>
/home/asaf/devel/optee/optee_os/lib/libmpa/mpa_div.c:345
    7928:	52800001 	mov	w1, #0x0                   	// #0
    792c:	aa1803e0 	mov	x0, x24
    7930:	97ffff82 	bl	7738 <mpa_set_word>
/home/asaf/devel/optee/optee_os/lib/libmpa/mpa_div.c:360
    7934:	a94153f3 	ldp	x19, x20, [sp,#16]
    7938:	a9425bf5 	ldp	x21, x22, [sp,#32]
    793c:	a94363f7 	ldp	x23, x24, [sp,#48]
    7940:	a9446bf9 	ldp	x25, x26, [sp,#64]
    7944:	a94573fb 	ldp	x27, x28, [sp,#80]
    7948:	a8d07bfd 	ldp	x29, x30, [sp],#256
    794c:	d65f03c0 	ret
    7950:	aa0003f3 	mov	x19, x0
/home/asaf/devel/optee/optee_os/lib/libmpa/mpa_div.c:333
    7954:	b9400460 	ldr	w0, [x3,#4]
    7958:	aa0303f4 	mov	x20, x3
    795c:	34fffec0 	cbz	w0, 7934 <__mpa_div_q_r+0x38>
    7960:	aa0203fa 	mov	x26, x2
    7964:	aa0403f7 	mov	x23, x4
/home/asaf/devel/optee/optee_os/lib/libmpa/mpa_div.c:340
    7968:	36f82ee1 	tbz	w1, #31, 7f44 <__mpa_div_q_r+0x648>
/home/asaf/devel/optee/optee_os/lib/libmpa/mpa_div.c:341
    796c:	7100001f 	cmp	w0, #0x0
    7970:	12800001 	mov	w1, #0xffffffff            	// #-1
    7974:	5a81a420 	cneg	w0, w1, lt
    7978:	14000176 	b	7f50 <__mpa_div_q_r+0x654>
/home/asaf/devel/optee/optee_os/lib/libmpa/mpa_div.c:348
    797c:	54002d6d 	b.le	7f28 <__mpa_div_q_r+0x62c>
/home/asaf/devel/optee/optee_os/lib/libmpa/mpa_div.c:349
    7980:	b9400680 	ldr	w0, [x20,#4]
    7984:	7100001f 	cmp	w0, #0x0
    7988:	5a80a400 	cneg	w0, w0, lt
    798c:	7100041f 	cmp	w0, #0x1
    7990:	54002c0d 	b.le	7f10 <__mpa_div_q_r+0x614>
__mpa_div_q_r_internal():
/home/asaf/devel/optee/optee_os/lib/libmpa/mpa_div.c:125
    7994:	9103a3a0 	add	x0, x29, #0xe8
    7998:	aa1703e1 	mov	x1, x23
    799c:	f9005fa0 	str	x0, [x29,#184]
    79a0:	94000419 	bl	8a04 <mpa_alloc_static_temp_var>
/home/asaf/devel/optee/optee_os/lib/libmpa/mpa_div.c:126
    79a4:	9103c3a0 	add	x0, x29, #0xf0
    79a8:	aa1703e1 	mov	x1, x23
    79ac:	f9005ba0 	str	x0, [x29,#176]
    79b0:	94000415 	bl	8a04 <mpa_alloc_static_temp_var>
/home/asaf/devel/optee/optee_os/lib/libmpa/mpa_div.c:127
    79b4:	f9407ba0 	ldr	x0, [x29,#240]
    79b8:	aa1403e1 	mov	x1, x20
    79bc:	97fffd00 	bl	6dbc <mpa_copy>
/home/asaf/devel/optee/optee_os/lib/libmpa/mpa_div.c:134
    79c0:	9103e3a0 	add	x0, x29, #0xf8
    79c4:	aa1703e1 	mov	x1, x23
    79c8:	f90057a0 	str	x0, [x29,#168]
    79cc:	9400040e 	bl	8a04 <mpa_alloc_static_temp_var>
/home/asaf/devel/optee/optee_os/lib/libmpa/mpa_div.c:135
    79d0:	f9407fa0 	ldr	x0, [x29,#248]
    79d4:	aa1a03e1 	mov	x1, x26
    79d8:	97fffcf9 	bl	6dbc <mpa_copy>
/home/asaf/devel/optee/optee_os/lib/libmpa/mpa_div.c:136
    79dc:	f9407fa1 	ldr	x1, [x29,#248]
    79e0:	b9400420 	ldr	w0, [x1,#4]
    79e4:	36f80060 	tbz	w0, #31, 79f0 <__mpa_div_q_r+0xf4>
    79e8:	4b0003e0 	neg	w0, w0
    79ec:	b9000420 	str	w0, [x1,#4]
/home/asaf/devel/optee/optee_os/lib/libmpa/mpa_div.c:137
    79f0:	f9407ba2 	ldr	x2, [x29,#240]
    79f4:	b9400440 	ldr	w0, [x2,#4]
    79f8:	36f80060 	tbz	w0, #31, 7a04 <__mpa_div_q_r+0x108>
    79fc:	4b0003e0 	neg	w0, w0
    7a00:	b9000440 	str	w0, [x2,#4]
/home/asaf/devel/optee/optee_os/lib/libmpa/mpa_div.c:143
    7a04:	b9400440 	ldr	w0, [x2,#4]
/home/asaf/devel/optee/optee_os/lib/libmpa/mpa_div.c:142
    7a08:	52800019 	mov	w25, #0x0                   	// #0
/home/asaf/devel/optee/optee_os/lib/libmpa/mpa_div.c:143
    7a0c:	7100001f 	cmp	w0, #0x0
    7a10:	5a80a400 	cneg	w0, w0, lt
    7a14:	51000400 	sub	w0, w0, #0x1
    7a18:	8b20c840 	add	x0, x2, w0, sxtw #2
    7a1c:	52800002 	mov	w2, #0x0                   	// #0
    7a20:	b9400800 	ldr	w0, [x0,#8]
    7a24:	b900d7a0 	str	w0, [x29,#212]
/home/asaf/devel/optee/optee_os/lib/libmpa/mpa_div.c:144
    7a28:	36f80fc0 	tbz	w0, #31, 7c20 <__mpa_div_q_r+0x324>
    7a2c:	34000042 	cbz	w2, 7a34 <__mpa_div_q_r+0x138>
    7a30:	b900d7a0 	str	w0, [x29,#212]
/home/asaf/devel/optee/optee_os/lib/libmpa/mpa_div.c:148
    7a34:	34000119 	cbz	w25, 7a54 <__mpa_div_q_r+0x158>
/home/asaf/devel/optee/optee_os/lib/libmpa/mpa_div.c:149
    7a38:	aa0103e0 	mov	x0, x1
    7a3c:	2a1903e2 	mov	w2, w25
    7a40:	94000585 	bl	9054 <mpa_shift_left>
/home/asaf/devel/optee/optee_os/lib/libmpa/mpa_div.c:150
    7a44:	f9407ba1 	ldr	x1, [x29,#240]
    7a48:	2a1903e2 	mov	w2, w25
    7a4c:	aa0103e0 	mov	x0, x1
    7a50:	94000581 	bl	9054 <mpa_shift_left>
/home/asaf/devel/optee/optee_os/lib/libmpa/mpa_div.c:153
    7a54:	f9407fa0 	ldr	x0, [x29,#248]
    7a58:	b9400416 	ldr	w22, [x0,#4]
/home/asaf/devel/optee/optee_os/lib/libmpa/mpa_div.c:154
    7a5c:	f9407ba0 	ldr	x0, [x29,#240]
    7a60:	b9400400 	ldr	w0, [x0,#4]
    7a64:	b900cfa0 	str	w0, [x29,#204]
/home/asaf/devel/optee/optee_os/lib/libmpa/mpa_div.c:155
    7a68:	2a0003e0 	mov	w0, w0
    7a6c:	4b0002c0 	sub	w0, w22, w0
    7a70:	b900cba0 	str	w0, [x29,#200]
/home/asaf/devel/optee/optee_os/lib/libmpa/mpa_div.c:157
    7a74:	aa1303e0 	mov	x0, x19
    7a78:	97fffcc5 	bl	6d8c <mpa_wipe>
/home/asaf/devel/optee/optee_os/lib/libmpa/mpa_div.c:163
    7a7c:	b940cba1 	ldr	w1, [x29,#200]
    7a80:	f9407ba0 	ldr	x0, [x29,#240]
    7a84:	94000535 	bl	8f58 <__mpa_shift_words_left>
/home/asaf/devel/optee/optee_os/lib/libmpa/mpa_div.c:169
    7a88:	a94f07a2 	ldp	x2, x1, [x29,#240]
/home/asaf/devel/optee/optee_os/lib/libmpa/mpa_div.c:166
    7a8c:	52800025 	mov	w5, #0x1                   	// #1
/home/asaf/devel/optee/optee_os/lib/libmpa/mpa_div.c:165
    7a90:	b9400444 	ldr	w4, [x2,#4]
    7a94:	7100009f 	cmp	w4, #0x0
    7a98:	5a84a484 	cneg	w4, w4, lt
    7a9c:	51000483 	sub	w3, w4, #0x1
    7aa0:	2a0403e0 	mov	w0, w4
    7aa4:	93407c63 	sxtw	x3, w3
    7aa8:	91000863 	add	x3, x3, #0x2
    7aac:	d37ef463 	lsl	x3, x3, #2
/home/asaf/devel/optee/optee_os/lib/libmpa/mpa_div.c:167
    7ab0:	7100001f 	cmp	w0, #0x0
    7ab4:	1a9fd7e6 	cset	w6, gt
    7ab8:	6a0500df 	tst	w6, w5
    7abc:	54000ba1 	b.ne	7c30 <__mpa_div_q_r+0x334>
/home/asaf/devel/optee/optee_os/lib/libmpa/mpa_div.c:171
    7ac0:	350002a5 	cbnz	w5, 7b14 <__mpa_div_q_r+0x218>
    7ac4:	b9400423 	ldr	w3, [x1,#4]
    7ac8:	7100007f 	cmp	w3, #0x0
    7acc:	5a83a463 	cneg	w3, w3, lt
    7ad0:	6b03001f 	cmp	w0, w3
    7ad4:	5400250a 	b.ge	7f74 <__mpa_div_q_r+0x678>
    7ad8:	8b20c823 	add	x3, x1, w0, sxtw #2
    7adc:	6b00009f 	cmp	w4, w0
    7ae0:	b9400863 	ldr	w3, [x3,#8]
    7ae4:	5400006d 	b.le	7af0 <__mpa_div_q_r+0x1f4>
    7ae8:	8b20c840 	add	x0, x2, w0, sxtw #2
    7aec:	b9400805 	ldr	w5, [x0,#8]
    7af0:	6b0300bf 	cmp	w5, w3
    7af4:	54000102 	b.cs	7b14 <__mpa_div_q_r+0x218>
/home/asaf/devel/optee/optee_os/lib/libmpa/mpa_div.c:172
    7af8:	b940cba0 	ldr	w0, [x29,#200]
    7afc:	52800023 	mov	w3, #0x1                   	// #1
    7b00:	8b20ca60 	add	x0, x19, w0, sxtw #2
    7b04:	b9000803 	str	w3, [x0,#8]
/home/asaf/devel/optee/optee_os/lib/libmpa/mpa_div.c:173
    7b08:	aa1703e3 	mov	x3, x23
    7b0c:	aa0103e0 	mov	x0, x1
    7b10:	94000734 	bl	97e0 <mpa_sub>
/home/asaf/devel/optee/optee_os/lib/libmpa/mpa_div.c:177
    7b14:	f9407fa0 	ldr	x0, [x29,#248]
    7b18:	510006d6 	sub	w22, w22, #0x1
    7b1c:	b9400415 	ldr	w21, [x0,#4]
    7b20:	b940cfa0 	ldr	w0, [x29,#204]
    7b24:	510006b4 	sub	w20, w21, #0x1
    7b28:	51000ab5 	sub	w21, w21, #0x2
    7b2c:	93407e9b 	sxtw	x27, w20
    7b30:	4b000294 	sub	w20, w20, w0
/home/asaf/devel/optee/optee_os/lib/libmpa/mpa_div.c:195
    7b34:	910353a0 	add	x0, x29, #0xd4
    7b38:	f9003ba0 	str	x0, [x29,#112]
    7b3c:	910363a0 	add	x0, x29, #0xd8
    7b40:	8b34ca74 	add	x20, x19, w20, sxtw #2
    7b44:	f90053a0 	str	x0, [x29,#160]
/home/asaf/devel/optee/optee_os/lib/libmpa/mpa_div.c:202
    7b48:	910373a0 	add	x0, x29, #0xdc
    7b4c:	93407eb5 	sxtw	x21, w21
    7b50:	f9004fa0 	str	x0, [x29,#152]
    7b54:	91002294 	add	x20, x20, #0x8
    7b58:	910383a0 	add	x0, x29, #0xe0
    7b5c:	f90037a0 	str	x0, [x29,#104]
/home/asaf/devel/optee/optee_os/lib/libmpa/mpa_div.c:206
    7b60:	910393a0 	add	x0, x29, #0xe4
    7b64:	f9004ba0 	str	x0, [x29,#144]
/home/asaf/devel/optee/optee_os/lib/libmpa/mpa_div.c:178
    7b68:	b940cfa0 	ldr	w0, [x29,#204]
    7b6c:	2a1b03fc 	mov	w28, w27
    7b70:	6b1b001f 	cmp	w0, w27
    7b74:	540007ed 	b.le	7c70 <__mpa_div_q_r+0x374>
    7b78:	b980cba0 	ldrsw	x0, [x29,#200]
    7b7c:	2a0003e1 	mov	w1, w0
/home/asaf/devel/optee/optee_os/lib/libmpa/mpa_div.c:239
    7b80:	36f81be0 	tbz	w0, #31, 7efc <__mpa_div_q_r+0x600>
/home/asaf/devel/optee/optee_os/lib/libmpa/mpa_div.c:241
    7b84:	11000421 	add	w1, w1, #0x1
    7b88:	b9000661 	str	w1, [x19,#4]
/home/asaf/devel/optee/optee_os/lib/libmpa/mpa_div.c:245
    7b8c:	f9407fa1 	ldr	x1, [x29,#248]
    7b90:	2a1903e2 	mov	w2, w25
    7b94:	aa0103e0 	mov	x0, x1
    7b98:	94000593 	bl	91e4 <mpa_shift_right>
/home/asaf/devel/optee/optee_os/lib/libmpa/mpa_div.c:246
    7b9c:	f9407fa1 	ldr	x1, [x29,#248]
    7ba0:	aa1803e0 	mov	x0, x24
    7ba4:	97fffc86 	bl	6dbc <mpa_copy>
/home/asaf/devel/optee/optee_os/lib/libmpa/mpa_div.c:251
    7ba8:	f9405fa0 	ldr	x0, [x29,#184]
    7bac:	aa1703e1 	mov	x1, x23
    7bb0:	94000399 	bl	8a14 <mpa_free_static_temp_var>
/home/asaf/devel/optee/optee_os/lib/libmpa/mpa_div.c:252
    7bb4:	f9405ba0 	ldr	x0, [x29,#176]
    7bb8:	aa1703e1 	mov	x1, x23
    7bbc:	94000396 	bl	8a14 <mpa_free_static_temp_var>
/home/asaf/devel/optee/optee_os/lib/libmpa/mpa_div.c:253
    7bc0:	f94057a0 	ldr	x0, [x29,#168]
    7bc4:	aa1703e1 	mov	x1, x23
    7bc8:	94000393 	bl	8a14 <mpa_free_static_temp_var>
__mpa_div_q_r():
/home/asaf/devel/optee/optee_os/lib/libmpa/mpa_div.c:358
    7bcc:	b9400660 	ldr	w0, [x19,#4]
    7bd0:	12800001 	mov	w1, #0xffffffff            	// #-1
    7bd4:	b940c3a2 	ldr	w2, [x29,#192]
    7bd8:	6b01001f 	cmp	w0, w1
    7bdc:	5a81d421 	cneg	w1, w1, gt
    7be0:	6b01005f 	cmp	w2, w1
    7be4:	54000060 	b.eq	7bf0 <__mpa_div_q_r+0x2f4>
/home/asaf/devel/optee/optee_os/lib/libmpa/mpa_div.c:358 (discriminator 5)
    7be8:	4b0003e0 	neg	w0, w0
    7bec:	b9000660 	str	w0, [x19,#4]
/home/asaf/devel/optee/optee_os/lib/libmpa/mpa_div.c:359
    7bf0:	b9400701 	ldr	w1, [x24,#4]
    7bf4:	12800000 	mov	w0, #0xffffffff            	// #-1
    7bf8:	b9400743 	ldr	w3, [x26,#4]
    7bfc:	6b00003f 	cmp	w1, w0
    7c00:	5a80d402 	cneg	w2, w0, gt
    7c04:	6b00007f 	cmp	w3, w0
    7c08:	5a80d400 	cneg	w0, w0, gt
    7c0c:	6b00005f 	cmp	w2, w0
    7c10:	54ffe920 	b.eq	7934 <__mpa_div_q_r+0x38>
/home/asaf/devel/optee/optee_os/lib/libmpa/mpa_div.c:359 (discriminator 9)
    7c14:	4b0103e1 	neg	w1, w1
    7c18:	b9000701 	str	w1, [x24,#4]
    7c1c:	17ffff46 	b	7934 <__mpa_div_q_r+0x38>
__mpa_div_q_r_internal():
/home/asaf/devel/optee/optee_os/lib/libmpa/mpa_div.c:145
    7c20:	11000739 	add	w25, w25, #0x1
/home/asaf/devel/optee/optee_os/lib/libmpa/mpa_div.c:146
    7c24:	531f7800 	lsl	w0, w0, #1
    7c28:	52800022 	mov	w2, #0x1                   	// #1
    7c2c:	17ffff7f 	b	7a28 <__mpa_div_q_r+0x12c>
/home/asaf/devel/optee/optee_os/lib/libmpa/mpa_div.c:169
    7c30:	b9400425 	ldr	w5, [x1,#4]
/home/asaf/devel/optee/optee_os/lib/libmpa/mpa_div.c:168
    7c34:	51000400 	sub	w0, w0, #0x1
/home/asaf/devel/optee/optee_os/lib/libmpa/mpa_div.c:169
    7c38:	52800006 	mov	w6, #0x0                   	// #0
    7c3c:	710000bf 	cmp	w5, #0x0
    7c40:	5a85a4a5 	cneg	w5, w5, lt
    7c44:	6b05001f 	cmp	w0, w5
    7c48:	5400004a 	b.ge	7c50 <__mpa_div_q_r+0x354>
    7c4c:	b8636826 	ldr	w6, [x1,x3]
    7c50:	52800005 	mov	w5, #0x0                   	// #0
    7c54:	6b00009f 	cmp	w4, w0
    7c58:	5400004d 	b.le	7c60 <__mpa_div_q_r+0x364>
    7c5c:	b8636845 	ldr	w5, [x2,x3]
    7c60:	6b0500df 	cmp	w6, w5
    7c64:	d1001063 	sub	x3, x3, #0x4
    7c68:	1a9f17e5 	cset	w5, eq
    7c6c:	17ffff91 	b	7ab0 <__mpa_div_q_r+0x1b4>
/home/asaf/devel/optee/optee_os/lib/libmpa/mpa_div.c:179
    7c70:	f9407fa5 	ldr	x5, [x29,#248]
    7c74:	52800001 	mov	w1, #0x0                   	// #0
    7c78:	b94004a0 	ldr	w0, [x5,#4]
    7c7c:	7100001f 	cmp	w0, #0x0
    7c80:	5a80a403 	cneg	w3, w0, lt
    7c84:	6b1b007f 	cmp	w3, w27
    7c88:	5400006d 	b.le	7c94 <__mpa_div_q_r+0x398>
    7c8c:	8b3cc8a0 	add	x0, x5, w28, sxtw #2
    7c90:	b9400801 	ldr	w1, [x0,#8]
/home/asaf/devel/optee/optee_os/lib/libmpa/mpa_div.c:180
    7c94:	f9407ba6 	ldr	x6, [x29,#240]
    7c98:	110006c0 	add	w0, w22, #0x1
    7c9c:	b9008fa0 	str	w0, [x29,#140]
    7ca0:	110006c4 	add	w4, w22, #0x1
    7ca4:	52800002 	mov	w2, #0x0                   	// #0
    7ca8:	b94004c0 	ldr	w0, [x6,#4]
    7cac:	7100001f 	cmp	w0, #0x0
    7cb0:	5a80a400 	cneg	w0, w0, lt
    7cb4:	6b04001f 	cmp	w0, w4
    7cb8:	5400006b 	b.lt	7cc4 <__mpa_div_q_r+0x3c8>
    7cbc:	8b36c8c6 	add	x6, x6, w22, sxtw #2
    7cc0:	b94008c2 	ldr	w2, [x6,#8]
    7cc4:	b940cfa0 	ldr	w0, [x29,#204]
/home/asaf/devel/optee/optee_os/lib/libmpa/mpa_div.c:179
    7cc8:	6b02003f 	cmp	w1, w2
    7ccc:	4b000360 	sub	w0, w27, w0
    7cd0:	b900c7a0 	str	w0, [x29,#196]
    7cd4:	54000561 	b.ne	7d80 <__mpa_div_q_r+0x484>
/home/asaf/devel/optee/optee_os/lib/libmpa/mpa_div.c:181
    7cd8:	8b20ca60 	add	x0, x19, w0, sxtw #2
    7cdc:	12800001 	mov	w1, #0xffffffff            	// #-1
    7ce0:	b9000801 	str	w1, [x0,#8]
/home/asaf/devel/optee/optee_os/lib/libmpa/mpa_div.c:217
    7ce4:	510006a0 	sub	w0, w21, #0x1
    7ce8:	937e7c00 	sbfiz	x0, x0, #2, #32
    7cec:	f90043a0 	str	x0, [x29,#128]
/home/asaf/devel/optee/optee_os/lib/libmpa/mpa_div.c:202
    7cf0:	510006c0 	sub	w0, w22, #0x1
    7cf4:	93407c00 	sxtw	x0, w0
    7cf8:	f9003fa0 	str	x0, [x29,#120]
/home/asaf/devel/optee/optee_os/lib/libmpa/mpa_div.c:196
    7cfc:	f9407ba3 	ldr	x3, [x29,#240]
/home/asaf/devel/optee/optee_os/lib/libmpa/mpa_div.c:195
    7d00:	b9408fa4 	ldr	w4, [x29,#140]
/home/asaf/devel/optee/optee_os/lib/libmpa/mpa_div.c:192
    7d04:	b900d7bf 	str	wzr, [x29,#212]
/home/asaf/devel/optee/optee_os/lib/libmpa/mpa_div.c:193
    7d08:	b900dfbf 	str	wzr, [x29,#220]
/home/asaf/devel/optee/optee_os/lib/libmpa/mpa_div.c:196
    7d0c:	b9400461 	ldr	w1, [x3,#4]
/home/asaf/devel/optee/optee_os/lib/libmpa/mpa_div.c:194
    7d10:	b900e7bf 	str	wzr, [x29,#228]
/home/asaf/devel/optee/optee_os/lib/libmpa/mpa_div.c:196
    7d14:	7100003f 	cmp	w1, #0x0
/home/asaf/devel/optee/optee_os/lib/libmpa/mpa_div.c:195
    7d18:	b9400280 	ldr	w0, [x20]
/home/asaf/devel/optee/optee_os/lib/libmpa/mpa_div.c:196
    7d1c:	5a81a422 	cneg	w2, w1, lt
/home/asaf/devel/optee/optee_os/lib/libmpa/mpa_div.c:195
    7d20:	52800001 	mov	w1, #0x0                   	// #0
    7d24:	6b04005f 	cmp	w2, w4
    7d28:	5400006b 	b.lt	7d34 <__mpa_div_q_r+0x438>
    7d2c:	8b36c863 	add	x3, x3, w22, sxtw #2
    7d30:	b9400861 	ldr	w1, [x3,#8]
    7d34:	f94053a2 	ldr	x2, [x29,#160]
    7d38:	f9403ba3 	ldr	x3, [x29,#112]
    7d3c:	94000349 	bl	8a60 <__mpa_mul_add_word>
/home/asaf/devel/optee/optee_os/lib/libmpa/mpa_div.c:199
    7d40:	f9407fa1 	ldr	x1, [x29,#248]
    7d44:	52800002 	mov	w2, #0x0                   	// #0
    7d48:	b9400420 	ldr	w0, [x1,#4]
    7d4c:	7100001f 	cmp	w0, #0x0
    7d50:	5a80a400 	cneg	w0, w0, lt
    7d54:	6b00039f 	cmp	w28, w0
    7d58:	5400006a 	b.ge	7d64 <__mpa_div_q_r+0x468>
    7d5c:	8b3cc821 	add	x1, x1, w28, sxtw #2
    7d60:	b9400822 	ldr	w2, [x1,#8]
    7d64:	b940d7a0 	ldr	w0, [x29,#212]
    7d68:	6b02001f 	cmp	w0, w2
    7d6c:	54000209 	b.ls	7dac <__mpa_div_q_r+0x4b0>
/home/asaf/devel/optee/optee_os/lib/libmpa/mpa_div.c:221
    7d70:	b9400280 	ldr	w0, [x20]
    7d74:	51000400 	sub	w0, w0, #0x1
    7d78:	b9000280 	str	w0, [x20]
    7d7c:	17ffffe0 	b	7cfc <__mpa_div_q_r+0x400>
/home/asaf/devel/optee/optee_os/lib/libmpa/mpa_div.c:184
    7d80:	52800000 	mov	w0, #0x0                   	// #0
    7d84:	6b1c007f 	cmp	w3, w28
    7d88:	5400006b 	b.lt	7d94 <__mpa_div_q_r+0x498>
    7d8c:	8b35c8a5 	add	x5, x5, w21, sxtw #2
    7d90:	b94008a0 	ldr	w0, [x5,#8]
    7d94:	d2800003 	mov	x3, #0x0                   	// #0
    7d98:	97fffe73 	bl	7764 <__mpa_div_dword>
/home/asaf/devel/optee/optee_os/lib/libmpa/mpa_div.c:183
    7d9c:	b940c7a1 	ldr	w1, [x29,#196]
    7da0:	8b21ca61 	add	x1, x19, w1, sxtw #2
    7da4:	b9000820 	str	w0, [x1,#8]
    7da8:	17ffffcf 	b	7ce4 <__mpa_div_q_r+0x3e8>
/home/asaf/devel/optee/optee_os/lib/libmpa/mpa_div.c:203
    7dac:	f9407ba3 	ldr	x3, [x29,#240]
/home/asaf/devel/optee/optee_os/lib/libmpa/mpa_div.c:202
    7db0:	b9400280 	ldr	w0, [x20]
/home/asaf/devel/optee/optee_os/lib/libmpa/mpa_div.c:203
    7db4:	b9400461 	ldr	w1, [x3,#4]
    7db8:	7100003f 	cmp	w1, #0x0
    7dbc:	5a81a422 	cneg	w2, w1, lt
/home/asaf/devel/optee/optee_os/lib/libmpa/mpa_div.c:202
    7dc0:	52800001 	mov	w1, #0x0                   	// #0
    7dc4:	6b0202df 	cmp	w22, w2
    7dc8:	5400008c 	b.gt	7dd8 <__mpa_div_q_r+0x4dc>
    7dcc:	f9403fa1 	ldr	x1, [x29,#120]
    7dd0:	8b010863 	add	x3, x3, x1, lsl #2
    7dd4:	b9400861 	ldr	w1, [x3,#8]
    7dd8:	f94037a2 	ldr	x2, [x29,#104]
    7ddc:	f9404fa3 	ldr	x3, [x29,#152]
    7de0:	94000320 	bl	8a60 <__mpa_mul_add_word>
/home/asaf/devel/optee/optee_os/lib/libmpa/mpa_div.c:206
    7de4:	295b07a0 	ldp	w0, w1, [x29,#216]
    7de8:	a9490ba3 	ldp	x3, x2, [x29,#144]
    7dec:	9400054f 	bl	9328 <__mpa_full_adder>
/home/asaf/devel/optee/optee_os/lib/libmpa/mpa_div.c:207
    7df0:	b900dbbf 	str	wzr, [x29,#216]
/home/asaf/devel/optee/optee_os/lib/libmpa/mpa_div.c:208
    7df4:	f9404ba2 	ldr	x2, [x29,#144]
    7df8:	b940d7a0 	ldr	w0, [x29,#212]
    7dfc:	b940e7a1 	ldr	w1, [x29,#228]
    7e00:	f94053a3 	ldr	x3, [x29,#160]
    7e04:	94000549 	bl	9328 <__mpa_full_adder>
/home/asaf/devel/optee/optee_os/lib/libmpa/mpa_div.c:209
    7e08:	b940dba2 	ldr	w2, [x29,#216]
    7e0c:	35fffb22 	cbnz	w2, 7d70 <__mpa_div_q_r+0x474>
    7e10:	f9407fa1 	ldr	x1, [x29,#248]
    7e14:	52800003 	mov	w3, #0x0                   	// #0
    7e18:	b9400420 	ldr	w0, [x1,#4]
    7e1c:	7100001f 	cmp	w0, #0x0
    7e20:	5a80a400 	cneg	w0, w0, lt
    7e24:	6b00039f 	cmp	w28, w0
    7e28:	5400006a 	b.ge	7e34 <__mpa_div_q_r+0x538>
    7e2c:	8b3cc823 	add	x3, x1, w28, sxtw #2
    7e30:	b9400863 	ldr	w3, [x3,#8]
    7e34:	b940e7a5 	ldr	w5, [x29,#228]
    7e38:	6b0300bf 	cmp	w5, w3
    7e3c:	54fff9a8 	b.hi	7d70 <__mpa_div_q_r+0x474>
/home/asaf/devel/optee/optee_os/lib/libmpa/mpa_div.c:211
    7e40:	54000243 	b.cc	7e88 <__mpa_div_q_r+0x58c>
/home/asaf/devel/optee/optee_os/lib/libmpa/mpa_div.c:213
    7e44:	52800003 	mov	w3, #0x0                   	// #0
    7e48:	6b00039f 	cmp	w28, w0
    7e4c:	5400006c 	b.gt	7e58 <__mpa_div_q_r+0x55c>
    7e50:	8b35c823 	add	x3, x1, w21, sxtw #2
    7e54:	b9400863 	ldr	w3, [x3,#8]
    7e58:	b940dfa5 	ldr	w5, [x29,#220]
    7e5c:	6b0300bf 	cmp	w5, w3
    7e60:	54fff888 	b.hi	7d70 <__mpa_div_q_r+0x474>
/home/asaf/devel/optee/optee_os/lib/libmpa/mpa_div.c:215
    7e64:	54000123 	b.cc	7e88 <__mpa_div_q_r+0x58c>
/home/asaf/devel/optee/optee_os/lib/libmpa/mpa_div.c:217
    7e68:	6b15001f 	cmp	w0, w21
    7e6c:	5400008b 	b.lt	7e7c <__mpa_div_q_r+0x580>
    7e70:	f94043a0 	ldr	x0, [x29,#128]
    7e74:	8b000021 	add	x1, x1, x0
    7e78:	b9400822 	ldr	w2, [x1,#8]
    7e7c:	b940e3a0 	ldr	w0, [x29,#224]
    7e80:	6b02001f 	cmp	w0, w2
    7e84:	54fff768 	b.hi	7d70 <__mpa_div_q_r+0x474>
/home/asaf/devel/optee/optee_os/lib/libmpa/mpa_div.c:225
    7e88:	f9407ba0 	ldr	x0, [x29,#240]
    7e8c:	52800021 	mov	w1, #0x1                   	// #1
    7e90:	94000458 	bl	8ff0 <__mpa_shift_words_right>
    7e94:	b940c7a0 	ldr	w0, [x29,#196]
/home/asaf/devel/optee/optee_os/lib/libmpa/mpa_div.c:227
    7e98:	aa1703e3 	mov	x3, x23
    7e9c:	8b20ca7c 	add	x28, x19, w0, sxtw #2
    7ea0:	a94e87a0 	ldp	x0, x1, [x29,#232]
    7ea4:	b9400b82 	ldr	w2, [x28,#8]
    7ea8:	94000398 	bl	8d08 <mpa_mul_word>
/home/asaf/devel/optee/optee_os/lib/libmpa/mpa_div.c:228
    7eac:	f9407fa1 	ldr	x1, [x29,#248]
    7eb0:	aa1703e3 	mov	x3, x23
    7eb4:	f94077a2 	ldr	x2, [x29,#232]
    7eb8:	aa0103e0 	mov	x0, x1
    7ebc:	94000649 	bl	97e0 <mpa_sub>
/home/asaf/devel/optee/optee_os/lib/libmpa/mpa_div.c:229
    7ec0:	f9407fa1 	ldr	x1, [x29,#248]
    7ec4:	b9400420 	ldr	w0, [x1,#4]
    7ec8:	36f80100 	tbz	w0, #31, 7ee8 <__mpa_div_q_r+0x5ec>
/home/asaf/devel/optee/optee_os/lib/libmpa/mpa_div.c:230
    7ecc:	f9407ba2 	ldr	x2, [x29,#240]
    7ed0:	aa0103e0 	mov	x0, x1
    7ed4:	aa1703e3 	mov	x3, x23
    7ed8:	940005dd 	bl	964c <mpa_add>
/home/asaf/devel/optee/optee_os/lib/libmpa/mpa_div.c:231
    7edc:	b9400b80 	ldr	w0, [x28,#8]
    7ee0:	51000400 	sub	w0, w0, #0x1
    7ee4:	b9000b80 	str	w0, [x28,#8]
    7ee8:	d100077b 	sub	x27, x27, #0x1
    7eec:	d10006b5 	sub	x21, x21, #0x1
    7ef0:	d1001294 	sub	x20, x20, #0x4
    7ef4:	510006d6 	sub	w22, w22, #0x1
    7ef8:	17ffff1c 	b	7b68 <__mpa_div_q_r+0x26c>
    7efc:	d1000400 	sub	x0, x0, #0x1
/home/asaf/devel/optee/optee_os/lib/libmpa/mpa_div.c:239
    7f00:	8b000a62 	add	x2, x19, x0, lsl #2
    7f04:	b9400c42 	ldr	w2, [x2,#12]
    7f08:	34ffe3a2 	cbz	w2, 7b7c <__mpa_div_q_r+0x280>
    7f0c:	17ffff1e 	b	7b84 <__mpa_div_q_r+0x288>
__mpa_div_q_r():
/home/asaf/devel/optee/optee_os/lib/libmpa/mpa_div.c:352
    7f10:	b9400a83 	ldr	w3, [x20,#8]
    7f14:	aa1a03e2 	mov	x2, x26
    7f18:	aa1803e1 	mov	x1, x24
    7f1c:	aa1303e0 	mov	x0, x19
    7f20:	97fffe25 	bl	77b4 <__mpa_div_q_r_internal_word>
    7f24:	17ffff2a 	b	7bcc <__mpa_div_q_r+0x2d0>
/home/asaf/devel/optee/optee_os/lib/libmpa/mpa_div.c:354
    7f28:	aa1303e0 	mov	x0, x19
    7f2c:	52800001 	mov	w1, #0x0                   	// #0
    7f30:	97fffe02 	bl	7738 <mpa_set_word>
/home/asaf/devel/optee/optee_os/lib/libmpa/mpa_div.c:355
    7f34:	aa1a03e1 	mov	x1, x26
    7f38:	aa1803e0 	mov	x0, x24
    7f3c:	97fffba0 	bl	6dbc <mpa_copy>
/home/asaf/devel/optee/optee_os/lib/libmpa/mpa_div.c:356
    7f40:	17fffe7d 	b	7934 <__mpa_div_q_r+0x38>
/home/asaf/devel/optee/optee_os/lib/libmpa/mpa_div.c:341
    7f44:	12800001 	mov	w1, #0xffffffff            	// #-1
    7f48:	6b01001f 	cmp	w0, w1
    7f4c:	5a81d420 	cneg	w0, w1, gt
    7f50:	b900c3a0 	str	w0, [x29,#192]
/home/asaf/devel/optee/optee_os/lib/libmpa/mpa_div.c:342
    7f54:	aa1403e1 	mov	x1, x20
    7f58:	aa1a03e0 	mov	x0, x26
    7f5c:	94000730 	bl	9c1c <__mpa_abs_cmp>
/home/asaf/devel/optee/optee_os/lib/libmpa/mpa_div.c:343
    7f60:	7100001f 	cmp	w0, #0x0
    7f64:	54ffd0c1 	b.ne	797c <__mpa_div_q_r+0x80>
/home/asaf/devel/optee/optee_os/lib/libmpa/mpa_div.c:344
    7f68:	52800021 	mov	w1, #0x1                   	// #1
    7f6c:	aa1303e0 	mov	x0, x19
    7f70:	17fffe6d 	b	7924 <__mpa_div_q_r+0x28>
__mpa_div_q_r_internal():
/home/asaf/devel/optee/optee_os/lib/libmpa/mpa_div.c:171
    7f74:	6b00009f 	cmp	w4, w0
    7f78:	54ffdced 	b.le	7b14 <__mpa_div_q_r+0x218>
    7f7c:	52800003 	mov	w3, #0x0                   	// #0
    7f80:	17fffeda 	b	7ae8 <__mpa_div_q_r+0x1ec>

0000000000007f84 <mpa_div>:
mpa_div():
/home/asaf/devel/optee/optee_os/lib/libmpa/mpa_div.c:379
    7f84:	a9ba7bfd 	stp	x29, x30, [sp,#-96]!
/home/asaf/devel/optee/optee_os/lib/libmpa/mpa_div.c:386
    7f88:	eb02001f 	cmp	x0, x2
    7f8c:	fa431004 	ccmp	x0, x3, #0x4, ne
/home/asaf/devel/optee/optee_os/lib/libmpa/mpa_div.c:379
    7f90:	910003fd 	mov	x29, sp
    7f94:	a90153f3 	stp	x19, x20, [sp,#16]
/home/asaf/devel/optee/optee_os/lib/libmpa/mpa_div.c:386
    7f98:	fa401804 	ccmp	x0, #0x0, #0x4, ne
/home/asaf/devel/optee/optee_os/lib/libmpa/mpa_div.c:379
    7f9c:	a9025bf5 	stp	x21, x22, [sp,#32]
    7fa0:	aa0003f4 	mov	x20, x0
    7fa4:	a90363f7 	stp	x23, x24, [sp,#48]
    7fa8:	aa0103f3 	mov	x19, x1
    7fac:	f90023f9 	str	x25, [sp,#64]
    7fb0:	aa0203f6 	mov	x22, x2
    7fb4:	aa0303f7 	mov	x23, x3
    7fb8:	aa0403f5 	mov	x21, x4
/home/asaf/devel/optee/optee_os/lib/libmpa/mpa_div.c:386
    7fbc:	54000501 	b.ne	805c <mpa_div+0xd8>
/home/asaf/devel/optee/optee_os/lib/libmpa/mpa_div.c:388
    7fc0:	52800039 	mov	w25, #0x1                   	// #1
/home/asaf/devel/optee/optee_os/lib/libmpa/mpa_div.c:387
    7fc4:	aa0403e1 	mov	x1, x4
    7fc8:	910143a0 	add	x0, x29, #0x50
    7fcc:	9400028e 	bl	8a04 <mpa_alloc_static_temp_var>
/home/asaf/devel/optee/optee_os/lib/libmpa/mpa_div.c:395
    7fd0:	f100027f 	cmp	x19, #0x0
    7fd4:	fa5312e4 	ccmp	x23, x19, #0x4, ne
    7fd8:	fa5312c4 	ccmp	x22, x19, #0x4, ne
    7fdc:	54000461 	b.ne	8068 <mpa_div+0xe4>
/home/asaf/devel/optee/optee_os/lib/libmpa/mpa_div.c:397
    7fe0:	52800038 	mov	w24, #0x1                   	// #1
/home/asaf/devel/optee/optee_os/lib/libmpa/mpa_div.c:396
    7fe4:	aa1503e1 	mov	x1, x21
    7fe8:	910163a0 	add	x0, x29, #0x58
    7fec:	94000286 	bl	8a04 <mpa_alloc_static_temp_var>
/home/asaf/devel/optee/optee_os/lib/libmpa/mpa_div.c:403
    7ff0:	a94507a0 	ldp	x0, x1, [x29,#80]
    7ff4:	aa1503e4 	mov	x4, x21
    7ff8:	aa1703e3 	mov	x3, x23
    7ffc:	aa1603e2 	mov	x2, x22
    8000:	97fffe3f 	bl	78fc <__mpa_div_q_r>
/home/asaf/devel/optee/optee_os/lib/libmpa/mpa_div.c:405
    8004:	b4000094 	cbz	x20, 8014 <mpa_div+0x90>
/home/asaf/devel/optee/optee_os/lib/libmpa/mpa_div.c:406
    8008:	f9402ba1 	ldr	x1, [x29,#80]
    800c:	aa1403e0 	mov	x0, x20
    8010:	97fffb6b 	bl	6dbc <mpa_copy>
/home/asaf/devel/optee/optee_os/lib/libmpa/mpa_div.c:407
    8014:	34000099 	cbz	w25, 8024 <mpa_div+0xa0>
/home/asaf/devel/optee/optee_os/lib/libmpa/mpa_div.c:408
    8018:	aa1503e1 	mov	x1, x21
    801c:	910143a0 	add	x0, x29, #0x50
    8020:	9400027d 	bl	8a14 <mpa_free_static_temp_var>
/home/asaf/devel/optee/optee_os/lib/libmpa/mpa_div.c:409
    8024:	b4000093 	cbz	x19, 8034 <mpa_div+0xb0>
/home/asaf/devel/optee/optee_os/lib/libmpa/mpa_div.c:410
    8028:	f9402fa1 	ldr	x1, [x29,#88]
    802c:	aa1303e0 	mov	x0, x19
    8030:	97fffb63 	bl	6dbc <mpa_copy>
/home/asaf/devel/optee/optee_os/lib/libmpa/mpa_div.c:411
    8034:	34000098 	cbz	w24, 8044 <mpa_div+0xc0>
/home/asaf/devel/optee/optee_os/lib/libmpa/mpa_div.c:412
    8038:	aa1503e1 	mov	x1, x21
    803c:	910163a0 	add	x0, x29, #0x58
    8040:	94000275 	bl	8a14 <mpa_free_static_temp_var>
/home/asaf/devel/optee/optee_os/lib/libmpa/mpa_div.c:413
    8044:	a94153f3 	ldp	x19, x20, [sp,#16]
    8048:	a9425bf5 	ldp	x21, x22, [sp,#32]
    804c:	a94363f7 	ldp	x23, x24, [sp,#48]
    8050:	f94023f9 	ldr	x25, [sp,#64]
    8054:	a8c67bfd 	ldp	x29, x30, [sp],#96
    8058:	d65f03c0 	ret
/home/asaf/devel/optee/optee_os/lib/libmpa/mpa_div.c:391
    805c:	52800019 	mov	w25, #0x0                   	// #0
/home/asaf/devel/optee/optee_os/lib/libmpa/mpa_div.c:390
    8060:	f9002ba0 	str	x0, [x29,#80]
    8064:	17ffffdb 	b	7fd0 <mpa_div+0x4c>
/home/asaf/devel/optee/optee_os/lib/libmpa/mpa_div.c:400
    8068:	52800018 	mov	w24, #0x0                   	// #0
/home/asaf/devel/optee/optee_os/lib/libmpa/mpa_div.c:399
    806c:	f9002fb3 	str	x19, [x29,#88]
    8070:	17ffffe0 	b	7ff0 <mpa_div+0x6c>

0000000000008074 <__mpa_divby2>:
__mpa_divby2():
/home/asaf/devel/optee/optee_os/lib/libmpa/mpa_gcd.c:47
    8074:	b9400403 	ldr	w3, [x0,#4]
    8078:	7100007f 	cmp	w3, #0x0
    807c:	540002a0 	b.eq	80d0 <__mpa_divby2+0x5c>
/home/asaf/devel/optee/optee_os/lib/libmpa/mpa_gcd.c:50
    8080:	5a83a466 	cneg	w6, w3, lt
/home/asaf/devel/optee/optee_os/lib/libmpa/mpa_gcd.c:52
    8084:	b9400804 	ldr	w4, [x0,#8]
/home/asaf/devel/optee/optee_os/lib/libmpa/mpa_gcd.c:50
    8088:	510004c1 	sub	w1, w6, #0x1
/home/asaf/devel/optee/optee_os/lib/libmpa/mpa_gcd.c:53
    808c:	52800025 	mov	w5, #0x1                   	// #1
/home/asaf/devel/optee/optee_os/lib/libmpa/mpa_gcd.c:50
    8090:	8b21c801 	add	x1, x0, w1, sxtw #2
/home/asaf/devel/optee/optee_os/lib/libmpa/mpa_gcd.c:52
    8094:	53017c84 	lsr	w4, w4, #1
/home/asaf/devel/optee/optee_os/lib/libmpa/mpa_gcd.c:50
    8098:	b9400821 	ldr	w1, [x1,#8]
    809c:	53017c21 	lsr	w1, w1, #1
    80a0:	7100003f 	cmp	w1, #0x0
/home/asaf/devel/optee/optee_os/lib/libmpa/mpa_gcd.c:52
    80a4:	aa0003e1 	mov	x1, x0
/home/asaf/devel/optee/optee_os/lib/libmpa/mpa_gcd.c:50
    80a8:	1a9f17e2 	cset	w2, eq
/home/asaf/devel/optee/optee_os/lib/libmpa/mpa_gcd.c:52
    80ac:	b8008c24 	str	w4, [x1,#8]!
    80b0:	91001021 	add	x1, x1, #0x4
/home/asaf/devel/optee/optee_os/lib/libmpa/mpa_gcd.c:53 (discriminator 1)
    80b4:	6b0600bf 	cmp	w5, w6
    80b8:	540000e3 	b.cc	80d4 <__mpa_divby2+0x60>
/home/asaf/devel/optee/optee_os/lib/libmpa/mpa_gcd.c:60
    80bc:	4b020061 	sub	w1, w3, w2
    80c0:	7100007f 	cmp	w3, #0x0
    80c4:	0b020062 	add	w2, w3, w2
    80c8:	1a81b042 	csel	w2, w2, w1, lt
    80cc:	b9000402 	str	w2, [x0,#4]
    80d0:	d65f03c0 	ret
/home/asaf/devel/optee/optee_os/lib/libmpa/mpa_gcd.c:54 (discriminator 3)
    80d4:	b9400024 	ldr	w4, [x1]
/home/asaf/devel/optee/optee_os/lib/libmpa/mpa_gcd.c:53 (discriminator 3)
    80d8:	110004a5 	add	w5, w5, #0x1
/home/asaf/devel/optee/optee_os/lib/libmpa/mpa_gcd.c:55 (discriminator 3)
    80dc:	53017c87 	lsr	w7, w4, #1
    80e0:	b9000027 	str	w7, [x1]
/home/asaf/devel/optee/optee_os/lib/libmpa/mpa_gcd.c:56 (discriminator 3)
    80e4:	b85fc027 	ldur	w7, [x1,#-4]
    80e8:	4a047ce4 	eor	w4, w7, w4, lsl #31
    80ec:	b81fc024 	stur	w4, [x1,#-4]
    80f0:	17fffff0 	b	80b0 <__mpa_divby2+0x3c>

00000000000080f4 <__mpa_gcd.part.0>:
__mpa_gcd():
/home/asaf/devel/optee/optee_os/lib/libmpa/mpa_gcd.c:212
    80f4:	a9ba7bfd 	stp	x29, x30, [sp,#-96]!
    80f8:	910003fd 	mov	x29, sp
    80fc:	a9025bf5 	stp	x21, x22, [sp,#32]
/home/asaf/devel/optee/optee_os/lib/libmpa/mpa_gcd.c:226
    8100:	910123b6 	add	x22, x29, #0x48
/home/asaf/devel/optee/optee_os/lib/libmpa/mpa_gcd.c:212
    8104:	a90153f3 	stp	x19, x20, [sp,#16]
    8108:	aa0103f5 	mov	x21, x1
    810c:	aa0203f4 	mov	x20, x2
    8110:	aa0303f3 	mov	x19, x3
/home/asaf/devel/optee/optee_os/lib/libmpa/mpa_gcd.c:226
    8114:	aa0303e1 	mov	x1, x3
/home/asaf/devel/optee/optee_os/lib/libmpa/mpa_gcd.c:212
    8118:	a90363f7 	stp	x23, x24, [sp,#48]
    811c:	aa0003f8 	mov	x24, x0
/home/asaf/devel/optee/optee_os/lib/libmpa/mpa_gcd.c:226
    8120:	aa1603e0 	mov	x0, x22
    8124:	94000238 	bl	8a04 <mpa_alloc_static_temp_var>
/home/asaf/devel/optee/optee_os/lib/libmpa/mpa_gcd.c:227
    8128:	f94027a0 	ldr	x0, [x29,#72]
    812c:	aa1503e1 	mov	x1, x21
/home/asaf/devel/optee/optee_os/lib/libmpa/mpa_gcd.c:228
    8130:	910143b5 	add	x21, x29, #0x50
/home/asaf/devel/optee/optee_os/lib/libmpa/mpa_gcd.c:227
    8134:	97fffb22 	bl	6dbc <mpa_copy>
/home/asaf/devel/optee/optee_os/lib/libmpa/mpa_gcd.c:228
    8138:	aa1303e1 	mov	x1, x19
    813c:	aa1503e0 	mov	x0, x21
    8140:	94000231 	bl	8a04 <mpa_alloc_static_temp_var>
/home/asaf/devel/optee/optee_os/lib/libmpa/mpa_gcd.c:229
    8144:	f9402ba0 	ldr	x0, [x29,#80]
    8148:	aa1403e1 	mov	x1, x20
/home/asaf/devel/optee/optee_os/lib/libmpa/mpa_gcd.c:231
    814c:	52800014 	mov	w20, #0x0                   	// #0
/home/asaf/devel/optee/optee_os/lib/libmpa/mpa_gcd.c:229
    8150:	97fffb1b 	bl	6dbc <mpa_copy>
/home/asaf/devel/optee/optee_os/lib/libmpa/mpa_gcd.c:232
    8154:	f94027a0 	ldr	x0, [x29,#72]
    8158:	97fffb63 	bl	6ee4 <mpa_parity>
    815c:	34000340 	cbz	w0, 81c4 <__mpa_gcd.part.0+0xd0>
/home/asaf/devel/optee/optee_os/lib/libmpa/mpa_gcd.c:238
    8160:	910163b7 	add	x23, x29, #0x58
    8164:	aa1303e1 	mov	x1, x19
    8168:	aa1703e0 	mov	x0, x23
    816c:	94000226 	bl	8a04 <mpa_alloc_static_temp_var>
/home/asaf/devel/optee/optee_os/lib/libmpa/mpa_gcd.c:239
    8170:	f94027a0 	ldr	x0, [x29,#72]
    8174:	b9400400 	ldr	w0, [x0,#4]
    8178:	350003c0 	cbnz	w0, 81f0 <__mpa_gcd.part.0+0xfc>
/home/asaf/devel/optee/optee_os/lib/libmpa/mpa_gcd.c:256
    817c:	f9402ba1 	ldr	x1, [x29,#80]
    8180:	2a1403e2 	mov	w2, w20
    8184:	aa1803e0 	mov	x0, x24
    8188:	940003b3 	bl	9054 <mpa_shift_left>
/home/asaf/devel/optee/optee_os/lib/libmpa/mpa_gcd.c:257
    818c:	aa1303e1 	mov	x1, x19
    8190:	aa1703e0 	mov	x0, x23
    8194:	94000220 	bl	8a14 <mpa_free_static_temp_var>
/home/asaf/devel/optee/optee_os/lib/libmpa/mpa_gcd.c:258
    8198:	aa1303e1 	mov	x1, x19
    819c:	aa1603e0 	mov	x0, x22
    81a0:	9400021d 	bl	8a14 <mpa_free_static_temp_var>
/home/asaf/devel/optee/optee_os/lib/libmpa/mpa_gcd.c:259
    81a4:	aa1303e1 	mov	x1, x19
    81a8:	aa1503e0 	mov	x0, x21
    81ac:	9400021a 	bl	8a14 <mpa_free_static_temp_var>
/home/asaf/devel/optee/optee_os/lib/libmpa/mpa_gcd.c:260
    81b0:	a94153f3 	ldp	x19, x20, [sp,#16]
    81b4:	a9425bf5 	ldp	x21, x22, [sp,#32]
    81b8:	a94363f7 	ldp	x23, x24, [sp,#48]
    81bc:	a8c67bfd 	ldp	x29, x30, [sp],#96
    81c0:	d65f03c0 	ret
/home/asaf/devel/optee/optee_os/lib/libmpa/mpa_gcd.c:232
    81c4:	f9402ba0 	ldr	x0, [x29,#80]
    81c8:	97fffb47 	bl	6ee4 <mpa_parity>
    81cc:	35fffca0 	cbnz	w0, 8160 <__mpa_gcd.part.0+0x6c>
/home/asaf/devel/optee/optee_os/lib/libmpa/mpa_gcd.c:234
    81d0:	f94027a0 	ldr	x0, [x29,#72]
/home/asaf/devel/optee/optee_os/lib/libmpa/mpa_gcd.c:233
    81d4:	11000694 	add	w20, w20, #0x1
/home/asaf/devel/optee/optee_os/lib/libmpa/mpa_gcd.c:234
    81d8:	97ffffa7 	bl	8074 <__mpa_divby2>
/home/asaf/devel/optee/optee_os/lib/libmpa/mpa_gcd.c:235
    81dc:	f9402ba0 	ldr	x0, [x29,#80]
    81e0:	97ffffa5 	bl	8074 <__mpa_divby2>
    81e4:	17ffffdc 	b	8154 <__mpa_gcd.part.0+0x60>
/home/asaf/devel/optee/optee_os/lib/libmpa/mpa_gcd.c:241
    81e8:	f94027a0 	ldr	x0, [x29,#72]
    81ec:	97ffffa2 	bl	8074 <__mpa_divby2>
/home/asaf/devel/optee/optee_os/lib/libmpa/mpa_gcd.c:240
    81f0:	f94027a0 	ldr	x0, [x29,#72]
    81f4:	97fffb3c 	bl	6ee4 <mpa_parity>
    81f8:	34ffff80 	cbz	w0, 81e8 <__mpa_gcd.part.0+0xf4>
/home/asaf/devel/optee/optee_os/lib/libmpa/mpa_gcd.c:243
    81fc:	f9402ba0 	ldr	x0, [x29,#80]
    8200:	97fffb39 	bl	6ee4 <mpa_parity>
    8204:	34000240 	cbz	w0, 824c <__mpa_gcd.part.0+0x158>
/home/asaf/devel/optee/optee_os/lib/libmpa/mpa_gcd.c:246
    8208:	a9448ba1 	ldp	x1, x2, [x29,#72]
    820c:	aa1303e3 	mov	x3, x19
    8210:	f9402fa0 	ldr	x0, [x29,#88]
    8214:	94000573 	bl	97e0 <mpa_sub>
/home/asaf/devel/optee/optee_os/lib/libmpa/mpa_gcd.c:248
    8218:	f9402fa0 	ldr	x0, [x29,#88]
    821c:	b9400401 	ldr	w1, [x0,#4]
    8220:	36f80061 	tbz	w1, #31, 822c <__mpa_gcd.part.0+0x138>
    8224:	4b0103e1 	neg	w1, w1
    8228:	b9000401 	str	w1, [x0,#4]
/home/asaf/devel/optee/optee_os/lib/libmpa/mpa_gcd.c:249
    822c:	97ffff92 	bl	8074 <__mpa_divby2>
/home/asaf/devel/optee/optee_os/lib/libmpa/mpa_gcd.c:250
    8230:	a94487a0 	ldp	x0, x1, [x29,#72]
    8234:	940006b3 	bl	9d00 <mpa_cmp>
/home/asaf/devel/optee/optee_os/lib/libmpa/mpa_gcd.c:251
    8238:	f9402fa1 	ldr	x1, [x29,#88]
/home/asaf/devel/optee/optee_os/lib/libmpa/mpa_gcd.c:250
    823c:	37f800e0 	tbnz	w0, #31, 8258 <__mpa_gcd.part.0+0x164>
/home/asaf/devel/optee/optee_os/lib/libmpa/mpa_gcd.c:251
    8240:	f94027a0 	ldr	x0, [x29,#72]
/home/asaf/devel/optee/optee_os/lib/libmpa/mpa_gcd.c:253
    8244:	97fffade 	bl	6dbc <mpa_copy>
    8248:	17ffffca 	b	8170 <__mpa_gcd.part.0+0x7c>
/home/asaf/devel/optee/optee_os/lib/libmpa/mpa_gcd.c:244
    824c:	f9402ba0 	ldr	x0, [x29,#80]
    8250:	97ffff89 	bl	8074 <__mpa_divby2>
    8254:	17ffffea 	b	81fc <__mpa_gcd.part.0+0x108>
/home/asaf/devel/optee/optee_os/lib/libmpa/mpa_gcd.c:253
    8258:	f9402ba0 	ldr	x0, [x29,#80]
    825c:	17fffffa 	b	8244 <__mpa_gcd.part.0+0x150>

0000000000008260 <__mpa_egcd>:
__mpa_egcd():
/home/asaf/devel/optee/optee_os/lib/libmpa/mpa_gcd.c:116
    8260:	a9b57bfd 	stp	x29, x30, [sp,#-176]!
    8264:	910003fd 	mov	x29, sp
    8268:	a90153f3 	stp	x19, x20, [sp,#16]
    826c:	aa0003f4 	mov	x20, x0
/home/asaf/devel/optee/optee_os/lib/libmpa/mpa_gcd.c:127
    8270:	b9400480 	ldr	w0, [x4,#4]
/home/asaf/devel/optee/optee_os/lib/libmpa/mpa_gcd.c:116
    8274:	a9025bf5 	stp	x21, x22, [sp,#32]
    8278:	aa0103f6 	mov	x22, x1
    827c:	a9046bf9 	stp	x25, x26, [sp,#64]
    8280:	aa0203f5 	mov	x21, x2
    8284:	a90363f7 	stp	x23, x24, [sp,#48]
    8288:	aa0303f9 	mov	x25, x3
    828c:	a90573fb 	stp	x27, x28, [sp,#80]
/home/asaf/devel/optee/optee_os/lib/libmpa/mpa_gcd.c:127
    8290:	35000260 	cbnz	w0, 82dc <__mpa_egcd+0x7c>
/home/asaf/devel/optee/optee_os/lib/libmpa/mpa_gcd.c:128
    8294:	b4000081 	cbz	x1, 82a4 <__mpa_egcd+0x44>
/home/asaf/devel/optee/optee_os/lib/libmpa/mpa_gcd.c:129
    8298:	52800021 	mov	w1, #0x1                   	// #1
    829c:	aa1603e0 	mov	x0, x22
    82a0:	97fffd26 	bl	7738 <mpa_set_word>
/home/asaf/devel/optee/optee_os/lib/libmpa/mpa_gcd.c:130
    82a4:	b4000095 	cbz	x21, 82b4 <__mpa_egcd+0x54>
/home/asaf/devel/optee/optee_os/lib/libmpa/mpa_gcd.c:131
    82a8:	52800001 	mov	w1, #0x0                   	// #0
    82ac:	aa1503e0 	mov	x0, x21
    82b0:	97fffd22 	bl	7738 <mpa_set_word>
/home/asaf/devel/optee/optee_os/lib/libmpa/mpa_gcd.c:132
    82b4:	aa1903e1 	mov	x1, x25
    82b8:	aa1403e0 	mov	x0, x20
    82bc:	97fffac0 	bl	6dbc <mpa_copy>
/home/asaf/devel/optee/optee_os/lib/libmpa/mpa_gcd.c:205
    82c0:	a94153f3 	ldp	x19, x20, [sp,#16]
    82c4:	a9425bf5 	ldp	x21, x22, [sp,#32]
    82c8:	a94363f7 	ldp	x23, x24, [sp,#48]
    82cc:	a9446bf9 	ldp	x25, x26, [sp,#64]
    82d0:	a94573fb 	ldp	x27, x28, [sp,#80]
    82d4:	a8cb7bfd 	ldp	x29, x30, [sp],#176
    82d8:	d65f03c0 	ret
/home/asaf/devel/optee/optee_os/lib/libmpa/mpa_gcd.c:135
    82dc:	910263b8 	add	x24, x29, #0x98
    82e0:	aa0403f7 	mov	x23, x4
    82e4:	aa0503f3 	mov	x19, x5
    82e8:	aa0503e1 	mov	x1, x5
    82ec:	aa1803e0 	mov	x0, x24
    82f0:	940001c5 	bl	8a04 <mpa_alloc_static_temp_var>
/home/asaf/devel/optee/optee_os/lib/libmpa/mpa_gcd.c:136
    82f4:	f9404fa0 	ldr	x0, [x29,#152]
    82f8:	aa1903e1 	mov	x1, x25
    82fc:	97fffab0 	bl	6dbc <mpa_copy>
/home/asaf/devel/optee/optee_os/lib/libmpa/mpa_gcd.c:137
    8300:	910283a0 	add	x0, x29, #0xa0
    8304:	aa1303e1 	mov	x1, x19
    8308:	f90037a0 	str	x0, [x29,#104]
    830c:	940001be 	bl	8a04 <mpa_alloc_static_temp_var>
/home/asaf/devel/optee/optee_os/lib/libmpa/mpa_gcd.c:138
    8310:	f94053a0 	ldr	x0, [x29,#160]
    8314:	aa1703e1 	mov	x1, x23
/home/asaf/devel/optee/optee_os/lib/libmpa/mpa_gcd.c:140
    8318:	52800017 	mov	w23, #0x0                   	// #0
/home/asaf/devel/optee/optee_os/lib/libmpa/mpa_gcd.c:138
    831c:	97fffaa8 	bl	6dbc <mpa_copy>
/home/asaf/devel/optee/optee_os/lib/libmpa/mpa_gcd.c:141
    8320:	f9404fa0 	ldr	x0, [x29,#152]
    8324:	97fffaf0 	bl	6ee4 <mpa_parity>
    8328:	34000980 	cbz	w0, 8458 <__mpa_egcd+0x1f8>
/home/asaf/devel/optee/optee_os/lib/libmpa/mpa_gcd.c:147
    832c:	9102a3a0 	add	x0, x29, #0xa8
    8330:	aa1303e1 	mov	x1, x19
    8334:	f90033a0 	str	x0, [x29,#96]
    8338:	940001b3 	bl	8a04 <mpa_alloc_static_temp_var>
/home/asaf/devel/optee/optee_os/lib/libmpa/mpa_gcd.c:148
    833c:	f9404fa1 	ldr	x1, [x29,#152]
/home/asaf/devel/optee/optee_os/lib/libmpa/mpa_gcd.c:150
    8340:	9101e3bc 	add	x28, x29, #0x78
/home/asaf/devel/optee/optee_os/lib/libmpa/mpa_gcd.c:148
    8344:	f94057a0 	ldr	x0, [x29,#168]
/home/asaf/devel/optee/optee_os/lib/libmpa/mpa_gcd.c:152
    8348:	910203bb 	add	x27, x29, #0x80
/home/asaf/devel/optee/optee_os/lib/libmpa/mpa_gcd.c:154
    834c:	910223ba 	add	x26, x29, #0x88
/home/asaf/devel/optee/optee_os/lib/libmpa/mpa_gcd.c:156
    8350:	910243b9 	add	x25, x29, #0x90
/home/asaf/devel/optee/optee_os/lib/libmpa/mpa_gcd.c:148
    8354:	97fffa9a 	bl	6dbc <mpa_copy>
/home/asaf/devel/optee/optee_os/lib/libmpa/mpa_gcd.c:149
    8358:	f94053a1 	ldr	x1, [x29,#160]
    835c:	aa1403e0 	mov	x0, x20
    8360:	97fffa97 	bl	6dbc <mpa_copy>
/home/asaf/devel/optee/optee_os/lib/libmpa/mpa_gcd.c:150
    8364:	aa1303e1 	mov	x1, x19
    8368:	aa1c03e0 	mov	x0, x28
    836c:	940001a6 	bl	8a04 <mpa_alloc_static_temp_var>
/home/asaf/devel/optee/optee_os/lib/libmpa/mpa_gcd.c:151
    8370:	f9403fa0 	ldr	x0, [x29,#120]
    8374:	52800021 	mov	w1, #0x1                   	// #1
    8378:	97fffcf0 	bl	7738 <mpa_set_word>
/home/asaf/devel/optee/optee_os/lib/libmpa/mpa_gcd.c:152
    837c:	aa1303e1 	mov	x1, x19
    8380:	aa1b03e0 	mov	x0, x27
    8384:	940001a0 	bl	8a04 <mpa_alloc_static_temp_var>
/home/asaf/devel/optee/optee_os/lib/libmpa/mpa_gcd.c:153
    8388:	f94043a0 	ldr	x0, [x29,#128]
    838c:	52800001 	mov	w1, #0x0                   	// #0
    8390:	97fffcea 	bl	7738 <mpa_set_word>
/home/asaf/devel/optee/optee_os/lib/libmpa/mpa_gcd.c:154
    8394:	aa1303e1 	mov	x1, x19
    8398:	aa1a03e0 	mov	x0, x26
    839c:	9400019a 	bl	8a04 <mpa_alloc_static_temp_var>
/home/asaf/devel/optee/optee_os/lib/libmpa/mpa_gcd.c:155
    83a0:	f94047a0 	ldr	x0, [x29,#136]
    83a4:	52800001 	mov	w1, #0x0                   	// #0
    83a8:	97fffce4 	bl	7738 <mpa_set_word>
/home/asaf/devel/optee/optee_os/lib/libmpa/mpa_gcd.c:156
    83ac:	aa1303e1 	mov	x1, x19
    83b0:	aa1903e0 	mov	x0, x25
    83b4:	94000194 	bl	8a04 <mpa_alloc_static_temp_var>
/home/asaf/devel/optee/optee_os/lib/libmpa/mpa_gcd.c:157
    83b8:	f9404ba0 	ldr	x0, [x29,#144]
    83bc:	52800021 	mov	w1, #0x1                   	// #1
    83c0:	97fffcde 	bl	7738 <mpa_set_word>
/home/asaf/devel/optee/optee_os/lib/libmpa/mpa_gcd.c:159
    83c4:	f94057a0 	ldr	x0, [x29,#168]
    83c8:	b9400400 	ldr	w0, [x0,#4]
    83cc:	35000800 	cbnz	w0, 84cc <__mpa_egcd+0x26c>
/home/asaf/devel/optee/optee_os/lib/libmpa/mpa_gcd.c:192
    83d0:	b4000096 	cbz	x22, 83e0 <__mpa_egcd+0x180>
/home/asaf/devel/optee/optee_os/lib/libmpa/mpa_gcd.c:193
    83d4:	f94047a1 	ldr	x1, [x29,#136]
    83d8:	aa1603e0 	mov	x0, x22
    83dc:	97fffa78 	bl	6dbc <mpa_copy>
/home/asaf/devel/optee/optee_os/lib/libmpa/mpa_gcd.c:194
    83e0:	b4000095 	cbz	x21, 83f0 <__mpa_egcd+0x190>
/home/asaf/devel/optee/optee_os/lib/libmpa/mpa_gcd.c:195
    83e4:	f9404ba1 	ldr	x1, [x29,#144]
    83e8:	aa1503e0 	mov	x0, x21
    83ec:	97fffa74 	bl	6dbc <mpa_copy>
/home/asaf/devel/optee/optee_os/lib/libmpa/mpa_gcd.c:196
    83f0:	2a1703e2 	mov	w2, w23
    83f4:	aa1403e1 	mov	x1, x20
    83f8:	aa1403e0 	mov	x0, x20
    83fc:	94000316 	bl	9054 <mpa_shift_left>
/home/asaf/devel/optee/optee_os/lib/libmpa/mpa_gcd.c:198
    8400:	aa1303e1 	mov	x1, x19
    8404:	aa1c03e0 	mov	x0, x28
    8408:	94000183 	bl	8a14 <mpa_free_static_temp_var>
/home/asaf/devel/optee/optee_os/lib/libmpa/mpa_gcd.c:199
    840c:	aa1303e1 	mov	x1, x19
    8410:	aa1b03e0 	mov	x0, x27
    8414:	94000180 	bl	8a14 <mpa_free_static_temp_var>
/home/asaf/devel/optee/optee_os/lib/libmpa/mpa_gcd.c:200
    8418:	aa1303e1 	mov	x1, x19
    841c:	aa1a03e0 	mov	x0, x26
    8420:	9400017d 	bl	8a14 <mpa_free_static_temp_var>
/home/asaf/devel/optee/optee_os/lib/libmpa/mpa_gcd.c:201
    8424:	aa1303e1 	mov	x1, x19
    8428:	aa1903e0 	mov	x0, x25
    842c:	9400017a 	bl	8a14 <mpa_free_static_temp_var>
/home/asaf/devel/optee/optee_os/lib/libmpa/mpa_gcd.c:202
    8430:	aa1303e1 	mov	x1, x19
    8434:	aa1803e0 	mov	x0, x24
    8438:	94000177 	bl	8a14 <mpa_free_static_temp_var>
/home/asaf/devel/optee/optee_os/lib/libmpa/mpa_gcd.c:203
    843c:	f94037a0 	ldr	x0, [x29,#104]
    8440:	aa1303e1 	mov	x1, x19
    8444:	94000174 	bl	8a14 <mpa_free_static_temp_var>
/home/asaf/devel/optee/optee_os/lib/libmpa/mpa_gcd.c:204
    8448:	f94033a0 	ldr	x0, [x29,#96]
    844c:	aa1303e1 	mov	x1, x19
    8450:	94000171 	bl	8a14 <mpa_free_static_temp_var>
    8454:	17ffff9b 	b	82c0 <__mpa_egcd+0x60>
/home/asaf/devel/optee/optee_os/lib/libmpa/mpa_gcd.c:141
    8458:	f94053a0 	ldr	x0, [x29,#160]
    845c:	97fffaa2 	bl	6ee4 <mpa_parity>
    8460:	35fff660 	cbnz	w0, 832c <__mpa_egcd+0xcc>
/home/asaf/devel/optee/optee_os/lib/libmpa/mpa_gcd.c:143
    8464:	f9404fa0 	ldr	x0, [x29,#152]
/home/asaf/devel/optee/optee_os/lib/libmpa/mpa_gcd.c:142
    8468:	110006f7 	add	w23, w23, #0x1
/home/asaf/devel/optee/optee_os/lib/libmpa/mpa_gcd.c:143
    846c:	97ffff02 	bl	8074 <__mpa_divby2>
/home/asaf/devel/optee/optee_os/lib/libmpa/mpa_gcd.c:144
    8470:	f94053a0 	ldr	x0, [x29,#160]
    8474:	97ffff00 	bl	8074 <__mpa_divby2>
    8478:	17ffffaa 	b	8320 <__mpa_egcd+0xc0>
/home/asaf/devel/optee/optee_os/lib/libmpa/mpa_gcd.c:161
    847c:	f94057a0 	ldr	x0, [x29,#168]
    8480:	97fffefd 	bl	8074 <__mpa_divby2>
/home/asaf/devel/optee/optee_os/lib/libmpa/mpa_gcd.c:162
    8484:	f9403fa0 	ldr	x0, [x29,#120]
    8488:	97fffa97 	bl	6ee4 <mpa_parity>
    848c:	7100041f 	cmp	w0, #0x1
    8490:	54000521 	b.ne	8534 <__mpa_egcd+0x2d4>
/home/asaf/devel/optee/optee_os/lib/libmpa/mpa_gcd.c:163
    8494:	f9403fa1 	ldr	x1, [x29,#120]
    8498:	aa1303e3 	mov	x3, x19
    849c:	f94053a2 	ldr	x2, [x29,#160]
    84a0:	aa0103e0 	mov	x0, x1
    84a4:	9400046a 	bl	964c <mpa_add>
/home/asaf/devel/optee/optee_os/lib/libmpa/mpa_gcd.c:164
    84a8:	f94043a1 	ldr	x1, [x29,#128]
    84ac:	aa1303e3 	mov	x3, x19
    84b0:	f9404fa2 	ldr	x2, [x29,#152]
    84b4:	aa0103e0 	mov	x0, x1
    84b8:	940004ca 	bl	97e0 <mpa_sub>
/home/asaf/devel/optee/optee_os/lib/libmpa/mpa_gcd.c:166
    84bc:	f9403fa0 	ldr	x0, [x29,#120]
    84c0:	97fffeed 	bl	8074 <__mpa_divby2>
/home/asaf/devel/optee/optee_os/lib/libmpa/mpa_gcd.c:167
    84c4:	f94043a0 	ldr	x0, [x29,#128]
    84c8:	97fffeeb 	bl	8074 <__mpa_divby2>
/home/asaf/devel/optee/optee_os/lib/libmpa/mpa_gcd.c:160
    84cc:	f94057a0 	ldr	x0, [x29,#168]
    84d0:	97fffa85 	bl	6ee4 <mpa_parity>
    84d4:	34fffd40 	cbz	w0, 847c <__mpa_egcd+0x21c>
/home/asaf/devel/optee/optee_os/lib/libmpa/mpa_gcd.c:170
    84d8:	aa1403e0 	mov	x0, x20
    84dc:	97fffa82 	bl	6ee4 <mpa_parity>
    84e0:	34000340 	cbz	w0, 8548 <__mpa_egcd+0x2e8>
/home/asaf/devel/optee/optee_os/lib/libmpa/mpa_gcd.c:180
    84e4:	f94057a0 	ldr	x0, [x29,#168]
    84e8:	aa1403e1 	mov	x1, x20
    84ec:	94000605 	bl	9d00 <mpa_cmp>
/home/asaf/devel/optee/optee_os/lib/libmpa/mpa_gcd.c:181
    84f0:	aa1303e3 	mov	x3, x19
/home/asaf/devel/optee/optee_os/lib/libmpa/mpa_gcd.c:180
    84f4:	37f805c0 	tbnz	w0, #31, 85ac <__mpa_egcd+0x34c>
/home/asaf/devel/optee/optee_os/lib/libmpa/mpa_gcd.c:181
    84f8:	f94057a1 	ldr	x1, [x29,#168]
    84fc:	aa1403e2 	mov	x2, x20
    8500:	aa0103e0 	mov	x0, x1
    8504:	940004b7 	bl	97e0 <mpa_sub>
/home/asaf/devel/optee/optee_os/lib/libmpa/mpa_gcd.c:182
    8508:	f9403fa1 	ldr	x1, [x29,#120]
    850c:	aa1303e3 	mov	x3, x19
    8510:	f94047a2 	ldr	x2, [x29,#136]
    8514:	aa0103e0 	mov	x0, x1
    8518:	940004b2 	bl	97e0 <mpa_sub>
/home/asaf/devel/optee/optee_os/lib/libmpa/mpa_gcd.c:183
    851c:	f94043a1 	ldr	x1, [x29,#128]
    8520:	aa1303e3 	mov	x3, x19
    8524:	f9404ba2 	ldr	x2, [x29,#144]
/home/asaf/devel/optee/optee_os/lib/libmpa/mpa_gcd.c:187
    8528:	aa0103e0 	mov	x0, x1
    852c:	940004ad 	bl	97e0 <mpa_sub>
    8530:	17ffffa5 	b	83c4 <__mpa_egcd+0x164>
/home/asaf/devel/optee/optee_os/lib/libmpa/mpa_gcd.c:162
    8534:	f94043a0 	ldr	x0, [x29,#128]
    8538:	97fffa6b 	bl	6ee4 <mpa_parity>
    853c:	7100041f 	cmp	w0, #0x1
    8540:	54fffbe1 	b.ne	84bc <__mpa_egcd+0x25c>
    8544:	17ffffd4 	b	8494 <__mpa_egcd+0x234>
/home/asaf/devel/optee/optee_os/lib/libmpa/mpa_gcd.c:171
    8548:	aa1403e0 	mov	x0, x20
    854c:	97fffeca 	bl	8074 <__mpa_divby2>
/home/asaf/devel/optee/optee_os/lib/libmpa/mpa_gcd.c:172
    8550:	f94047a0 	ldr	x0, [x29,#136]
    8554:	97fffa64 	bl	6ee4 <mpa_parity>
    8558:	7100041f 	cmp	w0, #0x1
    855c:	540001e1 	b.ne	8598 <__mpa_egcd+0x338>
/home/asaf/devel/optee/optee_os/lib/libmpa/mpa_gcd.c:173
    8560:	f94047a1 	ldr	x1, [x29,#136]
    8564:	aa1303e3 	mov	x3, x19
    8568:	f94053a2 	ldr	x2, [x29,#160]
    856c:	aa0103e0 	mov	x0, x1
    8570:	94000437 	bl	964c <mpa_add>
/home/asaf/devel/optee/optee_os/lib/libmpa/mpa_gcd.c:174
    8574:	a9490ba1 	ldp	x1, x2, [x29,#144]
    8578:	aa1303e3 	mov	x3, x19
    857c:	aa0103e0 	mov	x0, x1
    8580:	94000498 	bl	97e0 <mpa_sub>
/home/asaf/devel/optee/optee_os/lib/libmpa/mpa_gcd.c:176
    8584:	f94047a0 	ldr	x0, [x29,#136]
    8588:	97fffebb 	bl	8074 <__mpa_divby2>
/home/asaf/devel/optee/optee_os/lib/libmpa/mpa_gcd.c:177
    858c:	f9404ba0 	ldr	x0, [x29,#144]
    8590:	97fffeb9 	bl	8074 <__mpa_divby2>
    8594:	17ffffd1 	b	84d8 <__mpa_egcd+0x278>
/home/asaf/devel/optee/optee_os/lib/libmpa/mpa_gcd.c:172
    8598:	f9404ba0 	ldr	x0, [x29,#144]
    859c:	97fffa52 	bl	6ee4 <mpa_parity>
    85a0:	7100041f 	cmp	w0, #0x1
    85a4:	54ffff01 	b.ne	8584 <__mpa_egcd+0x324>
    85a8:	17ffffee 	b	8560 <__mpa_egcd+0x300>
/home/asaf/devel/optee/optee_os/lib/libmpa/mpa_gcd.c:185
    85ac:	f94057a2 	ldr	x2, [x29,#168]
    85b0:	aa1403e1 	mov	x1, x20
    85b4:	aa1403e0 	mov	x0, x20
    85b8:	9400048a 	bl	97e0 <mpa_sub>
/home/asaf/devel/optee/optee_os/lib/libmpa/mpa_gcd.c:186
    85bc:	f94047a1 	ldr	x1, [x29,#136]
    85c0:	aa1303e3 	mov	x3, x19
    85c4:	f9403fa2 	ldr	x2, [x29,#120]
    85c8:	aa0103e0 	mov	x0, x1
    85cc:	94000485 	bl	97e0 <mpa_sub>
/home/asaf/devel/optee/optee_os/lib/libmpa/mpa_gcd.c:187
    85d0:	aa1303e3 	mov	x3, x19
    85d4:	f94043a2 	ldr	x2, [x29,#128]
    85d8:	f9404ba1 	ldr	x1, [x29,#144]
    85dc:	17ffffd3 	b	8528 <__mpa_egcd+0x2c8>

00000000000085e0 <mpa_gcd>:
mpa_gcd():
/home/asaf/devel/optee/optee_os/lib/libmpa/mpa_gcd.c:275
    85e0:	a9bc7bfd 	stp	x29, x30, [sp,#-64]!
    85e4:	910003fd 	mov	x29, sp
    85e8:	a90153f3 	stp	x19, x20, [sp,#16]
    85ec:	aa0203f3 	mov	x19, x2
    85f0:	a9025bf5 	stp	x21, x22, [sp,#32]
    85f4:	aa0003f6 	mov	x22, x0
/home/asaf/devel/optee/optee_os/lib/libmpa/mpa_gcd.c:281
    85f8:	b9400420 	ldr	w0, [x1,#4]
/home/asaf/devel/optee/optee_os/lib/libmpa/mpa_gcd.c:275
    85fc:	aa0103f4 	mov	x20, x1
/home/asaf/devel/optee/optee_os/lib/libmpa/mpa_gcd.c:282
    8600:	b9400661 	ldr	w1, [x19,#4]
/home/asaf/devel/optee/optee_os/lib/libmpa/mpa_gcd.c:281
    8604:	52800022 	mov	w2, #0x1                   	// #1
    8608:	7100001f 	cmp	w0, #0x0
/home/asaf/devel/optee/optee_os/lib/libmpa/mpa_gcd.c:275
    860c:	a90363f7 	stp	x23, x24, [sp,#48]
    8610:	aa0303f8 	mov	x24, x3
/home/asaf/devel/optee/optee_os/lib/libmpa/mpa_gcd.c:281
    8614:	5a82a457 	cneg	w23, w2, lt
/home/asaf/devel/optee/optee_os/lib/libmpa/mpa_gcd.c:282
    8618:	36f806e1 	tbz	w1, #31, 86f4 <mpa_gcd+0x114>
    861c:	12800015 	mov	w21, #0xffffffff            	// #-1
/home/asaf/devel/optee/optee_os/lib/libmpa/mpa_gcd.c:283
    8620:	36f800a0 	tbz	w0, #31, 8634 <mpa_gcd+0x54>
/home/asaf/devel/optee/optee_os/lib/libmpa/mpa_gcd.c:283 (discriminator 1)
    8624:	4b0003e0 	neg	w0, w0
    8628:	b9000680 	str	w0, [x20,#4]
/home/asaf/devel/optee/optee_os/lib/libmpa/mpa_gcd.c:284 (discriminator 1)
    862c:	b9400661 	ldr	w1, [x19,#4]
    8630:	36f80061 	tbz	w1, #31, 863c <mpa_gcd+0x5c>
    8634:	4b0103e1 	neg	w1, w1
    8638:	b9000661 	str	w1, [x19,#4]
/home/asaf/devel/optee/optee_os/lib/libmpa/mpa_gcd.c:286
    863c:	aa1303e1 	mov	x1, x19
    8640:	aa1403e0 	mov	x0, x20
    8644:	940005af 	bl	9d00 <mpa_cmp>
/home/asaf/devel/optee/optee_os/lib/libmpa/mpa_gcd.c:287
    8648:	7100001f 	cmp	w0, #0x0
    864c:	54000321 	b.ne	86b0 <mpa_gcd+0xd0>
/home/asaf/devel/optee/optee_os/lib/libmpa/mpa_gcd.c:288
    8650:	aa1403e1 	mov	x1, x20
__mpa_gcd():
/home/asaf/devel/optee/optee_os/lib/libmpa/mpa_gcd.c:223
    8654:	aa1603e0 	mov	x0, x22
    8658:	97fff9d9 	bl	6dbc <mpa_copy>
mpa_gcd():
/home/asaf/devel/optee/optee_os/lib/libmpa/mpa_gcd.c:299
    865c:	b9400680 	ldr	w0, [x20,#4]
    8660:	52800021 	mov	w1, #0x1                   	// #1
    8664:	7100001f 	cmp	w0, #0x0
    8668:	5a81a421 	cneg	w1, w1, lt
    866c:	6b0102ff 	cmp	w23, w1
    8670:	54000060 	b.eq	867c <mpa_gcd+0x9c>
/home/asaf/devel/optee/optee_os/lib/libmpa/mpa_gcd.c:299 (discriminator 5)
    8674:	4b0003e0 	neg	w0, w0
    8678:	b9000680 	str	w0, [x20,#4]
/home/asaf/devel/optee/optee_os/lib/libmpa/mpa_gcd.c:300
    867c:	b9400660 	ldr	w0, [x19,#4]
    8680:	52800021 	mov	w1, #0x1                   	// #1
    8684:	7100001f 	cmp	w0, #0x0
    8688:	5a81a421 	cneg	w1, w1, lt
    868c:	6b15003f 	cmp	w1, w21
    8690:	54000060 	b.eq	869c <mpa_gcd+0xbc>
/home/asaf/devel/optee/optee_os/lib/libmpa/mpa_gcd.c:300 (discriminator 5)
    8694:	4b0003e0 	neg	w0, w0
    8698:	b9000660 	str	w0, [x19,#4]
/home/asaf/devel/optee/optee_os/lib/libmpa/mpa_gcd.c:301
    869c:	a94153f3 	ldp	x19, x20, [sp,#16]
    86a0:	a9425bf5 	ldp	x21, x22, [sp,#32]
    86a4:	a94363f7 	ldp	x23, x24, [sp,#48]
    86a8:	a8c47bfd 	ldp	x29, x30, [sp],#64
    86ac:	d65f03c0 	ret
/home/asaf/devel/optee/optee_os/lib/libmpa/mpa_gcd.c:291
    86b0:	5400016a 	b.ge	86dc <mpa_gcd+0xfc>
__mpa_gcd():
/home/asaf/devel/optee/optee_os/lib/libmpa/mpa_gcd.c:222
    86b4:	b9400680 	ldr	w0, [x20,#4]
    86b8:	35000060 	cbnz	w0, 86c4 <mpa_gcd+0xe4>
/home/asaf/devel/optee/optee_os/lib/libmpa/mpa_gcd.c:223
    86bc:	aa1303e1 	mov	x1, x19
    86c0:	17ffffe5 	b	8654 <mpa_gcd+0x74>
    86c4:	aa1803e3 	mov	x3, x24
    86c8:	aa1403e2 	mov	x2, x20
    86cc:	aa1303e1 	mov	x1, x19
    86d0:	aa1603e0 	mov	x0, x22
    86d4:	97fffe88 	bl	80f4 <__mpa_gcd.part.0>
    86d8:	17ffffe1 	b	865c <mpa_gcd+0x7c>
/home/asaf/devel/optee/optee_os/lib/libmpa/mpa_gcd.c:222
    86dc:	b9400660 	ldr	w0, [x19,#4]
    86e0:	34fffb80 	cbz	w0, 8650 <mpa_gcd+0x70>
    86e4:	aa1803e3 	mov	x3, x24
    86e8:	aa1303e2 	mov	x2, x19
    86ec:	aa1403e1 	mov	x1, x20
    86f0:	17fffff8 	b	86d0 <mpa_gcd+0xf0>
mpa_gcd():
/home/asaf/devel/optee/optee_os/lib/libmpa/mpa_gcd.c:282
    86f4:	2a0203f5 	mov	w21, w2
/home/asaf/devel/optee/optee_os/lib/libmpa/mpa_gcd.c:283
    86f8:	36fffa20 	tbz	w0, #31, 863c <mpa_gcd+0x5c>
    86fc:	17ffffca 	b	8624 <mpa_gcd+0x44>

0000000000008700 <mpa_extended_gcd>:
mpa_extended_gcd():
/home/asaf/devel/optee/optee_os/lib/libmpa/mpa_gcd.c:317
    8700:	a9b97bfd 	stp	x29, x30, [sp,#-112]!
/home/asaf/devel/optee/optee_os/lib/libmpa/mpa_gcd.c:324
    8704:	f100003f 	cmp	x1, #0x0
    8708:	fa400840 	ccmp	x2, #0x0, #0x0, eq
/home/asaf/devel/optee/optee_os/lib/libmpa/mpa_gcd.c:317
    870c:	910003fd 	mov	x29, sp
    8710:	a90153f3 	stp	x19, x20, [sp,#16]
    8714:	aa0303f3 	mov	x19, x3
    8718:	a9025bf5 	stp	x21, x22, [sp,#32]
    871c:	aa0403f4 	mov	x20, x4
    8720:	a9046bf9 	stp	x25, x26, [sp,#64]
    8724:	aa0003f6 	mov	x22, x0
    8728:	a90363f7 	stp	x23, x24, [sp,#48]
    872c:	aa0503f9 	mov	x25, x5
    8730:	a90573fb 	stp	x27, x28, [sp,#80]
/home/asaf/devel/optee/optee_os/lib/libmpa/mpa_gcd.c:324
    8734:	540001a1 	b.ne	8768 <mpa_extended_gcd+0x68>
/home/asaf/devel/optee/optee_os/lib/libmpa/mpa_gcd.c:325
    8738:	b40000a0 	cbz	x0, 874c <mpa_extended_gcd+0x4c>
/home/asaf/devel/optee/optee_os/lib/libmpa/mpa_gcd.c:326
    873c:	aa0503e3 	mov	x3, x5
    8740:	aa0403e2 	mov	x2, x4
    8744:	aa1303e1 	mov	x1, x19
    8748:	97ffffa6 	bl	85e0 <mpa_gcd>
/home/asaf/devel/optee/optee_os/lib/libmpa/mpa_gcd.c:372
    874c:	a94153f3 	ldp	x19, x20, [sp,#16]
    8750:	a9425bf5 	ldp	x21, x22, [sp,#32]
    8754:	a94363f7 	ldp	x23, x24, [sp,#48]
    8758:	a9446bf9 	ldp	x25, x26, [sp,#64]
    875c:	a94573fb 	ldp	x27, x28, [sp,#80]
    8760:	a8c77bfd 	ldp	x29, x30, [sp],#112
    8764:	d65f03c0 	ret
/home/asaf/devel/optee/optee_os/lib/libmpa/mpa_gcd.c:331
    8768:	b9400460 	ldr	w0, [x3,#4]
    876c:	aa0103f7 	mov	x23, x1
/home/asaf/devel/optee/optee_os/lib/libmpa/mpa_gcd.c:332
    8770:	b9400481 	ldr	w1, [x4,#4]
/home/asaf/devel/optee/optee_os/lib/libmpa/mpa_gcd.c:331
    8774:	52800035 	mov	w21, #0x1                   	// #1
    8778:	7100001f 	cmp	w0, #0x0
    877c:	aa0203f8 	mov	x24, x2
    8780:	5a95a6ba 	cneg	w26, w21, lt
/home/asaf/devel/optee/optee_os/lib/libmpa/mpa_gcd.c:332
    8784:	36f80b01 	tbz	w1, #31, 88e4 <mpa_extended_gcd+0x1e4>
    8788:	12800015 	mov	w21, #0xffffffff            	// #-1
/home/asaf/devel/optee/optee_os/lib/libmpa/mpa_gcd.c:333
    878c:	36f800a0 	tbz	w0, #31, 87a0 <mpa_extended_gcd+0xa0>
/home/asaf/devel/optee/optee_os/lib/libmpa/mpa_gcd.c:333 (discriminator 1)
    8790:	4b0003e0 	neg	w0, w0
    8794:	b9000660 	str	w0, [x19,#4]
/home/asaf/devel/optee/optee_os/lib/libmpa/mpa_gcd.c:334 (discriminator 1)
    8798:	b9400681 	ldr	w1, [x20,#4]
    879c:	36f80061 	tbz	w1, #31, 87a8 <mpa_extended_gcd+0xa8>
    87a0:	4b0103e1 	neg	w1, w1
    87a4:	b9000681 	str	w1, [x20,#4]
/home/asaf/devel/optee/optee_os/lib/libmpa/mpa_gcd.c:336
    87a8:	aa1403e1 	mov	x1, x20
    87ac:	aa1303e0 	mov	x0, x19
    87b0:	94000554 	bl	9d00 <mpa_cmp>
    87b4:	2a0003fc 	mov	w28, w0
/home/asaf/devel/optee/optee_os/lib/libmpa/mpa_gcd.c:337
    87b8:	35000540 	cbnz	w0, 8860 <mpa_extended_gcd+0x160>
/home/asaf/devel/optee/optee_os/lib/libmpa/mpa_gcd.c:338
    87bc:	b4000096 	cbz	x22, 87cc <mpa_extended_gcd+0xcc>
/home/asaf/devel/optee/optee_os/lib/libmpa/mpa_gcd.c:339
    87c0:	aa1303e1 	mov	x1, x19
    87c4:	aa1603e0 	mov	x0, x22
    87c8:	97fff97d 	bl	6dbc <mpa_copy>
/home/asaf/devel/optee/optee_os/lib/libmpa/mpa_gcd.c:340
    87cc:	b4000097 	cbz	x23, 87dc <mpa_extended_gcd+0xdc>
/home/asaf/devel/optee/optee_os/lib/libmpa/mpa_gcd.c:341
    87d0:	52800021 	mov	w1, #0x1                   	// #1
    87d4:	aa1703e0 	mov	x0, x23
    87d8:	97fffbd8 	bl	7738 <mpa_set_word>
/home/asaf/devel/optee/optee_os/lib/libmpa/mpa_gcd.c:342
    87dc:	b4000098 	cbz	x24, 87ec <mpa_extended_gcd+0xec>
/home/asaf/devel/optee/optee_os/lib/libmpa/mpa_gcd.c:343
    87e0:	52800001 	mov	w1, #0x0                   	// #0
    87e4:	aa1803e0 	mov	x0, x24
    87e8:	97fffbd4 	bl	7738 <mpa_set_word>
/home/asaf/devel/optee/optee_os/lib/libmpa/mpa_gcd.c:365
    87ec:	b9400660 	ldr	w0, [x19,#4]
    87f0:	52800021 	mov	w1, #0x1                   	// #1
    87f4:	7100001f 	cmp	w0, #0x0
    87f8:	5a81a421 	cneg	w1, w1, lt
    87fc:	6b01035f 	cmp	w26, w1
    8800:	54000060 	b.eq	880c <mpa_extended_gcd+0x10c>
/home/asaf/devel/optee/optee_os/lib/libmpa/mpa_gcd.c:365 (discriminator 5)
    8804:	4b0003e0 	neg	w0, w0
    8808:	b9000660 	str	w0, [x19,#4]
/home/asaf/devel/optee/optee_os/lib/libmpa/mpa_gcd.c:366
    880c:	b9400680 	ldr	w0, [x20,#4]
    8810:	52800021 	mov	w1, #0x1                   	// #1
    8814:	7100001f 	cmp	w0, #0x0
    8818:	5a81a421 	cneg	w1, w1, lt
    881c:	6b15003f 	cmp	w1, w21
    8820:	54000060 	b.eq	882c <mpa_extended_gcd+0x12c>
/home/asaf/devel/optee/optee_os/lib/libmpa/mpa_gcd.c:366 (discriminator 5)
    8824:	4b0003e0 	neg	w0, w0
    8828:	b9000680 	str	w0, [x20,#4]
/home/asaf/devel/optee/optee_os/lib/libmpa/mpa_gcd.c:368
    882c:	f10002ff 	cmp	x23, #0x0
    8830:	3a411b40 	ccmn	w26, #0x1, #0x0, ne
    8834:	54000081 	b.ne	8844 <mpa_extended_gcd+0x144>
/home/asaf/devel/optee/optee_os/lib/libmpa/mpa_gcd.c:369
    8838:	b94006e0 	ldr	w0, [x23,#4]
    883c:	4b0003e0 	neg	w0, w0
    8840:	b90006e0 	str	w0, [x23,#4]
/home/asaf/devel/optee/optee_os/lib/libmpa/mpa_gcd.c:370
    8844:	f100031f 	cmp	x24, #0x0
    8848:	3a411aa0 	ccmn	w21, #0x1, #0x0, ne
    884c:	54fff801 	b.ne	874c <mpa_extended_gcd+0x4c>
/home/asaf/devel/optee/optee_os/lib/libmpa/mpa_gcd.c:371
    8850:	b9400700 	ldr	w0, [x24,#4]
    8854:	4b0003e0 	neg	w0, w0
    8858:	b9000700 	str	w0, [x24,#4]
    885c:	17ffffbc 	b	874c <mpa_extended_gcd+0x4c>
/home/asaf/devel/optee/optee_os/lib/libmpa/mpa_gcd.c:347
    8860:	f10002df 	cmp	x22, #0x0
    8864:	fa561284 	ccmp	x20, x22, #0x4, ne
    8868:	fa561264 	ccmp	x19, x22, #0x4, ne
    886c:	54000361 	b.ne	88d8 <mpa_extended_gcd+0x1d8>
    8870:	5280003b 	mov	w27, #0x1                   	// #1
/home/asaf/devel/optee/optee_os/lib/libmpa/mpa_gcd.c:349
    8874:	aa1903e1 	mov	x1, x25
    8878:	9101a3a0 	add	x0, x29, #0x68
    887c:	94000062 	bl	8a04 <mpa_alloc_static_temp_var>
/home/asaf/devel/optee/optee_os/lib/libmpa/mpa_gcd.c:354
    8880:	aa1903e5 	mov	x5, x25
/home/asaf/devel/optee/optee_os/lib/libmpa/mpa_gcd.c:353
    8884:	36f8021c 	tbz	w28, #31, 88c4 <mpa_extended_gcd+0x1c4>
/home/asaf/devel/optee/optee_os/lib/libmpa/mpa_gcd.c:354
    8888:	aa1303e4 	mov	x4, x19
    888c:	aa1403e3 	mov	x3, x20
    8890:	aa1703e2 	mov	x2, x23
    8894:	aa1803e1 	mov	x1, x24
/home/asaf/devel/optee/optee_os/lib/libmpa/mpa_gcd.c:356
    8898:	f94037a0 	ldr	x0, [x29,#104]
    889c:	97fffe71 	bl	8260 <__mpa_egcd>
/home/asaf/devel/optee/optee_os/lib/libmpa/mpa_gcd.c:358
    88a0:	b4000096 	cbz	x22, 88b0 <mpa_extended_gcd+0x1b0>
/home/asaf/devel/optee/optee_os/lib/libmpa/mpa_gcd.c:359
    88a4:	f94037a1 	ldr	x1, [x29,#104]
    88a8:	aa1603e0 	mov	x0, x22
    88ac:	97fff944 	bl	6dbc <mpa_copy>
/home/asaf/devel/optee/optee_os/lib/libmpa/mpa_gcd.c:360
    88b0:	34fff9fb 	cbz	w27, 87ec <mpa_extended_gcd+0xec>
/home/asaf/devel/optee/optee_os/lib/libmpa/mpa_gcd.c:361
    88b4:	aa1903e1 	mov	x1, x25
    88b8:	9101a3a0 	add	x0, x29, #0x68
    88bc:	94000056 	bl	8a14 <mpa_free_static_temp_var>
    88c0:	17ffffcb 	b	87ec <mpa_extended_gcd+0xec>
/home/asaf/devel/optee/optee_os/lib/libmpa/mpa_gcd.c:356
    88c4:	aa1403e4 	mov	x4, x20
    88c8:	aa1303e3 	mov	x3, x19
    88cc:	aa1803e2 	mov	x2, x24
    88d0:	aa1703e1 	mov	x1, x23
    88d4:	17fffff1 	b	8898 <mpa_extended_gcd+0x198>
/home/asaf/devel/optee/optee_os/lib/libmpa/mpa_gcd.c:347
    88d8:	5280001b 	mov	w27, #0x0                   	// #0
/home/asaf/devel/optee/optee_os/lib/libmpa/mpa_gcd.c:351
    88dc:	f90037b6 	str	x22, [x29,#104]
    88e0:	17ffffe8 	b	8880 <mpa_extended_gcd+0x180>
/home/asaf/devel/optee/optee_os/lib/libmpa/mpa_gcd.c:333
    88e4:	36fff620 	tbz	w0, #31, 87a8 <mpa_extended_gcd+0xa8>
    88e8:	17ffffaa 	b	8790 <mpa_extended_gcd+0x90>

00000000000088ec <mpa_init_scratch_mem_sync>:
mpa_init_scratch_mem_sync():
/home/asaf/devel/optee/optee_os/lib/libmpa/mpa_mem_static.c:41
    88ec:	531f7842 	lsl	w2, w2, #1
/home/asaf/devel/optee/optee_os/lib/libmpa/mpa_mem_static.c:40
    88f0:	b900081f 	str	wzr, [x0,#8]
/home/asaf/devel/optee/optee_os/lib/libmpa/mpa_mem_static.c:41
    88f4:	29000801 	stp	w1, w2, [x0]
/home/asaf/devel/optee/optee_os/lib/libmpa/mpa_mem_static.c:43
    88f8:	a9011003 	stp	x3, x4, [x0,#16]
/home/asaf/devel/optee/optee_os/lib/libmpa/mpa_mem_static.c:44
    88fc:	f9001005 	str	x5, [x0,#32]
    8900:	d65f03c0 	ret

0000000000008904 <mpa_init_scratch_mem>:
/home/asaf/devel/optee/optee_os/lib/libmpa/mpa_mem_static.c:41
    8904:	531f7842 	lsl	w2, w2, #1
/home/asaf/devel/optee/optee_os/lib/libmpa/mpa_mem_static.c:40
    8908:	b900081f 	str	wzr, [x0,#8]
/home/asaf/devel/optee/optee_os/lib/libmpa/mpa_mem_static.c:41
    890c:	29000801 	stp	w1, w2, [x0]
/home/asaf/devel/optee/optee_os/lib/libmpa/mpa_mem_static.c:43
    8910:	a9017c1f 	stp	xzr, xzr, [x0,#16]
/home/asaf/devel/optee/optee_os/lib/libmpa/mpa_mem_static.c:44
    8914:	f900101f 	str	xzr, [x0,#32]
    8918:	d65f03c0 	ret

000000000000891c <mpa_alloc_static_temp_var_size>:
mpa_alloc_static_temp_var_size():
/home/asaf/devel/optee/optee_os/lib/libmpa/mpa_mem_static.c:89
    891c:	a9bd7bfd 	stp	x29, x30, [sp,#-48]!
    8920:	910003fd 	mov	x29, sp
    8924:	f90013f5 	str	x21, [sp,#32]
    8928:	aa0103f5 	mov	x21, x1
/home/asaf/devel/optee/optee_os/lib/libmpa/mpa_mem_static.c:95
    892c:	f9400841 	ldr	x1, [x2,#16]
/home/asaf/devel/optee/optee_os/lib/libmpa/mpa_mem_static.c:89
    8930:	a90153f3 	stp	x19, x20, [sp,#16]
    8934:	2a0003f4 	mov	w20, w0
    8938:	aa0203f3 	mov	x19, x2
/home/asaf/devel/optee/optee_os/lib/libmpa/mpa_mem_static.c:95
    893c:	b4000061 	cbz	x1, 8948 <mpa_alloc_static_temp_var_size+0x2c>
/home/asaf/devel/optee/optee_os/lib/libmpa/mpa_mem_static.c:96
    8940:	f9401040 	ldr	x0, [x2,#32]
    8944:	d63f0020 	blr	x1
/home/asaf/devel/optee/optee_os/lib/libmpa/mpa_mem_static.c:98
    8948:	b9400a63 	ldr	w3, [x19,#8]
    894c:	34000463 	cbz	w3, 89d8 <mpa_alloc_static_temp_var_size+0xbc>
/home/asaf/devel/optee/optee_os/lib/libmpa/mpa_mem_static.c:103
    8950:	2a0303e0 	mov	w0, w3
    8954:	8b000265 	add	x5, x19, x0
/home/asaf/devel/optee/optee_os/lib/libmpa/mpa_mem_static.c:104
    8958:	b8606a62 	ldr	w2, [x19,x0]
    895c:	0b020062 	add	w2, w3, w2
/home/asaf/devel/optee/optee_os/lib/libmpa/mpa_mem_static.c:107
    8960:	11000c42 	add	w2, w2, #0x3
/home/asaf/devel/optee/optee_os/lib/libmpa/mpa_mem_static.c:108
    8964:	b9400260 	ldr	w0, [x19]
/home/asaf/devel/optee/optee_os/lib/libmpa/mpa_mem_static.c:107
    8968:	121e7442 	and	w2, w2, #0xfffffffc
/home/asaf/devel/optee/optee_os/lib/libmpa/mpa_mem_static.c:108
    896c:	6b00005f 	cmp	w2, w0
    8970:	540003a8 	b.hi	89e4 <mpa_alloc_static_temp_var_size+0xc8>
/home/asaf/devel/optee/optee_os/lib/libmpa/mpa_mem_static.c:112
    8974:	11007e81 	add	w1, w20, #0x1f
    8978:	52800414 	mov	w20, #0x20                  	// #32
/home/asaf/devel/optee/optee_os/lib/libmpa/mpa_mem_static.c:114
    897c:	2a0203e6 	mov	w6, w2
/home/asaf/devel/optee/optee_os/lib/libmpa/mpa_mem_static.c:112
    8980:	1ad40c21 	sdiv	w1, w1, w20
    8984:	11000821 	add	w1, w1, #0x2
/home/asaf/devel/optee/optee_os/lib/libmpa/mpa_mem_static.c:111
    8988:	937e7c24 	sbfiz	x4, x1, #2, #32
/home/asaf/devel/optee/optee_os/lib/libmpa/mpa_mem_static.c:113
    898c:	91003084 	add	x4, x4, #0xc
/home/asaf/devel/optee/optee_os/lib/libmpa/mpa_mem_static.c:114
    8990:	8b060087 	add	x7, x4, x6
    8994:	eb2040ff 	cmp	x7, w0, uxtw
    8998:	54000268 	b.hi	89e4 <mpa_alloc_static_temp_var_size+0xc8>
/home/asaf/devel/optee/optee_os/lib/libmpa/mpa_mem_static.c:117
    899c:	8b060260 	add	x0, x19, x6
/home/asaf/devel/optee/optee_os/lib/libmpa/mpa_mem_static.c:118
    89a0:	b8266a64 	str	w4, [x19,x6]
/home/asaf/devel/optee/optee_os/lib/libmpa/mpa_mem_static.c:119
    89a4:	b9000403 	str	w3, [x0,#4]
/home/asaf/devel/optee/optee_os/lib/libmpa/mpa_mem_static.c:120
    89a8:	b4000045 	cbz	x5, 89b0 <mpa_alloc_static_temp_var_size+0x94>
/home/asaf/devel/optee/optee_os/lib/libmpa/mpa_mem_static.c:121
    89ac:	b90008a2 	str	w2, [x5,#8]
/home/asaf/devel/optee/optee_os/lib/libmpa/mpa_mem_static.c:122
    89b0:	b900081f 	str	wzr, [x0,#8]
/home/asaf/devel/optee/optee_os/lib/libmpa/mpa_mem_static.c:125
    89b4:	91003000 	add	x0, x0, #0xc
/home/asaf/devel/optee/optee_os/lib/libmpa/mpa_mem_static.c:123
    89b8:	b9000a62 	str	w2, [x19,#8]
/home/asaf/devel/optee/optee_os/lib/libmpa/mpa_mem_static.c:125
    89bc:	f90002a0 	str	x0, [x21]
/home/asaf/devel/optee/optee_os/lib/libmpa/mpa_mem_static.c:126
    89c0:	9400057a 	bl	9fa8 <mpa_init_static>
/home/asaf/devel/optee/optee_os/lib/libmpa/mpa_mem_static.c:127
    89c4:	f94002a0 	ldr	x0, [x21]
/home/asaf/devel/optee/optee_os/lib/libmpa/mpa_mem_static.c:134
    89c8:	a94153f3 	ldp	x19, x20, [sp,#16]
    89cc:	f94013f5 	ldr	x21, [sp,#32]
    89d0:	a8c37bfd 	ldp	x29, x30, [sp],#48
    89d4:	d65f03c0 	ret
/home/asaf/devel/optee/optee_os/lib/libmpa/mpa_mem_static.c:93
    89d8:	d2800005 	mov	x5, #0x0                   	// #0
/home/asaf/devel/optee/optee_os/lib/libmpa/mpa_mem_static.c:99
    89dc:	52800502 	mov	w2, #0x28                  	// #40
    89e0:	17ffffe0 	b	8960 <mpa_alloc_static_temp_var_size+0x44>
/home/asaf/devel/optee/optee_os/lib/libmpa/mpa_mem_static.c:131
    89e4:	f9400e61 	ldr	x1, [x19,#24]
/home/asaf/devel/optee/optee_os/lib/libmpa/mpa_mem_static.c:133
    89e8:	d2800000 	mov	x0, #0x0                   	// #0
/home/asaf/devel/optee/optee_os/lib/libmpa/mpa_mem_static.c:130
    89ec:	f90002bf 	str	xzr, [x21]
/home/asaf/devel/optee/optee_os/lib/libmpa/mpa_mem_static.c:131
    89f0:	b4fffec1 	cbz	x1, 89c8 <mpa_alloc_static_temp_var_size+0xac>
/home/asaf/devel/optee/optee_os/lib/libmpa/mpa_mem_static.c:132
    89f4:	f9401260 	ldr	x0, [x19,#32]
    89f8:	d63f0020 	blr	x1
/home/asaf/devel/optee/optee_os/lib/libmpa/mpa_mem_static.c:133
    89fc:	d2800000 	mov	x0, #0x0                   	// #0
    8a00:	17fffff2 	b	89c8 <mpa_alloc_static_temp_var_size+0xac>

0000000000008a04 <mpa_alloc_static_temp_var>:
mpa_alloc_static_temp_var():
/home/asaf/devel/optee/optee_os/lib/libmpa/mpa_mem_static.c:139
    8a04:	aa0103e2 	mov	x2, x1
    8a08:	aa0003e1 	mov	x1, x0
    8a0c:	b9400440 	ldr	w0, [x2,#4]
    8a10:	17ffffc3 	b	891c <mpa_alloc_static_temp_var_size>

0000000000008a14 <mpa_free_static_temp_var>:
mpa_free_static_temp_var():
/home/asaf/devel/optee/optee_os/lib/libmpa/mpa_mem_static.c:154
    8a14:	b4000240 	cbz	x0, 8a5c <mpa_free_static_temp_var+0x48>
/home/asaf/devel/optee/optee_os/lib/libmpa/mpa_mem_static.c:154 (discriminator 1)
    8a18:	f9400002 	ldr	x2, [x0]
    8a1c:	b4000202 	cbz	x2, 8a5c <mpa_free_static_temp_var+0x48>
/home/asaf/devel/optee/optee_os/lib/libmpa/mpa_mem_static.c:159
    8a20:	b85f8040 	ldur	w0, [x2,#-8]
    8a24:	34000080 	cbz	w0, 8a34 <mpa_free_static_temp_var+0x20>
/home/asaf/devel/optee/optee_os/lib/libmpa/mpa_mem_static.c:162
    8a28:	8b204023 	add	x3, x1, w0, uxtw
    8a2c:	b85fc044 	ldur	w4, [x2,#-4]
    8a30:	b9000864 	str	w4, [x3,#8]
/home/asaf/devel/optee/optee_os/lib/libmpa/mpa_mem_static.c:166
    8a34:	b85fc042 	ldur	w2, [x2,#-4]
    8a38:	34000082 	cbz	w2, 8a48 <mpa_free_static_temp_var+0x34>
/home/asaf/devel/optee/optee_os/lib/libmpa/mpa_mem_static.c:169
    8a3c:	8b224022 	add	x2, x1, w2, uxtw
    8a40:	b9000440 	str	w0, [x2,#4]
/home/asaf/devel/optee/optee_os/lib/libmpa/mpa_mem_static.c:170
    8a44:	b9400820 	ldr	w0, [x1,#8]
/home/asaf/devel/optee/optee_os/lib/libmpa/mpa_mem_static.c:174
    8a48:	f9400c22 	ldr	x2, [x1,#24]
/home/asaf/devel/optee/optee_os/lib/libmpa/mpa_mem_static.c:173
    8a4c:	b9000820 	str	w0, [x1,#8]
/home/asaf/devel/optee/optee_os/lib/libmpa/mpa_mem_static.c:174
    8a50:	b4000062 	cbz	x2, 8a5c <mpa_free_static_temp_var+0x48>
/home/asaf/devel/optee/optee_os/lib/libmpa/mpa_mem_static.c:175
    8a54:	f9401020 	ldr	x0, [x1,#32]
    8a58:	d61f0040 	br	x2
    8a5c:	d65f03c0 	ret

0000000000008a60 <__mpa_mul_add_word>:
__mpa_mul_add_word():
/home/asaf/devel/optee/optee_os/lib/libmpa/mpa_mul.c:54
    8a60:	b9400064 	ldr	w4, [x3]
    8a64:	9ba11000 	umaddl	x0, w0, w1, x4
/home/asaf/devel/optee/optee_os/lib/libmpa/mpa_mul.c:55
    8a68:	b9000040 	str	w0, [x2]
/home/asaf/devel/optee/optee_os/lib/libmpa/mpa_mul.c:56
    8a6c:	d360fc00 	lsr	x0, x0, #32
    8a70:	b9000060 	str	w0, [x3]
    8a74:	d65f03c0 	ret

0000000000008a78 <__mpa_mul_add_word_cum>:
__mpa_mul_add_word_cum():
/home/asaf/devel/optee/optee_os/lib/libmpa/mpa_mul.c:76
    8a78:	b9400044 	ldr	w4, [x2]
/home/asaf/devel/optee/optee_os/lib/libmpa/mpa_mul.c:77
    8a7c:	b9400065 	ldr	w5, [x3]
/home/asaf/devel/optee/optee_os/lib/libmpa/mpa_mul.c:75
    8a80:	8b050084 	add	x4, x4, x5
    8a84:	9ba11000 	umaddl	x0, w0, w1, x4
/home/asaf/devel/optee/optee_os/lib/libmpa/mpa_mul.c:78
    8a88:	b9000040 	str	w0, [x2]
/home/asaf/devel/optee/optee_os/lib/libmpa/mpa_mul.c:79
    8a8c:	d360fc00 	lsr	x0, x0, #32
    8a90:	b9000060 	str	w0, [x3]
    8a94:	d65f03c0 	ret

0000000000008a98 <__mpa_abs_mul_word>:
__mpa_abs_mul_word():
/home/asaf/devel/optee/optee_os/lib/libmpa/mpa_mul.c:95
    8a98:	a9bd7bfd 	stp	x29, x30, [sp,#-48]!
    8a9c:	910003fd 	mov	x29, sp
    8aa0:	a9025bf5 	stp	x21, x22, [sp,#32]
    8aa4:	2a0203f6 	mov	w22, w2
/home/asaf/devel/optee/optee_os/lib/libmpa/mpa_mul.c:102
    8aa8:	b9400002 	ldr	w2, [x0]
/home/asaf/devel/optee/optee_os/lib/libmpa/mpa_mul.c:95
    8aac:	aa0103f5 	mov	x21, x1
    8ab0:	a90153f3 	stp	x19, x20, [sp,#16]
/home/asaf/devel/optee/optee_os/lib/libmpa/mpa_mul.c:102
    8ab4:	91002014 	add	x20, x0, #0x8
    8ab8:	52800001 	mov	w1, #0x0                   	// #0
/home/asaf/devel/optee/optee_os/lib/libmpa/mpa_mul.c:95
    8abc:	aa0003f3 	mov	x19, x0
/home/asaf/devel/optee/optee_os/lib/libmpa/mpa_mul.c:102
    8ac0:	d37e7442 	ubfiz	x2, x2, #2, #30
    8ac4:	aa1403e0 	mov	x0, x20
    8ac8:	97fff4ca 	bl	5df0 <memset>
/home/asaf/devel/optee/optee_os/lib/libmpa/mpa_mul.c:104
    8acc:	910022a3 	add	x3, x21, #0x8
/home/asaf/devel/optee/optee_os/lib/libmpa/mpa_mul.c:107
    8ad0:	d2800000 	mov	x0, #0x0                   	// #0
/home/asaf/devel/optee/optee_os/lib/libmpa/mpa_mul.c:106
    8ad4:	52800001 	mov	w1, #0x0                   	// #0
/home/asaf/devel/optee/optee_os/lib/libmpa/mpa_mul.c:107 (discriminator 1)
    8ad8:	b94006a2 	ldr	w2, [x21,#4]
    8adc:	7100005f 	cmp	w2, #0x0
    8ae0:	5a82a442 	cneg	w2, w2, lt
    8ae4:	6b00005f 	cmp	w2, w0
    8ae8:	54000168 	b.hi	8b14 <__mpa_abs_mul_word+0x7c>
/home/asaf/devel/optee/optee_os/lib/libmpa/mpa_mul.c:111
    8aec:	b9000660 	str	w0, [x19,#4]
/home/asaf/devel/optee/optee_os/lib/libmpa/mpa_mul.c:112
    8af0:	340000a1 	cbz	w1, 8b04 <__mpa_abs_mul_word+0x6c>
/home/asaf/devel/optee/optee_os/lib/libmpa/mpa_mul.c:113
    8af4:	b8205a81 	str	w1, [x20,w0,uxtw #2]
/home/asaf/devel/optee/optee_os/lib/libmpa/mpa_mul.c:114
    8af8:	b9400660 	ldr	w0, [x19,#4]
    8afc:	11000400 	add	w0, w0, #0x1
    8b00:	b9000660 	str	w0, [x19,#4]
/home/asaf/devel/optee/optee_os/lib/libmpa/mpa_mul.c:116
    8b04:	a94153f3 	ldp	x19, x20, [sp,#16]
    8b08:	a9425bf5 	ldp	x21, x22, [sp,#32]
    8b0c:	a8c37bfd 	ldp	x29, x30, [sp],#48
    8b10:	d65f03c0 	ret
__mpa_mul_add_word():
/home/asaf/devel/optee/optee_os/lib/libmpa/mpa_mul.c:54 (discriminator 3)
    8b14:	b8607862 	ldr	w2, [x3,x0,lsl #2]
    8b18:	2a0103e1 	mov	w1, w1
    8b1c:	9bb60441 	umaddl	x1, w2, w22, x1
/home/asaf/devel/optee/optee_os/lib/libmpa/mpa_mul.c:55 (discriminator 3)
    8b20:	b8205a81 	str	w1, [x20,w0,uxtw #2]
    8b24:	91000400 	add	x0, x0, #0x1
/home/asaf/devel/optee/optee_os/lib/libmpa/mpa_mul.c:56 (discriminator 3)
    8b28:	d360fc21 	lsr	x1, x1, #32
    8b2c:	17ffffeb 	b	8ad8 <__mpa_abs_mul_word+0x40>

0000000000008b30 <__mpa_abs_mul>:
__mpa_abs_mul():
/home/asaf/devel/optee/optee_os/lib/libmpa/mpa_mul.c:126
    8b30:	a9b97bfd 	stp	x29, x30, [sp,#-112]!
    8b34:	910003fd 	mov	x29, sp
    8b38:	a90153f3 	stp	x19, x20, [sp,#16]
/home/asaf/devel/optee/optee_os/lib/libmpa/mpa_mul.c:129
    8b3c:	9101c3b4 	add	x20, x29, #0x70
/home/asaf/devel/optee/optee_os/lib/libmpa/mpa_mul.c:126
    8b40:	a90573fb 	stp	x27, x28, [sp,#80]
/home/asaf/devel/optee/optee_os/lib/libmpa/mpa_mul.c:140
    8b44:	9100205c 	add	x28, x2, #0x8
/home/asaf/devel/optee/optee_os/lib/libmpa/mpa_mul.c:126
    8b48:	a90363f7 	stp	x23, x24, [sp,#48]
    8b4c:	aa0203f7 	mov	x23, x2
/home/asaf/devel/optee/optee_os/lib/libmpa/mpa_mul.c:135
    8b50:	b9400002 	ldr	w2, [x0]
/home/asaf/devel/optee/optee_os/lib/libmpa/mpa_mul.c:126
    8b54:	aa0003f3 	mov	x19, x0
    8b58:	a9025bf5 	stp	x21, x22, [sp,#32]
    8b5c:	aa0103f6 	mov	x22, x1
/home/asaf/devel/optee/optee_os/lib/libmpa/mpa_mul.c:135
    8b60:	91002015 	add	x21, x0, #0x8
/home/asaf/devel/optee/optee_os/lib/libmpa/mpa_mul.c:126
    8b64:	a9046bf9 	stp	x25, x26, [sp,#64]
/home/asaf/devel/optee/optee_os/lib/libmpa/mpa_mul.c:135
    8b68:	d37e7442 	ubfiz	x2, x2, #2, #30
/home/asaf/devel/optee/optee_os/lib/libmpa/mpa_mul.c:129
    8b6c:	b81fce9f 	str	wzr, [x20,#-4]!
/home/asaf/devel/optee/optee_os/lib/libmpa/mpa_mul.c:135
    8b70:	52800001 	mov	w1, #0x0                   	// #0
    8b74:	aa1503e0 	mov	x0, x21
/home/asaf/devel/optee/optee_os/lib/libmpa/mpa_mul.c:137
    8b78:	910022db 	add	x27, x22, #0x8
/home/asaf/devel/optee/optee_os/lib/libmpa/mpa_mul.c:135
    8b7c:	97fff49d 	bl	5df0 <memset>
/home/asaf/devel/optee/optee_os/lib/libmpa/mpa_mul.c:139
    8b80:	d2800019 	mov	x25, #0x0                   	// #0
/home/asaf/devel/optee/optee_os/lib/libmpa/mpa_mul.c:128
    8b84:	52800002 	mov	w2, #0x0                   	// #0
/home/asaf/devel/optee/optee_os/lib/libmpa/mpa_mul.c:139 (discriminator 1)
    8b88:	b94006c0 	ldr	w0, [x22,#4]
    8b8c:	8b190aba 	add	x26, x21, x25, lsl #2
    8b90:	7100001f 	cmp	w0, #0x0
    8b94:	5a80a400 	cneg	w0, w0, lt
    8b98:	6b00033f 	cmp	w25, w0
    8b9c:	540001c3 	b.cc	8bd4 <__mpa_abs_mul+0xa4>
/home/asaf/devel/optee/optee_os/lib/libmpa/mpa_mul.c:151
    8ba0:	0b020320 	add	w0, w25, w2
    8ba4:	51000401 	sub	w1, w0, #0x1
    8ba8:	b9000661 	str	w1, [x19,#4]
/home/asaf/devel/optee/optee_os/lib/libmpa/mpa_mul.c:152
    8bac:	b9406fa1 	ldr	w1, [x29,#108]
    8bb0:	34000041 	cbz	w1, 8bb8 <__mpa_abs_mul+0x88>
/home/asaf/devel/optee/optee_os/lib/libmpa/mpa_mul.c:153
    8bb4:	b9000660 	str	w0, [x19,#4]
/home/asaf/devel/optee/optee_os/lib/libmpa/mpa_mul.c:154
    8bb8:	a94153f3 	ldp	x19, x20, [sp,#16]
    8bbc:	a9425bf5 	ldp	x21, x22, [sp,#32]
    8bc0:	a94363f7 	ldp	x23, x24, [sp,#48]
    8bc4:	a9446bf9 	ldp	x25, x26, [sp,#64]
    8bc8:	a94573fb 	ldp	x27, x28, [sp,#80]
    8bcc:	a8c77bfd 	ldp	x29, x30, [sp],#112
    8bd0:	d65f03c0 	ret
/home/asaf/devel/optee/optee_os/lib/libmpa/mpa_mul.c:142
    8bd4:	d2800018 	mov	x24, #0x0                   	// #0
/home/asaf/devel/optee/optee_os/lib/libmpa/mpa_mul.c:141
    8bd8:	b9006fbf 	str	wzr, [x29,#108]
/home/asaf/devel/optee/optee_os/lib/libmpa/mpa_mul.c:142 (discriminator 1)
    8bdc:	b94006e0 	ldr	w0, [x23,#4]
    8be0:	2a1803e2 	mov	w2, w24
    8be4:	7100001f 	cmp	w0, #0x0
    8be8:	5a80a400 	cneg	w0, w0, lt
    8bec:	6b00031f 	cmp	w24, w0
    8bf0:	540000c3 	b.cc	8c08 <__mpa_abs_mul+0xd8>
/home/asaf/devel/optee/optee_os/lib/libmpa/mpa_mul.c:146
    8bf4:	b9406fa0 	ldr	w0, [x29,#108]
    8bf8:	34000040 	cbz	w0, 8c00 <__mpa_abs_mul+0xd0>
/home/asaf/devel/optee/optee_os/lib/libmpa/mpa_mul.c:147
    8bfc:	b8385b40 	str	w0, [x26,w24,uxtw #2]
    8c00:	91000739 	add	x25, x25, #0x1
    8c04:	17ffffe1 	b	8b88 <__mpa_abs_mul+0x58>
/home/asaf/devel/optee/optee_os/lib/libmpa/mpa_mul.c:143 (discriminator 3)
    8c08:	b8787b81 	ldr	w1, [x28,x24,lsl #2]
    8c0c:	8b384b42 	add	x2, x26, w24, uxtw #2
    8c10:	b8797b60 	ldr	w0, [x27,x25,lsl #2]
    8c14:	aa1403e3 	mov	x3, x20
    8c18:	91000718 	add	x24, x24, #0x1
    8c1c:	97ffff97 	bl	8a78 <__mpa_mul_add_word_cum>
    8c20:	17ffffef 	b	8bdc <__mpa_abs_mul+0xac>

0000000000008c24 <mpa_mul>:
mpa_mul():
/home/asaf/devel/optee/optee_os/lib/libmpa/mpa_mul.c:169
    8c24:	a9bb7bfd 	stp	x29, x30, [sp,#-80]!
    8c28:	910003fd 	mov	x29, sp
    8c2c:	a90153f3 	stp	x19, x20, [sp,#16]
    8c30:	aa0003f3 	mov	x19, x0
/home/asaf/devel/optee/optee_os/lib/libmpa/mpa_mul.c:173
    8c34:	b9400420 	ldr	w0, [x1,#4]
/home/asaf/devel/optee/optee_os/lib/libmpa/mpa_mul.c:169
    8c38:	a9025bf5 	stp	x21, x22, [sp,#32]
    8c3c:	f9001bf7 	str	x23, [sp,#48]
/home/asaf/devel/optee/optee_os/lib/libmpa/mpa_mul.c:173
    8c40:	34000080 	cbz	w0, 8c50 <mpa_mul+0x2c>
/home/asaf/devel/optee/optee_os/lib/libmpa/mpa_mul.c:173 (discriminator 1)
    8c44:	b9400440 	ldr	w0, [x2,#4]
    8c48:	aa0203f5 	mov	x21, x2
    8c4c:	35000120 	cbnz	w0, 8c70 <mpa_mul+0x4c>
/home/asaf/devel/optee/optee_os/lib/libmpa/mpa_mul.c:174
    8c50:	52800001 	mov	w1, #0x0                   	// #0
    8c54:	aa1303e0 	mov	x0, x19
    8c58:	97fffab8 	bl	7738 <mpa_set_word>
/home/asaf/devel/optee/optee_os/lib/libmpa/mpa_mul.c:193
    8c5c:	a94153f3 	ldp	x19, x20, [sp,#16]
    8c60:	a9425bf5 	ldp	x21, x22, [sp,#32]
    8c64:	f9401bf7 	ldr	x23, [sp,#48]
    8c68:	a8c57bfd 	ldp	x29, x30, [sp],#80
    8c6c:	d65f03c0 	ret
/home/asaf/devel/optee/optee_os/lib/libmpa/mpa_mul.c:179
    8c70:	eb13003f 	cmp	x1, x19
    8c74:	aa0103f6 	mov	x22, x1
    8c78:	1a9f17f4 	cset	w20, eq
    8c7c:	eb13005f 	cmp	x2, x19
    8c80:	1a9f17e0 	cset	w0, eq
    8c84:	aa0303f7 	mov	x23, x3
    8c88:	2a000294 	orr	w20, w20, w0
/home/asaf/devel/optee/optee_os/lib/libmpa/mpa_mul.c:180
    8c8c:	340003b4 	cbz	w20, 8d00 <mpa_mul+0xdc>
/home/asaf/devel/optee/optee_os/lib/libmpa/mpa_mul.c:181
    8c90:	aa0303e1 	mov	x1, x3
    8c94:	910123a0 	add	x0, x29, #0x48
    8c98:	97ffff5b 	bl	8a04 <mpa_alloc_static_temp_var>
/home/asaf/devel/optee/optee_os/lib/libmpa/mpa_mul.c:185
    8c9c:	f94027a0 	ldr	x0, [x29,#72]
    8ca0:	aa1503e2 	mov	x2, x21
    8ca4:	aa1603e1 	mov	x1, x22
    8ca8:	97ffffa2 	bl	8b30 <__mpa_abs_mul>
/home/asaf/devel/optee/optee_os/lib/libmpa/mpa_mul.c:187
    8cac:	b94006c1 	ldr	w1, [x22,#4]
    8cb0:	12800000 	mov	w0, #0xffffffff            	// #-1
    8cb4:	b94006a2 	ldr	w2, [x21,#4]
    8cb8:	6b00003f 	cmp	w1, w0
    8cbc:	5a80d401 	cneg	w1, w0, gt
    8cc0:	6b00005f 	cmp	w2, w0
    8cc4:	5a80d400 	cneg	w0, w0, gt
    8cc8:	6b00003f 	cmp	w1, w0
    8ccc:	540000a0 	b.eq	8ce0 <mpa_mul+0xbc>
/home/asaf/devel/optee/optee_os/lib/libmpa/mpa_mul.c:188
    8cd0:	f94027a1 	ldr	x1, [x29,#72]
    8cd4:	b9400420 	ldr	w0, [x1,#4]
    8cd8:	4b0003e0 	neg	w0, w0
    8cdc:	b9000420 	str	w0, [x1,#4]
/home/asaf/devel/optee/optee_os/lib/libmpa/mpa_mul.c:190
    8ce0:	f94027a1 	ldr	x1, [x29,#72]
    8ce4:	aa1303e0 	mov	x0, x19
    8ce8:	97fff835 	bl	6dbc <mpa_copy>
/home/asaf/devel/optee/optee_os/lib/libmpa/mpa_mul.c:191
    8cec:	34fffb94 	cbz	w20, 8c5c <mpa_mul+0x38>
/home/asaf/devel/optee/optee_os/lib/libmpa/mpa_mul.c:192
    8cf0:	aa1703e1 	mov	x1, x23
    8cf4:	910123a0 	add	x0, x29, #0x48
    8cf8:	97ffff47 	bl	8a14 <mpa_free_static_temp_var>
    8cfc:	17ffffd8 	b	8c5c <mpa_mul+0x38>
/home/asaf/devel/optee/optee_os/lib/libmpa/mpa_mul.c:183
    8d00:	f90027b3 	str	x19, [x29,#72]
    8d04:	17ffffe6 	b	8c9c <mpa_mul+0x78>

0000000000008d08 <mpa_mul_word>:
mpa_mul_word():
/home/asaf/devel/optee/optee_os/lib/libmpa/mpa_mul.c:202
    8d08:	a9bb7bfd 	stp	x29, x30, [sp,#-80]!
    8d0c:	910003fd 	mov	x29, sp
    8d10:	a90153f3 	stp	x19, x20, [sp,#16]
    8d14:	aa0103f4 	mov	x20, x1
/home/asaf/devel/optee/optee_os/lib/libmpa/mpa_mul.c:207
    8d18:	b9400421 	ldr	w1, [x1,#4]
/home/asaf/devel/optee/optee_os/lib/libmpa/mpa_mul.c:202
    8d1c:	a9025bf5 	stp	x21, x22, [sp,#32]
    8d20:	f9001bf7 	str	x23, [sp,#48]
/home/asaf/devel/optee/optee_os/lib/libmpa/mpa_mul.c:207
    8d24:	7100003f 	cmp	w1, #0x0
    8d28:	7a401844 	ccmp	w2, #0x0, #0x4, ne
    8d2c:	54000101 	b.ne	8d4c <mpa_mul_word+0x44>
/home/asaf/devel/optee/optee_os/lib/libmpa/mpa_mul.c:208
    8d30:	52800001 	mov	w1, #0x0                   	// #0
    8d34:	97fffa81 	bl	7738 <mpa_set_word>
/home/asaf/devel/optee/optee_os/lib/libmpa/mpa_mul.c:228
    8d38:	a94153f3 	ldp	x19, x20, [sp,#16]
    8d3c:	a9425bf5 	ldp	x21, x22, [sp,#32]
    8d40:	f9401bf7 	ldr	x23, [sp,#48]
    8d44:	a8c57bfd 	ldp	x29, x30, [sp],#80
    8d48:	d65f03c0 	ret
    8d4c:	aa0003f3 	mov	x19, x0
/home/asaf/devel/optee/optee_os/lib/libmpa/mpa_mul.c:212
    8d50:	12800000 	mov	w0, #0xffffffff            	// #-1
    8d54:	6b00003f 	cmp	w1, w0
    8d58:	2a0203f7 	mov	w23, w2
    8d5c:	5a80d415 	cneg	w21, w0, gt
    8d60:	aa0303f6 	mov	x22, x3
/home/asaf/devel/optee/optee_os/lib/libmpa/mpa_mul.c:216
    8d64:	eb13029f 	cmp	x20, x19
    8d68:	540002e1 	b.ne	8dc4 <mpa_mul_word+0xbc>
/home/asaf/devel/optee/optee_os/lib/libmpa/mpa_mul.c:217
    8d6c:	aa0303e1 	mov	x1, x3
    8d70:	910123a0 	add	x0, x29, #0x48
    8d74:	97ffff24 	bl	8a04 <mpa_alloc_static_temp_var>
/home/asaf/devel/optee/optee_os/lib/libmpa/mpa_mul.c:221
    8d78:	f94027a0 	ldr	x0, [x29,#72]
    8d7c:	2a1703e2 	mov	w2, w23
    8d80:	aa1403e1 	mov	x1, x20
    8d84:	97ffff45 	bl	8a98 <__mpa_abs_mul_word>
/home/asaf/devel/optee/optee_os/lib/libmpa/mpa_mul.c:223
    8d88:	310006bf 	cmn	w21, #0x1
    8d8c:	540000a1 	b.ne	8da0 <mpa_mul_word+0x98>
/home/asaf/devel/optee/optee_os/lib/libmpa/mpa_mul.c:224
    8d90:	f94027a1 	ldr	x1, [x29,#72]
    8d94:	b9400420 	ldr	w0, [x1,#4]
    8d98:	4b0003e0 	neg	w0, w0
    8d9c:	b9000420 	str	w0, [x1,#4]
/home/asaf/devel/optee/optee_os/lib/libmpa/mpa_mul.c:225
    8da0:	f94027a1 	ldr	x1, [x29,#72]
    8da4:	aa1303e0 	mov	x0, x19
    8da8:	97fff805 	bl	6dbc <mpa_copy>
/home/asaf/devel/optee/optee_os/lib/libmpa/mpa_mul.c:226
    8dac:	eb13029f 	cmp	x20, x19
    8db0:	54fffc41 	b.ne	8d38 <mpa_mul_word+0x30>
/home/asaf/devel/optee/optee_os/lib/libmpa/mpa_mul.c:227
    8db4:	aa1603e1 	mov	x1, x22
    8db8:	910123a0 	add	x0, x29, #0x48
    8dbc:	97ffff16 	bl	8a14 <mpa_free_static_temp_var>
    8dc0:	17ffffde 	b	8d38 <mpa_mul_word+0x30>
/home/asaf/devel/optee/optee_os/lib/libmpa/mpa_mul.c:219
    8dc4:	f90027b3 	str	x19, [x29,#72]
    8dc8:	17ffffec 	b	8d78 <mpa_mul_word+0x70>

0000000000008dcc <mpa_set_random_generator>:
mpa_set_random_generator():
/home/asaf/devel/optee/optee_os/lib/libmpa/mpa_random.c:34
    8dcc:	d0000061 	adrp	x1, 16000 <mempool_u32+0xe90>
    8dd0:	f9069820 	str	x0, [x1,#3376]
    8dd4:	d65f03c0 	ret

0000000000008dd8 <mpa_get_random>:
mpa_get_random():
/home/asaf/devel/optee/optee_os/lib/libmpa/mpa_random.c:52
    8dd8:	a9ba7bfd 	stp	x29, x30, [sp,#-96]!
    8ddc:	910003fd 	mov	x29, sp
    8de0:	a9025bf5 	stp	x21, x22, [sp,#32]
    8de4:	aa0103f5 	mov	x21, x1
    8de8:	a90153f3 	stp	x19, x20, [sp,#16]
    8dec:	aa0003f4 	mov	x20, x0
    8df0:	a90363f7 	stp	x23, x24, [sp,#48]
get_random_byte():
/home/asaf/devel/optee/optee_os/lib/libmpa/mpa_random.c:40
    8df4:	91017fb7 	add	x23, x29, #0x5f
mpa_get_random():
/home/asaf/devel/optee/optee_os/lib/libmpa/mpa_random.c:52
    8df8:	a9046bf9 	stp	x25, x26, [sp,#64]
/home/asaf/devel/optee/optee_os/lib/libmpa/mpa_random.c:55
    8dfc:	97fff7e4 	bl	6d8c <mpa_wipe>
/home/asaf/devel/optee/optee_os/lib/libmpa/mpa_random.c:56
    8e00:	b94006a0 	ldr	w0, [x21,#4]
    8e04:	52800013 	mov	w19, #0x0                   	// #0
    8e08:	b9400281 	ldr	w1, [x20]
    8e0c:	7100001f 	cmp	w0, #0x0
    8e10:	5a80a400 	cneg	w0, w0, lt
/home/asaf/devel/optee/optee_os/lib/libmpa/mpa_random.c:57
    8e14:	6b00003f 	cmp	w1, w0
    8e18:	1a812000 	csel	w0, w0, w1, cs
    8e1c:	b9000680 	str	w0, [x20,#4]
get_random_byte():
/home/asaf/devel/optee/optee_os/lib/libmpa/mpa_random.c:40
    8e20:	d000007a 	adrp	x26, 16000 <mempool_u32+0xe90>
mpa_get_random():
/home/asaf/devel/optee/optee_os/lib/libmpa/mpa_random.c:60
    8e24:	35000593 	cbnz	w19, 8ed4 <mpa_get_random+0xfc>
    8e28:	91002299 	add	x25, x20, #0x8
    8e2c:	1400000f 	b	8e68 <mpa_get_random+0x90>
    8e30:	52800098 	mov	w24, #0x4                   	// #4
    8e34:	52800000 	mov	w0, #0x0                   	// #0
/home/asaf/devel/optee/optee_os/lib/libmpa/mpa_random.c:64 (discriminator 3)
    8e38:	53185c16 	lsl	w22, w0, #8
get_random_byte():
/home/asaf/devel/optee/optee_os/lib/libmpa/mpa_random.c:40
    8e3c:	f9469b42 	ldr	x2, [x26,#3376]
    8e40:	d2800021 	mov	x1, #0x1                   	// #1
    8e44:	aa1703e0 	mov	x0, x23
    8e48:	d63f0040 	blr	x2
    8e4c:	35ffff80 	cbnz	w0, 8e3c <mpa_get_random+0x64>
/home/asaf/devel/optee/optee_os/lib/libmpa/mpa_random.c:43
    8e50:	39417fa0 	ldrb	w0, [x29,#95]
mpa_get_random():
/home/asaf/devel/optee/optee_os/lib/libmpa/mpa_random.c:63
    8e54:	71000718 	subs	w24, w24, #0x1
/home/asaf/devel/optee/optee_os/lib/libmpa/mpa_random.c:64
    8e58:	4a160000 	eor	w0, w0, w22
/home/asaf/devel/optee/optee_os/lib/libmpa/mpa_random.c:63
    8e5c:	54fffee1 	b.ne	8e38 <mpa_get_random+0x60>
/home/asaf/devel/optee/optee_os/lib/libmpa/mpa_random.c:61 (discriminator 2)
    8e60:	11000673 	add	w19, w19, #0x1
/home/asaf/devel/optee/optee_os/lib/libmpa/mpa_random.c:65 (discriminator 2)
    8e64:	b8004720 	str	w0, [x25],#4
/home/asaf/devel/optee/optee_os/lib/libmpa/mpa_random.c:61 (discriminator 1)
    8e68:	b9400681 	ldr	w1, [x20,#4]
    8e6c:	6b01027f 	cmp	w19, w1
    8e70:	54fffe0b 	b.lt	8e30 <mpa_get_random+0x58>
/home/asaf/devel/optee/optee_os/lib/libmpa/mpa_random.c:67
    8e74:	b94006a0 	ldr	w0, [x21,#4]
/home/asaf/devel/optee/optee_os/lib/libmpa/mpa_random.c:68
    8e78:	52800033 	mov	w19, #0x1                   	// #1
/home/asaf/devel/optee/optee_os/lib/libmpa/mpa_random.c:67
    8e7c:	7100001f 	cmp	w0, #0x0
    8e80:	5a80a400 	cneg	w0, w0, lt
    8e84:	6b00003f 	cmp	w1, w0
    8e88:	5400026b 	b.lt	8ed4 <mpa_get_random+0xfc>
/home/asaf/devel/optee/optee_os/lib/libmpa/mpa_random.c:71
    8e8c:	aa1503e0 	mov	x0, x21
    8e90:	97fff7ec 	bl	6e40 <mpa_highest_bit_index>
/home/asaf/devel/optee/optee_os/lib/libmpa/mpa_random.c:73
    8e94:	12001000 	and	w0, w0, #0x1f
    8e98:	0b130000 	add	w0, w0, w19
/home/asaf/devel/optee/optee_os/lib/libmpa/mpa_random.c:74
    8e9c:	7100801f 	cmp	w0, #0x20
    8ea0:	54000100 	b.eq	8ec0 <mpa_get_random+0xe8>
/home/asaf/devel/optee/optee_os/lib/libmpa/mpa_random.c:75
    8ea4:	1ac02273 	lsl	w19, w19, w0
    8ea8:	b9800680 	ldrsw	x0, [x20,#4]
    8eac:	51000673 	sub	w19, w19, #0x1
    8eb0:	8b000a80 	add	x0, x20, x0, lsl #2
/home/asaf/devel/optee/optee_os/lib/libmpa/mpa_random.c:76
    8eb4:	b9400401 	ldr	w1, [x0,#4]
    8eb8:	0a130033 	and	w19, w1, w19
    8ebc:	b9000413 	str	w19, [x0,#4]
/home/asaf/devel/optee/optee_os/lib/libmpa/mpa_random.c:78
    8ec0:	aa1503e1 	mov	x1, x21
    8ec4:	aa1403e0 	mov	x0, x20
    8ec8:	9400038e 	bl	9d00 <mpa_cmp>
    8ecc:	531f7c13 	lsr	w19, w0, #31
    8ed0:	17ffffd4 	b	8e20 <mpa_get_random+0x48>
/home/asaf/devel/optee/optee_os/lib/libmpa/mpa_random.c:81
    8ed4:	a94153f3 	ldp	x19, x20, [sp,#16]
    8ed8:	a9425bf5 	ldp	x21, x22, [sp,#32]
    8edc:	a94363f7 	ldp	x23, x24, [sp,#48]
    8ee0:	a9446bf9 	ldp	x25, x26, [sp,#64]
    8ee4:	a8c67bfd 	ldp	x29, x30, [sp],#96
    8ee8:	d65f03c0 	ret

0000000000008eec <mpa_get_random_digits>:
mpa_get_random_digits():
/home/asaf/devel/optee/optee_os/lib/libmpa/mpa_random.c:84
    8eec:	a9be7bfd 	stp	x29, x30, [sp,#-32]!
    8ef0:	910003fd 	mov	x29, sp
    8ef4:	a90153f3 	stp	x19, x20, [sp,#16]
    8ef8:	aa0003f4 	mov	x20, x0
    8efc:	2a0103f3 	mov	w19, w1
/home/asaf/devel/optee/optee_os/lib/libmpa/mpa_random.c:85
    8f00:	97fff7a3 	bl	6d8c <mpa_wipe>
/home/asaf/devel/optee/optee_os/lib/libmpa/mpa_random.c:87
    8f04:	b9400280 	ldr	w0, [x20]
    8f08:	6b13001f 	cmp	w0, w19
    8f0c:	540000a2 	b.cs	8f20 <mpa_get_random_digits+0x34>
/home/asaf/devel/optee/optee_os/lib/libmpa/mpa_random.c:88
    8f10:	52800000 	mov	w0, #0x0                   	// #0
/home/asaf/devel/optee/optee_os/lib/libmpa/mpa_random.c:96
    8f14:	a94153f3 	ldp	x19, x20, [sp,#16]
    8f18:	a8c27bfd 	ldp	x29, x30, [sp],#32
    8f1c:	d65f03c0 	ret
/home/asaf/devel/optee/optee_os/lib/libmpa/mpa_random.c:92
    8f20:	d0000060 	adrp	x0, 16000 <mempool_u32+0xe90>
    8f24:	7100027f 	cmp	w19, #0x0
/home/asaf/devel/optee/optee_os/lib/libmpa/mpa_random.c:90
    8f28:	b9000693 	str	w19, [x20,#4]
/home/asaf/devel/optee/optee_os/lib/libmpa/mpa_random.c:92
    8f2c:	5a93a673 	cneg	w19, w19, lt
    8f30:	f9469802 	ldr	x2, [x0,#3376]
    8f34:	531e7661 	lsl	w1, w19, #2
    8f38:	91002280 	add	x0, x20, #0x8
    8f3c:	93407c21 	sxtw	x1, w1
    8f40:	d63f0040 	blr	x2
    8f44:	35fffe60 	cbnz	w0, 8f10 <mpa_get_random_digits+0x24>
/home/asaf/devel/optee/optee_os/lib/libmpa/mpa_random.c:95
    8f48:	b9400680 	ldr	w0, [x20,#4]
    8f4c:	7100001f 	cmp	w0, #0x0
    8f50:	5a80a400 	cneg	w0, w0, lt
    8f54:	17fffff0 	b	8f14 <mpa_get_random_digits+0x28>

0000000000008f58 <__mpa_shift_words_left>:
__mpa_shift_words_left():
/home/asaf/devel/optee/optee_os/lib/libmpa/mpa_shift.c:44
    8f58:	340004a1 	cbz	w1, 8fec <__mpa_shift_words_left+0x94>
/home/asaf/devel/optee/optee_os/lib/libmpa/mpa_shift.c:41 (discriminator 1)
    8f5c:	a9bd7bfd 	stp	x29, x30, [sp,#-48]!
    8f60:	910003fd 	mov	x29, sp
    8f64:	f90013f5 	str	x21, [sp,#32]
    8f68:	a90153f3 	stp	x19, x20, [sp,#16]
/home/asaf/devel/optee/optee_os/lib/libmpa/mpa_shift.c:44 (discriminator 1)
    8f6c:	b9400415 	ldr	w21, [x0,#4]
    8f70:	710002bf 	cmp	w21, #0x0
    8f74:	54000280 	b.eq	8fc4 <__mpa_shift_words_left+0x6c>
    8f78:	51000425 	sub	w5, w1, #0x1
/home/asaf/devel/optee/optee_os/lib/libmpa/mpa_shift.c:46
    8f7c:	5a95a6a2 	cneg	w2, w21, lt
    8f80:	0b050042 	add	w2, w2, w5
    8f84:	d37e7c43 	ubfiz	x3, x2, #2, #32
    8f88:	91002063 	add	x3, x3, #0x8
    8f8c:	8b030003 	add	x3, x0, x3
/home/asaf/devel/optee/optee_os/lib/libmpa/mpa_shift.c:46 (discriminator 1)
    8f90:	6b05005f 	cmp	w2, w5
    8f94:	54000208 	b.hi	8fd4 <__mpa_shift_words_left+0x7c>
    8f98:	2a0103f3 	mov	w19, w1
    8f9c:	aa0003f4 	mov	x20, x0
/home/asaf/devel/optee/optee_os/lib/libmpa/mpa_shift.c:49
    8fa0:	52800001 	mov	w1, #0x0                   	// #0
    8fa4:	d37e7662 	ubfiz	x2, x19, #2, #30
    8fa8:	91002000 	add	x0, x0, #0x8
    8fac:	97fff391 	bl	5df0 <memset>
/home/asaf/devel/optee/optee_os/lib/libmpa/mpa_shift.c:53
    8fb0:	4b1302a0 	sub	w0, w21, w19
    8fb4:	0b1302a1 	add	w1, w21, w19
    8fb8:	710002bf 	cmp	w21, #0x0
    8fbc:	1a80c021 	csel	w1, w1, w0, gt
    8fc0:	b9000681 	str	w1, [x20,#4]
/home/asaf/devel/optee/optee_os/lib/libmpa/mpa_shift.c:56
    8fc4:	a94153f3 	ldp	x19, x20, [sp,#16]
    8fc8:	f94013f5 	ldr	x21, [sp,#32]
    8fcc:	a8c37bfd 	ldp	x29, x30, [sp],#48
    8fd0:	d65f03c0 	ret
/home/asaf/devel/optee/optee_os/lib/libmpa/mpa_shift.c:47 (discriminator 3)
    8fd4:	4b010044 	sub	w4, w2, w1
/home/asaf/devel/optee/optee_os/lib/libmpa/mpa_shift.c:46 (discriminator 3)
    8fd8:	51000442 	sub	w2, w2, #0x1
/home/asaf/devel/optee/optee_os/lib/libmpa/mpa_shift.c:47 (discriminator 3)
    8fdc:	8b040804 	add	x4, x0, x4, lsl #2
    8fe0:	b9400884 	ldr	w4, [x4,#8]
    8fe4:	b81fc464 	str	w4, [x3],#-4
    8fe8:	17ffffea 	b	8f90 <__mpa_shift_words_left+0x38>
    8fec:	d65f03c0 	ret

0000000000008ff0 <__mpa_shift_words_right>:
__mpa_shift_words_right():
/home/asaf/devel/optee/optee_os/lib/libmpa/mpa_shift.c:64
    8ff0:	aa0003e3 	mov	x3, x0
/home/asaf/devel/optee/optee_os/lib/libmpa/mpa_shift.c:67
    8ff4:	34000201 	cbz	w1, 9034 <__mpa_shift_words_right+0x44>
/home/asaf/devel/optee/optee_os/lib/libmpa/mpa_shift.c:67 (discriminator 1)
    8ff8:	b9400402 	ldr	w2, [x0,#4]
    8ffc:	7100005f 	cmp	w2, #0x0
    9000:	540001a0 	b.eq	9034 <__mpa_shift_words_right+0x44>
/home/asaf/devel/optee/optee_os/lib/libmpa/mpa_shift.c:70
    9004:	5a82a444 	cneg	w4, w2, lt
    9008:	6b04003f 	cmp	w1, w4
    900c:	54000162 	b.cs	9038 <__mpa_shift_words_right+0x48>
    9010:	91002005 	add	x5, x0, #0x8
    9014:	2a0103e0 	mov	w0, w1
/home/asaf/devel/optee/optee_os/lib/libmpa/mpa_shift.c:75 (discriminator 1)
    9018:	6b04001f 	cmp	w0, w4
    901c:	54000121 	b.ne	9040 <__mpa_shift_words_right+0x50>
/home/asaf/devel/optee/optee_os/lib/libmpa/mpa_shift.c:80
    9020:	0b010040 	add	w0, w2, w1
    9024:	7100005f 	cmp	w2, #0x0
    9028:	4b010041 	sub	w1, w2, w1
    902c:	1a80c021 	csel	w1, w1, w0, gt
    9030:	b9000461 	str	w1, [x3,#4]
    9034:	d65f03c0 	ret
/home/asaf/devel/optee/optee_os/lib/libmpa/mpa_shift.c:71
    9038:	52800001 	mov	w1, #0x0                   	// #0
    903c:	17fff9bf 	b	7738 <mpa_set_word>
/home/asaf/devel/optee/optee_os/lib/libmpa/mpa_shift.c:76 (discriminator 3)
    9040:	8b204866 	add	x6, x3, w0, uxtw #2
    9044:	11000400 	add	w0, w0, #0x1
    9048:	b94008c6 	ldr	w6, [x6,#8]
    904c:	b80044a6 	str	w6, [x5],#4
    9050:	17fffff2 	b	9018 <__mpa_shift_words_right+0x28>

0000000000009054 <mpa_shift_left>:
mpa_shift_left():
/home/asaf/devel/optee/optee_os/lib/libmpa/mpa_shift.c:98
    9054:	a9bd7bfd 	stp	x29, x30, [sp,#-48]!
    9058:	910003fd 	mov	x29, sp
    905c:	a90153f3 	stp	x19, x20, [sp,#16]
    9060:	aa0003f3 	mov	x19, x0
    9064:	a9025bf5 	stp	x21, x22, [sp,#32]
    9068:	2a0203f6 	mov	w22, w2
/home/asaf/devel/optee/optee_os/lib/libmpa/mpa_shift.c:110
    906c:	97fff754 	bl	6dbc <mpa_copy>
/home/asaf/devel/optee/optee_os/lib/libmpa/mpa_shift.c:111
    9070:	aa1303e0 	mov	x0, x19
    9074:	97fff73d 	bl	6d68 <__mpa_set_unused_digits_to_zero>
/home/asaf/devel/optee/optee_os/lib/libmpa/mpa_shift.c:112
    9078:	34000316 	cbz	w22, 90d8 <mpa_shift_left+0x84>
/home/asaf/devel/optee/optee_os/lib/libmpa/mpa_shift.c:112 (discriminator 1)
    907c:	b9400674 	ldr	w20, [x19,#4]
    9080:	340002d4 	cbz	w20, 90d8 <mpa_shift_left+0x84>
/home/asaf/devel/optee/optee_os/lib/libmpa/mpa_shift.c:116
    9084:	53057ed5 	lsr	w21, w22, #5
/home/asaf/devel/optee/optee_os/lib/libmpa/mpa_shift.c:132
    9088:	720012d6 	ands	w22, w22, #0x1f
    908c:	540003a1 	b.ne	9100 <mpa_shift_left+0xac>
/home/asaf/devel/optee/optee_os/lib/libmpa/mpa_shift.c:136
    9090:	7100029f 	cmp	w20, #0x0
    9094:	510006a3 	sub	w3, w21, #0x1
    9098:	5a94a680 	cneg	w0, w20, lt
    909c:	0b030000 	add	w0, w0, w3
    90a0:	d37e7c01 	ubfiz	x1, x0, #2, #32
    90a4:	91002021 	add	x1, x1, #0x8
    90a8:	8b010261 	add	x1, x19, x1
/home/asaf/devel/optee/optee_os/lib/libmpa/mpa_shift.c:136 (discriminator 1)
    90ac:	6b03001f 	cmp	w0, w3
    90b0:	540001c8 	b.hi	90e8 <mpa_shift_left+0x94>
/home/asaf/devel/optee/optee_os/lib/libmpa/mpa_shift.c:162
    90b4:	d37e6aa2 	ubfiz	x2, x21, #2, #27
    90b8:	52800001 	mov	w1, #0x0                   	// #0
    90bc:	91002260 	add	x0, x19, #0x8
    90c0:	97fff34c 	bl	5df0 <memset>
/home/asaf/devel/optee/optee_os/lib/libmpa/mpa_shift.c:164
    90c4:	7100029f 	cmp	w20, #0x0
    90c8:	5400088d 	b.le	91d8 <mpa_shift_left+0x184>
/home/asaf/devel/optee/optee_os/lib/libmpa/mpa_shift.c:165
    90cc:	0b150294 	add	w20, w20, w21
    90d0:	0b160294 	add	w20, w20, w22
/home/asaf/devel/optee/optee_os/lib/libmpa/mpa_shift.c:167
    90d4:	b9000674 	str	w20, [x19,#4]
/home/asaf/devel/optee/optee_os/lib/libmpa/mpa_shift.c:168
    90d8:	a94153f3 	ldp	x19, x20, [sp,#16]
    90dc:	a9425bf5 	ldp	x21, x22, [sp,#32]
    90e0:	a8c37bfd 	ldp	x29, x30, [sp],#48
    90e4:	d65f03c0 	ret
/home/asaf/devel/optee/optee_os/lib/libmpa/mpa_shift.c:137 (discriminator 3)
    90e8:	4b150002 	sub	w2, w0, w21
/home/asaf/devel/optee/optee_os/lib/libmpa/mpa_shift.c:136 (discriminator 3)
    90ec:	51000400 	sub	w0, w0, #0x1
/home/asaf/devel/optee/optee_os/lib/libmpa/mpa_shift.c:137 (discriminator 3)
    90f0:	8b020a62 	add	x2, x19, x2, lsl #2
    90f4:	b9400842 	ldr	w2, [x2,#8]
    90f8:	b81fc422 	str	w2, [x1],#-4
    90fc:	17ffffec 	b	90ac <mpa_shift_left+0x58>
/home/asaf/devel/optee/optee_os/lib/libmpa/mpa_shift.c:139
    9100:	7100029f 	cmp	w20, #0x0
/home/asaf/devel/optee/optee_os/lib/libmpa/mpa_shift.c:140
    9104:	52800021 	mov	w1, #0x1                   	// #1
/home/asaf/devel/optee/optee_os/lib/libmpa/mpa_shift.c:139
    9108:	5a94a680 	cneg	w0, w20, lt
/home/asaf/devel/optee/optee_os/lib/libmpa/mpa_shift.c:140
    910c:	52800403 	mov	w3, #0x20                  	// #32
/home/asaf/devel/optee/optee_os/lib/libmpa/mpa_shift.c:139
    9110:	51000402 	sub	w2, w0, #0x1
/home/asaf/devel/optee/optee_os/lib/libmpa/mpa_shift.c:140
    9114:	4b160063 	sub	w3, w3, w22
/home/asaf/devel/optee/optee_os/lib/libmpa/mpa_shift.c:139
    9118:	8b22ca62 	add	x2, x19, w2, sxtw #2
/home/asaf/devel/optee/optee_os/lib/libmpa/mpa_shift.c:140
    911c:	1ad62021 	lsl	w1, w1, w22
    9120:	51000421 	sub	w1, w1, #0x1
/home/asaf/devel/optee/optee_os/lib/libmpa/mpa_shift.c:148
    9124:	0b150000 	add	w0, w0, w21
/home/asaf/devel/optee/optee_os/lib/libmpa/mpa_shift.c:139
    9128:	b9400842 	ldr	w2, [x2,#8]
/home/asaf/devel/optee/optee_os/lib/libmpa/mpa_shift.c:140
    912c:	1ac32021 	lsl	w1, w1, w3
/home/asaf/devel/optee/optee_os/lib/libmpa/mpa_shift.c:139
    9130:	6a020021 	ands	w1, w1, w2
    9134:	1a9f07e6 	cset	w6, ne
/home/asaf/devel/optee/optee_os/lib/libmpa/mpa_shift.c:148
    9138:	0b060000 	add	w0, w0, w6
/home/asaf/devel/optee/optee_os/lib/libmpa/mpa_shift.c:149
    913c:	34000141 	cbz	w1, 9164 <mpa_shift_left+0x110>
/home/asaf/devel/optee/optee_os/lib/libmpa/mpa_shift.c:150
    9140:	2a3503e1 	mvn	w1, w21
    9144:	8b204a64 	add	x4, x19, w0, uxtw #2
    9148:	0b000021 	add	w1, w1, w0
    914c:	8b010a61 	add	x1, x19, x1, lsl #2
    9150:	b9400821 	ldr	w1, [x1,#8]
    9154:	1ac32422 	lsr	w2, w1, w3
/home/asaf/devel/optee/optee_os/lib/libmpa/mpa_shift.c:151
    9158:	b9400881 	ldr	w1, [x4,#8]
    915c:	4a020021 	eor	w1, w1, w2
    9160:	b9000881 	str	w1, [x4,#8]
/home/asaf/devel/optee/optee_os/lib/libmpa/mpa_shift.c:153
    9164:	51000401 	sub	w1, w0, #0x1
    9168:	4b150000 	sub	w0, w0, w21
/home/asaf/devel/optee/optee_os/lib/libmpa/mpa_shift.c:154
    916c:	4b150024 	sub	w4, w1, w21
    9170:	8b010a65 	add	x5, x19, x1, lsl #2
    9174:	8b040a64 	add	x4, x19, x4, lsl #2
/home/asaf/devel/optee/optee_os/lib/libmpa/mpa_shift.c:153
    9178:	aa0103e2 	mov	x2, x1
    917c:	91000821 	add	x1, x1, #0x2
    9180:	51000800 	sub	w0, w0, #0x2
    9184:	8b010a61 	add	x1, x19, x1, lsl #2
/home/asaf/devel/optee/optee_os/lib/libmpa/mpa_shift.c:154
    9188:	b9400884 	ldr	w4, [x4,#8]
    918c:	1ad62084 	lsl	w4, w4, w22
    9190:	b90008a4 	str	w4, [x5,#8]
/home/asaf/devel/optee/optee_os/lib/libmpa/mpa_shift.c:155
    9194:	6b15005f 	cmp	w2, w21
    9198:	54000068 	b.hi	91a4 <mpa_shift_left+0x150>
/home/asaf/devel/optee/optee_os/lib/libmpa/mpa_shift.c:130
    919c:	2a0603f6 	mov	w22, w6
    91a0:	17ffffc5 	b	90b4 <mpa_shift_left+0x60>
/home/asaf/devel/optee/optee_os/lib/libmpa/mpa_shift.c:156
    91a4:	8b204a67 	add	x7, x19, w0, uxtw #2
/home/asaf/devel/optee/optee_os/lib/libmpa/mpa_shift.c:158
    91a8:	51000442 	sub	w2, w2, #0x1
    91ac:	51000400 	sub	w0, w0, #0x1
/home/asaf/devel/optee/optee_os/lib/libmpa/mpa_shift.c:156
    91b0:	b94008e4 	ldr	w4, [x7,#8]
    91b4:	1ac32485 	lsr	w5, w4, w3
/home/asaf/devel/optee/optee_os/lib/libmpa/mpa_shift.c:157
    91b8:	b9400024 	ldr	w4, [x1]
    91bc:	4a050084 	eor	w4, w4, w5
    91c0:	b81fc424 	str	w4, [x1],#-4
/home/asaf/devel/optee/optee_os/lib/libmpa/mpa_shift.c:159
    91c4:	8b224a65 	add	x5, x19, w2, uxtw #2
    91c8:	b94008e4 	ldr	w4, [x7,#8]
    91cc:	1ad62084 	lsl	w4, w4, w22
    91d0:	b90008a4 	str	w4, [x5,#8]
    91d4:	17fffff0 	b	9194 <mpa_shift_left+0x140>
/home/asaf/devel/optee/optee_os/lib/libmpa/mpa_shift.c:167
    91d8:	4b150294 	sub	w20, w20, w21
    91dc:	4b160294 	sub	w20, w20, w22
    91e0:	17ffffbd 	b	90d4 <mpa_shift_left+0x80>

00000000000091e4 <mpa_shift_right>:
mpa_shift_right():
/home/asaf/devel/optee/optee_os/lib/libmpa/mpa_shift.c:179
    91e4:	a9be7bfd 	stp	x29, x30, [sp,#-32]!
    91e8:	910003fd 	mov	x29, sp
    91ec:	a90153f3 	stp	x19, x20, [sp,#16]
    91f0:	aa0003f3 	mov	x19, x0
    91f4:	2a0203f4 	mov	w20, w2
/home/asaf/devel/optee/optee_os/lib/libmpa/mpa_shift.c:190
    91f8:	97fff6f1 	bl	6dbc <mpa_copy>
/home/asaf/devel/optee/optee_os/lib/libmpa/mpa_shift.c:191
    91fc:	aa1303e0 	mov	x0, x19
    9200:	97fff6da 	bl	6d68 <__mpa_set_unused_digits_to_zero>
/home/asaf/devel/optee/optee_os/lib/libmpa/mpa_shift.c:192
    9204:	34000674 	cbz	w20, 92d0 <mpa_shift_right+0xec>
/home/asaf/devel/optee/optee_os/lib/libmpa/mpa_shift.c:192 (discriminator 1)
    9208:	b9400663 	ldr	w3, [x19,#4]
    920c:	7100007f 	cmp	w3, #0x0
    9210:	54000600 	b.eq	92d0 <mpa_shift_right+0xec>
/home/asaf/devel/optee/optee_os/lib/libmpa/mpa_shift.c:196
    9214:	53057e82 	lsr	w2, w20, #5
/home/asaf/devel/optee/optee_os/lib/libmpa/mpa_shift.c:198
    9218:	5a83a466 	cneg	w6, w3, lt
/home/asaf/devel/optee/optee_os/lib/libmpa/mpa_shift.c:195
    921c:	12001284 	and	w4, w20, #0x1f
/home/asaf/devel/optee/optee_os/lib/libmpa/mpa_shift.c:198
    9220:	6b06005f 	cmp	w2, w6
    9224:	540000c3 	b.cc	923c <mpa_shift_right+0x58>
/home/asaf/devel/optee/optee_os/lib/libmpa/mpa_shift.c:199
    9228:	aa1303e0 	mov	x0, x19
    922c:	52800001 	mov	w1, #0x0                   	// #0
/home/asaf/devel/optee/optee_os/lib/libmpa/mpa_shift.c:237
    9230:	a94153f3 	ldp	x19, x20, [sp,#16]
    9234:	a8c27bfd 	ldp	x29, x30, [sp],#32
/home/asaf/devel/optee/optee_os/lib/libmpa/mpa_shift.c:199
    9238:	17fff940 	b	7738 <mpa_set_word>
    923c:	91002260 	add	x0, x19, #0x8
/home/asaf/devel/optee/optee_os/lib/libmpa/mpa_shift.c:208
    9240:	34000264 	cbz	w4, 928c <mpa_shift_right+0xa8>
/home/asaf/devel/optee/optee_os/lib/libmpa/mpa_shift.c:216 (discriminator 1)
    9244:	d2800025 	mov	x5, #0x1                   	// #1
/home/asaf/devel/optee/optee_os/lib/libmpa/mpa_shift.c:218 (discriminator 1)
    9248:	52800409 	mov	w9, #0x20                  	// #32
/home/asaf/devel/optee/optee_os/lib/libmpa/mpa_shift.c:216 (discriminator 1)
    924c:	9ac420a5 	lsl	x5, x5, x4
    9250:	2a0203e1 	mov	w1, w2
    9254:	510004a5 	sub	w5, w5, #0x1
/home/asaf/devel/optee/optee_os/lib/libmpa/mpa_shift.c:218 (discriminator 1)
    9258:	4b040129 	sub	w9, w9, w4
    925c:	11000428 	add	w8, w1, #0x1
/home/asaf/devel/optee/optee_os/lib/libmpa/mpa_shift.c:214 (discriminator 1)
    9260:	6b0800df 	cmp	w6, w8
    9264:	54000461 	b.ne	92f0 <mpa_shift_right+0x10c>
    9268:	2a2203e0 	mvn	w0, w2
    926c:	0b060000 	add	w0, w0, w6
/home/asaf/devel/optee/optee_os/lib/libmpa/mpa_shift.c:221
    9270:	8b204a61 	add	x1, x19, w0, uxtw #2
    9274:	0b000040 	add	w0, w2, w0
    9278:	8b000a60 	add	x0, x19, x0, lsl #2
    927c:	b9400800 	ldr	w0, [x0,#8]
    9280:	1ac42404 	lsr	w4, w0, w4
    9284:	b9000824 	str	w4, [x1,#8]
    9288:	14000004 	b	9298 <mpa_shift_right+0xb4>
/home/asaf/devel/optee/optee_os/lib/libmpa/mpa_shift.c:208 (discriminator 1)
    928c:	2a0203e1 	mov	w1, w2
/home/asaf/devel/optee/optee_os/lib/libmpa/mpa_shift.c:210 (discriminator 1)
    9290:	6b0100df 	cmp	w6, w1
    9294:	54000241 	b.ne	92dc <mpa_shift_right+0xf8>
/home/asaf/devel/optee/optee_os/lib/libmpa/mpa_shift.c:226
    9298:	0b020060 	add	w0, w3, w2
    929c:	7100007f 	cmp	w3, #0x0
    92a0:	4b020062 	sub	w2, w3, w2
    92a4:	1a80c042 	csel	w2, w2, w0, gt
    92a8:	b9000662 	str	w2, [x19,#4]
/home/asaf/devel/optee/optee_os/lib/libmpa/mpa_shift.c:231
    92ac:	7100005f 	cmp	w2, #0x0
    92b0:	5a82a440 	cneg	w0, w2, lt
    92b4:	51000400 	sub	w0, w0, #0x1
    92b8:	8b20ca60 	add	x0, x19, w0, sxtw #2
    92bc:	b9400800 	ldr	w0, [x0,#8]
    92c0:	35000080 	cbnz	w0, 92d0 <mpa_shift_right+0xec>
/home/asaf/devel/optee/optee_os/lib/libmpa/mpa_shift.c:232
    92c4:	540002ed 	b.le	9320 <mpa_shift_right+0x13c>
/home/asaf/devel/optee/optee_os/lib/libmpa/mpa_shift.c:233
    92c8:	51000442 	sub	w2, w2, #0x1
/home/asaf/devel/optee/optee_os/lib/libmpa/mpa_shift.c:235
    92cc:	b9000662 	str	w2, [x19,#4]
/home/asaf/devel/optee/optee_os/lib/libmpa/mpa_shift.c:237
    92d0:	a94153f3 	ldp	x19, x20, [sp,#16]
    92d4:	a8c27bfd 	ldp	x29, x30, [sp],#32
    92d8:	d65f03c0 	ret
/home/asaf/devel/optee/optee_os/lib/libmpa/mpa_shift.c:211 (discriminator 3)
    92dc:	8b214a64 	add	x4, x19, w1, uxtw #2
    92e0:	11000421 	add	w1, w1, #0x1
    92e4:	b9400884 	ldr	w4, [x4,#8]
    92e8:	b8004404 	str	w4, [x0],#4
    92ec:	17ffffe9 	b	9290 <mpa_shift_right+0xac>
/home/asaf/devel/optee/optee_os/lib/libmpa/mpa_shift.c:215 (discriminator 3)
    92f0:	8b214a61 	add	x1, x19, w1, uxtw #2
    92f4:	b9400827 	ldr	w7, [x1,#8]
/home/asaf/devel/optee/optee_os/lib/libmpa/mpa_shift.c:216 (discriminator 3)
    92f8:	8b284a61 	add	x1, x19, w8, uxtw #2
/home/asaf/devel/optee/optee_os/lib/libmpa/mpa_shift.c:215 (discriminator 3)
    92fc:	b9000007 	str	w7, [x0]
/home/asaf/devel/optee/optee_os/lib/libmpa/mpa_shift.c:216 (discriminator 3)
    9300:	b9400821 	ldr	w1, [x1,#8]
/home/asaf/devel/optee/optee_os/lib/libmpa/mpa_shift.c:218 (discriminator 3)
    9304:	1ac424e7 	lsr	w7, w7, w4
/home/asaf/devel/optee/optee_os/lib/libmpa/mpa_shift.c:216 (discriminator 3)
    9308:	0a0100a1 	and	w1, w5, w1
/home/asaf/devel/optee/optee_os/lib/libmpa/mpa_shift.c:218 (discriminator 3)
    930c:	1ac92021 	lsl	w1, w1, w9
    9310:	4a070021 	eor	w1, w1, w7
/home/asaf/devel/optee/optee_os/lib/libmpa/mpa_shift.c:217 (discriminator 3)
    9314:	b8004401 	str	w1, [x0],#4
    9318:	2a0803e1 	mov	w1, w8
    931c:	17ffffd0 	b	925c <mpa_shift_right+0x78>
/home/asaf/devel/optee/optee_os/lib/libmpa/mpa_shift.c:235
    9320:	11000442 	add	w2, w2, #0x1
    9324:	17ffffea 	b	92cc <mpa_shift_right+0xe8>

0000000000009328 <__mpa_full_adder>:
__mpa_full_adder():
/home/asaf/devel/optee/optee_os/lib/libmpa/mpa_addsub.c:54
    9328:	b9400064 	ldr	w4, [x3]
    932c:	8b214081 	add	x1, x4, w1, uxtw
    9330:	8b204020 	add	x0, x1, w0, uxtw
/home/asaf/devel/optee/optee_os/lib/libmpa/mpa_addsub.c:55
    9334:	b9000040 	str	w0, [x2]
/home/asaf/devel/optee/optee_os/lib/libmpa/mpa_addsub.c:56
    9338:	d360fc00 	lsr	x0, x0, #32
    933c:	b9000060 	str	w0, [x3]
    9340:	d65f03c0 	ret

0000000000009344 <__mpa_full_sub>:
__mpa_full_sub():
/home/asaf/devel/optee/optee_os/lib/libmpa/mpa_addsub.c:77
    9344:	2a0003e0 	mov	w0, w0
    9348:	cb214001 	sub	x1, x0, w1, uxtw
    934c:	b9400060 	ldr	w0, [x3]
    9350:	cb000021 	sub	x1, x1, x0
/home/asaf/devel/optee/optee_os/lib/libmpa/mpa_addsub.c:78
    9354:	b9000041 	str	w1, [x2]
/home/asaf/devel/optee/optee_os/lib/libmpa/mpa_addsub.c:79
    9358:	d360fc21 	lsr	x1, x1, #32
    935c:	4b0103e1 	neg	w1, w1
    9360:	b9000061 	str	w1, [x3]
    9364:	d65f03c0 	ret

0000000000009368 <__mpa_full_adder_ackum>:
__mpa_full_adder_ackum():
/home/asaf/devel/optee/optee_os/lib/libmpa/mpa_addsub.c:101
    9368:	b9400043 	ldr	w3, [x2]
    936c:	8b214061 	add	x1, x3, w1, uxtw
    9370:	b9400003 	ldr	w3, [x0]
    9374:	8b030021 	add	x1, x1, x3
/home/asaf/devel/optee/optee_os/lib/libmpa/mpa_addsub.c:102
    9378:	b9000001 	str	w1, [x0]
/home/asaf/devel/optee/optee_os/lib/libmpa/mpa_addsub.c:103
    937c:	d360fc21 	lsr	x1, x1, #32
    9380:	b9000041 	str	w1, [x2]
    9384:	d65f03c0 	ret

0000000000009388 <__mpa_abs_add>:
__mpa_abs_add():
/home/asaf/devel/optee/optee_os/lib/libmpa/mpa_addsub.c:127
    9388:	a9bd7bfd 	stp	x29, x30, [sp,#-48]!
/home/asaf/devel/optee/optee_os/lib/libmpa/mpa_addsub.c:137
    938c:	6b05007f 	cmp	w3, w5
/home/asaf/devel/optee/optee_os/lib/libmpa/mpa_addsub.c:127
    9390:	910003fd 	mov	x29, sp
    9394:	a90153f3 	stp	x19, x20, [sp,#16]
    9398:	aa0003f4 	mov	x20, x0
    939c:	f90013f5 	str	x21, [sp,#32]
    93a0:	aa0103f5 	mov	x21, x1
/home/asaf/devel/optee/optee_os/lib/libmpa/mpa_addsub.c:137
    93a4:	540000ec 	b.gt	93c0 <__mpa_abs_add+0x38>
    93a8:	2a0503e0 	mov	w0, w5
    93ac:	2a0303e5 	mov	w5, w3
    93b0:	2a0003e3 	mov	w3, w0
    93b4:	aa0403e0 	mov	x0, x4
/home/asaf/devel/optee/optee_os/lib/libmpa/mpa_addsub.c:144
    93b8:	aa0203e4 	mov	x4, x2
/home/asaf/devel/optee/optee_os/lib/libmpa/mpa_addsub.c:143
    93bc:	aa0003e2 	mov	x2, x0
/home/asaf/devel/optee/optee_os/lib/libmpa/mpa_addsub.c:152
    93c0:	d2800001 	mov	x1, #0x0                   	// #0
/home/asaf/devel/optee/optee_os/lib/libmpa/mpa_addsub.c:150
    93c4:	52800008 	mov	w8, #0x0                   	// #0
/home/asaf/devel/optee/optee_os/lib/libmpa/mpa_addsub.c:152
    93c8:	6b0100bf 	cmp	w5, w1
    93cc:	540001ac 	b.gt	9400 <__mpa_abs_add+0x78>
    93d0:	710000bf 	cmp	w5, #0x0
    93d4:	1a9fa0a5 	csel	w5, w5, wzr, ge
    93d8:	937e7ca1 	sbfiz	x1, x5, #2, #32
    93dc:	8b010284 	add	x4, x20, x1
    93e0:	8b010041 	add	x1, x2, x1
/home/asaf/devel/optee/optee_os/lib/libmpa/mpa_addsub.c:156
    93e4:	6b05007f 	cmp	w3, w5
    93e8:	340002c8 	cbz	w8, 9440 <__mpa_abs_add+0xb8>
    93ec:	91001080 	add	x0, x4, #0x4
/home/asaf/devel/optee/optee_os/lib/libmpa/mpa_addsub.c:156 (discriminator 1)
    93f0:	540001ac 	b.gt	9424 <__mpa_abs_add+0x9c>
/home/asaf/devel/optee/optee_os/lib/libmpa/mpa_addsub.c:168
    93f4:	52800021 	mov	w1, #0x1                   	// #1
    93f8:	b9000081 	str	w1, [x4]
    93fc:	14000019 	b	9460 <__mpa_abs_add+0xd8>
__mpa_full_adder():
/home/asaf/devel/optee/optee_os/lib/libmpa/mpa_addsub.c:54
    9400:	b8617886 	ldr	w6, [x4,x1,lsl #2]
    9404:	2a0803e0 	mov	w0, w8
    9408:	b8617847 	ldr	w7, [x2,x1,lsl #2]
    940c:	8b0700c6 	add	x6, x6, x7
    9410:	8b0000c0 	add	x0, x6, x0
/home/asaf/devel/optee/optee_os/lib/libmpa/mpa_addsub.c:55
    9414:	b8217a80 	str	w0, [x20,x1,lsl #2]
/home/asaf/devel/optee/optee_os/lib/libmpa/mpa_addsub.c:56
    9418:	d360fc08 	lsr	x8, x0, #32
    941c:	91000421 	add	x1, x1, #0x1
    9420:	17ffffea 	b	93c8 <__mpa_abs_add+0x40>
__mpa_abs_add():
/home/asaf/devel/optee/optee_os/lib/libmpa/mpa_addsub.c:157
    9424:	aa0003e4 	mov	x4, x0
__mpa_full_adder():
/home/asaf/devel/optee/optee_os/lib/libmpa/mpa_addsub.c:54
    9428:	b8404420 	ldr	w0, [x1],#4
__mpa_abs_add():
/home/asaf/devel/optee/optee_os/lib/libmpa/mpa_addsub.c:158
    942c:	110004a5 	add	w5, w5, #0x1
__mpa_full_adder():
/home/asaf/devel/optee/optee_os/lib/libmpa/mpa_addsub.c:54
    9430:	91000400 	add	x0, x0, #0x1
/home/asaf/devel/optee/optee_os/lib/libmpa/mpa_addsub.c:56
    9434:	d360fc08 	lsr	x8, x0, #32
/home/asaf/devel/optee/optee_os/lib/libmpa/mpa_addsub.c:55
    9438:	b81fc080 	stur	w0, [x4,#-4]
    943c:	17ffffea 	b	93e4 <__mpa_abs_add+0x5c>
__mpa_abs_add():
/home/asaf/devel/optee/optee_os/lib/libmpa/mpa_addsub.c:161
    9440:	540000ed 	b.le	945c <__mpa_abs_add+0xd4>
/home/asaf/devel/optee/optee_os/lib/libmpa/mpa_addsub.c:163
    9444:	4b050073 	sub	w19, w3, w5
    9448:	aa0403e0 	mov	x0, x4
    944c:	531e7662 	lsl	w2, w19, #2
    9450:	93407c42 	sxtw	x2, w2
    9454:	97fff24c 	bl	5d84 <memcpy>
/home/asaf/devel/optee/optee_os/lib/libmpa/mpa_addsub.c:164
    9458:	8b33c804 	add	x4, x0, w19, sxtw #2
/home/asaf/devel/optee/optee_os/lib/libmpa/mpa_addsub.c:150
    945c:	aa0403e0 	mov	x0, x4
/home/asaf/devel/optee/optee_os/lib/libmpa/mpa_addsub.c:169
    9460:	cb140001 	sub	x1, x0, x20
    9464:	9342fc20 	asr	x0, x1, #2
    9468:	b90002a0 	str	w0, [x21]
/home/asaf/devel/optee/optee_os/lib/libmpa/mpa_addsub.c:170
    946c:	a94153f3 	ldp	x19, x20, [sp,#16]
    9470:	f94013f5 	ldr	x21, [sp,#32]
    9474:	a8c37bfd 	ldp	x29, x30, [sp],#48
    9478:	d65f03c0 	ret

000000000000947c <__mpa_abs_add_ackum>:
__mpa_abs_add_ackum():
/home/asaf/devel/optee/optee_os/lib/libmpa/mpa_addsub.c:179
    947c:	a9bb7bfd 	stp	x29, x30, [sp,#-80]!
    9480:	910003fd 	mov	x29, sp
    9484:	a90153f3 	stp	x19, x20, [sp,#16]
/home/asaf/devel/optee/optee_os/lib/libmpa/mpa_addsub.c:190
    9488:	91002014 	add	x20, x0, #0x8
/home/asaf/devel/optee/optee_os/lib/libmpa/mpa_addsub.c:179
    948c:	a9025bf5 	stp	x21, x22, [sp,#32]
    9490:	aa0003f3 	mov	x19, x0
    9494:	a90363f7 	stp	x23, x24, [sp,#48]
    9498:	aa0103f5 	mov	x21, x1
/home/asaf/devel/optee/optee_os/lib/libmpa/mpa_addsub.c:187
    949c:	b9400400 	ldr	w0, [x0,#4]
/home/asaf/devel/optee/optee_os/lib/libmpa/mpa_addsub.c:193
    94a0:	91002038 	add	x24, x1, #0x8
/home/asaf/devel/optee/optee_os/lib/libmpa/mpa_addsub.c:187
    94a4:	b9400421 	ldr	w1, [x1,#4]
/home/asaf/devel/optee/optee_os/lib/libmpa/mpa_addsub.c:196
    94a8:	910143b7 	add	x23, x29, #0x50
/home/asaf/devel/optee/optee_os/lib/libmpa/mpa_addsub.c:197
    94ac:	d2800016 	mov	x22, #0x0                   	// #0
/home/asaf/devel/optee/optee_os/lib/libmpa/mpa_addsub.c:190
    94b0:	6b000022 	subs	w2, w1, w0
    94b4:	52800001 	mov	w1, #0x0                   	// #0
    94b8:	1a9f5042 	csel	w2, w2, wzr, pl
    94bc:	8b20ca80 	add	x0, x20, w0, sxtw #2
    94c0:	11000442 	add	w2, w2, #0x1
    94c4:	531e7442 	lsl	w2, w2, #2
    94c8:	93407c42 	sxtw	x2, w2
    94cc:	97fff249 	bl	5df0 <memset>
/home/asaf/devel/optee/optee_os/lib/libmpa/mpa_addsub.c:196
    94d0:	b81fceff 	str	wzr, [x23,#-4]!
/home/asaf/devel/optee/optee_os/lib/libmpa/mpa_addsub.c:197
    94d4:	b94006a1 	ldr	w1, [x21,#4]
    94d8:	8b160a80 	add	x0, x20, x22, lsl #2
    94dc:	6b16003f 	cmp	w1, w22
    94e0:	540001ec 	b.gt	951c <__mpa_abs_add_ackum+0xa0>
/home/asaf/devel/optee/optee_os/lib/libmpa/mpa_addsub.c:208
    94e4:	910133b6 	add	x22, x29, #0x4c
/home/asaf/devel/optee/optee_os/lib/libmpa/mpa_addsub.c:207
    94e8:	b9404fa1 	ldr	w1, [x29,#76]
    94ec:	35000221 	cbnz	w1, 9530 <__mpa_abs_add_ackum+0xb4>
/home/asaf/devel/optee/optee_os/lib/libmpa/mpa_addsub.c:215
    94f0:	cb140000 	sub	x0, x0, x20
/home/asaf/devel/optee/optee_os/lib/libmpa/mpa_addsub.c:216
    94f4:	b9400661 	ldr	w1, [x19,#4]
/home/asaf/devel/optee/optee_os/lib/libmpa/mpa_addsub.c:215
    94f8:	9342fc02 	asr	x2, x0, #2
/home/asaf/devel/optee/optee_os/lib/libmpa/mpa_addsub.c:216
    94fc:	6b01005f 	cmp	w2, w1
    9500:	5400004d 	b.le	9508 <__mpa_abs_add_ackum+0x8c>
/home/asaf/devel/optee/optee_os/lib/libmpa/mpa_addsub.c:217
    9504:	b9000662 	str	w2, [x19,#4]
/home/asaf/devel/optee/optee_os/lib/libmpa/mpa_addsub.c:218
    9508:	a94153f3 	ldp	x19, x20, [sp,#16]
    950c:	a9425bf5 	ldp	x21, x22, [sp,#32]
    9510:	a94363f7 	ldp	x23, x24, [sp,#48]
    9514:	a8c57bfd 	ldp	x29, x30, [sp],#80
    9518:	d65f03c0 	ret
/home/asaf/devel/optee/optee_os/lib/libmpa/mpa_addsub.c:198
    951c:	b8767b01 	ldr	w1, [x24,x22,lsl #2]
    9520:	aa1703e2 	mov	x2, x23
    9524:	910006d6 	add	x22, x22, #0x1
    9528:	97ffff90 	bl	9368 <__mpa_full_adder_ackum>
    952c:	17ffffea 	b	94d4 <__mpa_abs_add_ackum+0x58>
/home/asaf/devel/optee/optee_os/lib/libmpa/mpa_addsub.c:208
    9530:	91001015 	add	x21, x0, #0x4
    9534:	aa1603e2 	mov	x2, x22
    9538:	52800001 	mov	w1, #0x0                   	// #0
    953c:	97ffff8b 	bl	9368 <__mpa_full_adder_ackum>
    9540:	aa1503e0 	mov	x0, x21
    9544:	17ffffe9 	b	94e8 <__mpa_abs_add_ackum+0x6c>

0000000000009548 <__mpa_abs_sub>:
__mpa_abs_sub():
/home/asaf/devel/optee/optee_os/lib/libmpa/mpa_addsub.c:233
    9548:	a9ba7bfd 	stp	x29, x30, [sp,#-96]!
    954c:	910003fd 	mov	x29, sp
    9550:	a9046bf9 	stp	x25, x26, [sp,#64]
/home/asaf/devel/optee/optee_os/lib/libmpa/mpa_addsub.c:237
    9554:	910183b9 	add	x25, x29, #0x60
/home/asaf/devel/optee/optee_os/lib/libmpa/mpa_addsub.c:233
    9558:	a90153f3 	stp	x19, x20, [sp,#16]
    955c:	aa0403fa 	mov	x26, x4
    9560:	a9025bf5 	stp	x21, x22, [sp,#32]
    9564:	2a0303f4 	mov	w20, w3
    9568:	a90363f7 	stp	x23, x24, [sp,#48]
    956c:	aa0103f5 	mov	x21, x1
    9570:	aa0003f7 	mov	x23, x0
    9574:	aa0203f8 	mov	x24, x2
    9578:	2a0503f6 	mov	w22, w5
/home/asaf/devel/optee/optee_os/lib/libmpa/mpa_addsub.c:237
    957c:	b81fcf3f 	str	wzr, [x25,#-4]!
/home/asaf/devel/optee/optee_os/lib/libmpa/mpa_addsub.c:239
    9580:	d2800013 	mov	x19, #0x0                   	// #0
    9584:	8b130ae2 	add	x2, x23, x19, lsl #2
    9588:	6b1302df 	cmp	w22, w19
    958c:	5400028c 	b.gt	95dc <__mpa_abs_sub+0x94>
    9590:	710002df 	cmp	w22, #0x0
    9594:	1a9fa2d3 	csel	w19, w22, wzr, ge
    9598:	937e7e60 	sbfiz	x0, x19, #2, #32
    959c:	8b000316 	add	x22, x24, x0
    95a0:	8b0002e4 	add	x4, x23, x0
/home/asaf/devel/optee/optee_os/lib/libmpa/mpa_addsub.c:248
    95a4:	910173b8 	add	x24, x29, #0x5c
/home/asaf/devel/optee/optee_os/lib/libmpa/mpa_addsub.c:247
    95a8:	b9405fa0 	ldr	w0, [x29,#92]
    95ac:	6b14027f 	cmp	w19, w20
    95b0:	34000340 	cbz	w0, 9618 <__mpa_abs_sub+0xd0>
/home/asaf/devel/optee/optee_os/lib/libmpa/mpa_addsub.c:247 (discriminator 1)
    95b4:	5400020b 	b.lt	95f4 <__mpa_abs_sub+0xac>
/home/asaf/devel/optee/optee_os/lib/libmpa/mpa_addsub.c:262
    95b8:	7100029f 	cmp	w20, #0x0
    95bc:	5400040c 	b.gt	963c <__mpa_abs_sub+0xf4>
/home/asaf/devel/optee/optee_os/lib/libmpa/mpa_addsub.c:264
    95c0:	b90002b4 	str	w20, [x21]
/home/asaf/devel/optee/optee_os/lib/libmpa/mpa_addsub.c:265
    95c4:	a94363f7 	ldp	x23, x24, [sp,#48]
    95c8:	a94153f3 	ldp	x19, x20, [sp,#16]
    95cc:	a9425bf5 	ldp	x21, x22, [sp,#32]
    95d0:	a9446bf9 	ldp	x25, x26, [sp,#64]
    95d4:	a8c67bfd 	ldp	x29, x30, [sp],#96
    95d8:	d65f03c0 	ret
/home/asaf/devel/optee/optee_os/lib/libmpa/mpa_addsub.c:240
    95dc:	b8737b41 	ldr	w1, [x26,x19,lsl #2]
    95e0:	aa1903e3 	mov	x3, x25
    95e4:	b8737b00 	ldr	w0, [x24,x19,lsl #2]
    95e8:	91000673 	add	x19, x19, #0x1
    95ec:	97ffff56 	bl	9344 <__mpa_full_sub>
    95f0:	17ffffe5 	b	9584 <__mpa_abs_sub+0x3c>
/home/asaf/devel/optee/optee_os/lib/libmpa/mpa_addsub.c:248
    95f4:	b84046c0 	ldr	w0, [x22],#4
    95f8:	91001097 	add	x23, x4, #0x4
    95fc:	aa0403e2 	mov	x2, x4
    9600:	aa1803e3 	mov	x3, x24
    9604:	52800001 	mov	w1, #0x0                   	// #0
/home/asaf/devel/optee/optee_os/lib/libmpa/mpa_addsub.c:249
    9608:	11000673 	add	w19, w19, #0x1
/home/asaf/devel/optee/optee_os/lib/libmpa/mpa_addsub.c:248
    960c:	97ffff4e 	bl	9344 <__mpa_full_sub>
    9610:	aa1703e4 	mov	x4, x23
    9614:	17ffffe5 	b	95a8 <__mpa_abs_sub+0x60>
/home/asaf/devel/optee/optee_os/lib/libmpa/mpa_addsub.c:252
    9618:	54fffd0a 	b.ge	95b8 <__mpa_abs_sub+0x70>
/home/asaf/devel/optee/optee_os/lib/libmpa/mpa_addsub.c:257
    961c:	4b130293 	sub	w19, w20, w19
    9620:	aa0403e0 	mov	x0, x4
    9624:	531e7662 	lsl	w2, w19, #2
    9628:	aa1603e1 	mov	x1, x22
    962c:	93407c42 	sxtw	x2, w2
    9630:	97fff1d5 	bl	5d84 <memcpy>
/home/asaf/devel/optee/optee_os/lib/libmpa/mpa_addsub.c:258
    9634:	8b33c804 	add	x4, x0, w19, sxtw #2
/home/asaf/devel/optee/optee_os/lib/libmpa/mpa_addsub.c:262
    9638:	17ffffe0 	b	95b8 <__mpa_abs_sub+0x70>
/home/asaf/devel/optee/optee_os/lib/libmpa/mpa_addsub.c:262 (discriminator 1)
    963c:	b85fcc80 	ldr	w0, [x4,#-4]!
    9640:	35fffc00 	cbnz	w0, 95c0 <__mpa_abs_sub+0x78>
/home/asaf/devel/optee/optee_os/lib/libmpa/mpa_addsub.c:263
    9644:	51000694 	sub	w20, w20, #0x1
    9648:	17ffffdc 	b	95b8 <__mpa_abs_sub+0x70>

000000000000964c <mpa_add>:
mpa_add():
/home/asaf/devel/optee/optee_os/lib/libmpa/mpa_addsub.c:281
    964c:	a9b97bfd 	stp	x29, x30, [sp,#-112]!
    9650:	910003fd 	mov	x29, sp
    9654:	a90363f7 	stp	x23, x24, [sp,#48]
    9658:	aa0203f8 	mov	x24, x2
/home/asaf/devel/optee/optee_os/lib/libmpa/mpa_addsub.c:289
    965c:	b9400422 	ldr	w2, [x1,#4]
/home/asaf/devel/optee/optee_os/lib/libmpa/mpa_addsub.c:281
    9660:	aa0103f7 	mov	x23, x1
    9664:	a9025bf5 	stp	x21, x22, [sp,#32]
/home/asaf/devel/optee/optee_os/lib/libmpa/mpa_addsub.c:290
    9668:	b9400701 	ldr	w1, [x24,#4]
/home/asaf/devel/optee/optee_os/lib/libmpa/mpa_addsub.c:289
    966c:	7100005f 	cmp	w2, #0x0
    9670:	5a82a456 	cneg	w22, w2, lt
/home/asaf/devel/optee/optee_os/lib/libmpa/mpa_addsub.c:281
    9674:	a90153f3 	stp	x19, x20, [sp,#16]
/home/asaf/devel/optee/optee_os/lib/libmpa/mpa_addsub.c:290
    9678:	7100003f 	cmp	w1, #0x0
/home/asaf/devel/optee/optee_os/lib/libmpa/mpa_addsub.c:281
    967c:	a9046bf9 	stp	x25, x26, [sp,#64]
/home/asaf/devel/optee/optee_os/lib/libmpa/mpa_addsub.c:290
    9680:	5a81a434 	cneg	w20, w1, lt
/home/asaf/devel/optee/optee_os/lib/libmpa/mpa_addsub.c:281
    9684:	aa0003f9 	mov	x25, x0
/home/asaf/devel/optee/optee_os/lib/libmpa/mpa_addsub.c:292
    9688:	12800000 	mov	w0, #0xffffffff            	// #-1
    968c:	6b00005f 	cmp	w2, w0
/home/asaf/devel/optee/optee_os/lib/libmpa/mpa_addsub.c:281
    9690:	a90573fb 	stp	x27, x28, [sp,#80]
/home/asaf/devel/optee/optee_os/lib/libmpa/mpa_addsub.c:292
    9694:	5a80d41c 	cneg	w28, w0, gt
/home/asaf/devel/optee/optee_os/lib/libmpa/mpa_addsub.c:293
    9698:	6b00003f 	cmp	w1, w0
/home/asaf/devel/optee/optee_os/lib/libmpa/mpa_addsub.c:281
    969c:	aa0303fa 	mov	x26, x3
/home/asaf/devel/optee/optee_os/lib/libmpa/mpa_addsub.c:293
    96a0:	5a80d413 	cneg	w19, w0, gt
/home/asaf/devel/optee/optee_os/lib/libmpa/mpa_addsub.c:296
    96a4:	eb1902ff 	cmp	x23, x25
    96a8:	1a9f17fb 	cset	w27, eq
    96ac:	eb19031f 	cmp	x24, x25
    96b0:	1a9f17e0 	cset	w0, eq
    96b4:	2a00037b 	orr	w27, w27, w0
/home/asaf/devel/optee/optee_os/lib/libmpa/mpa_addsub.c:297
    96b8:	3400049b 	cbz	w27, 9748 <mpa_add+0xfc>
/home/asaf/devel/optee/optee_os/lib/libmpa/mpa_addsub.c:298
    96bc:	aa0303e1 	mov	x1, x3
    96c0:	9101a3a0 	add	x0, x29, #0x68
    96c4:	97fffcd0 	bl	8a04 <mpa_alloc_static_temp_var>
/home/asaf/devel/optee/optee_os/lib/libmpa/mpa_addsub.c:306
    96c8:	6b13039f 	cmp	w28, w19
    96cc:	910022f5 	add	x21, x23, #0x8
    96d0:	91002313 	add	x19, x24, #0x8
    96d4:	540003e1 	b.ne	9750 <mpa_add+0x104>
/home/asaf/devel/optee/optee_os/lib/libmpa/mpa_addsub.c:308
    96d8:	f94037a0 	ldr	x0, [x29,#104]
    96dc:	2a1403e5 	mov	w5, w20
    96e0:	aa1303e4 	mov	x4, x19
    96e4:	2a1603e3 	mov	w3, w22
    96e8:	91001001 	add	x1, x0, #0x4
    96ec:	aa1503e2 	mov	x2, x21
    96f0:	91002000 	add	x0, x0, #0x8
    96f4:	97ffff25 	bl	9388 <__mpa_abs_add>
/home/asaf/devel/optee/optee_os/lib/libmpa/mpa_addsub.c:311
    96f8:	3100079f 	cmn	w28, #0x1
    96fc:	540000a1 	b.ne	9710 <mpa_add+0xc4>
/home/asaf/devel/optee/optee_os/lib/libmpa/mpa_addsub.c:327
    9700:	f94037a1 	ldr	x1, [x29,#104]
    9704:	b9400420 	ldr	w0, [x1,#4]
    9708:	4b0003e0 	neg	w0, w0
    970c:	b9000420 	str	w0, [x1,#4]
/home/asaf/devel/optee/optee_os/lib/libmpa/mpa_addsub.c:346
    9710:	f94037a1 	ldr	x1, [x29,#104]
    9714:	aa1903e0 	mov	x0, x25
    9718:	97fff5a9 	bl	6dbc <mpa_copy>
/home/asaf/devel/optee/optee_os/lib/libmpa/mpa_addsub.c:347
    971c:	3400009b 	cbz	w27, 972c <mpa_add+0xe0>
/home/asaf/devel/optee/optee_os/lib/libmpa/mpa_addsub.c:348
    9720:	aa1a03e1 	mov	x1, x26
    9724:	9101a3a0 	add	x0, x29, #0x68
    9728:	97fffcbb 	bl	8a14 <mpa_free_static_temp_var>
/home/asaf/devel/optee/optee_os/lib/libmpa/mpa_addsub.c:349
    972c:	a94153f3 	ldp	x19, x20, [sp,#16]
    9730:	a9425bf5 	ldp	x21, x22, [sp,#32]
    9734:	a94363f7 	ldp	x23, x24, [sp,#48]
    9738:	a9446bf9 	ldp	x25, x26, [sp,#64]
    973c:	a94573fb 	ldp	x27, x28, [sp,#80]
    9740:	a8c77bfd 	ldp	x29, x30, [sp],#112
    9744:	d65f03c0 	ret
/home/asaf/devel/optee/optee_os/lib/libmpa/mpa_addsub.c:300
    9748:	f90037b9 	str	x25, [x29,#104]
    974c:	17ffffdf 	b	96c8 <mpa_add+0x7c>
/home/asaf/devel/optee/optee_os/lib/libmpa/mpa_addsub.c:316
    9750:	aa1803e1 	mov	x1, x24
    9754:	aa1703e0 	mov	x0, x23
/home/asaf/devel/optee/optee_os/lib/libmpa/mpa_addsub.c:315
    9758:	7100079f 	cmp	w28, #0x1
    975c:	54000281 	b.ne	97ac <mpa_add+0x160>
/home/asaf/devel/optee/optee_os/lib/libmpa/mpa_addsub.c:316
    9760:	9400015b 	bl	9ccc <__mpa_abs_greater_than>
    9764:	f94037a6 	ldr	x6, [x29,#104]
    9768:	34000120 	cbz	w0, 978c <mpa_add+0x140>
/home/asaf/devel/optee/optee_os/lib/libmpa/mpa_addsub.c:320
    976c:	2a1403e5 	mov	w5, w20
    9770:	aa1303e4 	mov	x4, x19
    9774:	2a1603e3 	mov	w3, w22
    9778:	aa1503e2 	mov	x2, x21
/home/asaf/devel/optee/optee_os/lib/libmpa/mpa_addsub.c:340
    977c:	910010c1 	add	x1, x6, #0x4
    9780:	910020c0 	add	x0, x6, #0x8
    9784:	97ffff71 	bl	9548 <__mpa_abs_sub>
    9788:	17ffffe2 	b	9710 <mpa_add+0xc4>
/home/asaf/devel/optee/optee_os/lib/libmpa/mpa_addsub.c:325
    978c:	2a1603e5 	mov	w5, w22
    9790:	aa1503e4 	mov	x4, x21
    9794:	2a1403e3 	mov	w3, w20
    9798:	aa1303e2 	mov	x2, x19
    979c:	910010c1 	add	x1, x6, #0x4
    97a0:	910020c0 	add	x0, x6, #0x8
    97a4:	97ffff69 	bl	9548 <__mpa_abs_sub>
    97a8:	17ffffd6 	b	9700 <mpa_add+0xb4>
/home/asaf/devel/optee/optee_os/lib/libmpa/mpa_addsub.c:331
    97ac:	94000148 	bl	9ccc <__mpa_abs_greater_than>
    97b0:	f94037a6 	ldr	x6, [x29,#104]
    97b4:	340000c0 	cbz	w0, 97cc <mpa_add+0x180>
/home/asaf/devel/optee/optee_os/lib/libmpa/mpa_addsub.c:335
    97b8:	2a1403e5 	mov	w5, w20
    97bc:	aa1303e4 	mov	x4, x19
    97c0:	2a1603e3 	mov	w3, w22
    97c4:	aa1503e2 	mov	x2, x21
    97c8:	17fffff5 	b	979c <mpa_add+0x150>
/home/asaf/devel/optee/optee_os/lib/libmpa/mpa_addsub.c:340
    97cc:	2a1603e5 	mov	w5, w22
    97d0:	aa1503e4 	mov	x4, x21
    97d4:	2a1403e3 	mov	w3, w20
    97d8:	aa1303e2 	mov	x2, x19
    97dc:	17ffffe8 	b	977c <mpa_add+0x130>

00000000000097e0 <mpa_sub>:
mpa_sub():
/home/asaf/devel/optee/optee_os/lib/libmpa/mpa_addsub.c:359
    97e0:	a9b97bfd 	stp	x29, x30, [sp,#-112]!
    97e4:	910003fd 	mov	x29, sp
    97e8:	a90363f7 	stp	x23, x24, [sp,#48]
    97ec:	aa0203f8 	mov	x24, x2
/home/asaf/devel/optee/optee_os/lib/libmpa/mpa_addsub.c:367
    97f0:	b9400422 	ldr	w2, [x1,#4]
/home/asaf/devel/optee/optee_os/lib/libmpa/mpa_addsub.c:359
    97f4:	aa0103f7 	mov	x23, x1
    97f8:	a90153f3 	stp	x19, x20, [sp,#16]
/home/asaf/devel/optee/optee_os/lib/libmpa/mpa_addsub.c:368
    97fc:	b9400701 	ldr	w1, [x24,#4]
/home/asaf/devel/optee/optee_os/lib/libmpa/mpa_addsub.c:367
    9800:	7100005f 	cmp	w2, #0x0
    9804:	5a82a454 	cneg	w20, w2, lt
/home/asaf/devel/optee/optee_os/lib/libmpa/mpa_addsub.c:359
    9808:	a9046bf9 	stp	x25, x26, [sp,#64]
/home/asaf/devel/optee/optee_os/lib/libmpa/mpa_addsub.c:368
    980c:	7100003f 	cmp	w1, #0x0
/home/asaf/devel/optee/optee_os/lib/libmpa/mpa_addsub.c:359
    9810:	aa0003f9 	mov	x25, x0
    9814:	a9025bf5 	stp	x21, x22, [sp,#32]
/home/asaf/devel/optee/optee_os/lib/libmpa/mpa_addsub.c:370
    9818:	12800000 	mov	w0, #0xffffffff            	// #-1
/home/asaf/devel/optee/optee_os/lib/libmpa/mpa_addsub.c:368
    981c:	5a81a436 	cneg	w22, w1, lt
/home/asaf/devel/optee/optee_os/lib/libmpa/mpa_addsub.c:370
    9820:	6b00005f 	cmp	w2, w0
/home/asaf/devel/optee/optee_os/lib/libmpa/mpa_addsub.c:359
    9824:	a90573fb 	stp	x27, x28, [sp,#80]
/home/asaf/devel/optee/optee_os/lib/libmpa/mpa_addsub.c:370
    9828:	5a80d41c 	cneg	w28, w0, gt
/home/asaf/devel/optee/optee_os/lib/libmpa/mpa_addsub.c:371
    982c:	6b00003f 	cmp	w1, w0
/home/asaf/devel/optee/optee_os/lib/libmpa/mpa_addsub.c:359
    9830:	aa0303fa 	mov	x26, x3
/home/asaf/devel/optee/optee_os/lib/libmpa/mpa_addsub.c:371
    9834:	5a80d413 	cneg	w19, w0, gt
/home/asaf/devel/optee/optee_os/lib/libmpa/mpa_addsub.c:374
    9838:	eb1902ff 	cmp	x23, x25
    983c:	1a9f17fb 	cset	w27, eq
    9840:	eb19031f 	cmp	x24, x25
    9844:	1a9f17e0 	cset	w0, eq
    9848:	2a00037b 	orr	w27, w27, w0
/home/asaf/devel/optee/optee_os/lib/libmpa/mpa_addsub.c:375
    984c:	3400049b 	cbz	w27, 98dc <mpa_sub+0xfc>
/home/asaf/devel/optee/optee_os/lib/libmpa/mpa_addsub.c:376
    9850:	aa0303e1 	mov	x1, x3
    9854:	9101a3a0 	add	x0, x29, #0x68
    9858:	97fffc6b 	bl	8a04 <mpa_alloc_static_temp_var>
/home/asaf/devel/optee/optee_os/lib/libmpa/mpa_addsub.c:384
    985c:	6b13039f 	cmp	w28, w19
    9860:	91002315 	add	x21, x24, #0x8
    9864:	910022f3 	add	x19, x23, #0x8
    9868:	54000701 	b.ne	9948 <mpa_sub+0x168>
/home/asaf/devel/optee/optee_os/lib/libmpa/mpa_addsub.c:386
    986c:	aa1803e1 	mov	x1, x24
    9870:	aa1703e0 	mov	x0, x23
/home/asaf/devel/optee/optee_os/lib/libmpa/mpa_addsub.c:385
    9874:	7100079f 	cmp	w28, #0x1
    9878:	540004e1 	b.ne	9914 <mpa_sub+0x134>
/home/asaf/devel/optee/optee_os/lib/libmpa/mpa_addsub.c:386
    987c:	94000114 	bl	9ccc <__mpa_abs_greater_than>
    9880:	f94037a6 	ldr	x6, [x29,#104]
    9884:	34000300 	cbz	w0, 98e4 <mpa_sub+0x104>
/home/asaf/devel/optee/optee_os/lib/libmpa/mpa_addsub.c:389
    9888:	2a1603e5 	mov	w5, w22
    988c:	aa1503e4 	mov	x4, x21
    9890:	2a1403e3 	mov	w3, w20
    9894:	aa1303e2 	mov	x2, x19
/home/asaf/devel/optee/optee_os/lib/libmpa/mpa_addsub.c:409
    9898:	910010c1 	add	x1, x6, #0x4
    989c:	910020c0 	add	x0, x6, #0x8
    98a0:	97ffff2a 	bl	9548 <__mpa_abs_sub>
/home/asaf/devel/optee/optee_os/lib/libmpa/mpa_addsub.c:426
    98a4:	f94037a1 	ldr	x1, [x29,#104]
    98a8:	aa1903e0 	mov	x0, x25
    98ac:	97fff544 	bl	6dbc <mpa_copy>
/home/asaf/devel/optee/optee_os/lib/libmpa/mpa_addsub.c:427
    98b0:	3400009b 	cbz	w27, 98c0 <mpa_sub+0xe0>
/home/asaf/devel/optee/optee_os/lib/libmpa/mpa_addsub.c:428
    98b4:	aa1a03e1 	mov	x1, x26
    98b8:	9101a3a0 	add	x0, x29, #0x68
    98bc:	97fffc56 	bl	8a14 <mpa_free_static_temp_var>
/home/asaf/devel/optee/optee_os/lib/libmpa/mpa_addsub.c:429
    98c0:	a94153f3 	ldp	x19, x20, [sp,#16]
    98c4:	a9425bf5 	ldp	x21, x22, [sp,#32]
    98c8:	a94363f7 	ldp	x23, x24, [sp,#48]
    98cc:	a9446bf9 	ldp	x25, x26, [sp,#64]
    98d0:	a94573fb 	ldp	x27, x28, [sp,#80]
    98d4:	a8c77bfd 	ldp	x29, x30, [sp],#112
    98d8:	d65f03c0 	ret
/home/asaf/devel/optee/optee_os/lib/libmpa/mpa_addsub.c:378
    98dc:	f90037b9 	str	x25, [x29,#104]
    98e0:	17ffffdf 	b	985c <mpa_sub+0x7c>
/home/asaf/devel/optee/optee_os/lib/libmpa/mpa_addsub.c:393
    98e4:	2a1403e5 	mov	w5, w20
    98e8:	aa1303e4 	mov	x4, x19
    98ec:	2a1603e3 	mov	w3, w22
    98f0:	aa1503e2 	mov	x2, x21
/home/asaf/devel/optee/optee_os/lib/libmpa/mpa_addsub.c:404
    98f4:	910010c1 	add	x1, x6, #0x4
    98f8:	910020c0 	add	x0, x6, #0x8
    98fc:	97ffff13 	bl	9548 <__mpa_abs_sub>
/home/asaf/devel/optee/optee_os/lib/libmpa/mpa_addsub.c:422
    9900:	f94037a1 	ldr	x1, [x29,#104]
    9904:	b9400420 	ldr	w0, [x1,#4]
    9908:	4b0003e0 	neg	w0, w0
    990c:	b9000420 	str	w0, [x1,#4]
    9910:	17ffffe5 	b	98a4 <mpa_sub+0xc4>
/home/asaf/devel/optee/optee_os/lib/libmpa/mpa_addsub.c:400
    9914:	940000ee 	bl	9ccc <__mpa_abs_greater_than>
    9918:	f94037a6 	ldr	x6, [x29,#104]
    991c:	340000c0 	cbz	w0, 9934 <mpa_sub+0x154>
/home/asaf/devel/optee/optee_os/lib/libmpa/mpa_addsub.c:404
    9920:	2a1603e5 	mov	w5, w22
    9924:	aa1503e4 	mov	x4, x21
    9928:	2a1403e3 	mov	w3, w20
    992c:	aa1303e2 	mov	x2, x19
    9930:	17fffff1 	b	98f4 <mpa_sub+0x114>
/home/asaf/devel/optee/optee_os/lib/libmpa/mpa_addsub.c:409
    9934:	2a1403e5 	mov	w5, w20
    9938:	aa1303e4 	mov	x4, x19
    993c:	2a1603e3 	mov	w3, w22
    9940:	aa1503e2 	mov	x2, x21
    9944:	17ffffd5 	b	9898 <mpa_sub+0xb8>
    9948:	f94037a0 	ldr	x0, [x29,#104]
/home/asaf/devel/optee/optee_os/lib/libmpa/mpa_addsub.c:416
    994c:	2a1603e5 	mov	w5, w22
    9950:	aa1503e4 	mov	x4, x21
    9954:	2a1403e3 	mov	w3, w20
    9958:	91001001 	add	x1, x0, #0x4
    995c:	aa1303e2 	mov	x2, x19
/home/asaf/devel/optee/optee_os/lib/libmpa/mpa_addsub.c:414
    9960:	7100079f 	cmp	w28, #0x1
/home/asaf/devel/optee/optee_os/lib/libmpa/mpa_addsub.c:416
    9964:	91002000 	add	x0, x0, #0x8
/home/asaf/devel/optee/optee_os/lib/libmpa/mpa_addsub.c:414
    9968:	54000061 	b.ne	9974 <mpa_sub+0x194>
/home/asaf/devel/optee/optee_os/lib/libmpa/mpa_addsub.c:416
    996c:	97fffe87 	bl	9388 <__mpa_abs_add>
    9970:	17ffffcd 	b	98a4 <mpa_sub+0xc4>
/home/asaf/devel/optee/optee_os/lib/libmpa/mpa_addsub.c:420
    9974:	97fffe85 	bl	9388 <__mpa_abs_add>
    9978:	17ffffe2 	b	9900 <mpa_sub+0x120>

000000000000997c <mpa_neg>:
mpa_neg():
/home/asaf/devel/optee/optee_os/lib/libmpa/mpa_addsub.c:438
    997c:	a9be7bfd 	stp	x29, x30, [sp,#-32]!
    9980:	910003fd 	mov	x29, sp
    9984:	f9000bf3 	str	x19, [sp,#16]
    9988:	aa0003f3 	mov	x19, x0
/home/asaf/devel/optee/optee_os/lib/libmpa/mpa_addsub.c:439
    998c:	97fff50c 	bl	6dbc <mpa_copy>
/home/asaf/devel/optee/optee_os/lib/libmpa/mpa_addsub.c:440
    9990:	b9400660 	ldr	w0, [x19,#4]
    9994:	4b0003e0 	neg	w0, w0
    9998:	b9000660 	str	w0, [x19,#4]
/home/asaf/devel/optee/optee_os/lib/libmpa/mpa_addsub.c:441
    999c:	f9400bf3 	ldr	x19, [sp,#16]
    99a0:	a8c27bfd 	ldp	x29, x30, [sp],#32
    99a4:	d65f03c0 	ret

00000000000099a8 <mpa_add_word>:
mpa_add_word():
/home/asaf/devel/optee/optee_os/lib/libmpa/mpa_addsub.c:450
    99a8:	a9ba7bfd 	stp	x29, x30, [sp,#-96]!
    99ac:	910003fd 	mov	x29, sp
    99b0:	a90153f3 	stp	x19, x20, [sp,#16]
    99b4:	a9025bf5 	stp	x21, x22, [sp,#32]
    99b8:	b9004fa2 	str	w2, [x29,#76]
    99bc:	f9001bf7 	str	x23, [sp,#48]
/home/asaf/devel/optee/optee_os/lib/libmpa/mpa_addsub.c:456
    99c0:	350000e2 	cbnz	w2, 99dc <mpa_add_word+0x34>
/home/asaf/devel/optee/optee_os/lib/libmpa/mpa_addsub.c:457
    99c4:	97fff4fe 	bl	6dbc <mpa_copy>
/home/asaf/devel/optee/optee_os/lib/libmpa/mpa_addsub.c:500
    99c8:	a94153f3 	ldp	x19, x20, [sp,#16]
    99cc:	a9425bf5 	ldp	x21, x22, [sp,#32]
    99d0:	f9401bf7 	ldr	x23, [sp,#48]
    99d4:	a8c67bfd 	ldp	x29, x30, [sp],#96
    99d8:	d65f03c0 	ret
    99dc:	aa0303f6 	mov	x22, x3
/home/asaf/devel/optee/optee_os/lib/libmpa/mpa_addsub.c:461
    99e0:	b9400423 	ldr	w3, [x1,#4]
    99e4:	aa0003f5 	mov	x21, x0
    99e8:	aa0103f4 	mov	x20, x1
    99ec:	35000083 	cbnz	w3, 99fc <mpa_add_word+0x54>
/home/asaf/devel/optee/optee_os/lib/libmpa/mpa_addsub.c:462
    99f0:	52800020 	mov	w0, #0x1                   	// #1
/home/asaf/devel/optee/optee_os/lib/libmpa/mpa_addsub.c:463
    99f4:	29008aa0 	stp	w0, w2, [x21,#4]
/home/asaf/devel/optee/optee_os/lib/libmpa/mpa_addsub.c:464
    99f8:	17fffff4 	b	99c8 <mpa_add_word+0x20>
/home/asaf/devel/optee/optee_os/lib/libmpa/mpa_addsub.c:467
    99fc:	12800017 	mov	w23, #0xffffffff            	// #-1
    9a00:	6b17007f 	cmp	w3, w23
    9a04:	5a97d6f7 	cneg	w23, w23, gt
/home/asaf/devel/optee/optee_os/lib/libmpa/mpa_addsub.c:468
    9a08:	7100007f 	cmp	w3, #0x0
    9a0c:	5a83a473 	cneg	w19, w3, lt
/home/asaf/devel/optee/optee_os/lib/libmpa/mpa_addsub.c:472
    9a10:	eb00003f 	cmp	x1, x0
    9a14:	540002e1 	b.ne	9a70 <mpa_add_word+0xc8>
/home/asaf/devel/optee/optee_os/lib/libmpa/mpa_addsub.c:473
    9a18:	aa1603e1 	mov	x1, x22
    9a1c:	910163a0 	add	x0, x29, #0x58
    9a20:	97fffbf9 	bl	8a04 <mpa_alloc_static_temp_var>
/home/asaf/devel/optee/optee_os/lib/libmpa/mpa_addsub.c:478
    9a24:	710006ff 	cmp	w23, #0x1
    9a28:	f9402fa0 	ldr	x0, [x29,#88]
    9a2c:	54000261 	b.ne	9a78 <mpa_add_word+0xd0>
/home/asaf/devel/optee/optee_os/lib/libmpa/mpa_addsub.c:480
    9a30:	91001001 	add	x1, x0, #0x4
    9a34:	2a1703e5 	mov	w5, w23
    9a38:	910133a4 	add	x4, x29, #0x4c
    9a3c:	2a1303e3 	mov	w3, w19
    9a40:	91002282 	add	x2, x20, #0x8
    9a44:	91002000 	add	x0, x0, #0x8
    9a48:	97fffe50 	bl	9388 <__mpa_abs_add>
/home/asaf/devel/optee/optee_os/lib/libmpa/mpa_addsub.c:497
    9a4c:	f9402fa1 	ldr	x1, [x29,#88]
    9a50:	aa1503e0 	mov	x0, x21
    9a54:	97fff4da 	bl	6dbc <mpa_copy>
/home/asaf/devel/optee/optee_os/lib/libmpa/mpa_addsub.c:498
    9a58:	eb15029f 	cmp	x20, x21
    9a5c:	54fffb61 	b.ne	99c8 <mpa_add_word+0x20>
/home/asaf/devel/optee/optee_os/lib/libmpa/mpa_addsub.c:499
    9a60:	aa1603e1 	mov	x1, x22
    9a64:	910163a0 	add	x0, x29, #0x58
    9a68:	97fffbeb 	bl	8a14 <mpa_free_static_temp_var>
    9a6c:	17ffffd7 	b	99c8 <mpa_add_word+0x20>
/home/asaf/devel/optee/optee_os/lib/libmpa/mpa_addsub.c:475
    9a70:	f9002fa0 	str	x0, [x29,#88]
    9a74:	17ffffec 	b	9a24 <mpa_add_word+0x7c>
/home/asaf/devel/optee/optee_os/lib/libmpa/mpa_addsub.c:483
    9a78:	b9400681 	ldr	w1, [x20,#4]
    9a7c:	7100003f 	cmp	w1, #0x0
    9a80:	5a81a421 	cneg	w1, w1, lt
    9a84:	7100043f 	cmp	w1, #0x1
    9a88:	540000ac 	b.gt	9a9c <mpa_add_word+0xf4>
/home/asaf/devel/optee/optee_os/lib/libmpa/mpa_addsub.c:483 (discriminator 1)
    9a8c:	b9400a82 	ldr	w2, [x20,#8]
    9a90:	b9404fa1 	ldr	w1, [x29,#76]
    9a94:	6b01005f 	cmp	w2, w1
    9a98:	540001a9 	b.ls	9acc <mpa_add_word+0x124>
/home/asaf/devel/optee/optee_os/lib/libmpa/mpa_addsub.c:487
    9a9c:	91001001 	add	x1, x0, #0x4
    9aa0:	52800025 	mov	w5, #0x1                   	// #1
    9aa4:	91002000 	add	x0, x0, #0x8
    9aa8:	910133a4 	add	x4, x29, #0x4c
    9aac:	2a1303e3 	mov	w3, w19
    9ab0:	91002282 	add	x2, x20, #0x8
    9ab4:	97fffea5 	bl	9548 <__mpa_abs_sub>
/home/asaf/devel/optee/optee_os/lib/libmpa/mpa_addsub.c:489
    9ab8:	f9402fa1 	ldr	x1, [x29,#88]
    9abc:	b9400420 	ldr	w0, [x1,#4]
    9ac0:	4b0003e0 	neg	w0, w0
    9ac4:	b9000420 	str	w0, [x1,#4]
    9ac8:	17ffffe1 	b	9a4c <mpa_add_word+0xa4>
/home/asaf/devel/optee/optee_os/lib/libmpa/mpa_addsub.c:492
    9acc:	4b020021 	sub	w1, w1, w2
    9ad0:	b9000801 	str	w1, [x0,#8]
/home/asaf/devel/optee/optee_os/lib/libmpa/mpa_addsub.c:493
    9ad4:	7100003f 	cmp	w1, #0x0
    9ad8:	1a9f07e1 	cset	w1, ne
    9adc:	b9000401 	str	w1, [x0,#4]
    9ae0:	17ffffdb 	b	9a4c <mpa_add_word+0xa4>

0000000000009ae4 <mpa_sub_word>:
mpa_sub_word():
/home/asaf/devel/optee/optee_os/lib/libmpa/mpa_addsub.c:509
    9ae4:	a9ba7bfd 	stp	x29, x30, [sp,#-96]!
    9ae8:	910003fd 	mov	x29, sp
    9aec:	a90153f3 	stp	x19, x20, [sp,#16]
    9af0:	a9025bf5 	stp	x21, x22, [sp,#32]
    9af4:	b9004fa2 	str	w2, [x29,#76]
    9af8:	f9001bf7 	str	x23, [sp,#48]
/home/asaf/devel/optee/optee_os/lib/libmpa/mpa_addsub.c:515
    9afc:	350000e2 	cbnz	w2, 9b18 <mpa_sub_word+0x34>
/home/asaf/devel/optee/optee_os/lib/libmpa/mpa_addsub.c:516
    9b00:	97fff4af 	bl	6dbc <mpa_copy>
/home/asaf/devel/optee/optee_os/lib/libmpa/mpa_addsub.c:561
    9b04:	a94153f3 	ldp	x19, x20, [sp,#16]
    9b08:	a9425bf5 	ldp	x21, x22, [sp,#32]
    9b0c:	f9401bf7 	ldr	x23, [sp,#48]
    9b10:	a8c67bfd 	ldp	x29, x30, [sp],#96
    9b14:	d65f03c0 	ret
    9b18:	aa0303f6 	mov	x22, x3
/home/asaf/devel/optee/optee_os/lib/libmpa/mpa_addsub.c:520
    9b1c:	b9400423 	ldr	w3, [x1,#4]
    9b20:	aa0003f5 	mov	x21, x0
    9b24:	aa0103f4 	mov	x20, x1
/home/asaf/devel/optee/optee_os/lib/libmpa/mpa_addsub.c:521
    9b28:	12800000 	mov	w0, #0xffffffff            	// #-1
/home/asaf/devel/optee/optee_os/lib/libmpa/mpa_addsub.c:520
    9b2c:	35000063 	cbnz	w3, 9b38 <mpa_sub_word+0x54>
/home/asaf/devel/optee/optee_os/lib/libmpa/mpa_addsub.c:522
    9b30:	29008aa0 	stp	w0, w2, [x21,#4]
/home/asaf/devel/optee/optee_os/lib/libmpa/mpa_addsub.c:523
    9b34:	17fffff4 	b	9b04 <mpa_sub_word+0x20>
/home/asaf/devel/optee/optee_os/lib/libmpa/mpa_addsub.c:526
    9b38:	6b00007f 	cmp	w3, w0
    9b3c:	5a80d417 	cneg	w23, w0, gt
/home/asaf/devel/optee/optee_os/lib/libmpa/mpa_addsub.c:527
    9b40:	7100007f 	cmp	w3, #0x0
    9b44:	5a83a473 	cneg	w19, w3, lt
/home/asaf/devel/optee/optee_os/lib/libmpa/mpa_addsub.c:531
    9b48:	eb15003f 	cmp	x1, x21
    9b4c:	54000401 	b.ne	9bcc <mpa_sub_word+0xe8>
/home/asaf/devel/optee/optee_os/lib/libmpa/mpa_addsub.c:532
    9b50:	aa1603e1 	mov	x1, x22
    9b54:	910163a0 	add	x0, x29, #0x58
    9b58:	97fffbab 	bl	8a04 <mpa_alloc_static_temp_var>
/home/asaf/devel/optee/optee_os/lib/libmpa/mpa_addsub.c:544
    9b5c:	710006ff 	cmp	w23, #0x1
    9b60:	f9402fa0 	ldr	x0, [x29,#88]
    9b64:	54000441 	b.ne	9bec <mpa_sub_word+0x108>
/home/asaf/devel/optee/optee_os/lib/libmpa/mpa_addsub.c:545
    9b68:	b9400681 	ldr	w1, [x20,#4]
    9b6c:	7100003f 	cmp	w1, #0x0
    9b70:	5a81a421 	cneg	w1, w1, lt
    9b74:	7100043f 	cmp	w1, #0x1
    9b78:	540000ac 	b.gt	9b8c <mpa_sub_word+0xa8>
/home/asaf/devel/optee/optee_os/lib/libmpa/mpa_addsub.c:545 (discriminator 1)
    9b7c:	b9400a82 	ldr	w2, [x20,#8]
    9b80:	b9404fa1 	ldr	w1, [x29,#76]
    9b84:	6b01005f 	cmp	w2, w1
    9b88:	54000269 	b.ls	9bd4 <mpa_sub_word+0xf0>
/home/asaf/devel/optee/optee_os/lib/libmpa/mpa_addsub.c:546
    9b8c:	91001001 	add	x1, x0, #0x4
    9b90:	52800025 	mov	w5, #0x1                   	// #1
    9b94:	910133a4 	add	x4, x29, #0x4c
    9b98:	2a1303e3 	mov	w3, w19
    9b9c:	91002282 	add	x2, x20, #0x8
    9ba0:	91002000 	add	x0, x0, #0x8
    9ba4:	97fffe69 	bl	9548 <__mpa_abs_sub>
/home/asaf/devel/optee/optee_os/lib/libmpa/mpa_addsub.c:558
    9ba8:	f9402fa1 	ldr	x1, [x29,#88]
    9bac:	aa1503e0 	mov	x0, x21
    9bb0:	97fff483 	bl	6dbc <mpa_copy>
/home/asaf/devel/optee/optee_os/lib/libmpa/mpa_addsub.c:559
    9bb4:	eb15029f 	cmp	x20, x21
    9bb8:	54fffa61 	b.ne	9b04 <mpa_sub_word+0x20>
/home/asaf/devel/optee/optee_os/lib/libmpa/mpa_addsub.c:560
    9bbc:	aa1603e1 	mov	x1, x22
    9bc0:	910163a0 	add	x0, x29, #0x58
    9bc4:	97fffb94 	bl	8a14 <mpa_free_static_temp_var>
    9bc8:	17ffffcf 	b	9b04 <mpa_sub_word+0x20>
/home/asaf/devel/optee/optee_os/lib/libmpa/mpa_addsub.c:534
    9bcc:	f9002fb5 	str	x21, [x29,#88]
    9bd0:	17ffffe3 	b	9b5c <mpa_sub_word+0x78>
/home/asaf/devel/optee/optee_os/lib/libmpa/mpa_addsub.c:549
    9bd4:	4b020021 	sub	w1, w1, w2
    9bd8:	b9000801 	str	w1, [x0,#8]
/home/asaf/devel/optee/optee_os/lib/libmpa/mpa_addsub.c:550
    9bdc:	7100003f 	cmp	w1, #0x0
    9be0:	5a9f03e1 	csetm	w1, ne
    9be4:	b9000401 	str	w1, [x0,#4]
    9be8:	17fffff0 	b	9ba8 <mpa_sub_word+0xc4>
/home/asaf/devel/optee/optee_os/lib/libmpa/mpa_addsub.c:553
    9bec:	91001001 	add	x1, x0, #0x4
    9bf0:	52800025 	mov	w5, #0x1                   	// #1
    9bf4:	91002000 	add	x0, x0, #0x8
    9bf8:	910133a4 	add	x4, x29, #0x4c
    9bfc:	2a1303e3 	mov	w3, w19
    9c00:	91002282 	add	x2, x20, #0x8
    9c04:	97fffde1 	bl	9388 <__mpa_abs_add>
/home/asaf/devel/optee/optee_os/lib/libmpa/mpa_addsub.c:555
    9c08:	f9402fa1 	ldr	x1, [x29,#88]
    9c0c:	b9400420 	ldr	w0, [x1,#4]
    9c10:	4b0003e0 	neg	w0, w0
    9c14:	b9000420 	str	w0, [x1,#4]
    9c18:	17ffffe4 	b	9ba8 <mpa_sub_word+0xc4>

0000000000009c1c <__mpa_abs_cmp>:
__mpa_abs_cmp():
/home/asaf/devel/optee/optee_os/lib/libmpa/mpa_cmp.c:43
    9c1c:	aa0003e4 	mov	x4, x0
/home/asaf/devel/optee/optee_os/lib/libmpa/mpa_cmp.c:48
    9c20:	eb01001f 	cmp	x0, x1
    9c24:	54000500 	b.eq	9cc4 <__mpa_abs_cmp+0xa8>
/home/asaf/devel/optee/optee_os/lib/libmpa/mpa_cmp.c:52
    9c28:	b9400482 	ldr	w2, [x4,#4]
    9c2c:	b9400420 	ldr	w0, [x1,#4]
    9c30:	7100005f 	cmp	w2, #0x0
    9c34:	5a82a443 	cneg	w3, w2, lt
    9c38:	7100001f 	cmp	w0, #0x0
    9c3c:	5a80a405 	cneg	w5, w0, lt
    9c40:	6b05007f 	cmp	w3, w5
    9c44:	54000060 	b.eq	9c50 <__mpa_abs_cmp+0x34>
/home/asaf/devel/optee/optee_os/lib/libmpa/mpa_cmp.c:53
    9c48:	4b050060 	sub	w0, w3, w5
    9c4c:	d65f03c0 	ret
/home/asaf/devel/optee/optee_os/lib/libmpa/mpa_cmp.c:55 (discriminator 1)
    9c50:	2a000040 	orr	w0, w2, w0
    9c54:	340003a0 	cbz	w0, 9cc8 <__mpa_abs_cmp+0xac>
/home/asaf/devel/optee/optee_os/lib/libmpa/mpa_cmp.c:59
    9c58:	51000462 	sub	w2, w3, #0x1
/home/asaf/devel/optee/optee_os/lib/libmpa/mpa_cmp.c:60
    9c5c:	52800025 	mov	w5, #0x1                   	// #1
    9c60:	93407c43 	sxtw	x3, w2
    9c64:	91000863 	add	x3, x3, #0x2
    9c68:	d37ef463 	lsl	x3, x3, #2
/home/asaf/devel/optee/optee_os/lib/libmpa/mpa_cmp.c:61
    9c6c:	2a2203e0 	mvn	w0, w2
    9c70:	6a407cbf 	tst	w5, w0, lsr #31
    9c74:	540001a1 	b.ne	9ca8 <__mpa_abs_cmp+0x8c>
/home/asaf/devel/optee/optee_os/lib/libmpa/mpa_cmp.c:49
    9c78:	52800000 	mov	w0, #0x0                   	// #0
/home/asaf/devel/optee/optee_os/lib/libmpa/mpa_cmp.c:65
    9c7c:	35000265 	cbnz	w5, 9cc8 <__mpa_abs_cmp+0xac>
/home/asaf/devel/optee/optee_os/lib/libmpa/mpa_cmp.c:67
    9c80:	11000442 	add	w2, w2, #0x1
/home/asaf/devel/optee/optee_os/lib/libmpa/mpa_cmp.c:68
    9c84:	12800000 	mov	w0, #0xffffffff            	// #-1
    9c88:	937e7c42 	sbfiz	x2, x2, #2, #32
    9c8c:	8b020084 	add	x4, x4, x2
    9c90:	8b020022 	add	x2, x1, x2
    9c94:	b9400883 	ldr	w3, [x4,#8]
    9c98:	b9400841 	ldr	w1, [x2,#8]
    9c9c:	6b01007f 	cmp	w3, w1
    9ca0:	5a809400 	cneg	w0, w0, hi
    9ca4:	d65f03c0 	ret
/home/asaf/devel/optee/optee_os/lib/libmpa/mpa_cmp.c:62
    9ca8:	b8636885 	ldr	w5, [x4,x3]
/home/asaf/devel/optee/optee_os/lib/libmpa/mpa_cmp.c:63
    9cac:	51000442 	sub	w2, w2, #0x1
/home/asaf/devel/optee/optee_os/lib/libmpa/mpa_cmp.c:62
    9cb0:	b8636820 	ldr	w0, [x1,x3]
    9cb4:	d1001063 	sub	x3, x3, #0x4
    9cb8:	6b0000bf 	cmp	w5, w0
    9cbc:	1a9f17e5 	cset	w5, eq
    9cc0:	17ffffeb 	b	9c6c <__mpa_abs_cmp+0x50>
/home/asaf/devel/optee/optee_os/lib/libmpa/mpa_cmp.c:49
    9cc4:	52800000 	mov	w0, #0x0                   	// #0
/home/asaf/devel/optee/optee_os/lib/libmpa/mpa_cmp.c:69
    9cc8:	d65f03c0 	ret

0000000000009ccc <__mpa_abs_greater_than>:
__mpa_abs_greater_than():
/home/asaf/devel/optee/optee_os/lib/libmpa/mpa_cmp.c:77
    9ccc:	a9bf7bfd 	stp	x29, x30, [sp,#-16]!
    9cd0:	910003fd 	mov	x29, sp
/home/asaf/devel/optee/optee_os/lib/libmpa/mpa_cmp.c:78
    9cd4:	97ffffd2 	bl	9c1c <__mpa_abs_cmp>
    9cd8:	7100001f 	cmp	w0, #0x0
/home/asaf/devel/optee/optee_os/lib/libmpa/mpa_cmp.c:79
    9cdc:	1a9fd7e0 	cset	w0, gt
    9ce0:	a8c17bfd 	ldp	x29, x30, [sp],#16
    9ce4:	d65f03c0 	ret

0000000000009ce8 <__mpa_abs_less_than>:
__mpa_abs_less_than():
/home/asaf/devel/optee/optee_os/lib/libmpa/mpa_cmp.c:87
    9ce8:	a9bf7bfd 	stp	x29, x30, [sp,#-16]!
    9cec:	910003fd 	mov	x29, sp
/home/asaf/devel/optee/optee_os/lib/libmpa/mpa_cmp.c:88
    9cf0:	97ffffcb 	bl	9c1c <__mpa_abs_cmp>
/home/asaf/devel/optee/optee_os/lib/libmpa/mpa_cmp.c:89
    9cf4:	531f7c00 	lsr	w0, w0, #31
    9cf8:	a8c17bfd 	ldp	x29, x30, [sp],#16
    9cfc:	d65f03c0 	ret

0000000000009d00 <mpa_cmp>:
mpa_cmp():
/home/asaf/devel/optee/optee_os/lib/libmpa/mpa_cmp.c:105
    9d00:	a9be7bfd 	stp	x29, x30, [sp,#-32]!
/home/asaf/devel/optee/optee_os/lib/libmpa/mpa_cmp.c:110
    9d04:	12800002 	mov	w2, #0xffffffff            	// #-1
/home/asaf/devel/optee/optee_os/lib/libmpa/mpa_cmp.c:105
    9d08:	910003fd 	mov	x29, sp
/home/asaf/devel/optee/optee_os/lib/libmpa/mpa_cmp.c:110
    9d0c:	b9400404 	ldr	w4, [x0,#4]
/home/asaf/devel/optee/optee_os/lib/libmpa/mpa_cmp.c:111
    9d10:	b9400423 	ldr	w3, [x1,#4]
/home/asaf/devel/optee/optee_os/lib/libmpa/mpa_cmp.c:110
    9d14:	6b02009f 	cmp	w4, w2
/home/asaf/devel/optee/optee_os/lib/libmpa/mpa_cmp.c:105
    9d18:	f9000bf3 	str	x19, [sp,#16]
/home/asaf/devel/optee/optee_os/lib/libmpa/mpa_cmp.c:110
    9d1c:	5a82d453 	cneg	w19, w2, gt
/home/asaf/devel/optee/optee_os/lib/libmpa/mpa_cmp.c:111
    9d20:	6b02007f 	cmp	w3, w2
    9d24:	5a82d442 	cneg	w2, w2, gt
    9d28:	6b02027f 	cmp	w19, w2
    9d2c:	540000e1 	b.ne	9d48 <mpa_cmp+0x48>
/home/asaf/devel/optee/optee_os/lib/libmpa/mpa_cmp.c:115
    9d30:	35000144 	cbnz	w4, 9d58 <mpa_cmp+0x58>
/home/asaf/devel/optee/optee_os/lib/libmpa/mpa_cmp.c:116
    9d34:	52800013 	mov	w19, #0x0                   	// #0
    9d38:	34000083 	cbz	w3, 9d48 <mpa_cmp+0x48>
/home/asaf/devel/optee/optee_os/lib/libmpa/mpa_cmp.c:116 (discriminator 1)
    9d3c:	3100047f 	cmn	w3, #0x1
    9d40:	52800026 	mov	w6, #0x1                   	// #1
    9d44:	5a86d4d3 	cneg	w19, w6, gt
/home/asaf/devel/optee/optee_os/lib/libmpa/mpa_cmp.c:126
    9d48:	2a1303e0 	mov	w0, w19
    9d4c:	f9400bf3 	ldr	x19, [sp,#16]
    9d50:	a8c27bfd 	ldp	x29, x30, [sp],#32
    9d54:	d65f03c0 	ret
/home/asaf/devel/optee/optee_os/lib/libmpa/mpa_cmp.c:122
    9d58:	97ffffb1 	bl	9c1c <__mpa_abs_cmp>
/home/asaf/devel/optee/optee_os/lib/libmpa/mpa_cmp.c:124
    9d5c:	7100067f 	cmp	w19, #0x1
    9d60:	5a800413 	cneg	w19, w0, ne
    9d64:	17fffff9 	b	9d48 <mpa_cmp+0x48>

0000000000009d68 <mpa_cmp_short>:
mpa_cmp_short():
/home/asaf/devel/optee/optee_os/lib/libmpa/mpa_cmp.c:144
    9d68:	b9400403 	ldr	w3, [x0,#4]
/home/asaf/devel/optee/optee_os/lib/libmpa/mpa_cmp.c:137
    9d6c:	aa0003e4 	mov	x4, x0
/home/asaf/devel/optee/optee_os/lib/libmpa/mpa_cmp.c:144
    9d70:	37f80343 	tbnz	w3, #31, 9dd8 <mpa_cmp_short+0x70>
/home/asaf/devel/optee/optee_os/lib/libmpa/mpa_cmp.c:145 (discriminator 4)
    9d74:	37f802a1 	tbnz	w1, #31, 9dc8 <mpa_cmp_short+0x60>
/home/asaf/devel/optee/optee_os/lib/libmpa/mpa_cmp.c:148 (discriminator 4)
    9d78:	350000c3 	cbnz	w3, 9d90 <mpa_cmp_short+0x28>
/home/asaf/devel/optee/optee_os/lib/libmpa/mpa_cmp.c:149
    9d7c:	52800000 	mov	w0, #0x0                   	// #0
    9d80:	34000341 	cbz	w1, 9de8 <mpa_cmp_short+0x80>
/home/asaf/devel/optee/optee_os/lib/libmpa/mpa_cmp.c:145
    9d84:	52800022 	mov	w2, #0x1                   	// #1
/home/asaf/devel/optee/optee_os/lib/libmpa/mpa_cmp.c:149 (discriminator 1)
    9d88:	4b0203e0 	neg	w0, w2
    9d8c:	d65f03c0 	ret
/home/asaf/devel/optee/optee_os/lib/libmpa/mpa_cmp.c:144
    9d90:	52800020 	mov	w0, #0x1                   	// #1
/home/asaf/devel/optee/optee_os/lib/libmpa/mpa_cmp.c:145
    9d94:	52800022 	mov	w2, #0x1                   	// #1
/home/asaf/devel/optee/optee_os/lib/libmpa/mpa_cmp.c:152
    9d98:	7100007f 	cmp	w3, #0x0
    9d9c:	5a83a463 	cneg	w3, w3, lt
/home/asaf/devel/optee/optee_os/lib/libmpa/mpa_cmp.c:156
    9da0:	7100047f 	cmp	w3, #0x1
    9da4:	7a420000 	ccmp	w0, w2, #0x0, eq
    9da8:	54000201 	b.ne	9de8 <mpa_cmp_short+0x80>
/home/asaf/devel/optee/optee_os/lib/libmpa/mpa_cmp.c:161
    9dac:	7100003f 	cmp	w1, #0x0
/home/asaf/devel/optee/optee_os/lib/libmpa/mpa_cmp.c:163
    9db0:	b9400882 	ldr	w2, [x4,#8]
/home/asaf/devel/optee/optee_os/lib/libmpa/mpa_cmp.c:161
    9db4:	5a81a421 	cneg	w1, w1, lt
/home/asaf/devel/optee/optee_os/lib/libmpa/mpa_cmp.c:163
    9db8:	6b02003f 	cmp	w1, w2
/home/asaf/devel/optee/optee_os/lib/libmpa/mpa_cmp.c:166
    9dbc:	5a803400 	cneg	w0, w0, cs
    9dc0:	1a9f1000 	csel	w0, w0, wzr, ne
    9dc4:	d65f03c0 	ret
/home/asaf/devel/optee/optee_os/lib/libmpa/mpa_cmp.c:145
    9dc8:	12800002 	mov	w2, #0xffffffff            	// #-1
/home/asaf/devel/optee/optee_os/lib/libmpa/mpa_cmp.c:144
    9dcc:	52800020 	mov	w0, #0x1                   	// #1
/home/asaf/devel/optee/optee_os/lib/libmpa/mpa_cmp.c:148
    9dd0:	34fffdc3 	cbz	w3, 9d88 <mpa_cmp_short+0x20>
    9dd4:	17fffff1 	b	9d98 <mpa_cmp_short+0x30>
/home/asaf/devel/optee/optee_os/lib/libmpa/mpa_cmp.c:144
    9dd8:	12800000 	mov	w0, #0xffffffff            	// #-1
/home/asaf/devel/optee/optee_os/lib/libmpa/mpa_cmp.c:145
    9ddc:	2a0003e2 	mov	w2, w0
    9de0:	36fffda1 	tbz	w1, #31, 9d94 <mpa_cmp_short+0x2c>
    9de4:	17ffffed 	b	9d98 <mpa_cmp_short+0x30>
/home/asaf/devel/optee/optee_os/lib/libmpa/mpa_cmp.c:171
    9de8:	d65f03c0 	ret

0000000000009dec <mpa_exp_mod>:
mpa_exp_mod():
/home/asaf/devel/optee/optee_os/lib/libmpa/mpa_expmod.c:51
    9dec:	a9b67bfd 	stp	x29, x30, [sp,#-160]!
    9df0:	910003fd 	mov	x29, sp
    9df4:	a90573fb 	stp	x27, x28, [sp,#80]
/home/asaf/devel/optee/optee_os/lib/libmpa/mpa_expmod.c:62
    9df8:	910203bc 	add	x28, x29, #0x80
/home/asaf/devel/optee/optee_os/lib/libmpa/mpa_expmod.c:51
    9dfc:	a90153f3 	stp	x19, x20, [sp,#16]
/home/asaf/devel/optee/optee_os/lib/libmpa/mpa_expmod.c:63
    9e00:	910223bb 	add	x27, x29, #0x88
/home/asaf/devel/optee/optee_os/lib/libmpa/mpa_expmod.c:51
    9e04:	aa0703f3 	mov	x19, x7
    9e08:	aa0403f4 	mov	x20, x4
    9e0c:	a9060ba0 	stp	x0, x2, [x29,#96]
/home/asaf/devel/optee/optee_os/lib/libmpa/mpa_expmod.c:62
    9e10:	aa1c03e0 	mov	x0, x28
/home/asaf/devel/optee/optee_os/lib/libmpa/mpa_expmod.c:51
    9e14:	a9025bf5 	stp	x21, x22, [sp,#32]
    9e18:	2a0603f6 	mov	w22, w6
    9e1c:	aa0303f5 	mov	x21, x3
    9e20:	a90363f7 	stp	x23, x24, [sp,#48]
    9e24:	a9046bf9 	stp	x25, x26, [sp,#64]
    9e28:	aa0503f8 	mov	x24, x5
    9e2c:	aa0103f7 	mov	x23, x1
/home/asaf/devel/optee/optee_os/lib/libmpa/mpa_expmod.c:62
    9e30:	aa0703e1 	mov	x1, x7
    9e34:	97fffaf4 	bl	8a04 <mpa_alloc_static_temp_var>
/home/asaf/devel/optee/optee_os/lib/libmpa/mpa_expmod.c:75
    9e38:	aa1c03fa 	mov	x26, x28
/home/asaf/devel/optee/optee_os/lib/libmpa/mpa_expmod.c:63
    9e3c:	aa1303e1 	mov	x1, x19
    9e40:	aa1b03e0 	mov	x0, x27
    9e44:	97fffaf0 	bl	8a04 <mpa_alloc_static_temp_var>
/home/asaf/devel/optee/optee_os/lib/libmpa/mpa_expmod.c:64
    9e48:	910243a0 	add	x0, x29, #0x90
    9e4c:	aa1303e1 	mov	x1, x19
    9e50:	f9003fa0 	str	x0, [x29,#120]
    9e54:	97fffaec 	bl	8a04 <mpa_alloc_static_temp_var>
/home/asaf/devel/optee/optee_os/lib/libmpa/mpa_expmod.c:65
    9e58:	910263a0 	add	x0, x29, #0x98
    9e5c:	aa1303e1 	mov	x1, x19
    9e60:	f9003ba0 	str	x0, [x29,#112]
    9e64:	97fffae8 	bl	8a04 <mpa_alloc_static_temp_var>
/home/asaf/devel/optee/optee_os/lib/libmpa/mpa_expmod.c:71
    9e68:	f9404ba0 	ldr	x0, [x29,#144]
    9e6c:	aa1803e2 	mov	x2, x24
    9e70:	2a1603e4 	mov	w4, w22
    9e74:	aa1503e3 	mov	x3, x21
    9e78:	aa1703e1 	mov	x1, x23
    9e7c:	97fff462 	bl	7004 <__mpa_montgomery_mul>
/home/asaf/devel/optee/optee_os/lib/libmpa/mpa_expmod.c:73
    9e80:	f94043a0 	ldr	x0, [x29,#128]
    9e84:	aa1403e1 	mov	x1, x20
/home/asaf/devel/optee/optee_os/lib/libmpa/mpa_expmod.c:76
    9e88:	aa1b03f4 	mov	x20, x27
/home/asaf/devel/optee/optee_os/lib/libmpa/mpa_expmod.c:73
    9e8c:	97fff3cc 	bl	6dbc <mpa_copy>
/home/asaf/devel/optee/optee_os/lib/libmpa/mpa_expmod.c:80
    9e90:	f94043a0 	ldr	x0, [x29,#128]
    9e94:	97fff3b5 	bl	6d68 <__mpa_set_unused_digits_to_zero>
/home/asaf/devel/optee/optee_os/lib/libmpa/mpa_expmod.c:81
    9e98:	f9404ba0 	ldr	x0, [x29,#144]
    9e9c:	97fff3b3 	bl	6d68 <__mpa_set_unused_digits_to_zero>
/home/asaf/devel/optee/optee_os/lib/libmpa/mpa_expmod.c:83
    9ea0:	f94037a0 	ldr	x0, [x29,#104]
    9ea4:	97fff3e7 	bl	6e40 <mpa_highest_bit_index>
    9ea8:	2a0003f8 	mov	w24, w0
/home/asaf/devel/optee/optee_os/lib/libmpa/mpa_expmod.c:77
    9eac:	a9475fb9 	ldp	x25, x23, [x29,#112]
/home/asaf/devel/optee/optee_os/lib/libmpa/mpa_expmod.c:83 (discriminator 1)
    9eb0:	36f803d8 	tbz	w24, #31, 9f28 <mpa_exp_mod+0x13c>
/home/asaf/devel/optee/optee_os/lib/libmpa/mpa_expmod.c:111
    9eb4:	f0000001 	adrp	x1, c000 <__func__.3637+0x608>
    9eb8:	f9400342 	ldr	x2, [x26]
    9ebc:	f9400280 	ldr	x0, [x20]
    9ec0:	2a1603e4 	mov	w4, w22
    9ec4:	f941d021 	ldr	x1, [x1,#928]
    9ec8:	aa1503e3 	mov	x3, x21
    9ecc:	97fff44e 	bl	7004 <__mpa_montgomery_mul>
/home/asaf/devel/optee/optee_os/lib/libmpa/mpa_expmod.c:114
    9ed0:	f9400281 	ldr	x1, [x20]
    9ed4:	f94033a0 	ldr	x0, [x29,#96]
    9ed8:	97fff3b9 	bl	6dbc <mpa_copy>
/home/asaf/devel/optee/optee_os/lib/libmpa/mpa_expmod.c:116
    9edc:	aa1303e1 	mov	x1, x19
    9ee0:	aa1c03e0 	mov	x0, x28
    9ee4:	97fffacc 	bl	8a14 <mpa_free_static_temp_var>
/home/asaf/devel/optee/optee_os/lib/libmpa/mpa_expmod.c:117
    9ee8:	aa1303e1 	mov	x1, x19
    9eec:	aa1b03e0 	mov	x0, x27
    9ef0:	97fffac9 	bl	8a14 <mpa_free_static_temp_var>
/home/asaf/devel/optee/optee_os/lib/libmpa/mpa_expmod.c:118
    9ef4:	f9403fa0 	ldr	x0, [x29,#120]
    9ef8:	aa1303e1 	mov	x1, x19
    9efc:	97fffac6 	bl	8a14 <mpa_free_static_temp_var>
/home/asaf/devel/optee/optee_os/lib/libmpa/mpa_expmod.c:119
    9f00:	f9403ba0 	ldr	x0, [x29,#112]
    9f04:	aa1303e1 	mov	x1, x19
    9f08:	97fffac3 	bl	8a14 <mpa_free_static_temp_var>
/home/asaf/devel/optee/optee_os/lib/libmpa/mpa_expmod.c:120
    9f0c:	a94153f3 	ldp	x19, x20, [sp,#16]
    9f10:	a9425bf5 	ldp	x21, x22, [sp,#32]
    9f14:	a94363f7 	ldp	x23, x24, [sp,#48]
    9f18:	a9446bf9 	ldp	x25, x26, [sp,#64]
    9f1c:	a94573fb 	ldp	x27, x28, [sp,#80]
    9f20:	a8ca7bfd 	ldp	x29, x30, [sp],#160
    9f24:	d65f03c0 	ret
/home/asaf/devel/optee/optee_os/lib/libmpa/mpa_expmod.c:84
    9f28:	f94037a0 	ldr	x0, [x29,#104]
    9f2c:	2a1803e1 	mov	w1, w24
    9f30:	97fff3d5 	bl	6e84 <mpa_get_bit>
/home/asaf/devel/optee/optee_os/lib/libmpa/mpa_expmod.c:86
    9f34:	2a1603e4 	mov	w4, w22
    9f38:	aa1503e3 	mov	x3, x21
    9f3c:	f94002e2 	ldr	x2, [x23]
    9f40:	f9400341 	ldr	x1, [x26]
/home/asaf/devel/optee/optee_os/lib/libmpa/mpa_expmod.c:84
    9f44:	35000220 	cbnz	w0, 9f88 <mpa_exp_mod+0x19c>
/home/asaf/devel/optee/optee_os/lib/libmpa/mpa_expmod.c:86
    9f48:	f9400320 	ldr	x0, [x25]
    9f4c:	97fff42e 	bl	7004 <__mpa_montgomery_mul>
/home/asaf/devel/optee/optee_os/lib/libmpa/mpa_expmod.c:90
    9f50:	f9400342 	ldr	x2, [x26]
    9f54:	2a1603e4 	mov	w4, w22
    9f58:	f9400280 	ldr	x0, [x20]
    9f5c:	aa1503e3 	mov	x3, x21
    9f60:	aa0203e1 	mov	x1, x2
/home/asaf/devel/optee/optee_os/lib/libmpa/mpa_expmod.c:98
    9f64:	97fff428 	bl	7004 <__mpa_montgomery_mul>
/home/asaf/devel/optee/optee_os/lib/libmpa/mpa_expmod.c:83
    9f68:	51000718 	sub	w24, w24, #0x1
    9f6c:	aa1703e0 	mov	x0, x23
    9f70:	aa1903f7 	mov	x23, x25
    9f74:	aa0003f9 	mov	x25, x0
    9f78:	aa1a03e0 	mov	x0, x26
    9f7c:	aa1403fa 	mov	x26, x20
    9f80:	aa0003f4 	mov	x20, x0
    9f84:	17ffffcb 	b	9eb0 <mpa_exp_mod+0xc4>
/home/asaf/devel/optee/optee_os/lib/libmpa/mpa_expmod.c:94
    9f88:	f9400280 	ldr	x0, [x20]
    9f8c:	97fff41e 	bl	7004 <__mpa_montgomery_mul>
/home/asaf/devel/optee/optee_os/lib/libmpa/mpa_expmod.c:98
    9f90:	f94002e2 	ldr	x2, [x23]
    9f94:	2a1603e4 	mov	w4, w22
    9f98:	aa1503e3 	mov	x3, x21
    9f9c:	f9400320 	ldr	x0, [x25]
    9fa0:	aa0203e1 	mov	x1, x2
    9fa4:	17fffff0 	b	9f64 <mpa_exp_mod+0x178>

0000000000009fa8 <mpa_init_static>:
mpa_init_static():
/home/asaf/devel/optee/optee_os/lib/libmpa/mpa_init.c:35
    9fa8:	531e7421 	lsl	w1, w1, #2
    9fac:	51002021 	sub	w1, w1, #0x8
    9fb0:	d3427c21 	ubfx	x1, x1, #2, #30
/home/asaf/devel/optee/optee_os/lib/libmpa/mpa_init.c:36
    9fb4:	29007c01 	stp	w1, wzr, [x0]
/home/asaf/devel/optee/optee_os/lib/libmpa/mpa_init.c:37
    9fb8:	b4000041 	cbz	x1, 9fc0 <mpa_init_static+0x18>
/home/asaf/devel/optee/optee_os/lib/libmpa/mpa_init.c:38
    9fbc:	b900081f 	str	wzr, [x0,#8]
    9fc0:	d65f03c0 	ret

0000000000009fc4 <mpa_init_static_fmm_context>:
mpa_init_static_fmm_context():
/home/asaf/devel/optee/optee_os/lib/libmpa/mpa_init.c:47
    9fc4:	a9bd7bfd 	stp	x29, x30, [sp,#-48]!
    9fc8:	910003fd 	mov	x29, sp
    9fcc:	a90153f3 	stp	x19, x20, [sp,#16]
/home/asaf/devel/optee/optee_os/lib/libmpa/mpa_init.c:51
    9fd0:	531e7433 	lsl	w19, w1, #2
    9fd4:	51006273 	sub	w19, w19, #0x18
/home/asaf/devel/optee/optee_os/lib/libmpa/mpa_init.c:54
    9fd8:	91005014 	add	x20, x0, #0x14
/home/asaf/devel/optee/optee_os/lib/libmpa/mpa_init.c:47
    9fdc:	f90013f5 	str	x21, [sp,#32]
/home/asaf/devel/optee/optee_os/lib/libmpa/mpa_init.c:54
    9fe0:	52800001 	mov	w1, #0x0                   	// #0
/home/asaf/devel/optee/optee_os/lib/libmpa/mpa_init.c:51
    9fe4:	d3427e73 	ubfx	x19, x19, #2, #30
/home/asaf/devel/optee/optee_os/lib/libmpa/mpa_init.c:47
    9fe8:	aa0003f5 	mov	x21, x0
/home/asaf/devel/optee/optee_os/lib/libmpa/mpa_init.c:54
    9fec:	d37ef662 	lsl	x2, x19, #2
    9ff0:	aa1403e0 	mov	x0, x20
/home/asaf/devel/optee/optee_os/lib/libmpa/mpa_init.c:55
    9ff4:	53017e73 	lsr	w19, w19, #1
/home/asaf/devel/optee/optee_os/lib/libmpa/mpa_init.c:54
    9ff8:	97ffef7e 	bl	5df0 <memset>
/home/asaf/devel/optee/optee_os/lib/libmpa/mpa_init.c:62
    9ffc:	51000a61 	sub	w1, w19, #0x2
/home/asaf/devel/optee/optee_os/lib/libmpa/mpa_init.c:65
    a000:	d37e7273 	ubfiz	x19, x19, #2, #29
    a004:	8b130280 	add	x0, x20, x19
/home/asaf/devel/optee/optee_os/lib/libmpa/mpa_init.c:61
    a008:	290206bf 	stp	wzr, w1, [x21,#16]
/home/asaf/devel/optee/optee_os/lib/libmpa/mpa_init.c:65
    a00c:	a90002b4 	stp	x20, x0, [x21]
/home/asaf/devel/optee/optee_os/lib/libmpa/mpa_init.c:63
    a010:	b9001abf 	str	wzr, [x21,#24]
/home/asaf/devel/optee/optee_os/lib/libmpa/mpa_init.c:66
    a014:	b8336a81 	str	w1, [x20,x19]
/home/asaf/devel/optee/optee_os/lib/libmpa/mpa_init.c:69
    a018:	f94013f5 	ldr	x21, [sp,#32]
    a01c:	a94153f3 	ldp	x19, x20, [sp,#16]
/home/asaf/devel/optee/optee_os/lib/libmpa/mpa_init.c:68
    a020:	b900041f 	str	wzr, [x0,#4]
/home/asaf/devel/optee/optee_os/lib/libmpa/mpa_init.c:69
    a024:	a8c37bfd 	ldp	x29, x30, [sp],#48
    a028:	d65f03c0 	ret

000000000000a02c <__mpa_word_to_hexstr>:
__mpa_word_to_hexstr():
/home/asaf/devel/optee/optee_os/lib/libmpa/mpa_io.c:129
    a02c:	d28000e4 	mov	x4, #0x7                   	// #7
/home/asaf/devel/optee/optee_os/lib/libmpa/mpa_io.c:133 (discriminator 3)
    a030:	531e7483 	lsl	w3, w4, #2
    a034:	1ac32423 	lsr	w3, w1, w3
    a038:	12000c63 	and	w3, w3, #0xf
__mpa_nibble_to_char():
/home/asaf/devel/optee/optee_os/lib/libmpa/mpa_io.c:118 (discriminator 3)
    a03c:	7100247f 	cmp	w3, #0x9
    a040:	540000e8 	b.hi	a05c <__mpa_word_to_hexstr+0x30>
/home/asaf/devel/optee/optee_os/lib/libmpa/mpa_io.c:119
    a044:	1100c063 	add	w3, w3, #0x30
__mpa_word_to_hexstr():
/home/asaf/devel/optee/optee_os/lib/libmpa/mpa_io.c:132
    a048:	38246803 	strb	w3, [x0,x4]
    a04c:	d1000484 	sub	x4, x4, #0x1
/home/asaf/devel/optee/optee_os/lib/libmpa/mpa_io.c:131
    a050:	b100049f 	cmn	x4, #0x1
    a054:	54fffee1 	b.ne	a030 <__mpa_word_to_hexstr+0x4>
/home/asaf/devel/optee/optee_os/lib/libmpa/mpa_io.c:135
    a058:	d65f03c0 	ret
__mpa_nibble_to_char():
/home/asaf/devel/optee/optee_os/lib/libmpa/mpa_io.c:120
    a05c:	1100dc65 	add	w5, w3, #0x37
    a060:	7100005f 	cmp	w2, #0x0
    a064:	11015c63 	add	w3, w3, #0x57
    a068:	1a851063 	csel	w3, w3, w5, ne
    a06c:	17fffff7 	b	a048 <__mpa_word_to_hexstr+0x1c>

000000000000a070 <__mpa_mpanum_to_hexstr>:
__mpa_mpanum_to_hexstr():
/home/asaf/devel/optee/optee_os/lib/libmpa/mpa_io.c:151
    a070:	b9400447 	ldr	w7, [x2,#4]
/home/asaf/devel/optee/optee_os/lib/libmpa/mpa_io.c:152
    a074:	710000ff 	cmp	w7, #0x0
    a078:	540000c1 	b.ne	a090 <__mpa_mpanum_to_hexstr+0x20>
/home/asaf/devel/optee/optee_os/lib/libmpa/mpa_io.c:153
    a07c:	52800601 	mov	w1, #0x30                  	// #48
/home/asaf/devel/optee/optee_os/lib/libmpa/mpa_io.c:154
    a080:	3900041f 	strb	wzr, [x0,#1]
/home/asaf/devel/optee/optee_os/lib/libmpa/mpa_io.c:153
    a084:	39000001 	strb	w1, [x0]
/home/asaf/devel/optee/optee_os/lib/libmpa/mpa_io.c:155
    a088:	52800020 	mov	w0, #0x1                   	// #1
    a08c:	d65f03c0 	ret
/home/asaf/devel/optee/optee_os/lib/libmpa/mpa_io.c:143
    a090:	a9bb7bfd 	stp	x29, x30, [sp,#-80]!
    a094:	910003fd 	mov	x29, sp
    a098:	a9025bf5 	stp	x21, x22, [sp,#32]
/home/asaf/devel/optee/optee_os/lib/libmpa/mpa_io.c:151
    a09c:	5a87a4f6 	cneg	w22, w7, lt
    a0a0:	aa0003f5 	mov	x21, x0
/home/asaf/devel/optee/optee_os/lib/libmpa/mpa_io.c:157
    a0a4:	510006c0 	sub	w0, w22, #0x1
/home/asaf/devel/optee/optee_os/lib/libmpa/mpa_io.c:163
    a0a8:	8b20c840 	add	x0, x2, w0, sxtw #2
/home/asaf/devel/optee/optee_os/lib/libmpa/mpa_io.c:143
    a0ac:	a90363f7 	stp	x23, x24, [sp,#48]
    a0b0:	aa0203f8 	mov	x24, x2
    a0b4:	2a0103f7 	mov	w23, w1
/home/asaf/devel/optee/optee_os/lib/libmpa/mpa_io.c:163
    a0b8:	2a0103e2 	mov	w2, w1
/home/asaf/devel/optee/optee_os/lib/libmpa/mpa_io.c:143
    a0bc:	a90153f3 	stp	x19, x20, [sp,#16]
/home/asaf/devel/optee/optee_os/lib/libmpa/mpa_io.c:163
    a0c0:	b9400801 	ldr	w1, [x0,#8]
    a0c4:	910123b4 	add	x20, x29, #0x48
    a0c8:	aa1403e0 	mov	x0, x20
    a0cc:	97ffffd8 	bl	a02c <__mpa_word_to_hexstr>
/home/asaf/devel/optee/optee_os/lib/libmpa/mpa_io.c:167
    a0d0:	d28000e6 	mov	x6, #0x7                   	// #7
    a0d4:	93407cc0 	sxtw	x0, w6
    a0d8:	b10004df 	cmn	x6, #0x1
    a0dc:	54000181 	b.ne	a10c <__mpa_mpanum_to_hexstr+0x9c>
    a0e0:	aa1503f3 	mov	x19, x21
/home/asaf/devel/optee/optee_os/lib/libmpa/mpa_io.c:174
    a0e4:	51000ac7 	sub	w7, w22, #0x2
    a0e8:	93407cf6 	sxtw	x22, w7
/home/asaf/devel/optee/optee_os/lib/libmpa/mpa_io.c:175
    a0ec:	36f802f6 	tbz	w22, #31, a148 <__mpa_mpanum_to_hexstr+0xd8>
/home/asaf/devel/optee/optee_os/lib/libmpa/mpa_io.c:183
    a0f0:	3900027f 	strb	wzr, [x19]
/home/asaf/devel/optee/optee_os/lib/libmpa/mpa_io.c:182
    a0f4:	4b150260 	sub	w0, w19, w21
/home/asaf/devel/optee/optee_os/lib/libmpa/mpa_io.c:185
    a0f8:	a94153f3 	ldp	x19, x20, [sp,#16]
    a0fc:	a9425bf5 	ldp	x21, x22, [sp,#32]
    a100:	a94363f7 	ldp	x23, x24, [sp,#48]
    a104:	a8c57bfd 	ldp	x29, x30, [sp],#80
    a108:	d65f03c0 	ret
/home/asaf/devel/optee/optee_os/lib/libmpa/mpa_io.c:168
    a10c:	38666a82 	ldrb	w2, [x20,x6]
    a110:	d10004c1 	sub	x1, x6, #0x1
    a114:	7100c05f 	cmp	w2, #0x30
    a118:	540000c0 	b.eq	a130 <__mpa_mpanum_to_hexstr+0xc0>
    a11c:	aa1503e1 	mov	x1, x21
/home/asaf/devel/optee/optee_os/lib/libmpa/mpa_io.c:170
    a120:	36f800c0 	tbz	w0, #31, a138 <__mpa_mpanum_to_hexstr+0xc8>
    a124:	110004c6 	add	w6, w6, #0x1
    a128:	8b0602b3 	add	x19, x21, x6
    a12c:	17ffffee 	b	a0e4 <__mpa_mpanum_to_hexstr+0x74>
    a130:	aa0103e6 	mov	x6, x1
    a134:	17ffffe8 	b	a0d4 <__mpa_mpanum_to_hexstr+0x64>
/home/asaf/devel/optee/optee_os/lib/libmpa/mpa_io.c:171
    a138:	38606a82 	ldrb	w2, [x20,x0]
    a13c:	d1000400 	sub	x0, x0, #0x1
    a140:	38001422 	strb	w2, [x1],#1
    a144:	17fffff7 	b	a120 <__mpa_mpanum_to_hexstr+0xb0>
/home/asaf/devel/optee/optee_os/lib/libmpa/mpa_io.c:176
    a148:	8b160b00 	add	x0, x24, x22, lsl #2
    a14c:	2a1703e2 	mov	w2, w23
    a150:	b9400801 	ldr	w1, [x0,#8]
    a154:	aa1403e0 	mov	x0, x20
    a158:	97ffffb5 	bl	a02c <__mpa_word_to_hexstr>
    a15c:	d28000e0 	mov	x0, #0x7                   	// #7
/home/asaf/devel/optee/optee_os/lib/libmpa/mpa_io.c:179
    a160:	cb000261 	sub	x1, x19, x0
    a164:	38606a82 	ldrb	w2, [x20,x0]
    a168:	d1000400 	sub	x0, x0, #0x1
/home/asaf/devel/optee/optee_os/lib/libmpa/mpa_io.c:178
    a16c:	b100041f 	cmn	x0, #0x1
/home/asaf/devel/optee/optee_os/lib/libmpa/mpa_io.c:179
    a170:	39001c22 	strb	w2, [x1,#7]
/home/asaf/devel/optee/optee_os/lib/libmpa/mpa_io.c:178
    a174:	54ffff61 	b.ne	a160 <__mpa_mpanum_to_hexstr+0xf0>
    a178:	91002273 	add	x19, x19, #0x8
    a17c:	d10006d6 	sub	x22, x22, #0x1
    a180:	17ffffdb 	b	a0ec <__mpa_mpanum_to_hexstr+0x7c>

000000000000a184 <__mpa_isspace>:
__mpa_isspace():
/home/asaf/devel/optee/optee_os/lib/libmpa/mpa_io.c:49
    a184:	12001c02 	and	w2, w0, #0xff
/home/asaf/devel/optee/optee_os/lib/libmpa/mpa_io.c:50
    a188:	71017c5f 	cmp	w2, #0x5f
    a18c:	1a9f17e1 	cset	w1, eq
/home/asaf/devel/optee/optee_os/lib/libmpa/mpa_io.c:52
    a190:	7100805f 	cmp	w2, #0x20
    a194:	1a9f17e0 	cset	w0, eq
/home/asaf/devel/optee/optee_os/lib/libmpa/mpa_io.c:50
    a198:	2a000020 	orr	w0, w1, w0
/home/asaf/devel/optee/optee_os/lib/libmpa/mpa_io.c:54
    a19c:	35000100 	cbnz	w0, a1bc <__mpa_isspace+0x38>
    a1a0:	51002440 	sub	w0, w2, #0x9
    a1a4:	12001c00 	and	w0, w0, #0xff
    a1a8:	7100041f 	cmp	w0, #0x1
    a1ac:	1a9f87e1 	cset	w1, ls
    a1b0:	7100345f 	cmp	w2, #0xd
    a1b4:	1a9f17e0 	cset	w0, eq
    a1b8:	2a000020 	orr	w0, w1, w0
/home/asaf/devel/optee/optee_os/lib/libmpa/mpa_io.c:56 (discriminator 5)
    a1bc:	d65f03c0 	ret

000000000000a1c0 <mpa_get_str_size>:
mpa_get_str_size():
/home/asaf/devel/optee/optee_os/lib/libmpa/mpa_io.c:237
    a1c0:	52820040 	mov	w0, #0x1002                	// #4098
    a1c4:	d65f03c0 	ret

000000000000a1c8 <mpa_set_str>:
mpa_set_str():
/home/asaf/devel/optee/optee_os/lib/libmpa/mpa_io.c:261
    a1c8:	a9bc7bfd 	stp	x29, x30, [sp,#-64]!
    a1cc:	910003fd 	mov	x29, sp
    a1d0:	a90153f3 	stp	x19, x20, [sp,#16]
    a1d4:	aa0003f4 	mov	x20, x0
    a1d8:	a90363f7 	stp	x23, x24, [sp,#48]
    a1dc:	aa0103f8 	mov	x24, x1
    a1e0:	a9025bf5 	stp	x21, x22, [sp,#32]
/home/asaf/devel/optee/optee_os/lib/libmpa/mpa_io.c:280
    a1e4:	39400020 	ldrb	w0, [x1]
    a1e8:	35000080 	cbnz	w0, a1f8 <mpa_set_str+0x30>
/home/asaf/devel/optee/optee_os/lib/libmpa/mpa_io.c:281
    a1ec:	52800013 	mov	w19, #0x0                   	// #0
    a1f0:	14000013 	b	a23c <mpa_set_str+0x74>
    a1f4:	aa1703f8 	mov	x24, x23
/home/asaf/devel/optee/optee_os/lib/libmpa/mpa_io.c:285 (discriminator 1)
    a1f8:	aa1803f7 	mov	x23, x24
    a1fc:	384016f5 	ldrb	w21, [x23],#1
/home/asaf/devel/optee/optee_os/lib/libmpa/mpa_io.c:286 (discriminator 1)
    a200:	2a1503e0 	mov	w0, w21
    a204:	97ffffe0 	bl	a184 <__mpa_isspace>
    a208:	2a0003f3 	mov	w19, w0
    a20c:	35ffff40 	cbnz	w0, a1f4 <mpa_set_str+0x2c>
/home/asaf/devel/optee/optee_os/lib/libmpa/mpa_io.c:285
    a210:	2a1503f6 	mov	w22, w21
/home/asaf/devel/optee/optee_os/lib/libmpa/mpa_io.c:289
    a214:	52800015 	mov	w21, #0x0                   	// #0
/home/asaf/devel/optee/optee_os/lib/libmpa/mpa_io.c:290
    a218:	7100b6df 	cmp	w22, #0x2d
    a21c:	54000081 	b.ne	a22c <mpa_set_str+0x64>
/home/asaf/devel/optee/optee_os/lib/libmpa/mpa_io.c:292
    a220:	394002f6 	ldrb	w22, [x23]
    a224:	91000b17 	add	x23, x24, #0x2
/home/asaf/devel/optee/optee_os/lib/libmpa/mpa_io.c:291
    a228:	52800035 	mov	w21, #0x1                   	// #1
/home/asaf/devel/optee/optee_os/lib/libmpa/mpa_io.c:294
    a22c:	35000156 	cbnz	w22, a254 <mpa_set_str+0x8c>
/home/asaf/devel/optee/optee_os/lib/libmpa/mpa_io.c:295
    a230:	52800001 	mov	w1, #0x0                   	// #0
    a234:	aa1403e0 	mov	x0, x20
    a238:	97fff540 	bl	7738 <mpa_set_word>
/home/asaf/devel/optee/optee_os/lib/libmpa/mpa_io.c:382
    a23c:	2a1303e0 	mov	w0, w19
    a240:	a94153f3 	ldp	x19, x20, [sp,#16]
    a244:	a9425bf5 	ldp	x21, x22, [sp,#32]
    a248:	a94363f7 	ldp	x23, x24, [sp,#48]
    a24c:	a8c47bfd 	ldp	x29, x30, [sp],#64
    a250:	d65f03c0 	ret
/home/asaf/devel/optee/optee_os/lib/libmpa/mpa_io.c:300
    a254:	7100c2df 	cmp	w22, #0x30
    a258:	540000e1 	b.ne	a274 <mpa_set_str+0xac>
/home/asaf/devel/optee/optee_os/lib/libmpa/mpa_io.c:301
    a25c:	394002e3 	ldrb	w3, [x23]
/home/asaf/devel/optee/optee_os/lib/libmpa/mpa_io.c:302
    a260:	121a7860 	and	w0, w3, #0xffffffdf
    a264:	7101601f 	cmp	w0, #0x58
    a268:	54000540 	b.eq	a310 <mpa_set_str+0x148>
/home/asaf/devel/optee/optee_os/lib/libmpa/mpa_io.c:301
    a26c:	910006f7 	add	x23, x23, #0x1
    a270:	2a0303f6 	mov	w22, w3
/home/asaf/devel/optee/optee_os/lib/libmpa/mpa_io.c:307
    a274:	7100c2df 	cmp	w22, #0x30
    a278:	54000520 	b.eq	a31c <mpa_set_str+0x154>
/home/asaf/devel/optee/optee_os/lib/libmpa/mpa_io.c:307 (discriminator 1)
    a27c:	2a1603e0 	mov	w0, w22
    a280:	97ffffc1 	bl	a184 <__mpa_isspace>
    a284:	350004c0 	cbnz	w0, a31c <mpa_set_str+0x154>
    a288:	aa1703e5 	mov	x5, x23
/home/asaf/devel/optee/optee_os/lib/libmpa/mpa_io.c:311
    a28c:	34fffd36 	cbz	w22, a230 <mpa_set_str+0x68>
/home/asaf/devel/optee/optee_os/lib/libmpa/mpa_io.c:318
    a290:	394000a0 	ldrb	w0, [x5]
    a294:	35000480 	cbnz	w0, a324 <mpa_set_str+0x15c>
/home/asaf/devel/optee/optee_os/lib/libmpa/mpa_io.c:322
    a298:	cb1700a5 	sub	x5, x5, x23
/home/asaf/devel/optee/optee_os/lib/libmpa/mpa_io.c:323
    a29c:	52820046 	mov	w6, #0x1002                	// #4098
/home/asaf/devel/optee/optee_os/lib/libmpa/mpa_io.c:322
    a2a0:	110004a5 	add	w5, w5, #0x1
/home/asaf/devel/optee/optee_os/lib/libmpa/mpa_io.c:323
    a2a4:	6b0600bf 	cmp	w5, w6
    a2a8:	5400042c 	b.gt	a32c <mpa_set_str+0x164>
/home/asaf/devel/optee/optee_os/lib/libmpa/mpa_io.c:333
    a2ac:	90000065 	adrp	x5, 16000 <mempool_u32+0xe90>
    a2b0:	9134e0b8 	add	x24, x5, #0xd38
/home/asaf/devel/optee/optee_os/lib/libmpa/mpa_io.c:323
    a2b4:	52800013 	mov	w19, #0x0                   	// #0
__mpa_is_char_in_base():
/home/asaf/devel/optee/optee_os/lib/libmpa/mpa_io.c:66
    a2b8:	2a1603e0 	mov	w0, w22
    a2bc:	97ffffb2 	bl	a184 <__mpa_isspace>
    a2c0:	350005c0 	cbnz	w0, a378 <mpa_set_str+0x1b0>
/home/asaf/devel/optee/optee_os/lib/libmpa/mpa_io.c:74
    a2c4:	121a7ac1 	and	w1, w22, #0xffffffdf
/home/asaf/devel/optee/optee_os/lib/libmpa/mpa_io.c:73
    a2c8:	5100c2c0 	sub	w0, w22, #0x30
/home/asaf/devel/optee/optee_os/lib/libmpa/mpa_io.c:74
    a2cc:	51010421 	sub	w1, w1, #0x41
    a2d0:	7100143f 	cmp	w1, #0x5
    a2d4:	7a498800 	ccmp	w0, #0x9, #0x0, hi
    a2d8:	540003e9 	b.ls	a354 <mpa_set_str+0x18c>
mpa_set_str():
/home/asaf/devel/optee/optee_os/lib/libmpa/mpa_io.c:337
    a2dc:	34000393 	cbz	w19, a34c <mpa_set_str+0x184>
__mpa_digitstr_to_binary_wsize_base_16():
/home/asaf/devel/optee/optee_os/lib/libmpa/mpa_io.c:107
    a2e0:	11001e65 	add	w5, w19, #0x7
mpa_set_str():
/home/asaf/devel/optee/optee_os/lib/libmpa/mpa_io.c:342
    a2e4:	b9400286 	ldr	w6, [x20]
__mpa_digitstr_to_binary_wsize_base_16():
/home/asaf/devel/optee/optee_os/lib/libmpa/mpa_io.c:107
    a2e8:	13037ca0 	asr	w0, w5, #3
mpa_set_str():
/home/asaf/devel/optee/optee_os/lib/libmpa/mpa_io.c:341
    a2ec:	6b06001f 	cmp	w0, w6
    a2f0:	54000529 	b.ls	a394 <mpa_set_str+0x1cc>
/home/asaf/devel/optee/optee_os/lib/libmpa/mpa_io.c:343
    a2f4:	d0000004 	adrp	x4, c000 <__func__.3637+0x608>
    a2f8:	2a0003e5 	mov	w5, w0
    a2fc:	9103dc84 	add	x4, x4, #0xf7
    a300:	52800023 	mov	w3, #0x1                   	// #1
    a304:	52800022 	mov	w2, #0x1                   	// #1
    a308:	52802b21 	mov	w1, #0x159                 	// #345
    a30c:	1400000d 	b	a340 <mpa_set_str+0x178>
/home/asaf/devel/optee/optee_os/lib/libmpa/mpa_io.c:303
    a310:	394006f6 	ldrb	w22, [x23,#1]
    a314:	91000af7 	add	x23, x23, #0x2
    a318:	17ffffd7 	b	a274 <mpa_set_str+0xac>
/home/asaf/devel/optee/optee_os/lib/libmpa/mpa_io.c:308
    a31c:	384016f6 	ldrb	w22, [x23],#1
    a320:	17ffffd5 	b	a274 <mpa_set_str+0xac>
/home/asaf/devel/optee/optee_os/lib/libmpa/mpa_io.c:319
    a324:	910004a5 	add	x5, x5, #0x1
    a328:	17ffffda 	b	a290 <mpa_set_str+0xc8>
/home/asaf/devel/optee/optee_os/lib/libmpa/mpa_io.c:324
    a32c:	d0000004 	adrp	x4, c000 <__func__.3637+0x608>
    a330:	91036484 	add	x4, x4, #0xd9
    a334:	52800023 	mov	w3, #0x1                   	// #1
    a338:	52800022 	mov	w2, #0x1                   	// #1
    a33c:	52802881 	mov	w1, #0x144                 	// #324
/home/asaf/devel/optee/optee_os/lib/libmpa/mpa_io.c:343
    a340:	b0000000 	adrp	x0, b000 <PRIME_TABLE+0x350>
    a344:	9127a000 	add	x0, x0, #0x9e8
    a348:	97fff1f1 	bl	6b0c <trace_printf>
/home/asaf/devel/optee/optee_os/lib/libmpa/mpa_io.c:346
    a34c:	12800013 	mov	w19, #0xffffffff            	// #-1
/home/asaf/devel/optee/optee_os/lib/libmpa/mpa_io.c:347
    a350:	17ffffbb 	b	a23c <mpa_set_str+0x74>
/home/asaf/devel/optee/optee_os/lib/libmpa/mpa_io.c:333
    a354:	11000661 	add	w1, w19, #0x1
__mpa_digit_value():
/home/asaf/devel/optee/optee_os/lib/libmpa/mpa_io.c:88
    a358:	7100241f 	cmp	w0, #0x9
    a35c:	540000a9 	b.ls	a370 <mpa_set_str+0x1a8>
/home/asaf/devel/optee/optee_os/lib/libmpa/mpa_io.c:90
    a360:	510106c0 	sub	w0, w22, #0x41
    a364:	7100141f 	cmp	w0, #0x5
    a368:	540000c8 	b.hi	a380 <mpa_set_str+0x1b8>
/home/asaf/devel/optee/optee_os/lib/libmpa/mpa_io.c:91
    a36c:	5100dec0 	sub	w0, w22, #0x37
mpa_set_str():
/home/asaf/devel/optee/optee_os/lib/libmpa/mpa_io.c:333
    a370:	3833cb00 	strb	w0, [x24,w19,sxtw]
    a374:	2a0103f3 	mov	w19, w1
/home/asaf/devel/optee/optee_os/lib/libmpa/mpa_io.c:334
    a378:	384016f6 	ldrb	w22, [x23],#1
    a37c:	17ffffcf 	b	a2b8 <mpa_set_str+0xf0>
__mpa_digit_value():
/home/asaf/devel/optee/optee_os/lib/libmpa/mpa_io.c:92
    a380:	510186c0 	sub	w0, w22, #0x61
/home/asaf/devel/optee/optee_os/lib/libmpa/mpa_io.c:93
    a384:	51015ec3 	sub	w3, w22, #0x57
    a388:	7100141f 	cmp	w0, #0x5
    a38c:	1a9f9060 	csel	w0, w3, wzr, ls
    a390:	17fffff8 	b	a370 <mpa_set_str+0x1a8>
mpa_set_str():
/home/asaf/devel/optee/optee_os/lib/libmpa/mpa_io.c:352
    a394:	aa1403e0 	mov	x0, x20
    a398:	52800001 	mov	w1, #0x0                   	// #0
    a39c:	97fff4e7 	bl	7738 <mpa_set_word>
/home/asaf/devel/optee/optee_os/lib/libmpa/mpa_io.c:351
    a3a0:	91002296 	add	x22, x20, #0x8
/home/asaf/devel/optee/optee_os/lib/libmpa/mpa_io.c:356
    a3a4:	52800020 	mov	w0, #0x1                   	// #1
/home/asaf/devel/optee/optee_os/lib/libmpa/mpa_io.c:357
    a3a8:	51000666 	sub	w6, w19, #0x1
    a3ac:	90000064 	adrp	x4, 16000 <mempool_u32+0xe90>
/home/asaf/devel/optee/optee_os/lib/libmpa/mpa_io.c:354
    a3b0:	2900fe80 	stp	w0, wzr, [x20,#4]
    a3b4:	93407cc3 	sxtw	x3, w6
/home/asaf/devel/optee/optee_os/lib/libmpa/mpa_io.c:355
    a3b8:	52800080 	mov	w0, #0x4                   	// #4
/home/asaf/devel/optee/optee_os/lib/libmpa/mpa_io.c:359
    a3bc:	9134e087 	add	x7, x4, #0xd38
/home/asaf/devel/optee/optee_os/lib/libmpa/mpa_io.c:360
    a3c0:	2a0003e8 	mov	w8, w0
/home/asaf/devel/optee/optee_os/lib/libmpa/mpa_io.c:358
    a3c4:	7100047f 	cmp	w3, #0x1
    a3c8:	b94002c2 	ldr	w2, [x22]
    a3cc:	5400024c 	b.gt	a414 <mpa_set_str+0x24c>
/home/asaf/devel/optee/optee_os/lib/libmpa/mpa_io.c:374
    a3d0:	3974e081 	ldrb	w1, [x4,#3384]
/home/asaf/devel/optee/optee_os/lib/libmpa/mpa_io.c:370
    a3d4:	360000a6 	tbz	w6, #0, a3e8 <mpa_set_str+0x220>
/home/asaf/devel/optee/optee_os/lib/libmpa/mpa_io.c:371
    a3d8:	9134e083 	add	x3, x4, #0xd38
    a3dc:	3974e081 	ldrb	w1, [x4,#3384]
    a3e0:	39400463 	ldrb	w3, [x3,#1]
    a3e4:	4a011061 	eor	w1, w3, w1, lsl #4
/home/asaf/devel/optee/optee_os/lib/libmpa/mpa_io.c:372
    a3e8:	52800083 	mov	w3, #0x4                   	// #4
    a3ec:	4b000060 	sub	w0, w3, w0
    a3f0:	531d7000 	lsl	w0, w0, #3
/home/asaf/devel/optee/optee_os/lib/libmpa/mpa_io.c:371
    a3f4:	1ac02020 	lsl	w0, w1, w0
    a3f8:	4a000040 	eor	w0, w2, w0
    a3fc:	b90002c0 	str	w0, [x22]
/home/asaf/devel/optee/optee_os/lib/libmpa/mpa_io.c:377
    a400:	34fff1f5 	cbz	w21, a23c <mpa_set_str+0x74>
/home/asaf/devel/optee/optee_os/lib/libmpa/mpa_io.c:378
    a404:	b9400680 	ldr	w0, [x20,#4]
    a408:	4b0003e0 	neg	w0, w0
    a40c:	b9000680 	str	w0, [x20,#4]
    a410:	17ffff8b 	b	a23c <mpa_set_str+0x74>
/home/asaf/devel/optee/optee_os/lib/libmpa/mpa_io.c:359
    a414:	8b0300e1 	add	x1, x7, x3
    a418:	38676865 	ldrb	w5, [x3,x7]
    a41c:	385ff021 	ldurb	w1, [x1,#-1]
    a420:	4a0110a1 	eor	w1, w5, w1, lsl #4
/home/asaf/devel/optee/optee_os/lib/libmpa/mpa_io.c:360
    a424:	4b000105 	sub	w5, w8, w0
    a428:	531d70a5 	lsl	w5, w5, #3
/home/asaf/devel/optee/optee_os/lib/libmpa/mpa_io.c:363
    a42c:	71000400 	subs	w0, w0, #0x1
/home/asaf/devel/optee/optee_os/lib/libmpa/mpa_io.c:359
    a430:	1ac52021 	lsl	w1, w1, w5
    a434:	4a010041 	eor	w1, w2, w1
    a438:	b90002c1 	str	w1, [x22]
/home/asaf/devel/optee/optee_os/lib/libmpa/mpa_io.c:363
    a43c:	540000e1 	b.ne	a458 <mpa_set_str+0x290>
/home/asaf/devel/optee/optee_os/lib/libmpa/mpa_io.c:365
    a440:	b90006df 	str	wzr, [x22,#4]
/home/asaf/devel/optee/optee_os/lib/libmpa/mpa_io.c:364
    a444:	910012d6 	add	x22, x22, #0x4
/home/asaf/devel/optee/optee_os/lib/libmpa/mpa_io.c:367
    a448:	b9400680 	ldr	w0, [x20,#4]
    a44c:	11000400 	add	w0, w0, #0x1
    a450:	b9000680 	str	w0, [x20,#4]
/home/asaf/devel/optee/optee_os/lib/libmpa/mpa_io.c:366
    a454:	52800080 	mov	w0, #0x4                   	// #4
    a458:	d1000863 	sub	x3, x3, #0x2
    a45c:	17ffffda 	b	a3c4 <mpa_set_str+0x1fc>

000000000000a460 <mpa_get_str>:
mpa_get_str():
/home/asaf/devel/optee/optee_os/lib/libmpa/mpa_io.c:398
    a460:	a9be7bfd 	stp	x29, x30, [sp,#-32]!
    a464:	910003fd 	mov	x29, sp
    a468:	f9000bf3 	str	x19, [sp,#16]
/home/asaf/devel/optee/optee_os/lib/libmpa/mpa_io.c:401
    a46c:	b5000160 	cbnz	x0, a498 <mpa_get_str+0x38>
/home/asaf/devel/optee/optee_os/lib/libmpa/mpa_io.c:401 (discriminator 1)
    a470:	b0000003 	adrp	x3, b000 <PRIME_TABLE+0x350>
    a474:	9127a063 	add	x3, x3, #0x9e8
    a478:	91004063 	add	x3, x3, #0x10
    a47c:	d0000001 	adrp	x1, c000 <__func__.3637+0x608>
    a480:	d0000000 	adrp	x0, c000 <__func__.3637+0x608>
    a484:	91048021 	add	x1, x1, #0x120
    a488:	9104d000 	add	x0, x0, #0x134
    a48c:	52803222 	mov	w2, #0x191                 	// #401
    a490:	97ffe9e1 	bl	4c14 <_assert_log>
    a494:	97ffe9f1 	bl	4c58 <_assert_break>
/home/asaf/devel/optee/optee_os/lib/libmpa/mpa_io.c:404
    a498:	b9400443 	ldr	w3, [x2,#4]
    a49c:	aa0003f3 	mov	x19, x0
    a4a0:	36f80063 	tbz	w3, #31, a4ac <mpa_get_str+0x4c>
/home/asaf/devel/optee/optee_os/lib/libmpa/mpa_io.c:405
    a4a4:	528005a3 	mov	w3, #0x2d                  	// #45
    a4a8:	38001403 	strb	w3, [x0],#1
/home/asaf/devel/optee/optee_os/lib/libmpa/mpa_io.c:408
    a4ac:	7100403f 	cmp	w1, #0x10
    a4b0:	540000a0 	b.eq	a4c4 <mpa_get_str+0x64>
    a4b4:	7100443f 	cmp	w1, #0x11
    a4b8:	54000120 	b.eq	a4dc <mpa_get_str+0x7c>
/home/asaf/devel/optee/optee_os/lib/libmpa/mpa_io.c:416
    a4bc:	d2800013 	mov	x19, #0x0                   	// #0
    a4c0:	14000003 	b	a4cc <mpa_get_str+0x6c>
/home/asaf/devel/optee/optee_os/lib/libmpa/mpa_io.c:410
    a4c4:	52800001 	mov	w1, #0x0                   	// #0
/home/asaf/devel/optee/optee_os/lib/libmpa/mpa_io.c:413
    a4c8:	97fffeea 	bl	a070 <__mpa_mpanum_to_hexstr>
/home/asaf/devel/optee/optee_os/lib/libmpa/mpa_io.c:420
    a4cc:	aa1303e0 	mov	x0, x19
    a4d0:	f9400bf3 	ldr	x19, [sp,#16]
    a4d4:	a8c27bfd 	ldp	x29, x30, [sp],#32
    a4d8:	d65f03c0 	ret
/home/asaf/devel/optee/optee_os/lib/libmpa/mpa_io.c:413
    a4dc:	52800021 	mov	w1, #0x1                   	// #1
    a4e0:	17fffffa 	b	a4c8 <mpa_get_str+0x68>

000000000000a4e4 <mpa_set_oct_str>:
mpa_set_oct_str():
/home/asaf/devel/optee/optee_os/lib/libmpa/mpa_io.c:437
    a4e4:	a9bc7bfd 	stp	x29, x30, [sp,#-64]!
    a4e8:	910003fd 	mov	x29, sp
    a4ec:	a90153f3 	stp	x19, x20, [sp,#16]
    a4f0:	aa0003f4 	mov	x20, x0
    a4f4:	a9025bf5 	stp	x21, x22, [sp,#32]
/home/asaf/devel/optee/optee_os/lib/libmpa/mpa_io.c:439
    a4f8:	2a0203f3 	mov	w19, w2
/home/asaf/devel/optee/optee_os/lib/libmpa/mpa_io.c:437
    a4fc:	f9001bf7 	str	x23, [sp,#48]
    a500:	aa0103f5 	mov	x21, x1
    a504:	12001c77 	and	w23, w3, #0xff
/home/asaf/devel/optee/optee_os/lib/libmpa/mpa_io.c:443
    a508:	7100027f 	cmp	w19, #0x0
    a50c:	5400016c 	b.gt	a538 <mpa_set_oct_str+0x54>
/home/asaf/devel/optee/optee_os/lib/libmpa/mpa_io.c:450
    a510:	540001e1 	b.ne	a54c <mpa_set_oct_str+0x68>
/home/asaf/devel/optee/optee_os/lib/libmpa/mpa_io.c:451
    a514:	52800001 	mov	w1, #0x0                   	// #0
    a518:	aa1403e0 	mov	x0, x20
    a51c:	97fff487 	bl	7738 <mpa_set_word>
/home/asaf/devel/optee/optee_os/lib/libmpa/mpa_io.c:480
    a520:	2a1303e0 	mov	w0, w19
    a524:	f9401bf7 	ldr	x23, [sp,#48]
    a528:	a94153f3 	ldp	x19, x20, [sp,#16]
    a52c:	a9425bf5 	ldp	x21, x22, [sp,#32]
    a530:	a8c47bfd 	ldp	x29, x30, [sp],#64
    a534:	d65f03c0 	ret
/home/asaf/devel/optee/optee_os/lib/libmpa/mpa_io.c:444
    a538:	394002a0 	ldrb	w0, [x21]
    a53c:	35000080 	cbnz	w0, a54c <mpa_set_oct_str+0x68>
/home/asaf/devel/optee/optee_os/lib/libmpa/mpa_io.c:446
    a540:	51000673 	sub	w19, w19, #0x1
/home/asaf/devel/optee/optee_os/lib/libmpa/mpa_io.c:447
    a544:	910006b5 	add	x21, x21, #0x1
    a548:	17fffff0 	b	a508 <mpa_set_oct_str+0x24>
/home/asaf/devel/optee/optee_os/lib/libmpa/mpa_io.c:460
    a54c:	b9400280 	ldr	w0, [x20]
    a550:	51000661 	sub	w1, w19, #0x1
    a554:	d37e7400 	ubfiz	x0, x0, #2, #30
    a558:	eb21c01f 	cmp	x0, w1, sxtw
    a55c:	54000483 	b.cc	a5ec <mpa_set_oct_str+0x108>
/home/asaf/devel/optee/optee_os/lib/libmpa/mpa_io.c:464
    a560:	52800001 	mov	w1, #0x0                   	// #0
    a564:	aa1403e0 	mov	x0, x20
/home/asaf/devel/optee/optee_os/lib/libmpa/mpa_io.c:463
    a568:	91002296 	add	x22, x20, #0x8
/home/asaf/devel/optee/optee_os/lib/libmpa/mpa_io.c:464
    a56c:	97fff473 	bl	7738 <mpa_set_word>
/home/asaf/devel/optee/optee_os/lib/libmpa/mpa_io.c:468
    a570:	52800083 	mov	w3, #0x4                   	// #4
    a574:	12bc0005 	mov	w5, #0x1fffffff            	// #536870911
/home/asaf/devel/optee/optee_os/lib/libmpa/mpa_io.c:466
    a578:	b900069f 	str	wzr, [x20,#4]
/home/asaf/devel/optee/optee_os/lib/libmpa/mpa_io.c:467
    a57c:	7100027f 	cmp	w19, #0x0
    a580:	540000ec 	b.gt	a59c <mpa_set_oct_str+0xb8>
/home/asaf/devel/optee/optee_os/lib/libmpa/mpa_io.c:479
    a584:	52800013 	mov	w19, #0x0                   	// #0
/home/asaf/devel/optee/optee_os/lib/libmpa/mpa_io.c:476
    a588:	34fffcd7 	cbz	w23, a520 <mpa_set_oct_str+0x3c>
/home/asaf/devel/optee/optee_os/lib/libmpa/mpa_io.c:477
    a58c:	b9400680 	ldr	w0, [x20,#4]
    a590:	4b0003e0 	neg	w0, w0
    a594:	b9000680 	str	w0, [x20,#4]
    a598:	17ffffe2 	b	a520 <mpa_set_oct_str+0x3c>
/home/asaf/devel/optee/optee_os/lib/libmpa/mpa_io.c:468
    a59c:	7100127f 	cmp	w19, #0x4
    a5a0:	110004a1 	add	w1, w5, #0x1
    a5a4:	1a83d260 	csel	w0, w19, w3, le
    a5a8:	531d7021 	lsl	w1, w1, #3
/home/asaf/devel/optee/optee_os/lib/libmpa/mpa_io.c:470
    a5ac:	4b000273 	sub	w19, w19, w0
    a5b0:	51000400 	sub	w0, w0, #0x1
set_word():
/home/asaf/devel/optee/optee_os/lib/libmpa/mpa_io.c:431
    a5b4:	8b33c2a6 	add	x6, x21, w19, sxtw
/home/asaf/devel/optee/optee_os/lib/libmpa/mpa_io.c:429
    a5b8:	52800002 	mov	w2, #0x0                   	// #0
/home/asaf/devel/optee/optee_os/lib/libmpa/mpa_io.c:431
    a5bc:	386068c4 	ldrb	w4, [x6,x0]
    a5c0:	d1000400 	sub	x0, x0, #0x1
/home/asaf/devel/optee/optee_os/lib/libmpa/mpa_io.c:430
    a5c4:	3100041f 	cmn	w0, #0x1
/home/asaf/devel/optee/optee_os/lib/libmpa/mpa_io.c:431
    a5c8:	1ac12084 	lsl	w4, w4, w1
    a5cc:	11002021 	add	w1, w1, #0x8
    a5d0:	2a040042 	orr	w2, w2, w4
/home/asaf/devel/optee/optee_os/lib/libmpa/mpa_io.c:430
    a5d4:	54ffff41 	b.ne	a5bc <mpa_set_oct_str+0xd8>
mpa_set_oct_str():
/home/asaf/devel/optee/optee_os/lib/libmpa/mpa_io.c:471
    a5d8:	b80046c2 	str	w2, [x22],#4
/home/asaf/devel/optee/optee_os/lib/libmpa/mpa_io.c:473
    a5dc:	b9400680 	ldr	w0, [x20,#4]
    a5e0:	11000400 	add	w0, w0, #0x1
    a5e4:	b9000680 	str	w0, [x20,#4]
    a5e8:	17ffffe5 	b	a57c <mpa_set_oct_str+0x98>
/home/asaf/devel/optee/optee_os/lib/libmpa/mpa_io.c:461
    a5ec:	12800013 	mov	w19, #0xffffffff            	// #-1
    a5f0:	17ffffcc 	b	a520 <mpa_set_oct_str+0x3c>

000000000000a5f4 <mpa_get_oct_str>:
mpa_get_oct_str():
/home/asaf/devel/optee/optee_os/lib/libmpa/mpa_io.c:493
    a5f4:	a9bb7bfd 	stp	x29, x30, [sp,#-80]!
    a5f8:	52800024 	mov	w4, #0x1                   	// #1
    a5fc:	910003fd 	mov	x29, sp
    a600:	a90153f3 	stp	x19, x20, [sp,#16]
__mpa_size_in_base_255():
/home/asaf/devel/optee/optee_os/lib/libmpa/mpa_io.c:219
    a604:	b9400443 	ldr	w3, [x2,#4]
mpa_get_oct_str():
/home/asaf/devel/optee/optee_os/lib/libmpa/mpa_io.c:493
    a608:	a9025bf5 	stp	x21, x22, [sp,#32]
    a60c:	f9001bf7 	str	x23, [sp,#48]
__mpa_size_in_base_255():
/home/asaf/devel/optee/optee_os/lib/libmpa/mpa_io.c:219
    a610:	7100007f 	cmp	w3, #0x0
    a614:	540001e0 	b.eq	a650 <mpa_get_oct_str+0x5c>
/home/asaf/devel/optee/optee_os/lib/libmpa/mpa_io.c:223
    a618:	5a83a464 	cneg	w4, w3, lt
    a61c:	51000485 	sub	w5, w4, #0x1
/home/asaf/devel/optee/optee_os/lib/libmpa/mpa_io.c:222
    a620:	8b25c845 	add	x5, x2, w5, sxtw #2
    a624:	b94008a7 	ldr	w7, [x5,#8]
__mpa_count_leading_zero_bits():
/home/asaf/devel/optee/optee_os/lib/libmpa/mpa_io.c:198
    a628:	52800405 	mov	w5, #0x20                  	// #32
/home/asaf/devel/optee/optee_os/lib/libmpa/mpa_io.c:197
    a62c:	340000a7 	cbz	w7, a640 <mpa_get_oct_str+0x4c>
    a630:	52800005 	mov	w5, #0x0                   	// #0
    a634:	52b00006 	mov	w6, #0x80000000            	// #-2147483648
/home/asaf/devel/optee/optee_os/lib/libmpa/mpa_io.c:201
    a638:	6a0600ff 	tst	w7, w6
    a63c:	54000180 	b.eq	a66c <mpa_get_oct_str+0x78>
__mpa_size_in_base_255():
/home/asaf/devel/optee/optee_os/lib/libmpa/mpa_io.c:224
    a640:	531b6893 	lsl	w19, w4, #5
/home/asaf/devel/optee/optee_os/lib/libmpa/mpa_io.c:226
    a644:	11001e73 	add	w19, w19, #0x7
    a648:	4b050273 	sub	w19, w19, w5
    a64c:	53037e64 	lsr	w4, w19, #3
mpa_get_oct_str():
/home/asaf/devel/optee/optee_os/lib/libmpa/mpa_io.c:500
    a650:	f9400025 	ldr	x5, [x1]
/home/asaf/devel/optee/optee_os/lib/libmpa/mpa_io.c:494
    a654:	2a0403f3 	mov	w19, w4
/home/asaf/devel/optee/optee_os/lib/libmpa/mpa_io.c:500
    a658:	eb05027f 	cmp	x19, x5
    a65c:	540000e9 	b.ls	a678 <mpa_get_oct_str+0x84>
/home/asaf/devel/optee/optee_os/lib/libmpa/mpa_io.c:501
    a660:	f9000033 	str	x19, [x1]
/home/asaf/devel/optee/optee_os/lib/libmpa/mpa_io.c:526
    a664:	12800000 	mov	w0, #0xffffffff            	// #-1
    a668:	1400000e 	b	a6a0 <mpa_get_oct_str+0xac>
__mpa_count_leading_zero_bits():
/home/asaf/devel/optee/optee_os/lib/libmpa/mpa_io.c:202
    a66c:	110004a5 	add	w5, w5, #0x1
/home/asaf/devel/optee/optee_os/lib/libmpa/mpa_io.c:203
    a670:	53017cc6 	lsr	w6, w6, #1
    a674:	17fffff1 	b	a638 <mpa_get_oct_str+0x44>
    a678:	aa0203f7 	mov	x23, x2
    a67c:	aa0103f6 	mov	x22, x1
    a680:	aa0003e4 	mov	x4, x0
mpa_get_oct_str():
/home/asaf/devel/optee/optee_os/lib/libmpa/mpa_io.c:506
    a684:	7100007f 	cmp	w3, #0x0
    a688:	54000161 	b.ne	a6b4 <mpa_get_oct_str+0xc0>
/home/asaf/devel/optee/optee_os/lib/libmpa/mpa_io.c:507
    a68c:	aa0503e2 	mov	x2, x5
    a690:	52800001 	mov	w1, #0x0                   	// #0
    a694:	97ffedd7 	bl	5df0 <memset>
/home/asaf/devel/optee/optee_os/lib/libmpa/mpa_io.c:535
    a698:	52800000 	mov	w0, #0x0                   	// #0
/home/asaf/devel/optee/optee_os/lib/libmpa/mpa_io.c:534
    a69c:	f90002d3 	str	x19, [x22]
/home/asaf/devel/optee/optee_os/lib/libmpa/mpa_io.c:536
    a6a0:	a94153f3 	ldp	x19, x20, [sp,#16]
    a6a4:	a9425bf5 	ldp	x21, x22, [sp,#32]
    a6a8:	f9401bf7 	ldr	x23, [sp,#48]
    a6ac:	a8c57bfd 	ldp	x29, x30, [sp],#80
    a6b0:	d65f03c0 	ret
/home/asaf/devel/optee/optee_os/lib/libmpa/mpa_io.c:505
    a6b4:	5a83a474 	cneg	w20, w3, lt
/home/asaf/devel/optee/optee_os/lib/libmpa/mpa_io.c:510
    a6b8:	51000680 	sub	w0, w20, #0x1
/home/asaf/devel/optee/optee_os/lib/libmpa/mpa_io.c:513
    a6bc:	8b20c840 	add	x0, x2, w0, sxtw #2
    a6c0:	b9400801 	ldr	w1, [x0,#8]
get_word():
/home/asaf/devel/optee/optee_os/lib/libmpa/mpa_io.c:487
    a6c4:	39012fa1 	strb	w1, [x29,#75]
/home/asaf/devel/optee/optee_os/lib/libmpa/mpa_io.c:488
    a6c8:	53087c20 	lsr	w0, w1, #8
    a6cc:	53187c23 	lsr	w3, w1, #24
/home/asaf/devel/optee/optee_os/lib/libmpa/mpa_io.c:487
    a6d0:	39012ba0 	strb	w0, [x29,#74]
/home/asaf/devel/optee/optee_os/lib/libmpa/mpa_io.c:488
    a6d4:	53107c20 	lsr	w0, w1, #16
/home/asaf/devel/optee/optee_os/lib/libmpa/mpa_io.c:487
    a6d8:	910143a1 	add	x1, x29, #0x50
    a6dc:	390127a0 	strb	w0, [x29,#73]
    a6e0:	d2800000 	mov	x0, #0x0                   	// #0
    a6e4:	381f8c23 	strb	w3, [x1,#-8]!
mpa_get_oct_str():
/home/asaf/devel/optee/optee_os/lib/libmpa/mpa_io.c:516
    a6e8:	38616802 	ldrb	w2, [x0,x1]
    a6ec:	34000342 	cbz	w2, a754 <mpa_get_oct_str+0x160>
/home/asaf/devel/optee/optee_os/lib/libmpa/mpa_io.c:517
    a6f0:	52800095 	mov	w21, #0x4                   	// #4
    a6f4:	4b0002b5 	sub	w21, w21, w0
    a6f8:	93407eb5 	sxtw	x21, w21
    a6fc:	8b20c021 	add	x1, x1, w0, sxtw
    a700:	aa1503e2 	mov	x2, x21
    a704:	aa0403e0 	mov	x0, x4
    a708:	97ffed9f 	bl	5d84 <memcpy>
    a70c:	aa0003e4 	mov	x4, x0
/home/asaf/devel/optee/optee_os/lib/libmpa/mpa_io.c:522
    a710:	51000a83 	sub	w3, w20, #0x2
    a714:	93407c63 	sxtw	x3, w3
/home/asaf/devel/optee/optee_os/lib/libmpa/mpa_io.c:524
    a718:	37fffc03 	tbnz	w3, #31, a698 <mpa_get_oct_str+0xa4>
/home/asaf/devel/optee/optee_os/lib/libmpa/mpa_io.c:525
    a71c:	eb1302bf 	cmp	x21, x19
    a720:	54fffa28 	b.hi	a664 <mpa_get_oct_str+0x70>
/home/asaf/devel/optee/optee_os/lib/libmpa/mpa_io.c:527
    a724:	8b030ae0 	add	x0, x23, x3, lsl #2
get_word():
/home/asaf/devel/optee/optee_os/lib/libmpa/mpa_io.c:487
    a728:	8b150082 	add	x2, x4, x21
mpa_get_oct_str():
/home/asaf/devel/optee/optee_os/lib/libmpa/mpa_io.c:527
    a72c:	b9400801 	ldr	w1, [x0,#8]
    a730:	d2800060 	mov	x0, #0x3                   	// #3
get_word():
/home/asaf/devel/optee/optee_os/lib/libmpa/mpa_io.c:487
    a734:	38206841 	strb	w1, [x2,x0]
    a738:	d1000400 	sub	x0, x0, #0x1
/home/asaf/devel/optee/optee_os/lib/libmpa/mpa_io.c:488
    a73c:	53087c21 	lsr	w1, w1, #8
/home/asaf/devel/optee/optee_os/lib/libmpa/mpa_io.c:486
    a740:	b100041f 	cmn	x0, #0x1
    a744:	54ffff81 	b.ne	a734 <mpa_get_oct_str+0x140>
mpa_get_oct_str():
/home/asaf/devel/optee/optee_os/lib/libmpa/mpa_io.c:529
    a748:	910012b5 	add	x21, x21, #0x4
    a74c:	d1000463 	sub	x3, x3, #0x1
    a750:	17fffff2 	b	a718 <mpa_get_oct_str+0x124>
    a754:	91000400 	add	x0, x0, #0x1
/home/asaf/devel/optee/optee_os/lib/libmpa/mpa_io.c:515 (discriminator 2)
    a758:	f100101f 	cmp	x0, #0x4
    a75c:	54fffc61 	b.ne	a6e8 <mpa_get_oct_str+0xf4>
/home/asaf/devel/optee/optee_os/lib/libmpa/mpa_io.c:496
    a760:	d2800015 	mov	x21, #0x0                   	// #0
    a764:	17ffffeb 	b	a710 <mpa_get_oct_str+0x11c>

000000000000a768 <mpa_mod>:
mpa_mod():
/home/asaf/devel/optee/optee_os/lib/libmpa/mpa_modulus.c:42
    a768:	aa0303e4 	mov	x4, x3
    a76c:	aa0203e3 	mov	x3, x2
    a770:	aa0103e2 	mov	x2, x1
    a774:	aa0003e1 	mov	x1, x0
    a778:	d2800000 	mov	x0, #0x0                   	// #0
    a77c:	17fff602 	b	7f84 <mpa_div>

000000000000a780 <mpa_add_mod>:
mpa_add_mod():
/home/asaf/devel/optee/optee_os/lib/libmpa/mpa_modulus.c:53
    a780:	a9bb7bfd 	stp	x29, x30, [sp,#-80]!
    a784:	910003fd 	mov	x29, sp
    a788:	a90153f3 	stp	x19, x20, [sp,#16]
/home/asaf/devel/optee/optee_os/lib/libmpa/mpa_modulus.c:56
    a78c:	910123b3 	add	x19, x29, #0x48
/home/asaf/devel/optee/optee_os/lib/libmpa/mpa_modulus.c:53
    a790:	aa0403f4 	mov	x20, x4
    a794:	a9025bf5 	stp	x21, x22, [sp,#32]
    a798:	a90363f7 	stp	x23, x24, [sp,#48]
    a79c:	aa0303f6 	mov	x22, x3
    a7a0:	aa0003f5 	mov	x21, x0
    a7a4:	aa0103f7 	mov	x23, x1
    a7a8:	aa0203f8 	mov	x24, x2
/home/asaf/devel/optee/optee_os/lib/libmpa/mpa_modulus.c:56
    a7ac:	aa0403e1 	mov	x1, x4
    a7b0:	aa1303e0 	mov	x0, x19
    a7b4:	97fff894 	bl	8a04 <mpa_alloc_static_temp_var>
/home/asaf/devel/optee/optee_os/lib/libmpa/mpa_modulus.c:58
    a7b8:	f94027a0 	ldr	x0, [x29,#72]
    a7bc:	aa1403e3 	mov	x3, x20
    a7c0:	aa1803e2 	mov	x2, x24
    a7c4:	aa1703e1 	mov	x1, x23
    a7c8:	97fffba1 	bl	964c <mpa_add>
/home/asaf/devel/optee/optee_os/lib/libmpa/mpa_modulus.c:59
    a7cc:	f94027a2 	ldr	x2, [x29,#72]
    a7d0:	aa1403e4 	mov	x4, x20
    a7d4:	aa1603e3 	mov	x3, x22
    a7d8:	aa1503e1 	mov	x1, x21
    a7dc:	d2800000 	mov	x0, #0x0                   	// #0
    a7e0:	97fff5e9 	bl	7f84 <mpa_div>
/home/asaf/devel/optee/optee_os/lib/libmpa/mpa_modulus.c:61
    a7e4:	aa1403e1 	mov	x1, x20
    a7e8:	aa1303e0 	mov	x0, x19
    a7ec:	97fff88a 	bl	8a14 <mpa_free_static_temp_var>
/home/asaf/devel/optee/optee_os/lib/libmpa/mpa_modulus.c:62
    a7f0:	a94153f3 	ldp	x19, x20, [sp,#16]
    a7f4:	a9425bf5 	ldp	x21, x22, [sp,#32]
    a7f8:	a94363f7 	ldp	x23, x24, [sp,#48]
    a7fc:	a8c57bfd 	ldp	x29, x30, [sp],#80
    a800:	d65f03c0 	ret

000000000000a804 <mpa_sub_mod>:
mpa_sub_mod():
/home/asaf/devel/optee/optee_os/lib/libmpa/mpa_modulus.c:72
    a804:	a9bb7bfd 	stp	x29, x30, [sp,#-80]!
    a808:	910003fd 	mov	x29, sp
    a80c:	a90153f3 	stp	x19, x20, [sp,#16]
/home/asaf/devel/optee/optee_os/lib/libmpa/mpa_modulus.c:75
    a810:	910123b3 	add	x19, x29, #0x48
/home/asaf/devel/optee/optee_os/lib/libmpa/mpa_modulus.c:72
    a814:	aa0403f4 	mov	x20, x4
    a818:	a9025bf5 	stp	x21, x22, [sp,#32]
    a81c:	a90363f7 	stp	x23, x24, [sp,#48]
    a820:	aa0303f6 	mov	x22, x3
    a824:	aa0003f5 	mov	x21, x0
    a828:	aa0103f7 	mov	x23, x1
    a82c:	aa0203f8 	mov	x24, x2
/home/asaf/devel/optee/optee_os/lib/libmpa/mpa_modulus.c:75
    a830:	aa0403e1 	mov	x1, x4
    a834:	aa1303e0 	mov	x0, x19
    a838:	97fff873 	bl	8a04 <mpa_alloc_static_temp_var>
/home/asaf/devel/optee/optee_os/lib/libmpa/mpa_modulus.c:77
    a83c:	f94027a0 	ldr	x0, [x29,#72]
    a840:	aa1403e3 	mov	x3, x20
    a844:	aa1803e2 	mov	x2, x24
    a848:	aa1703e1 	mov	x1, x23
    a84c:	97fffbe5 	bl	97e0 <mpa_sub>
/home/asaf/devel/optee/optee_os/lib/libmpa/mpa_modulus.c:78
    a850:	f94027a2 	ldr	x2, [x29,#72]
    a854:	aa1403e4 	mov	x4, x20
    a858:	aa1603e3 	mov	x3, x22
    a85c:	aa1503e1 	mov	x1, x21
    a860:	d2800000 	mov	x0, #0x0                   	// #0
    a864:	97fff5c8 	bl	7f84 <mpa_div>
/home/asaf/devel/optee/optee_os/lib/libmpa/mpa_modulus.c:80
    a868:	aa1403e1 	mov	x1, x20
    a86c:	aa1303e0 	mov	x0, x19
    a870:	97fff869 	bl	8a14 <mpa_free_static_temp_var>
/home/asaf/devel/optee/optee_os/lib/libmpa/mpa_modulus.c:81
    a874:	a94153f3 	ldp	x19, x20, [sp,#16]
    a878:	a9425bf5 	ldp	x21, x22, [sp,#32]
    a87c:	a94363f7 	ldp	x23, x24, [sp,#48]
    a880:	a8c57bfd 	ldp	x29, x30, [sp],#80
    a884:	d65f03c0 	ret

000000000000a888 <mpa_mul_mod>:
mpa_mul_mod():
/home/asaf/devel/optee/optee_os/lib/libmpa/mpa_modulus.c:91
    a888:	a9bb7bfd 	stp	x29, x30, [sp,#-80]!
    a88c:	910003fd 	mov	x29, sp
    a890:	a90153f3 	stp	x19, x20, [sp,#16]
/home/asaf/devel/optee/optee_os/lib/libmpa/mpa_modulus.c:94
    a894:	910123b3 	add	x19, x29, #0x48
/home/asaf/devel/optee/optee_os/lib/libmpa/mpa_modulus.c:91
    a898:	aa0403f4 	mov	x20, x4
    a89c:	a9025bf5 	stp	x21, x22, [sp,#32]
    a8a0:	a90363f7 	stp	x23, x24, [sp,#48]
    a8a4:	aa0303f6 	mov	x22, x3
    a8a8:	aa0003f5 	mov	x21, x0
    a8ac:	aa0103f7 	mov	x23, x1
    a8b0:	aa0203f8 	mov	x24, x2
/home/asaf/devel/optee/optee_os/lib/libmpa/mpa_modulus.c:94
    a8b4:	aa0403e1 	mov	x1, x4
    a8b8:	aa1303e0 	mov	x0, x19
    a8bc:	97fff852 	bl	8a04 <mpa_alloc_static_temp_var>
/home/asaf/devel/optee/optee_os/lib/libmpa/mpa_modulus.c:96
    a8c0:	f94027a0 	ldr	x0, [x29,#72]
    a8c4:	aa1403e3 	mov	x3, x20
    a8c8:	aa1803e2 	mov	x2, x24
    a8cc:	aa1703e1 	mov	x1, x23
    a8d0:	97fff8d5 	bl	8c24 <mpa_mul>
/home/asaf/devel/optee/optee_os/lib/libmpa/mpa_modulus.c:97
    a8d4:	f94027a2 	ldr	x2, [x29,#72]
    a8d8:	aa1403e4 	mov	x4, x20
    a8dc:	aa1603e3 	mov	x3, x22
    a8e0:	aa1503e1 	mov	x1, x21
    a8e4:	d2800000 	mov	x0, #0x0                   	// #0
    a8e8:	97fff5a7 	bl	7f84 <mpa_div>
/home/asaf/devel/optee/optee_os/lib/libmpa/mpa_modulus.c:99
    a8ec:	aa1403e1 	mov	x1, x20
    a8f0:	aa1303e0 	mov	x0, x19
    a8f4:	97fff848 	bl	8a14 <mpa_free_static_temp_var>
/home/asaf/devel/optee/optee_os/lib/libmpa/mpa_modulus.c:100
    a8f8:	a94153f3 	ldp	x19, x20, [sp,#16]
    a8fc:	a9425bf5 	ldp	x21, x22, [sp,#32]
    a900:	a94363f7 	ldp	x23, x24, [sp,#48]
    a904:	a8c57bfd 	ldp	x29, x30, [sp],#80
    a908:	d65f03c0 	ret

000000000000a90c <mpa_inv_mod>:
mpa_inv_mod():
/home/asaf/devel/optee/optee_os/lib/libmpa/mpa_modulus.c:109
    a90c:	a9bb7bfd 	stp	x29, x30, [sp,#-80]!
    a910:	910003fd 	mov	x29, sp
    a914:	a9025bf5 	stp	x21, x22, [sp,#32]
    a918:	aa0103f6 	mov	x22, x1
    a91c:	a90153f3 	stp	x19, x20, [sp,#16]
/home/asaf/devel/optee/optee_os/lib/libmpa/mpa_modulus.c:115
    a920:	52800021 	mov	w1, #0x1                   	// #1
/home/asaf/devel/optee/optee_os/lib/libmpa/mpa_modulus.c:109
    a924:	a90363f7 	stp	x23, x24, [sp,#48]
    a928:	aa0003f3 	mov	x19, x0
    a92c:	aa0203f7 	mov	x23, x2
    a930:	aa0303f4 	mov	x20, x3
/home/asaf/devel/optee/optee_os/lib/libmpa/mpa_modulus.c:115
    a934:	aa1603e0 	mov	x0, x22
    a938:	97fffd0c 	bl	9d68 <mpa_cmp_short>
    a93c:	35000160 	cbnz	w0, a968 <mpa_inv_mod+0x5c>
/home/asaf/devel/optee/optee_os/lib/libmpa/mpa_modulus.c:117
    a940:	52800015 	mov	w21, #0x0                   	// #0
/home/asaf/devel/optee/optee_os/lib/libmpa/mpa_modulus.c:116
    a944:	52800021 	mov	w1, #0x1                   	// #1
    a948:	aa1303e0 	mov	x0, x19
    a94c:	97fff353 	bl	7698 <mpa_set_S32>
/home/asaf/devel/optee/optee_os/lib/libmpa/mpa_modulus.c:144
    a950:	2a1503e0 	mov	w0, w21
    a954:	a94153f3 	ldp	x19, x20, [sp,#16]
    a958:	a9425bf5 	ldp	x21, x22, [sp,#32]
    a95c:	a94363f7 	ldp	x23, x24, [sp,#48]
    a960:	a8c57bfd 	ldp	x29, x30, [sp],#80
    a964:	d65f03c0 	ret
/home/asaf/devel/optee/optee_os/lib/libmpa/mpa_modulus.c:121
    a968:	eb1302df 	cmp	x22, x19
    a96c:	54000421 	b.ne	a9f0 <mpa_inv_mod+0xe4>
/home/asaf/devel/optee/optee_os/lib/libmpa/mpa_modulus.c:122
    a970:	aa1403e1 	mov	x1, x20
    a974:	910123a0 	add	x0, x29, #0x48
    a978:	97fff823 	bl	8a04 <mpa_alloc_static_temp_var>
/home/asaf/devel/optee/optee_os/lib/libmpa/mpa_modulus.c:126
    a97c:	910103b8 	add	x24, x29, #0x40
    a980:	aa1403e1 	mov	x1, x20
    a984:	aa1803e0 	mov	x0, x24
    a988:	97fff81f 	bl	8a04 <mpa_alloc_static_temp_var>
/home/asaf/devel/optee/optee_os/lib/libmpa/mpa_modulus.c:128
    a98c:	a94407a0 	ldp	x0, x1, [x29,#64]
    a990:	aa1403e5 	mov	x5, x20
    a994:	aa1703e4 	mov	x4, x23
    a998:	aa1603e3 	mov	x3, x22
    a99c:	d2800002 	mov	x2, #0x0                   	// #0
    a9a0:	97fff758 	bl	8700 <mpa_extended_gcd>
/home/asaf/devel/optee/optee_os/lib/libmpa/mpa_modulus.c:129
    a9a4:	f94023a0 	ldr	x0, [x29,#64]
    a9a8:	52800021 	mov	w1, #0x1                   	// #1
    a9ac:	97fffcef 	bl	9d68 <mpa_cmp_short>
    a9b0:	2a0003f5 	mov	w21, w0
/home/asaf/devel/optee/optee_os/lib/libmpa/mpa_modulus.c:131
    a9b4:	eb1302df 	cmp	x22, x19
    a9b8:	54000101 	b.ne	a9d8 <mpa_inv_mod+0xcc>
/home/asaf/devel/optee/optee_os/lib/libmpa/mpa_modulus.c:132
    a9bc:	910143b6 	add	x22, x29, #0x50
    a9c0:	aa1303e0 	mov	x0, x19
    a9c4:	f85f8ec1 	ldr	x1, [x22,#-8]!
    a9c8:	97fff0fd 	bl	6dbc <mpa_copy>
/home/asaf/devel/optee/optee_os/lib/libmpa/mpa_modulus.c:133
    a9cc:	aa1403e1 	mov	x1, x20
    a9d0:	aa1603e0 	mov	x0, x22
    a9d4:	97fff810 	bl	8a14 <mpa_free_static_temp_var>
/home/asaf/devel/optee/optee_os/lib/libmpa/mpa_modulus.c:136
    a9d8:	aa1403e1 	mov	x1, x20
    a9dc:	aa1803e0 	mov	x0, x24
    a9e0:	97fff80d 	bl	8a14 <mpa_free_static_temp_var>
/home/asaf/devel/optee/optee_os/lib/libmpa/mpa_modulus.c:137
    a9e4:	34000155 	cbz	w21, aa0c <mpa_inv_mod+0x100>
/home/asaf/devel/optee/optee_os/lib/libmpa/mpa_modulus.c:142
    a9e8:	12800015 	mov	w21, #0xffffffff            	// #-1
    a9ec:	17ffffd9 	b	a950 <mpa_inv_mod+0x44>
/home/asaf/devel/optee/optee_os/lib/libmpa/mpa_modulus.c:124
    a9f0:	f90027b3 	str	x19, [x29,#72]
    a9f4:	17ffffe2 	b	a97c <mpa_inv_mod+0x70>
/home/asaf/devel/optee/optee_os/lib/libmpa/mpa_modulus.c:139
    a9f8:	aa1403e3 	mov	x3, x20
    a9fc:	aa1703e2 	mov	x2, x23
    aa00:	aa1303e1 	mov	x1, x19
    aa04:	aa1303e0 	mov	x0, x19
    aa08:	97fffb11 	bl	964c <mpa_add>
/home/asaf/devel/optee/optee_os/lib/libmpa/mpa_modulus.c:138
    aa0c:	52800001 	mov	w1, #0x0                   	// #0
    aa10:	aa1303e0 	mov	x0, x19
    aa14:	97fffcd5 	bl	9d68 <mpa_cmp_short>
    aa18:	37ffff00 	tbnz	w0, #31, a9f8 <mpa_inv_mod+0xec>
    aa1c:	17ffffcd 	b	a950 <mpa_inv_mod+0x44>
