
8aaaf200-2450-11e4-abe2-0002a5d5c51b.elf:     file format elf64-littleaarch64
8aaaf200-2450-11e4-abe2-0002a5d5c51b.elf
architecture: aarch64, flags 0x00000150:
HAS_SYMS, DYNAMIC, D_PAGED
start address 0x0000000000000020

Program Header:
    LOAD off    0x0000000000010000 vaddr 0x0000000000000000 paddr 0x0000000000000000 align 2**16
         filesz 0x000000000000aa20 memsz 0x000000000000aa20 flags r-x
    LOAD off    0x000000000001aa20 vaddr 0x000000000000aa20 paddr 0x000000000000aa20 align 2**16
         filesz 0x0000000000001e1c memsz 0x0000000000001e1c flags r--
    LOAD off    0x000000000001d000 vaddr 0x000000000000d000 paddr 0x000000000000d000 align 2**16
         filesz 0x0000000000000124 memsz 0x000000000000ad48 flags rw-
 DYNAMIC off    0x000000000001c4f8 vaddr 0x000000000000c4f8 paddr 0x000000000000c4f8 align 2**3
         filesz 0x0000000000000100 memsz 0x0000000000000100 flags rw-

Dynamic Section:
  HASH                 0x000000000000c7f0
  STRTAB               0x000000000000c748
  SYMTAB               0x000000000000c5f8
  STRSZ                0x00000000000000a7
  SYMENT               0x0000000000000018
  DEBUG                0x0000000000000000
  RELA                 0x000000000000c138
  RELASZ               0x0000000000000348
  RELAENT              0x0000000000000018
  FLAGS_1              0x0000000008000000
  RELACOUNT            0x0000000000000018
private flags = 0:

Sections:
Idx Name          Size      VMA               LMA               File off  Algn
  0 .ta_head      00000020  0000000000000000  0000000000000000  00010000  2**3
                  CONTENTS, ALLOC, LOAD, DATA
  1 .text         0000aa00  0000000000000020  0000000000000020  00010020  2**2
                  CONTENTS, ALLOC, LOAD, READONLY, CODE
  2 .rodata       00001718  000000000000aa20  000000000000aa20  0001aa20  2**3
                  CONTENTS, ALLOC, LOAD, READONLY, DATA
  3 .dynsym       00000150  000000000000c5f8  000000000000c5f8  0001c5f8  2**3
                  CONTENTS, ALLOC, LOAD, READONLY, DATA
  4 .rela.dyn     00000240  000000000000c138  000000000000c138  0001c138  2**3
                  CONTENTS, ALLOC, LOAD, READONLY, DATA
  5 .got          00000078  000000000000c378  000000000000c378  0001c378  2**3
                  CONTENTS, ALLOC, LOAD, DATA
  6 .rela.got     00000108  000000000000c3f0  000000000000c3f0  0001c3f0  2**3
                  CONTENTS, ALLOC, LOAD, READONLY, DATA
  7 .dynamic      00000100  000000000000c4f8  000000000000c4f8  0001c4f8  2**3
                  CONTENTS, ALLOC, LOAD, DATA
  8 .dynstr       000000a7  000000000000c748  000000000000c748  0001c748  2**0
                  CONTENTS, ALLOC, LOAD, READONLY, DATA
  9 .hash         0000004c  000000000000c7f0  000000000000c7f0  0001c7f0  2**3
                  CONTENTS, ALLOC, LOAD, READONLY, DATA
 10 .data         00000124  000000000000d000  000000000000d000  0001d000  2**3
                  CONTENTS, ALLOC, LOAD, DATA
 11 .bss          0000ac20  000000000000d128  000000000000d128  0001d124  2**3
                  ALLOC
 12 .debug_info   000142dd  0000000000000000  0000000000000000  0001d124  2**0
                  CONTENTS, READONLY, DEBUGGING
 13 .debug_abbrev 00004625  0000000000000000  0000000000000000  00031401  2**0
                  CONTENTS, READONLY, DEBUGGING
 14 .debug_loc    0001cb70  0000000000000000  0000000000000000  00035a26  2**0
                  CONTENTS, READONLY, DEBUGGING
 15 .debug_aranges 000007d0  0000000000000000  0000000000000000  000525a0  2**4
                  CONTENTS, READONLY, DEBUGGING
 16 .debug_ranges 00000db0  0000000000000000  0000000000000000  00052d70  2**0
                  CONTENTS, READONLY, DEBUGGING
 17 .debug_macro  0000533d  0000000000000000  0000000000000000  00053b20  2**0
                  CONTENTS, READONLY, DEBUGGING
 18 .debug_line   000068e5  0000000000000000  0000000000000000  00058e5d  2**0
                  CONTENTS, READONLY, DEBUGGING
 19 .debug_str    00010aba  0000000000000000  0000000000000000  0005f742  2**0
                  CONTENTS, READONLY, DEBUGGING
 20 .comment      0000002d  0000000000000000  0000000000000000  000701fc  2**0
                  CONTENTS, READONLY
 21 .debug_frame  00003138  0000000000000000  0000000000000000  00070230  2**3
                  CONTENTS, READONLY, DEBUGGING
SYMBOL TABLE:
0000000000000000 l    d  .ta_head	0000000000000000 .ta_head
0000000000000020 l    d  .text	0000000000000000 .text
000000000000aa20 l    d  .rodata	0000000000000000 .rodata
000000000000c138 l    d  .rela.dyn	0000000000000000 .rela.dyn
000000000000c378 l    d  .got	0000000000000000 .got
000000000000c3f0 l    d  .rela.got	0000000000000000 .rela.got
000000000000c4f8 l    d  .dynamic	0000000000000000 .dynamic
000000000000c5f8 l    d  .dynsym	0000000000000000 .dynsym
000000000000c748 l    d  .dynstr	0000000000000000 .dynstr
000000000000c7f0 l    d  .hash	0000000000000000 .hash
000000000000d000 l    d  .data	0000000000000000 .data
000000000000d128 l    d  .bss	0000000000000000 .bss
0000000000000000 l    d  .debug_info	0000000000000000 .debug_info
0000000000000000 l    d  .debug_abbrev	0000000000000000 .debug_abbrev
0000000000000000 l    d  .debug_loc	0000000000000000 .debug_loc
0000000000000000 l    d  .debug_aranges	0000000000000000 .debug_aranges
0000000000000000 l    d  .debug_ranges	0000000000000000 .debug_ranges
0000000000000000 l    d  .debug_macro	0000000000000000 .debug_macro
0000000000000000 l    d  .debug_line	0000000000000000 .debug_line
0000000000000000 l    d  .debug_str	0000000000000000 .debug_str
0000000000000000 l    d  .comment	0000000000000000 .comment
0000000000000000 l    d  .debug_frame	0000000000000000 .debug_frame
0000000000000000 l    df *ABS*	0000000000000000 user_ta_header.c
000000000000aac0 l     O .rodata	0000000000000004 __compound_literal.5
000000000000aac4 l     O .rodata	0000000000000004 __compound_literal.4
000000000000aac8 l     O .rodata	0000000000000004 __compound_literal.3
000000000000aacc l     O .rodata	0000000000000001 __compound_literal.2
000000000000aacd l     O .rodata	0000000000000001 __compound_literal.1
000000000000aace l     O .rodata	0000000000000001 __compound_literal.0
0000000000000000 l    df *ABS*	0000000000000000 hello_world_ta.c
000000000000aa28 l     O .rodata	0000000000000014 __func__.3756
000000000000aa40 l     O .rodata	0000000000000015 __func__.3760
000000000000aa58 l     O .rodata	0000000000000019 __func__.3767
000000000000aa78 l     O .rodata	000000000000001a __func__.3771
000000000000aa98 l     O .rodata	000000000000000a __func__.3777
000000000000aaa8 l     O .rodata	000000000000000a __func__.3793
0000000000000000 l    df *ABS*	0000000000000000 tee_api_operations.c
0000000000002464 l     F .text	000000000000021c tee_buffer_update
0000000000000000 l    df *ABS*	0000000000000000 tee_api_panic.c
0000000000000000 l    df *ABS*	0000000000000000 user_ta_entry.c
0000000000002688 l     F .text	0000000000000028 ta_header_get_session
00000000000026b0 l     F .text	000000000000007c ta_header_remove_session
0000000000017d3c l     O .bss	0000000000000004 ta_ref_count
0000000000017d40 l     O .bss	0000000000000001 context_init
000000000000d0e0 l     O .data	0000000000000010 ta_sessions
0000000000000000 l    df *ABS*	0000000000000000 utee_syscalls_a64.o
0000000000000000 l    df *ABS*	0000000000000000 gprof_a64.o
0000000000000000 l    df *ABS*	0000000000000000 tee_api_arith.c
0000000000003340 l     F .text	0000000000000028 TEE_BigInt_Panic
0000000000015170 l     O .bss	0000000000001b40 mempool_u32
0000000000000000 l    df *ABS*	0000000000000000 tee_api.c
0000000000016cb0 l     O .bss	0000000000000008 tee_api_instance_data
0000000000000000 l    df *ABS*	0000000000000000 tee_api_objects.c
0000000000000000 l    df *ABS*	0000000000000000 utee_misc.c
0000000000000000 l    df *ABS*	0000000000000000 tee_user_mem.c
00000000000044d4 l     F .text	0000000000000058 print_buf
000000000000452c l     F .text	0000000000000104 check_elem
000000000000aae0 l     O .rodata	000000000000000b __func__.3881
000000000000aaf0 l     O .rodata	000000000000000f __func__.3876
000000000000ab00 l     O .rodata	0000000000000013 __func__.3901
000000000000ab18 l     O .rodata	0000000000000012 __func__.3918
000000000000ab30 l     O .rodata	0000000000000018 __func__.3926
000000000000ab48 l     O .rodata	0000000000000010 __func__.3886
000000000000ab58 l     O .rodata	0000000000000014 __func__.3931
0000000000016cb8 l     O .bss	0000000000000008 heap_level
0000000000016cc0 l     O .bss	0000000000000010 global_stats
0000000000000000 l    df *ABS*	0000000000000000 trace_ext.c
0000000000000000 l    df *ABS*	0000000000000000 assert.c
0000000000000000 l    df *ABS*	0000000000000000 bget_malloc.c
0000000000004c6c l     F .text	000000000000004c raw_malloc_return_hook
0000000000004cb8 l     F .text	0000000000000110 create_free_block
000000000000ab70 l     O .rodata	0000000000000012 __func__.3429
000000000000ab88 l     O .rodata	0000000000000005 __func__.3297
000000000000ab90 l     O .rodata	0000000000000006 __func__.3311
000000000000ab98 l     O .rodata	0000000000000005 __func__.3326
000000000000aba0 l     O .rodata	0000000000000006 __func__.3319
000000000000aba8 l     O .rodata	0000000000000006 __func__.3334
000000000000abb0 l     O .rodata	0000000000000007 __func__.3343
000000000000abb8 l     O .rodata	000000000000000d __func__.3462
000000000000abc8 l     O .rodata	000000000000000c __func__.3438
000000000000abd8 l     O .rodata	000000000000000b __func__.3448
000000000000abe8 l     O .rodata	0000000000000010 __func__.3514
000000000000abf8 l     O .rodata	000000000000000e __func__.3468
000000000000ac08 l     O .rodata	0000000000000013 __func__.3382
0000000000016cd0 l     O .bss	0000000000000008 totalloc
0000000000016cd8 l     O .bss	0000000000000038 mstats
0000000000016d10 l     O .bss	0000000000000008 numget
0000000000016d18 l     O .bss	0000000000000008 numrel
0000000000016d20 l     O .bss	0000000000000008 malloc_pool_len
0000000000016d28 l     O .bss	0000000000000008 malloc_pool
000000000000d100 l     O .data	0000000000000020 freelist
0000000000000000 l    df *ABS*	0000000000000000 snprintf.c
0000000000000000 l    df *ABS*	0000000000000000 memcmp.c
0000000000000000 l    df *ABS*	0000000000000000 memcpy.c
0000000000000000 l    df *ABS*	0000000000000000 memmove.c
0000000000000000 l    df *ABS*	0000000000000000 memset.c
0000000000000000 l    df *ABS*	0000000000000000 strlen.c
0000000000000000 l    df *ABS*	0000000000000000 snprintk.c
000000000000ac20 l     O .rodata	0000000000000011 HEXDIGITS
000000000000ac38 l     O .rodata	0000000000000011 hexdigits
0000000000000000 l    df *ABS*	0000000000000000 buf_compare_ct.c
0000000000000000 l    df *ABS*	0000000000000000 trace.c
000000000000ac50 l     O .rodata	000000000000002d lvl_strs.3168
0000000000000000 l    df *ABS*	0000000000000000 memchr.c
0000000000000000 l    df *ABS*	0000000000000000 mpa_misc.c
0000000000000000 l    df *ABS*	0000000000000000 mpa_montgomery.c
0000000000000000 l    df *ABS*	0000000000000000 mpa_primetest.c
000000000000b8e8 l     O .rodata	0000000000000010 const_miller_rabin_proof_limit
000000000000b8f8 l     O .rodata	000000000000001c proof_a.3549
000000000000b918 l     O .rodata	000000000000000c const_two
000000000000b928 l     O .rodata	00000000000000b8 const_small_prime_factors
0000000000000000 l    df *ABS*	0000000000000000 mpa_conv.c
0000000000000000 l    df *ABS*	0000000000000000 mpa_div.c
0000000000000000 l    df *ABS*	0000000000000000 mpa_gcd.c
0000000000008074 l     F .text	0000000000000080 __mpa_divby2
00000000000080f4 l     F .text	000000000000016c __mpa_gcd.part.0
0000000000008260 l     F .text	0000000000000380 __mpa_egcd
0000000000000000 l    df *ABS*	0000000000000000 mpa_mem_static.c
0000000000000000 l    df *ABS*	0000000000000000 mpa_mul.c
0000000000000000 l    df *ABS*	0000000000000000 mpa_random.c
0000000000016d30 l     O .bss	0000000000000008 get_rng_array
0000000000000000 l    df *ABS*	0000000000000000 mpa_shift.c
0000000000000000 l    df *ABS*	0000000000000000 mpa_addsub.c
0000000000000000 l    df *ABS*	0000000000000000 mpa_cmp.c
0000000000000000 l    df *ABS*	0000000000000000 mpa_expmod.c
0000000000000000 l    df *ABS*	0000000000000000 mpa_init.c
0000000000000000 l    df *ABS*	0000000000000000 mpa_io.c
000000000000a02c l     F .text	0000000000000044 __mpa_word_to_hexstr
000000000000a070 l     F .text	0000000000000114 __mpa_mpanum_to_hexstr
000000000000a184 l     F .text	000000000000003c __mpa_isspace
000000000000b9e8 l     O .rodata	000000000000000c __func__.3623
000000000000b9f8 l     O .rodata	000000000000000c __func__.3637
0000000000016d38 l     O .bss	0000000000001002 buf.3609
0000000000000000 l    df *ABS*	0000000000000000 mpa_modulus.c
0000000000000000 l    df *ABS*	0000000000000000 
000000000000c4f8 l     O *ABS*	0000000000000000 _DYNAMIC
000000000000c390 l     O *ABS*	0000000000000000 _GLOBAL_OFFSET_TABLE_
0000000000002c84 g     F .text	000000000000000c utee_se_channel_transmit
0000000000004bd8 g     F .text	000000000000003c putchar
0000000000009fa8 g     F .text	000000000000001c mpa_init_static
0000000000003c10 g     F .text	00000000000000c0 TEE_PopulateTransientObject
0000000000006dbc g     F .text	0000000000000054 mpa_copy
0000000000003280 g     F .text	000000000000001c TEE_BigIntConvertToFMM
0000000000003160 g     F .text	000000000000000c TEE_BigIntSquareMod
0000000000002de0 g     F .text	0000000000000004 TEE_BigIntShiftRight
00000000000076c4 g     F .text	0000000000000074 mpa_get_S32
0000000000006e40 g     F .text	0000000000000044 mpa_highest_bit_index
0000000000002b4c g     F .text	000000000000000c utee_storage_obj_create
0000000000002c60 g     F .text	000000000000000c utee_se_session_close
0000000000002954 g     F .text	000000000000000c utee_return
0000000000001084 g     F .text	0000000000000070 TEE_DigestUpdate
0000000000002c00 g     F .text	000000000000000c utee_se_service_get_readers
00000000000037d4 g     F .text	0000000000000008 TEE_Realloc
00000000000077b4 g     F .text	0000000000000148 __mpa_div_q_r_internal_word
00000000000048c0 g     F .text	00000000000000bc tee_user_mem_realloc
0000000000000dd4 g     F .text	0000000000000190 TEE_SetOperationKey2
00000000000097e0 g     F .text	000000000000019c mpa_sub
0000000000004acc g     F .text	00000000000000cc printf
000000000000477c g     F .text	0000000000000144 tee_user_mem_free
0000000000002960 g     F .text	000000000000000c utee_log
000000000000b9e0 g     O .rodata	0000000000000004 NR_STORED_PRIMES
0000000000003cd0 g     F .text	0000000000000054 TEE_InitRefAttribute
0000000000003504 g     F .text	00000000000000b4 TEE_InvokeTACommand
0000000000006ec8 g     F .text	000000000000001c mpa_can_hold
0000000000008a98 g     F .text	0000000000000098 __mpa_abs_mul_word
0000000000001ac8 g     F .text	00000000000001a8 TEE_AEEncryptFinal
0000000000007264 g     F .text	0000000000000088 mpa_montgomery_mul
00000000000069d0 g     F .text	0000000000000054 vsnprintk
0000000000006ee4 g     F .text	000000000000000c mpa_parity
0000000000005da4 g     F .text	000000000000004c memmove
0000000000009368 g     F .text	0000000000000020 __mpa_full_adder_ackum
0000000000005c84 g     F .text	0000000000000078 snprintf
0000000000002ddc g     F .text	0000000000000004 TEE_BigIntCmpS32
0000000000003d24 g     F .text	0000000000000050 TEE_InitValueAttribute
0000000000002e18 g     F .text	000000000000000c TEE_BigIntAdd
0000000000002984 g     F .text	000000000000000c utee_get_property_name_to_index
000000000000aad0 g     O .rodata	0000000000000008 ta_heap_size
000000000000b9e4 g     O .rodata	0000000000000004 MAX_TABULATED_PRIME
0000000000003bbc g     F .text	0000000000000054 TEE_ResetTransientObject
00000000000044b4 g     F .text	0000000000000004 utee_malloc
0000000000002a08 g     F .text	000000000000000c utee_cryp_state_alloc
0000000000002b10 g     F .text	000000000000000c utee_authenc_enc_final
0000000000008a78 g     F .text	0000000000000020 __mpa_mul_add_word_cum
00000000000011b8 g     F .text	00000000000000a4 TEE_CipherInit
0000000000002e30 g     F .text	0000000000000004 TEE_BigIntNeg
0000000000007f84 g     F .text	00000000000000f0 mpa_div
0000000000000020 g       .text	0000000000000000 __text_start
00000000000041e0 g     F .text	0000000000000050 TEE_StartPersistentObjectEnumerator
000000000000ac80 g     O .rodata	000000000000000c const_one
0000000000005c18 g     F .text	000000000000006c malloc_buffer_overlaps_heap
0000000000009ce8 g     F .text	0000000000000018 __mpa_abs_less_than
0000000000002ff0 g     F .text	00000000000000a8 TEE_BigIntSubMod
0000000000001820 g     F .text	00000000000000c4 TEE_AEInit
0000000000008dd8 g     F .text	0000000000000114 mpa_get_random
00000000000044d0 g     F .text	0000000000000004 get_rng_array
0000000000006b0c g     F .text	000000000000022c trace_printf
0000000000002be8 g     F .text	000000000000000c utee_se_service_open
0000000000005d84 g     F .text	0000000000000020 memcpy
0000000000002a20 g     F .text	000000000000000c utee_cryp_state_free
0000000000006d8c g     F .text	0000000000000030 mpa_wipe
000000000000329c g     F .text	0000000000000094 TEE_BigIntConvertFromFMM
0000000000002680 g     F .text	0000000000000008 TEE_Panic
0000000000002c78 g     F .text	000000000000000c utee_se_channel_get_select_resp
0000000000000f64 g     F .text	0000000000000120 TEE_CopyOperation
0000000000004b98 g     F .text	0000000000000040 puts
0000000000003330 g     F .text	0000000000000010 TEE_BigIntComputeFMM
0000000000007738 g     F .text	0000000000000014 mpa_set_word
0000000000005510 g     F .text	0000000000000038 malloc_get_stats
0000000000009054 g     F .text	0000000000000190 mpa_shift_left
0000000000002a68 g     F .text	000000000000000c utee_cipher_final
0000000000008c24 g     F .text	00000000000000e4 mpa_mul
00000000000037a4 g     F .text	0000000000000028 TEE_GetREETime
0000000000004134 g     F .text	000000000000005c TEE_AllocatePersistentObjectEnumerator
000000000000d000 g     O .data	00000000000000d8 ta_props
0000000000001e08 g     F .text	0000000000000144 TEE_AsymmetricEncrypt
0000000000005548 g     F .text	0000000000000038 malloc
0000000000002aa4 g     F .text	000000000000000c utee_cryp_obj_close
0000000000002c24 g     F .text	000000000000000c utee_se_reader_open_session
0000000000005cfc g     F .text	0000000000000054 vsnprintf
0000000000003e74 g     F .text	0000000000000084 TEE_GenerateKey
000000000000d120 g     O .data	0000000000000004 trace_level
00000000000044ac g     F .text	0000000000000008 utee_get_ta_exec_id
0000000000002dd8 g     F .text	0000000000000004 TEE_BigIntCmp
00000000000044b8 g     F .text	0000000000000004 utee_realloc
000000000000aab8 g     O .rodata	0000000000000008 ta_num_props
00000000000052d8 g     F .text	000000000000009c bgetr
0000000000002b04 g     F .text	000000000000000c utee_authenc_update_payload
000000000000125c g     F .text	000000000000015c TEE_CipherUpdate
0000000000002d74 g     F .text	0000000000000040 TEE_BigIntConvertToOctetString
0000000000000b24 g     F .text	0000000000000148 TEE_GetOperationInfoMultiple
0000000000002c9c g     F .text	000000000000000c utee_cache_operation
0000000000002aec g     F .text	000000000000000c utee_authenc_init
0000000000002de4 g     F .text	000000000000001c TEE_BigIntGetBit
000000000000aad8 g     O .rodata	0000000000000008 trace_ext_prefix
0000000000009388 g     F .text	00000000000000f4 __mpa_abs_add
0000000000004fa4 g     F .text	0000000000000088 bgetz
000000000000365c g     F .text	000000000000000c TEE_GetInstanceData
00000000000036a8 g     F .text	000000000000003c TEE_Wait
0000000000002bb8 g     F .text	000000000000000c utee_storage_obj_write
0000000000008a14 g     F .text	000000000000004c mpa_free_static_temp_var
00000000000072ec g     F .text	00000000000003ac mpa_is_prob_prime
0000000000002c90 g     F .text	000000000000000c utee_se_channel_close
0000000000008d08 g     F .text	00000000000000c4 mpa_mul_word
00000000000037e8 g     F .text	0000000000000008 TEE_CacheFlush
0000000000000054 g     F .text	0000000000000024 TA_DestroyEntryPoint
0000000000004c14 g     F .text	0000000000000044 _assert_log
0000000000002d38 g     F .text	0000000000000014 TEE_BigIntFMMContextSizeInU32
0000000000001760 g     F .text	00000000000000c0 TEE_MACCompareFinal
00000000000040c8 g     F .text	000000000000006c TEE_RenamePersistentObject
00000000000010f4 g     F .text	00000000000000c4 TEE_DigestDoFinal
00000000000078fc g     F .text	0000000000000688 __mpa_div_q_r
0000000000002cac g     F .text	000000000000002c _TEE_MathAPI_Init
0000000000002ba0 g     F .text	000000000000000c utee_storage_next_enum
000000000000d128 g     O .bss	0000000000008000 ta_heap
000000000000316c g     F .text	000000000000006c TEE_BigIntInvMod
00000000000000e4 g     F .text	0000000000000024 TA_CloseSessionEntryPoint
0000000000001f4c g     F .text	0000000000000148 TEE_AsymmetricDecrypt
0000000000003ef8 g     F .text	0000000000000098 TEE_OpenPersistentObject
000000000000296c g     F .text	000000000000000c __utee_panic
0000000000002a14 g     F .text	000000000000000c utee_cryp_state_copy
0000000000000108 g     F .text	0000000000000164 TA_InvokeCommandEntryPoint
000000000000a4e4 g     F .text	0000000000000110 mpa_set_oct_str
0000000000002c54 g     F .text	000000000000000c utee_se_session_open_channel
0000000000008f58 g     F .text	0000000000000098 __mpa_shift_words_left
0000000000002a98 g     F .text	000000000000000c utee_cryp_obj_alloc
00000000000029fc g     F .text	000000000000000c utee_set_ta_time
0000000000002a8c g     F .text	000000000000000c utee_cryp_obj_get_attr
0000000000003e20 g     F .text	0000000000000054 TEE_CopyObjectAttributes
0000000000006f74 g     F .text	0000000000000090 __mpa_montgomery_sub_ack
000000000000558c g     F .text	000000000000004c calloc
00000000000037cc g     F .text	0000000000000008 TEE_Malloc
00000000000029d8 g     F .text	000000000000000c utee_mask_cancellation
0000000000002ab0 g     F .text	000000000000000c utee_cryp_obj_reset
000000000000363c g     F .text	0000000000000014 TEE_CheckMemoryAccessRights
0000000000017d48 g       .bss	0000000000000000 __gprof_buf_end
000000000000997c g     F .text	000000000000002c mpa_neg
000000000000acb0 g     O .rodata	0000000000000c38 PRIME_TABLE
00000000000042b4 g     F .text	0000000000000068 TEE_ReadObjectData
0000000000003960 g     F .text	00000000000000ac TEE_GetObjectBufferAttribute
0000000000000078 g     F .text	000000000000006c TA_OpenSessionEntryPoint
00000000000085e0 g     F .text	0000000000000120 mpa_gcd
0000000000006e10 g     F .text	0000000000000030 mpa_abs
0000000000002b94 g     F .text	000000000000000c utee_storage_start_enum
0000000000000274 g     F .text	0000000000000044 TEE_FreeOperation
000000000000a1c8 g     F .text	0000000000000298 mpa_set_str
0000000000002b64 g     F .text	000000000000000c utee_storage_obj_rename
0000000000015128 g     O .bss	0000000000000004 ta_param_types
00000000000037f8 g     F .text	000000000000004c __utee_from_attr
000000000000325c g     F .text	0000000000000024 TEE_BigIntIsProbablePrime
0000000000004058 g     F .text	0000000000000044 TEE_CloseAndDeletePersistentObject1
0000000000008a04 g     F .text	0000000000000010 mpa_alloc_static_temp_var
0000000000008dcc g     F .text	000000000000000c mpa_set_random_generator
0000000000002978 g     F .text	000000000000000c utee_get_property
0000000000001c70 g     F .text	0000000000000198 TEE_AEDecryptFinal
0000000000002cd8 g     F .text	0000000000000004 TEE_BigIntInit
0000000000003668 g     F .text	0000000000000008 TEE_MemMove
0000000000002d4c g     F .text	0000000000000028 TEE_BigIntConvertFromOctetString
000000000000d0d8 g     O .data	0000000000000008 _ref__utee_mcount
0000000000001560 g     F .text	00000000000000a4 TEE_MACInit
0000000000002094 g     F .text	000000000000013c TEE_AsymmetricSignDigest
0000000000006d3c g     F .text	000000000000002c memchr
00000000000035e4 g     F .text	000000000000002c TEE_UnmaskCancellation
0000000000003844 g     F .text	0000000000000048 TEE_GetObjectInfo
000000000000a888 g     F .text	0000000000000084 mpa_mul_mod
0000000000002b58 g     F .text	000000000000000c utee_storage_obj_del
0000000000001978 g     F .text	0000000000000150 TEE_AEUpdate
0000000000002bd0 g     F .text	000000000000000c utee_storage_obj_seek
0000000000003b68 g     F .text	0000000000000054 TEE_FreeTransientObject
0000000000007128 g     F .text	000000000000013c mpa_compute_fmm_context
0000000000002a38 g     F .text	000000000000000c utee_hash_update
00000000000088ec g     F .text	0000000000000018 mpa_init_scratch_mem_sync
0000000000002ca8  w    F .text	0000000000000004 __utee_mcount
0000000000000adc g     F .text	0000000000000048 TEE_GetOperationInfo
0000000000002eb4 g     F .text	0000000000000094 TEE_BigIntMod
0000000000002c6c g     F .text	000000000000000c utee_se_channel_select_next
000000000000299c g     F .text	000000000000000c utee_close_ta_session
0000000000002e50 g     F .text	0000000000000064 TEE_BigIntDiv
00000000000054f8 g     F .text	0000000000000018 malloc_reset_stats
0000000000002a5c g     F .text	000000000000000c utee_cipher_update
00000000000038cc g     F .text	0000000000000044 TEE_RestrictObjectUsage1
0000000000002c48 g     F .text	000000000000000c utee_se_session_get_atr
00000000000055d8 g     F .text	0000000000000038 realloc
000000000000947c g     F .text	00000000000000cc __mpa_abs_add_ackum
0000000000002b34 g     F .text	000000000000000c utee_asymm_verify
0000000000002e34 g     F .text	000000000000000c TEE_BigIntMul
0000000000000c6c g     F .text	0000000000000078 TEE_ResetOperation
000000000000774c g     F .text	0000000000000018 mpa_get_word
0000000000003678 g     F .text	0000000000000008 TEE_MemFill
0000000000005d50 g     F .text	0000000000000034 memcmp
00000000000059a0 g     F .text	00000000000000f8 malloc_add_pool
0000000000001604 g     F .text	00000000000000a0 TEE_MACUpdate
0000000000006afc g     F .text	0000000000000010 trace_get_level
0000000000002ae0 g     F .text	000000000000000c utee_cryp_random_number_generate
0000000000003910 g     F .text	0000000000000050 TEE_RestrictObjectUsage
0000000000002d28 g     F .text	0000000000000010 TEE_BigIntFMMSizeInU32
0000000000002cdc g     F .text	0000000000000014 TEE_BigIntInitFMM
0000000000002b28 g     F .text	000000000000000c utee_asymm_operate
0000000000003adc g     F .text	0000000000000028 TEE_CloseObject
000000000000272c g     F .text	000000000000021c __utee_entry
000000000000aa20 g       .text	0000000000000000 __text_end
00000000000031d8 g     F .text	0000000000000078 TEE_BigIntRelativePrime
0000000000008eec g     F .text	000000000000006c mpa_get_random_digits
0000000000005374 g     F .text	00000000000000dc bpool
0000000000007698 g     F .text	000000000000002c mpa_set_S32
0000000000009fc4 g     F .text	0000000000000068 mpa_init_static_fmm_context
00000000000035b8 g     F .text	000000000000002c TEE_GetCancellationFlag
0000000000002bf4 g     F .text	000000000000000c utee_se_service_close
0000000000004630 g     F .text	000000000000014c tee_user_mem_alloc
000000000000d0f0 g     O .data	0000000000000010 user_mem_head
0000000000003764 g     F .text	0000000000000040 TEE_SetTAPersistentTime
00000000000099a8 g     F .text	000000000000013c mpa_add_word
0000000000002c0c g     F .text	000000000000000c utee_se_reader_get_prop
0000000000005df0 g     F .text	000000000000001c memset
00000000000036e4 g     F .text	0000000000000080 TEE_GetTAPersistentTime
0000000000006d38 g     F .text	0000000000000004 dhex_dump
0000000000003f90 g     F .text	00000000000000c8 TEE_CreatePersistentObject
0000000000003610 g     F .text	000000000000002c TEE_MaskCancellation
0000000000009344 g     F .text	0000000000000024 __mpa_full_sub
0000000000002bac g     F .text	000000000000000c utee_storage_obj_read
00000000000018e4 g     F .text	0000000000000094 TEE_AEUpdateAAD
0000000000004380 g     F .text	000000000000005c TEE_TruncateObjectData
00000000000044bc g     F .text	0000000000000010 utee_calloc
0000000000002abc g     F .text	000000000000000c utee_cryp_obj_populate
0000000000009d00 g     F .text	0000000000000068 mpa_cmp
000000000000a90c g     F .text	0000000000000114 mpa_inv_mod
0000000000009ae4 g     F .text	0000000000000138 mpa_sub_word
0000000000008a60 g     F .text	0000000000000018 __mpa_mul_add_word
000000000000964c g     F .text	0000000000000194 mpa_add
0000000000009dec g     F .text	00000000000001bc mpa_exp_mod
000000000000388c g     F .text	0000000000000040 TEE_GetObjectInfo1
0000000000008ff0 g     F .text	0000000000000064 __mpa_shift_words_right
0000000000006ad8 g     F .text	0000000000000024 trace_set_level
0000000000002c3c g     F .text	000000000000000c utee_se_session_is_closed
0000000000002a74 g     F .text	000000000000000c utee_cryp_obj_get_info
0000000000003a0c g     F .text	00000000000000d0 TEE_GetObjectValueAttribute
0000000000000ce4 g     F .text	00000000000000f0 TEE_SetOperationKey
0000000000002b70 g     F .text	000000000000000c utee_storage_alloc_enum
0000000000002b88 g     F .text	000000000000000c utee_storage_reset_enum
0000000000002bc4 g     F .text	000000000000000c utee_storage_obj_trunc
000000000000a768 g     F .text	0000000000000018 mpa_mod
0000000000009ccc g     F .text	000000000000001c __mpa_abs_greater_than
0000000000002db8 g     F .text	0000000000000020 TEE_BigIntConvertToS32
0000000000002e24 g     F .text	000000000000000c TEE_BigIntSub
00000000000029b4 g     F .text	000000000000000c utee_get_cancellation_flag
0000000000002a2c g     F .text	000000000000000c utee_hash_init
000000000000026c g     F .text	0000000000000008 tahead_get_trace_level
0000000000003368 g     F .text	0000000000000078 __utee_from_param
00000000000043dc g     F .text	00000000000000d0 TEE_SeekObjectData
000000000000ac90 g     O .rodata	0000000000000010 Const_1_LShift_Base
00000000000033e0 g     F .text	000000000000006c __utee_to_param
0000000000005610 g     F .text	0000000000000390 memalign
00000000000013b8 g     F .text	00000000000001a8 TEE_CipherDoFinal
0000000000002db4 g     F .text	0000000000000004 TEE_BigIntConvertFromS32
000000000000a804 g     F .text	0000000000000084 mpa_sub_mod
0000000000002a80 g     F .text	000000000000000c utee_cryp_obj_restrict_usage
0000000000005a98 g     F .text	0000000000000180 malloc_buffer_is_within_alloced
0000000000002ac8 g     F .text	000000000000000c utee_cryp_obj_copy
00000000000091e4 g     F .text	0000000000000144 mpa_shift_right
0000000000002cf0 g     F .text	0000000000000038 TEE_BigIntInitFMMContext
0000000000002ad4 g     F .text	000000000000000c utee_cryp_derive_key
0000000000007004 g     F .text	0000000000000124 __mpa_montgomery_mul
000000000000a5f4 g     F .text	0000000000000174 mpa_get_oct_str
0000000000009d68 g     F .text	0000000000000084 mpa_cmp_short
0000000000002b1c g     F .text	000000000000000c utee_authenc_dec_final
000000000000431c g     F .text	0000000000000064 TEE_WriteObjectData
00000000000041b8 g     F .text	0000000000000028 TEE_ResetPersistentObjectEnumerator
0000000000009c1c g     F .text	00000000000000b0 __mpa_abs_cmp
0000000000002e40 g     F .text	0000000000000010 TEE_BigIntSquare
0000000000000020 g     F .text	0000000000000034 TA_CreateEntryPoint
0000000000006a24 g     F .text	0000000000000074 snprintk
0000000000002e00 g     F .text	0000000000000018 TEE_BigIntGetBitCount
0000000000003098 g     F .text	00000000000000c8 TEE_BigIntMulMod
00000000000022fc g     F .text	0000000000000144 TEE_DeriveKey
0000000000015130 g     O .bss	0000000000000040 ta_params
0000000000008b30 g     F .text	00000000000000f4 __mpa_abs_mul
0000000000004dc8 g     F .text	00000000000001dc bget
0000000000003b04 g     F .text	0000000000000064 TEE_AllocateTransientObject
00000000000037dc g     F .text	0000000000000004 TEE_Free
0000000000002c18 g     F .text	000000000000000c utee_se_reader_get_name
00000000000037f0 g     F .text	0000000000000008 TEE_CacheInvalidate
0000000000002a50 g     F .text	000000000000000c utee_cipher_init
0000000000004c58 g     F .text	0000000000000014 _assert_break
0000000000002f48 g     F .text	00000000000000a8 TEE_BigIntAddMod
0000000000002b7c g     F .text	000000000000000c utee_storage_free_enum
0000000000002af8 g     F .text	000000000000000c utee_authenc_update_aad
0000000000006e84 g     F .text	0000000000000044 mpa_get_bit
00000000000002b8 g     F .text	0000000000000824 TEE_AllocateOperation
0000000000008904 g     F .text	0000000000000018 mpa_init_scratch_mem
0000000000002440 g     F .text	0000000000000024 TEE_GenerateRandom
0000000000003670 g     F .text	0000000000000008 TEE_MemCompare
0000000000005e28 g     F .text	0000000000000ba8 __vsnprintf
0000000000004190 g     F .text	0000000000000028 TEE_FreePersistentObjectEnumerator
000000000000344c g     F .text	0000000000000090 TEE_OpenTASession
0000000000002948 g     F .text	000000000000000c utee_panic
0000000000004a9c g     F .text	0000000000000028 trace_ext_puts
0000000000004a24 g     F .text	0000000000000078 tee_user_mem_garbage
0000000000004ac4 g     F .text	0000000000000008 trace_ext_get_thread_id
000000000000409c g     F .text	000000000000002c TEE_CloseAndDeletePersistentObject
00000000000037e0 g     F .text	0000000000000008 TEE_CacheClean
0000000000002990 g     F .text	000000000000000c utee_open_ta_session
0000000000006a98 g     F .text	0000000000000040 buf_compare_ct
0000000000007764 g     F .text	0000000000000050 __mpa_div_dword
0000000000006d68 g     F .text	0000000000000024 __mpa_set_unused_digits_to_zero
000000000000aca0 g     O .rodata	000000000000000c const_largest_deci_base
000000000000a1c0 g     F .text	0000000000000008 mpa_get_str_size
0000000000004988 g     F .text	000000000000009c tee_user_mem_check_heap
0000000000003d74 g     F .text	00000000000000ac TEE_CopyObjectAttributes1
0000000000002a44 g     F .text	000000000000000c utee_hash_final
0000000000005e0c g     F .text	000000000000001c strlen
0000000000003250 g     F .text	000000000000000c TEE_BigIntComputeExtendedGcd
0000000000008700 g     F .text	00000000000001ec mpa_extended_gcd
000000000000a780 g     F .text	0000000000000084 mpa_add_mod
0000000000002b40 g     F .text	000000000000000c utee_storage_obj_open
00000000000029a8 g     F .text	000000000000000c utee_invoke_ta_command
000000000000a460 g     F .text	0000000000000084 mpa_get_str
00000000000029e4 g     F .text	000000000000000c utee_wait
00000000000044cc g     F .text	0000000000000004 utee_free
000000000000497c g     F .text	000000000000000c tee_user_mem_mark_heap
0000000000003680 g     F .text	0000000000000028 TEE_GetSystemTime
0000000000000000 g     O .ta_head	0000000000000020 ta_head
000000000000502c g     F .text	00000000000002ac brel
000000000000891c g     F .text	00000000000000e8 mpa_alloc_static_temp_var_size
00000000000029f0 g     F .text	000000000000000c utee_get_time
0000000000006efc g     F .text	0000000000000078 __mpa_montgomery_mul_add
0000000000003650 g     F .text	000000000000000c TEE_SetInstanceData
00000000000029cc g     F .text	000000000000000c utee_unmask_cancellation
00000000000029c0 g     F .text	000000000000000c utee_check_access_rights
0000000000002c30 g     F .text	000000000000000c utee_se_reader_close_sessions
0000000000004230 g     F .text	0000000000000084 TEE_GetNextPersistentObject
0000000000002bdc g     F .text	000000000000000c utee_cryp_obj_generate_key
00000000000034dc g     F .text	0000000000000028 TEE_CloseTASession
0000000000006ef0 g     F .text	000000000000000c mpa_constant_one
00000000000021d0 g     F .text	000000000000012c TEE_AsymmetricVerifyDigest
0000000000009328 g     F .text	000000000000001c __mpa_full_adder
0000000000009548 g     F .text	0000000000000104 __mpa_abs_sub
0000000000017d48 g       .bss	0000000000000000 __gprof_buf_start
0000000000005580 g     F .text	000000000000000c free
0000000000005450 g     F .text	00000000000000a8 bstats
00000000000016a4 g     F .text	00000000000000bc TEE_MACComputeFinal



Disassembly of section .text:

0000000000000020 <TA_CreateEntryPoint>:
TA_CreateEntryPoint():
/home/asaf/devel/optee/optee_examples/crypto/ta/hello_world_ta.c:41
      20:	a9bf7bfd 	stp	x29, x30, [sp,#-16]!
/home/asaf/devel/optee/optee_examples/crypto/ta/hello_world_ta.c:42
      24:	52800023 	mov	w3, #0x1                   	// #1
      28:	52800062 	mov	w2, #0x3                   	// #3
      2c:	52800541 	mov	w1, #0x2a                  	// #42
/home/asaf/devel/optee/optee_examples/crypto/ta/hello_world_ta.c:41
      30:	910003fd 	mov	x29, sp
/home/asaf/devel/optee/optee_examples/crypto/ta/hello_world_ta.c:42
      34:	f0000044 	adrp	x4, b000 <PRIME_TABLE+0x350>
      38:	91284c84 	add	x4, x4, #0xa13
      3c:	d0000040 	adrp	x0, a000 <mpa_init_static_fmm_context+0x3c>
      40:	9128a000 	add	x0, x0, #0xa28
      44:	94001ab2 	bl	6b0c <trace_printf>
/home/asaf/devel/optee/optee_examples/crypto/ta/hello_world_ta.c:45
      48:	52800000 	mov	w0, #0x0                   	// #0
      4c:	a8c17bfd 	ldp	x29, x30, [sp],#16
      50:	d65f03c0 	ret

0000000000000054 <TA_DestroyEntryPoint>:
TA_DestroyEntryPoint():
/home/asaf/devel/optee/optee_examples/crypto/ta/hello_world_ta.c:53
      54:	d0000040 	adrp	x0, a000 <mpa_init_static_fmm_context+0x3c>
      58:	9128a000 	add	x0, x0, #0xa28
      5c:	f0000044 	adrp	x4, b000 <PRIME_TABLE+0x350>
      60:	52800023 	mov	w3, #0x1                   	// #1
      64:	91284c84 	add	x4, x4, #0xa13
      68:	52800062 	mov	w2, #0x3                   	// #3
      6c:	528006a1 	mov	w1, #0x35                  	// #53
      70:	91006000 	add	x0, x0, #0x18
      74:	14001aa6 	b	6b0c <trace_printf>

0000000000000078 <TA_OpenSessionEntryPoint>:
TA_OpenSessionEntryPoint():
/home/asaf/devel/optee/optee_examples/crypto/ta/hello_world_ta.c:65
      78:	a9be7bfd 	stp	x29, x30, [sp,#-32]!
/home/asaf/devel/optee/optee_examples/crypto/ta/hello_world_ta.c:71
      7c:	f0000044 	adrp	x4, b000 <PRIME_TABLE+0x350>
      80:	52800023 	mov	w3, #0x1                   	// #1
      84:	91284c84 	add	x4, x4, #0xa13
/home/asaf/devel/optee/optee_examples/crypto/ta/hello_world_ta.c:65
      88:	910003fd 	mov	x29, sp
      8c:	a90153f3 	stp	x19, x20, [sp,#16]
/home/asaf/devel/optee/optee_examples/crypto/ta/hello_world_ta.c:71
      90:	d0000053 	adrp	x19, a000 <mpa_init_static_fmm_context+0x3c>
      94:	9128a273 	add	x19, x19, #0xa28
/home/asaf/devel/optee/optee_examples/crypto/ta/hello_world_ta.c:65
      98:	2a0003f4 	mov	w20, w0
/home/asaf/devel/optee/optee_examples/crypto/ta/hello_world_ta.c:71
      9c:	9100c273 	add	x19, x19, #0x30
      a0:	52800062 	mov	w2, #0x3                   	// #3
      a4:	aa1303e0 	mov	x0, x19
      a8:	528008e1 	mov	w1, #0x47                  	// #71
      ac:	94001a98 	bl	6b0c <trace_printf>
/home/asaf/devel/optee/optee_examples/crypto/ta/hello_world_ta.c:74
      b0:	129fff20 	mov	w0, #0xffff0006            	// #-65530
/home/asaf/devel/optee/optee_examples/crypto/ta/hello_world_ta.c:73
      b4:	35000134 	cbnz	w20, d8 <TA_OpenSessionEntryPoint+0x60>
/home/asaf/devel/optee/optee_examples/crypto/ta/hello_world_ta.c:84
      b8:	aa1303e0 	mov	x0, x19
      bc:	f0000044 	adrp	x4, b000 <PRIME_TABLE+0x350>
      c0:	52800023 	mov	w3, #0x1                   	// #1
      c4:	91288c84 	add	x4, x4, #0xa23
      c8:	52800042 	mov	w2, #0x2                   	// #2
      cc:	52800a81 	mov	w1, #0x54                  	// #84
      d0:	94001a8f 	bl	6b0c <trace_printf>
/home/asaf/devel/optee/optee_examples/crypto/ta/hello_world_ta.c:87
      d4:	52800000 	mov	w0, #0x0                   	// #0
/home/asaf/devel/optee/optee_examples/crypto/ta/hello_world_ta.c:88
      d8:	a94153f3 	ldp	x19, x20, [sp,#16]
      dc:	a8c27bfd 	ldp	x29, x30, [sp],#32
      e0:	d65f03c0 	ret

00000000000000e4 <TA_CloseSessionEntryPoint>:
TA_CloseSessionEntryPoint():
/home/asaf/devel/optee/optee_examples/crypto/ta/hello_world_ta.c:97
      e4:	d0000040 	adrp	x0, a000 <mpa_init_static_fmm_context+0x3c>
      e8:	9128a000 	add	x0, x0, #0xa28
      ec:	f0000044 	adrp	x4, b000 <PRIME_TABLE+0x350>
      f0:	52800023 	mov	w3, #0x1                   	// #1
      f4:	9128c484 	add	x4, x4, #0xa31
      f8:	52800042 	mov	w2, #0x2                   	// #2
      fc:	52800c21 	mov	w1, #0x61                  	// #97
     100:	91014000 	add	x0, x0, #0x50
     104:	14001a82 	b	6b0c <trace_printf>

0000000000000108 <TA_InvokeCommandEntryPoint>:
TA_InvokeCommandEntryPoint():
/home/asaf/devel/optee/optee_examples/crypto/ta/hello_world_ta.c:169
     108:	7100103f 	cmp	w1, #0x4
     10c:	54000ac8 	b.hi	264 <TA_InvokeCommandEntryPoint+0x15c>
/home/asaf/devel/optee/optee_examples/crypto/ta/hello_world_ta.c:166
     110:	a9bc7bfd 	stp	x29, x30, [sp,#-64]!
/home/asaf/devel/optee/optee_examples/crypto/ta/hello_world_ta.c:169
     114:	d0000040 	adrp	x0, a000 <mpa_init_static_fmm_context+0x3c>
     118:	91288000 	add	x0, x0, #0xa20
/home/asaf/devel/optee/optee_examples/crypto/ta/hello_world_ta.c:166
     11c:	910003fd 	mov	x29, sp
     120:	a90153f3 	stp	x19, x20, [sp,#16]
     124:	aa0303f3 	mov	x19, x3
     128:	f90013f5 	str	x21, [sp,#32]
     12c:	2a0203f5 	mov	w21, w2
/home/asaf/devel/optee/optee_examples/crypto/ta/hello_world_ta.c:169
     130:	38614800 	ldrb	w0, [x0,w1,uxtw]
     134:	10000061 	adr	x1, 140 <TA_InvokeCommandEntryPoint+0x38>
     138:	8b208820 	add	x0, x1, w0, sxtb #2
     13c:	d61f0000 	br	x0
inc_value():
/home/asaf/devel/optee/optee_examples/crypto/ta/hello_world_ta.c:108
     140:	d0000054 	adrp	x20, a000 <mpa_init_static_fmm_context+0x3c>
     144:	9128a294 	add	x20, x20, #0xa28
     148:	9101c294 	add	x20, x20, #0x70
     14c:	f0000044 	adrp	x4, b000 <PRIME_TABLE+0x350>
     150:	52800023 	mov	w3, #0x1                   	// #1
     154:	91284c84 	add	x4, x4, #0xa13
     158:	52800062 	mov	w2, #0x3                   	// #3
     15c:	52800d81 	mov	w1, #0x6c                  	// #108
     160:	aa1403e0 	mov	x0, x20
     164:	94001a6a 	bl	6b0c <trace_printf>
/home/asaf/devel/optee/optee_examples/crypto/ta/hello_world_ta.c:110
     168:	71000ebf 	cmp	w21, #0x3
     16c:	540000c0 	b.eq	184 <TA_InvokeCommandEntryPoint+0x7c>
/home/asaf/devel/optee/optee_examples/crypto/ta/hello_world_ta.c:111
     170:	129fff20 	mov	w0, #0xffff0006            	// #-65530
TA_InvokeCommandEntryPoint():
/home/asaf/devel/optee/optee_examples/crypto/ta/hello_world_ta.c:181
     174:	a94153f3 	ldp	x19, x20, [sp,#16]
     178:	f94013f5 	ldr	x21, [sp,#32]
     17c:	a8c47bfd 	ldp	x29, x30, [sp],#64
     180:	d65f03c0 	ret
inc_value():
/home/asaf/devel/optee/optee_examples/crypto/ta/hello_world_ta.c:113
     184:	b9400265 	ldr	w5, [x19]
     188:	52800023 	mov	w3, #0x1                   	// #1
     18c:	52800042 	mov	w2, #0x2                   	// #2
     190:	52800e21 	mov	w1, #0x71                  	// #113
     194:	f0000044 	adrp	x4, b000 <PRIME_TABLE+0x350>
     198:	aa1403e0 	mov	x0, x20
     19c:	9128ec84 	add	x4, x4, #0xa3b
     1a0:	94001a5b 	bl	6b0c <trace_printf>
/home/asaf/devel/optee/optee_examples/crypto/ta/hello_world_ta.c:114
     1a4:	b9400265 	ldr	w5, [x19]
/home/asaf/devel/optee/optee_examples/crypto/ta/hello_world_ta.c:115
     1a8:	f0000044 	adrp	x4, b000 <PRIME_TABLE+0x350>
     1ac:	91294484 	add	x4, x4, #0xa51
     1b0:	52800023 	mov	w3, #0x1                   	// #1
/home/asaf/devel/optee/optee_examples/crypto/ta/hello_world_ta.c:114
     1b4:	110004a5 	add	w5, w5, #0x1
/home/asaf/devel/optee/optee_examples/crypto/ta/hello_world_ta.c:115
     1b8:	52800042 	mov	w2, #0x2                   	// #2
     1bc:	52800e61 	mov	w1, #0x73                  	// #115
/home/asaf/devel/optee/optee_examples/crypto/ta/hello_world_ta.c:114
     1c0:	b9000265 	str	w5, [x19]
dec_value():
/home/asaf/devel/optee/optee_examples/crypto/ta/hello_world_ta.c:154
     1c4:	aa1403e0 	mov	x0, x20
     1c8:	94001a51 	bl	6b0c <trace_printf>
TA_InvokeCommandEntryPoint():
/home/asaf/devel/optee/optee_examples/crypto/ta/hello_world_ta.c:177
     1cc:	52800000 	mov	w0, #0x0                   	// #0
     1d0:	17ffffe9 	b	174 <TA_InvokeCommandEntryPoint+0x6c>
dec_value():
/home/asaf/devel/optee/optee_examples/crypto/ta/hello_world_ta.c:147
     1d4:	d0000054 	adrp	x20, a000 <mpa_init_static_fmm_context+0x3c>
     1d8:	9128a294 	add	x20, x20, #0xa28
     1dc:	91020294 	add	x20, x20, #0x80
     1e0:	f0000044 	adrp	x4, b000 <PRIME_TABLE+0x350>
     1e4:	52800023 	mov	w3, #0x1                   	// #1
     1e8:	91284c84 	add	x4, x4, #0xa13
     1ec:	52800062 	mov	w2, #0x3                   	// #3
     1f0:	52801261 	mov	w1, #0x93                  	// #147
     1f4:	aa1403e0 	mov	x0, x20
     1f8:	94001a45 	bl	6b0c <trace_printf>
/home/asaf/devel/optee/optee_examples/crypto/ta/hello_world_ta.c:149
     1fc:	71000ebf 	cmp	w21, #0x3
     200:	54fffb81 	b.ne	170 <TA_InvokeCommandEntryPoint+0x68>
/home/asaf/devel/optee/optee_examples/crypto/ta/hello_world_ta.c:152
     204:	b9400265 	ldr	w5, [x19]
     208:	52800023 	mov	w3, #0x1                   	// #1
     20c:	52800042 	mov	w2, #0x2                   	// #2
     210:	52801301 	mov	w1, #0x98                  	// #152
     214:	f0000044 	adrp	x4, b000 <PRIME_TABLE+0x350>
     218:	aa1403e0 	mov	x0, x20
     21c:	9128ec84 	add	x4, x4, #0xa3b
     220:	94001a3b 	bl	6b0c <trace_printf>
/home/asaf/devel/optee/optee_examples/crypto/ta/hello_world_ta.c:153
     224:	b9400265 	ldr	w5, [x19]
/home/asaf/devel/optee/optee_examples/crypto/ta/hello_world_ta.c:154
     228:	f0000044 	adrp	x4, b000 <PRIME_TABLE+0x350>
     22c:	52800023 	mov	w3, #0x1                   	// #1
     230:	91299c84 	add	x4, x4, #0xa67
/home/asaf/devel/optee/optee_examples/crypto/ta/hello_world_ta.c:153
     234:	510004a5 	sub	w5, w5, #0x1
/home/asaf/devel/optee/optee_examples/crypto/ta/hello_world_ta.c:154
     238:	52800042 	mov	w2, #0x2                   	// #2
     23c:	52801341 	mov	w1, #0x9a                  	// #154
/home/asaf/devel/optee/optee_examples/crypto/ta/hello_world_ta.c:153
     240:	b9000265 	str	w5, [x19]
     244:	17ffffe0 	b	1c4 <TA_InvokeCommandEntryPoint+0xbc>
enc():
/home/asaf/devel/optee/optee_examples/crypto/ta/hello_world_ta.c:135
     248:	52802201 	mov	w1, #0x110                 	// #272
     24c:	52801003 	mov	w3, #0x80                  	// #128
     250:	52800002 	mov	w2, #0x0                   	// #0
     254:	72a20001 	movk	w1, #0x1000, lsl #16
     258:	9100e3a0 	add	x0, x29, #0x38
     25c:	94000017 	bl	2b8 <TEE_AllocateOperation>
     260:	17ffffdb 	b	1cc <TA_InvokeCommandEntryPoint+0xc4>
TA_InvokeCommandEntryPoint():
/home/asaf/devel/optee/optee_examples/crypto/ta/hello_world_ta.c:179
     264:	129fff20 	mov	w0, #0xffff0006            	// #-65530
/home/asaf/devel/optee/optee_examples/crypto/ta/hello_world_ta.c:181
     268:	d65f03c0 	ret

000000000000026c <tahead_get_trace_level>:
tahead_get_trace_level():
/home/asaf/devel/optee/optee_os/out/arm/export-ta_arm64/src/user_ta_header.c:133
     26c:	52800080 	mov	w0, #0x4                   	// #4
     270:	d65f03c0 	ret

0000000000000274 <TEE_FreeOperation>:
TEE_FreeOperation():
/home/asaf/devel/optee/optee_os/lib/libutee/tee_api_operations.c:366
     274:	a9be7bfd 	stp	x29, x30, [sp,#-32]!
     278:	910003fd 	mov	x29, sp
     27c:	f9000bf3 	str	x19, [sp,#16]
     280:	aa0003f3 	mov	x19, x0
/home/asaf/devel/optee/optee_os/lib/libutee/tee_api_operations.c:369
     284:	b5000060 	cbnz	x0, 290 <TEE_FreeOperation+0x1c>
/home/asaf/devel/optee/optee_os/lib/libutee/tee_api_operations.c:370
     288:	52800000 	mov	w0, #0x0                   	// #0
     28c:	940008fd 	bl	2680 <TEE_Panic>
/home/asaf/devel/optee/optee_os/lib/libutee/tee_api_operations.c:377
     290:	b9405a60 	ldr	w0, [x19,#88]
     294:	940009e3 	bl	2a20 <utee_cryp_state_free>
/home/asaf/devel/optee/optee_os/lib/libutee/tee_api_operations.c:378
     298:	34000040 	cbz	w0, 2a0 <TEE_FreeOperation+0x2c>
/home/asaf/devel/optee/optee_os/lib/libutee/tee_api_operations.c:379
     29c:	940008f9 	bl	2680 <TEE_Panic>
/home/asaf/devel/optee/optee_os/lib/libutee/tee_api_operations.c:381
     2a0:	f9401e60 	ldr	x0, [x19,#56]
     2a4:	94000d4e 	bl	37dc <TEE_Free>
/home/asaf/devel/optee/optee_os/lib/libutee/tee_api_operations.c:382
     2a8:	aa1303e0 	mov	x0, x19
/home/asaf/devel/optee/optee_os/lib/libutee/tee_api_operations.c:383
     2ac:	f9400bf3 	ldr	x19, [sp,#16]
     2b0:	a8c27bfd 	ldp	x29, x30, [sp],#32
/home/asaf/devel/optee/optee_os/lib/libutee/tee_api_operations.c:382
     2b4:	14000d4a 	b	37dc <TEE_Free>

00000000000002b8 <TEE_AllocateOperation>:
TEE_AllocateOperation():
/home/asaf/devel/optee/optee_os/lib/libutee/tee_api_operations.c:59
     2b8:	a9b97bfd 	stp	x29, x30, [sp,#-112]!
     2bc:	910003fd 	mov	x29, sp
     2c0:	a90363f7 	stp	x23, x24, [sp,#48]
     2c4:	2a0203f8 	mov	w24, w2
     2c8:	a90153f3 	stp	x19, x20, [sp,#16]
     2cc:	2a0303f7 	mov	w23, w3
     2d0:	a9025bf5 	stp	x21, x22, [sp,#32]
     2d4:	2a0103f3 	mov	w19, w1
     2d8:	a9046bf9 	stp	x25, x26, [sp,#64]
     2dc:	a90573fb 	stp	x27, x28, [sp,#80]
     2e0:	f90037a0 	str	x0, [x29,#104]
/home/asaf/devel/optee/optee_os/lib/libutee/tee_api_operations.c:68
     2e4:	b5000040 	cbnz	x0, 2ec <TEE_AllocateOperation+0x34>
/home/asaf/devel/optee/optee_os/lib/libutee/tee_api_operations.c:69
     2e8:	940008e6 	bl	2680 <TEE_Panic>
/home/asaf/devel/optee/optee_os/lib/libutee/tee_api_operations.c:71
     2ec:	52808200 	mov	w0, #0x410                 	// #1040
     2f0:	72a20000 	movk	w0, #0x1000, lsl #16
     2f4:	6b00027f 	cmp	w19, w0
     2f8:	54002cc0 	b.eq	890 <TEE_AllocateOperation+0x5d8>
/home/asaf/devel/optee/optee_os/lib/libutee/tee_api_operations.c:75
     2fc:	52882620 	mov	w0, #0x4131                	// #16689
     300:	72ae0000 	movk	w0, #0x7000, lsl #16
     304:	6b00027f 	cmp	w19, w0
     308:	54000e60 	b.eq	4d4 <TEE_AllocateOperation+0x21c>
     30c:	540007c8 	b.hi	404 <TEE_AllocateOperation+0x14c>
     310:	52842620 	mov	w0, #0x2131                	// #8497
     314:	72ae0000 	movk	w0, #0x7000, lsl #16
     318:	6b00027f 	cmp	w19, w0
     31c:	54000aa0 	b.eq	470 <TEE_AllocateOperation+0x1b8>
     320:	54000568 	b.hi	3cc <TEE_AllocateOperation+0x114>
     324:	52820820 	mov	w0, #0x1041                	// #4161
     328:	72ae0000 	movk	w0, #0x7000, lsl #16
     32c:	6b00027f 	cmp	w19, w0
     330:	54000840 	b.eq	438 <TEE_AllocateOperation+0x180>
     334:	11400400 	add	w0, w0, #0x1, lsl #12
     338:	6b00027f 	cmp	w19, w0
     33c:	54000d40 	b.eq	4e4 <TEE_AllocateOperation+0x22c>
/home/asaf/devel/optee/optee_os/lib/libutee/tee_api_operations.c:130
     340:	52842620 	mov	w0, #0x2131                	// #8497
     344:	72ae0000 	movk	w0, #0x7000, lsl #16
     348:	6b00027f 	cmp	w19, w0
     34c:	540009e0 	b.eq	488 <TEE_AllocateOperation+0x1d0>
     350:	54001ae8 	b.hi	6ac <TEE_AllocateOperation+0x3f4>
     354:	5280a260 	mov	w0, #0x513                 	// #1299
     358:	72a60000 	movk	w0, #0x3000, lsl #16
     35c:	6b00027f 	cmp	w19, w0
     360:	54001000 	b.eq	560 <TEE_AllocateOperation+0x2a8>
     364:	54001208 	b.hi	5a4 <TEE_AllocateOperation+0x2ec>
     368:	52806200 	mov	w0, #0x310                 	// #784
     36c:	72a20000 	movk	w0, #0x1000, lsl #16
     370:	6b00027f 	cmp	w19, w0
     374:	54002a80 	b.eq	8c4 <TEE_AllocateOperation+0x60c>
     378:	52802220 	mov	w0, #0x111                 	// #273
     37c:	54000dc8 	b.hi	534 <TEE_AllocateOperation+0x27c>
     380:	72a20000 	movk	w0, #0x1000, lsl #16
     384:	6b00027f 	cmp	w19, w0
     388:	54000c08 	b.hi	508 <TEE_AllocateOperation+0x250>
     38c:	52802200 	mov	w0, #0x110                 	// #272
     390:	72a20000 	movk	w0, #0x1000, lsl #16
     394:	6b00027f 	cmp	w19, w0
     398:	540029a2 	b.cs	8cc <TEE_AllocateOperation+0x614>
     39c:	52800200 	mov	w0, #0x10                  	// #16
     3a0:	72a20000 	movk	w0, #0x1000, lsl #16
     3a4:	6b00027f 	cmp	w19, w0
     3a8:	540000e3 	b.cc	3c4 <TEE_AllocateOperation+0x10c>
     3ac:	11000400 	add	w0, w0, #0x1
     3b0:	6b00027f 	cmp	w19, w0
     3b4:	540028c9 	b.ls	8cc <TEE_AllocateOperation+0x614>
     3b8:	11000800 	add	w0, w0, #0x2
     3bc:	6b00027f 	cmp	w19, w0
     3c0:	54002860 	b.eq	8cc <TEE_AllocateOperation+0x614>
/home/asaf/devel/optee/optee_os/lib/libutee/tee_api_operations.c:269
     3c4:	129ffeb4 	mov	w20, #0xffff000a            	// #-65526
     3c8:	1400003b 	b	4b4 <TEE_AllocateOperation+0x1fc>
/home/asaf/devel/optee/optee_os/lib/libutee/tee_api_operations.c:75
     3cc:	52862620 	mov	w0, #0x3131                	// #12593
     3d0:	72ae0000 	movk	w0, #0x7000, lsl #16
     3d4:	6b00027f 	cmp	w19, w0
     3d8:	54000680 	b.eq	4a8 <TEE_AllocateOperation+0x1f0>
     3dc:	113c4000 	add	w0, w0, #0xf10
     3e0:	6b00027f 	cmp	w19, w0
     3e4:	54000860 	b.eq	4f0 <TEE_AllocateOperation+0x238>
     3e8:	52860820 	mov	w0, #0x3041                	// #12353
     3ec:	72ae0000 	movk	w0, #0x7000, lsl #16
     3f0:	6b00027f 	cmp	w19, w0
     3f4:	54fffa61 	b.ne	340 <TEE_AllocateOperation+0x88>
/home/asaf/devel/optee/optee_os/lib/libutee/tee_api_operations.c:80
     3f8:	129ffeb4 	mov	w20, #0xffff000a            	// #-65526
/home/asaf/devel/optee/optee_os/lib/libutee/tee_api_operations.c:109
     3fc:	710402ff 	cmp	w23, #0x100
     400:	14000010 	b	440 <TEE_AllocateOperation+0x188>
/home/asaf/devel/optee/optee_os/lib/libutee/tee_api_operations.c:75
     404:	52840840 	mov	w0, #0x2042                	// #8258
     408:	72b00000 	movk	w0, #0x8000, lsl #16
     40c:	6b00027f 	cmp	w19, w0
     410:	540006a0 	b.eq	4e4 <TEE_AllocateOperation+0x22c>
     414:	540001a8 	b.hi	448 <TEE_AllocateOperation+0x190>
     418:	528a0820 	mov	w0, #0x5041                	// #20545
     41c:	72ae0000 	movk	w0, #0x7000, lsl #16
     420:	6b00027f 	cmp	w19, w0
     424:	540006c0 	b.eq	4fc <TEE_AllocateOperation+0x244>
     428:	52820840 	mov	w0, #0x1042                	// #4162
     42c:	72b00000 	movk	w0, #0x8000, lsl #16
     430:	6b00027f 	cmp	w19, w0
     434:	54fff861 	b.ne	340 <TEE_AllocateOperation+0x88>
/home/asaf/devel/optee/optee_os/lib/libutee/tee_api_operations.c:97
     438:	710302ff 	cmp	w23, #0xc0
/home/asaf/devel/optee/optee_os/lib/libutee/tee_api_operations.c:80
     43c:	129ffeb4 	mov	w20, #0xffff000a            	// #-65526
/home/asaf/devel/optee/optee_os/lib/libutee/tee_api_operations.c:121
     440:	540003a1 	b.ne	4b4 <TEE_AllocateOperation+0x1fc>
     444:	17ffffbf 	b	340 <TEE_AllocateOperation+0x88>
/home/asaf/devel/optee/optee_os/lib/libutee/tee_api_operations.c:75
     448:	52880840 	mov	w0, #0x4042                	// #16450
     44c:	72b00000 	movk	w0, #0x8000, lsl #16
     450:	6b00027f 	cmp	w19, w0
     454:	540004e0 	b.eq	4f0 <TEE_AllocateOperation+0x238>
     458:	11400400 	add	w0, w0, #0x1, lsl #12
     45c:	6b00027f 	cmp	w19, w0
     460:	540004e0 	b.eq	4fc <TEE_AllocateOperation+0x244>
     464:	52860840 	mov	w0, #0x3042                	// #12354
     468:	72b00000 	movk	w0, #0x8000, lsl #16
     46c:	17ffffe1 	b	3f0 <TEE_AllocateOperation+0x138>
/home/asaf/devel/optee/optee_os/lib/libutee/tee_api_operations.c:79
     470:	510802e0 	sub	w0, w23, #0x200
/home/asaf/devel/optee/optee_os/lib/libutee/tee_api_operations.c:80
     474:	129ffeb4 	mov	w20, #0xffff000a            	// #-65526
/home/asaf/devel/optee/optee_os/lib/libutee/tee_api_operations.c:79
     478:	7108001f 	cmp	w0, #0x200
     47c:	540001c8 	b.hi	4b4 <TEE_AllocateOperation+0x1fc>
/home/asaf/devel/optee/optee_os/lib/libutee/tee_api_operations.c:81
     480:	f24016ff 	tst	x23, #0x3f
     484:	54000181 	b.ne	4b4 <TEE_AllocateOperation+0x1fc>
/home/asaf/devel/optee/optee_os/lib/libutee/tee_api_operations.c:176
     488:	71000b1f 	cmp	w24, #0x2
     48c:	540029c0 	b.eq	9c4 <TEE_AllocateOperation+0x70c>
/home/asaf/devel/optee/optee_os/lib/libutee/tee_api_operations.c:179
     490:	71000f1f 	cmp	w24, #0x3
     494:	54fff981 	b.ne	3c4 <TEE_AllocateOperation+0x10c>
/home/asaf/devel/optee/optee_os/lib/libutee/tee_api_operations.c:66
     498:	52800019 	mov	w25, #0x0                   	// #0
/home/asaf/devel/optee/optee_os/lib/libutee/tee_api_operations.c:65
     49c:	5280001a 	mov	w26, #0x0                   	// #0
/home/asaf/devel/optee/optee_os/lib/libutee/tee_api_operations.c:180
     4a0:	52800403 	mov	w3, #0x20                  	// #32
     4a4:	140000d6 	b	7fc <TEE_AllocateOperation+0x544>
/home/asaf/devel/optee/optee_os/lib/libutee/tee_api_operations.c:86
     4a8:	712002ff 	cmp	w23, #0x800
/home/asaf/devel/optee/optee_os/lib/libutee/tee_api_operations.c:80
     4ac:	129ffeb4 	mov	w20, #0xffff000a            	// #-65526
/home/asaf/devel/optee/optee_os/lib/libutee/tee_api_operations.c:91
     4b0:	54fffec0 	b.eq	488 <TEE_AllocateOperation+0x1d0>
/home/asaf/devel/optee/optee_os/lib/libutee/tee_api_operations.c:363
     4b4:	2a1403e0 	mov	w0, w20
     4b8:	a94153f3 	ldp	x19, x20, [sp,#16]
     4bc:	a9425bf5 	ldp	x21, x22, [sp,#32]
     4c0:	a94363f7 	ldp	x23, x24, [sp,#48]
     4c4:	a9446bf9 	ldp	x25, x26, [sp,#64]
     4c8:	a94573fb 	ldp	x27, x28, [sp,#80]
     4cc:	a8c77bfd 	ldp	x29, x30, [sp],#112
     4d0:	d65f03c0 	ret
/home/asaf/devel/optee/optee_os/lib/libutee/tee_api_operations.c:91
     4d4:	12157ae0 	and	w0, w23, #0xfffffbff
/home/asaf/devel/optee/optee_os/lib/libutee/tee_api_operations.c:80
     4d8:	129ffeb4 	mov	w20, #0xffff000a            	// #-65526
/home/asaf/devel/optee/optee_os/lib/libutee/tee_api_operations.c:91
     4dc:	7120001f 	cmp	w0, #0x800
     4e0:	17fffff4 	b	4b0 <TEE_AllocateOperation+0x1f8>
/home/asaf/devel/optee/optee_os/lib/libutee/tee_api_operations.c:80
     4e4:	129ffeb4 	mov	w20, #0xffff000a            	// #-65526
/home/asaf/devel/optee/optee_os/lib/libutee/tee_api_operations.c:103
     4e8:	710382ff 	cmp	w23, #0xe0
     4ec:	17ffffd5 	b	440 <TEE_AllocateOperation+0x188>
/home/asaf/devel/optee/optee_os/lib/libutee/tee_api_operations.c:80
     4f0:	129ffeb4 	mov	w20, #0xffff000a            	// #-65526
/home/asaf/devel/optee/optee_os/lib/libutee/tee_api_operations.c:115
     4f4:	710602ff 	cmp	w23, #0x180
     4f8:	17ffffd2 	b	440 <TEE_AllocateOperation+0x188>
/home/asaf/devel/optee/optee_os/lib/libutee/tee_api_operations.c:80
     4fc:	129ffeb4 	mov	w20, #0xffff000a            	// #-65526
/home/asaf/devel/optee/optee_os/lib/libutee/tee_api_operations.c:121
     500:	710826ff 	cmp	w23, #0x209
     504:	17ffffcf 	b	440 <TEE_AllocateOperation+0x188>
/home/asaf/devel/optee/optee_os/lib/libutee/tee_api_operations.c:130
     508:	52802260 	mov	w0, #0x113                 	// #275
     50c:	72a20000 	movk	w0, #0x1000, lsl #16
     510:	6b00027f 	cmp	w19, w0
     514:	54001dc0 	b.eq	8cc <TEE_AllocateOperation+0x614>
     518:	1103f400 	add	w0, w0, #0xfd
     51c:	6b00027f 	cmp	w19, w0
     520:	54fff521 	b.ne	3c4 <TEE_AllocateOperation+0x10c>
     524:	5280001c 	mov	w28, #0x0                   	// #0
/home/asaf/devel/optee/optee_os/lib/libutee/tee_api_operations.c:66
     528:	52800019 	mov	w25, #0x0                   	// #0
/home/asaf/devel/optee/optee_os/lib/libutee/tee_api_operations.c:63
     52c:	d2800036 	mov	x22, #0x1                   	// #1
     530:	140000df 	b	8ac <TEE_AllocateOperation+0x5f4>
/home/asaf/devel/optee/optee_os/lib/libutee/tee_api_operations.c:130
     534:	72a60000 	movk	w0, #0x3000, lsl #16
     538:	6b00027f 	cmp	w19, w0
     53c:	54000208 	b.hi	57c <TEE_AllocateOperation+0x2c4>
     540:	52802200 	mov	w0, #0x110                 	// #272
     544:	72a60000 	movk	w0, #0x3000, lsl #16
     548:	6b00027f 	cmp	w19, w0
     54c:	540000a2 	b.cs	560 <TEE_AllocateOperation+0x2a8>
     550:	12a60000 	mov	w0, #0xcfffffff            	// #-805306369
     554:	0b000260 	add	w0, w19, w0
     558:	7100141f 	cmp	w0, #0x5
     55c:	54fff348 	b.hi	3c4 <TEE_AllocateOperation+0x10c>
/home/asaf/devel/optee/optee_os/lib/libutee/tee_api_operations.c:80
     560:	129ffeb4 	mov	w20, #0xffff000a            	// #-65526
/home/asaf/devel/optee/optee_os/lib/libutee/tee_api_operations.c:263
     564:	7100131f 	cmp	w24, #0x4
     568:	54fffa61 	b.ne	4b4 <TEE_AllocateOperation+0x1fc>
/home/asaf/devel/optee/optee_os/lib/libutee/tee_api_operations.c:66
     56c:	52800019 	mov	w25, #0x0                   	// #0
/home/asaf/devel/optee/optee_os/lib/libutee/tee_api_operations.c:65
     570:	5280001a 	mov	w26, #0x0                   	// #0
/home/asaf/devel/optee/optee_os/lib/libutee/tee_api_operations.c:265
     574:	52800103 	mov	w3, #0x8                   	// #8
     578:	140000a1 	b	7fc <TEE_AllocateOperation+0x544>
/home/asaf/devel/optee/optee_os/lib/libutee/tee_api_operations.c:130
     57c:	52802260 	mov	w0, #0x113                 	// #275
     580:	72a60000 	movk	w0, #0x3000, lsl #16
     584:	6b00027f 	cmp	w19, w0
     588:	54fffec0 	b.eq	560 <TEE_AllocateOperation+0x2a8>
     58c:	54fff1c3 	b.cc	3c4 <TEE_AllocateOperation+0x10c>
     590:	529f5e00 	mov	w0, #0xfaf0                	// #64240
     594:	72b9ffe0 	movk	w0, #0xcfff, lsl #16
     598:	0b000260 	add	w0, w19, w0
     59c:	7100041f 	cmp	w0, #0x1
     5a0:	17ffffef 	b	55c <TEE_AllocateOperation+0x2a4>
     5a4:	52804600 	mov	w0, #0x230                 	// #560
     5a8:	72ac0420 	movk	w0, #0x6021, lsl #16
     5ac:	6b00027f 	cmp	w19, w0
     5b0:	540003a0 	b.eq	624 <TEE_AllocateOperation+0x36c>
     5b4:	54000468 	b.hi	640 <TEE_AllocateOperation+0x388>
     5b8:	528000c0 	mov	w0, #0x6                   	// #6
     5bc:	72aa0000 	movk	w0, #0x5000, lsl #16
     5c0:	6b00027f 	cmp	w19, w0
     5c4:	54000228 	b.hi	608 <TEE_AllocateOperation+0x350>
     5c8:	52800020 	mov	w0, #0x1                   	// #1
     5cc:	72aa0000 	movk	w0, #0x5000, lsl #16
     5d0:	6b00027f 	cmp	w19, w0
     5d4:	54001902 	b.cs	8f4 <TEE_AllocateOperation+0x63c>
     5d8:	5280e200 	mov	w0, #0x710                 	// #1808
     5dc:	72a80000 	movk	w0, #0x4000, lsl #16
     5e0:	6b00027f 	cmp	w19, w0
     5e4:	54001740 	b.eq	8cc <TEE_AllocateOperation+0x614>
     5e8:	11040000 	add	w0, w0, #0x100
     5ec:	6b00027f 	cmp	w19, w0
     5f0:	54fff9a0 	b.eq	524 <TEE_AllocateOperation+0x26c>
     5f4:	5280c200 	mov	w0, #0x610                 	// #1552
     5f8:	72a60000 	movk	w0, #0x3000, lsl #16
     5fc:	6b00027f 	cmp	w19, w0
     600:	54ffee21 	b.ne	3c4 <TEE_AllocateOperation+0x10c>
     604:	17ffffd7 	b	560 <TEE_AllocateOperation+0x2a8>
     608:	52800600 	mov	w0, #0x30                  	// #48
     60c:	72ac0000 	movk	w0, #0x6000, lsl #16
     610:	6b00027f 	cmp	w19, w0
     614:	54001620 	b.eq	8d8 <TEE_AllocateOperation+0x620>
     618:	11040000 	add	w0, w0, #0x100
     61c:	6b00027f 	cmp	w19, w0
     620:	54ffed21 	b.ne	3c4 <TEE_AllocateOperation+0x10c>
/home/asaf/devel/optee/optee_os/lib/libutee/tee_api_operations.c:192
     624:	34001d98 	cbz	w24, 9d4 <TEE_AllocateOperation+0x71c>
/home/asaf/devel/optee/optee_os/lib/libutee/tee_api_operations.c:194
     628:	7100071f 	cmp	w24, #0x1
     62c:	54ffecc1 	b.ne	3c4 <TEE_AllocateOperation+0x10c>
/home/asaf/devel/optee/optee_os/lib/libutee/tee_api_operations.c:66
     630:	52800019 	mov	w25, #0x0                   	// #0
/home/asaf/devel/optee/optee_os/lib/libutee/tee_api_operations.c:195
     634:	2a1803fa 	mov	w26, w24
/home/asaf/devel/optee/optee_os/lib/libutee/tee_api_operations.c:196
     638:	52800083 	mov	w3, #0x4                   	// #4
     63c:	14000070 	b	7fc <TEE_AllocateOperation+0x544>
/home/asaf/devel/optee/optee_os/lib/libutee/tee_api_operations.c:130
     640:	52804600 	mov	w0, #0x230                 	// #560
     644:	72ac0c20 	movk	w0, #0x6061, lsl #16
     648:	6b00027f 	cmp	w19, w0
     64c:	54fffec0 	b.eq	624 <TEE_AllocateOperation+0x36c>
     650:	54000168 	b.hi	67c <TEE_AllocateOperation+0x3c4>
     654:	52804600 	mov	w0, #0x230                 	// #560
     658:	72ac0820 	movk	w0, #0x6041, lsl #16
     65c:	6b00027f 	cmp	w19, w0
     660:	54fffe20 	b.eq	624 <TEE_AllocateOperation+0x36c>
     664:	11440000 	add	w0, w0, #0x100, lsl #12
     668:	6b00027f 	cmp	w19, w0
     66c:	54fffdc0 	b.eq	624 <TEE_AllocateOperation+0x36c>
     670:	52804600 	mov	w0, #0x230                 	// #560
     674:	72ac0620 	movk	w0, #0x6031, lsl #16
     678:	17ffffe9 	b	61c <TEE_AllocateOperation+0x364>
     67c:	52830600 	mov	w0, #0x1830                	// #6192
     680:	72ae0000 	movk	w0, #0x7000, lsl #16
     684:	6b00027f 	cmp	w19, w0
     688:	54fff000 	b.eq	488 <TEE_AllocateOperation+0x1d0>
     68c:	11204400 	add	w0, w0, #0x811
     690:	6b00027f 	cmp	w19, w0
     694:	54ffefa0 	b.eq	488 <TEE_AllocateOperation+0x1d0>
     698:	52820820 	mov	w0, #0x1041                	// #4161
     69c:	72ae0000 	movk	w0, #0x7000, lsl #16
     6a0:	6b00027f 	cmp	w19, w0
     6a4:	54ffe901 	b.ne	3c4 <TEE_AllocateOperation+0x10c>
     6a8:	17ffff78 	b	488 <TEE_AllocateOperation+0x1d0>
     6ac:	52800640 	mov	w0, #0x32                  	// #50
     6b0:	72b00000 	movk	w0, #0x8000, lsl #16
     6b4:	6b00027f 	cmp	w19, w0
     6b8:	54000960 	b.eq	7e4 <TEE_AllocateOperation+0x52c>
     6bc:	540006c8 	b.hi	794 <TEE_AllocateOperation+0x4dc>
     6c0:	528a0820 	mov	w0, #0x5041                	// #20545
     6c4:	72ae0000 	movk	w0, #0x7000, lsl #16
     6c8:	6b00027f 	cmp	w19, w0
     6cc:	54ffede0 	b.eq	488 <TEE_AllocateOperation+0x1d0>
     6d0:	54000308 	b.hi	730 <TEE_AllocateOperation+0x478>
     6d4:	52870600 	mov	w0, #0x3830                	// #14384
     6d8:	72ae0000 	movk	w0, #0x7000, lsl #16
     6dc:	6b00027f 	cmp	w19, w0
     6e0:	54ffed40 	b.eq	488 <TEE_AllocateOperation+0x1d0>
     6e4:	54000148 	b.hi	70c <TEE_AllocateOperation+0x454>
     6e8:	52860820 	mov	w0, #0x3041                	// #12353
     6ec:	72ae0000 	movk	w0, #0x7000, lsl #16
     6f0:	6b00027f 	cmp	w19, w0
     6f4:	54ffeca0 	b.eq	488 <TEE_AllocateOperation+0x1d0>
     6f8:	1103c000 	add	w0, w0, #0xf0
     6fc:	6b00027f 	cmp	w19, w0
     700:	54ffec40 	b.eq	488 <TEE_AllocateOperation+0x1d0>
     704:	52850600 	mov	w0, #0x2830                	// #10288
     708:	17ffffe5 	b	69c <TEE_AllocateOperation+0x3e4>
     70c:	52882620 	mov	w0, #0x4131                	// #16689
     710:	72ae0000 	movk	w0, #0x7000, lsl #16
     714:	6b00027f 	cmp	w19, w0
     718:	54ffeb80 	b.eq	488 <TEE_AllocateOperation+0x1d0>
     71c:	111bfc00 	add	w0, w0, #0x6ff
     720:	6b00027f 	cmp	w19, w0
     724:	54ffeb20 	b.eq	488 <TEE_AllocateOperation+0x1d0>
     728:	52880820 	mov	w0, #0x4041                	// #16449
     72c:	17ffffdc 	b	69c <TEE_AllocateOperation+0x3e4>
     730:	52872600 	mov	w0, #0x3930                	// #14640
     734:	72ae0620 	movk	w0, #0x7031, lsl #16
     738:	6b00027f 	cmp	w19, w0
     73c:	54ffea60 	b.eq	488 <TEE_AllocateOperation+0x1d0>
     740:	54000168 	b.hi	76c <TEE_AllocateOperation+0x4b4>
     744:	528d0600 	mov	w0, #0x6830                	// #26672
     748:	72ae0000 	movk	w0, #0x7000, lsl #16
     74c:	6b00027f 	cmp	w19, w0
     750:	54ffe9c0 	b.eq	488 <TEE_AllocateOperation+0x1d0>
     754:	52852600 	mov	w0, #0x2930                	// #10544
     758:	72ae0420 	movk	w0, #0x7021, lsl #16
     75c:	6b00027f 	cmp	w19, w0
     760:	54ffe940 	b.eq	488 <TEE_AllocateOperation+0x1d0>
     764:	528b0600 	mov	w0, #0x5830                	// #22576
     768:	17ffffcd 	b	69c <TEE_AllocateOperation+0x3e4>
     76c:	528b2600 	mov	w0, #0x5930                	// #22832
     770:	72ae0a20 	movk	w0, #0x7051, lsl #16
     774:	6b00027f 	cmp	w19, w0
     778:	54ffe880 	b.eq	488 <TEE_AllocateOperation+0x1d0>
     77c:	11440400 	add	w0, w0, #0x101, lsl #12
     780:	6b00027f 	cmp	w19, w0
     784:	54ffe820 	b.eq	488 <TEE_AllocateOperation+0x1d0>
     788:	52892600 	mov	w0, #0x4930                	// #18736
     78c:	72ae0820 	movk	w0, #0x7041, lsl #16
     790:	17ffffc4 	b	6a0 <TEE_AllocateOperation+0x3e8>
     794:	52861820 	mov	w0, #0x30c1                	// #12481
     798:	72b00000 	movk	w0, #0x8000, lsl #16
     79c:	6b00027f 	cmp	w19, w0
     7a0:	54000468 	b.hi	82c <TEE_AllocateOperation+0x574>
     7a4:	52861800 	mov	w0, #0x30c0                	// #12480
     7a8:	72b00000 	movk	w0, #0x8000, lsl #16
     7ac:	6b00027f 	cmp	w19, w0
     7b0:	540001a2 	b.cs	7e4 <TEE_AllocateOperation+0x52c>
     7b4:	52840840 	mov	w0, #0x2042                	// #8258
     7b8:	72b00000 	movk	w0, #0x8000, lsl #16
     7bc:	6b00027f 	cmp	w19, w0
     7c0:	54000120 	b.eq	7e4 <TEE_AllocateOperation+0x52c>
     7c4:	54000228 	b.hi	808 <TEE_AllocateOperation+0x550>
     7c8:	52820840 	mov	w0, #0x1042                	// #4162
     7cc:	72b00000 	movk	w0, #0x8000, lsl #16
     7d0:	6b00027f 	cmp	w19, w0
     7d4:	54000080 	b.eq	7e4 <TEE_AllocateOperation+0x52c>
     7d8:	1101f800 	add	w0, w0, #0x7e
     7dc:	6b00027f 	cmp	w19, w0
     7e0:	54ffdf21 	b.ne	3c4 <TEE_AllocateOperation+0x10c>
/home/asaf/devel/optee/optee_os/lib/libutee/tee_api_operations.c:80
     7e4:	129ffeb4 	mov	w20, #0xffff000a            	// #-65526
/home/asaf/devel/optee/optee_os/lib/libutee/tee_api_operations.c:231
     7e8:	71001b1f 	cmp	w24, #0x6
     7ec:	54ffe641 	b.ne	4b4 <TEE_AllocateOperation+0x1fc>
/home/asaf/devel/optee/optee_os/lib/libutee/tee_api_operations.c:66
     7f0:	52800019 	mov	w25, #0x0                   	// #0
/home/asaf/devel/optee/optee_os/lib/libutee/tee_api_operations.c:233
     7f4:	5280003a 	mov	w26, #0x1                   	// #1
/home/asaf/devel/optee/optee_os/lib/libutee/tee_api_operations.c:234
     7f8:	52800803 	mov	w3, #0x40                  	// #64
/home/asaf/devel/optee/optee_os/lib/libutee/tee_api_operations.c:63
     7fc:	d2800036 	mov	x22, #0x1                   	// #1
     800:	5280001c 	mov	w28, #0x0                   	// #0
     804:	14000044 	b	914 <TEE_AllocateOperation+0x65c>
/home/asaf/devel/optee/optee_os/lib/libutee/tee_api_operations.c:130
     808:	52841800 	mov	w0, #0x20c0                	// #8384
     80c:	72b00000 	movk	w0, #0x8000, lsl #16
     810:	6b00027f 	cmp	w19, w0
     814:	54ffdd83 	b.cc	3c4 <TEE_AllocateOperation+0x10c>
     818:	11000800 	add	w0, w0, #0x2
     81c:	6b00027f 	cmp	w19, w0
     820:	54fffe29 	b.ls	7e4 <TEE_AllocateOperation+0x52c>
     824:	113e0000 	add	w0, w0, #0xf80
     828:	17ffffed 	b	7dc <TEE_AllocateOperation+0x524>
     82c:	528a0840 	mov	w0, #0x5042                	// #20546
     830:	72b00000 	movk	w0, #0x8000, lsl #16
     834:	6b00027f 	cmp	w19, w0
     838:	54fffd60 	b.eq	7e4 <TEE_AllocateOperation+0x52c>
     83c:	54000188 	b.hi	86c <TEE_AllocateOperation+0x5b4>
     840:	52880840 	mov	w0, #0x4042                	// #16450
     844:	72b00000 	movk	w0, #0x8000, lsl #16
     848:	6b00027f 	cmp	w19, w0
     84c:	54fffcc0 	b.eq	7e4 <TEE_AllocateOperation+0x52c>
     850:	5297e800 	mov	w0, #0xbf40                	// #48960
     854:	54ffdb83 	b.cc	3c4 <TEE_AllocateOperation+0x10c>
     858:	72afffe0 	movk	w0, #0x7fff, lsl #16
     85c:	0b000260 	add	w0, w19, w0
     860:	7100041f 	cmp	w0, #0x1
     864:	54fffc09 	b.ls	7e4 <TEE_AllocateOperation+0x52c>
     868:	17fffed7 	b	3c4 <TEE_AllocateOperation+0x10c>
     86c:	528a1800 	mov	w0, #0x50c0                	// #20672
     870:	72b00000 	movk	w0, #0x8000, lsl #16
     874:	6b00027f 	cmp	w19, w0
     878:	54ffda63 	b.cc	3c4 <TEE_AllocateOperation+0x10c>
     87c:	11000400 	add	w0, w0, #0x1
     880:	6b00027f 	cmp	w19, w0
     884:	54fffb09 	b.ls	7e4 <TEE_AllocateOperation+0x52c>
     888:	5293e800 	mov	w0, #0x9f40                	// #40768
     88c:	17fffff3 	b	858 <TEE_AllocateOperation+0x5a0>
/home/asaf/devel/optee/optee_os/lib/libutee/tee_api_operations.c:72
     890:	52a0011c 	mov	w28, #0x80000               	// #524288
/home/asaf/devel/optee/optee_os/lib/libutee/tee_api_operations.c:133
     894:	52800039 	mov	w25, #0x1                   	// #1
/home/asaf/devel/optee/optee_os/lib/libutee/tee_api_operations.c:142
     898:	12001e60 	and	w0, w19, #0xff
/home/asaf/devel/optee/optee_os/lib/libutee/tee_api_operations.c:145
     89c:	d2800216 	mov	x22, #0x10                  	// #16
     8a0:	7100401f 	cmp	w0, #0x10
     8a4:	d2800100 	mov	x0, #0x8                   	// #8
     8a8:	9a8002d6 	csel	x22, x22, x0, eq
/home/asaf/devel/optee/optee_os/lib/libutee/tee_api_operations.c:149
     8ac:	34000878 	cbz	w24, 9b8 <TEE_AllocateOperation+0x700>
/home/asaf/devel/optee/optee_os/lib/libutee/tee_api_operations.c:151
     8b0:	7100071f 	cmp	w24, #0x1
     8b4:	54ffd881 	b.ne	3c4 <TEE_AllocateOperation+0x10c>
/home/asaf/devel/optee/optee_os/lib/libutee/tee_api_operations.c:65
     8b8:	5280001a 	mov	w26, #0x0                   	// #0
/home/asaf/devel/optee/optee_os/lib/libutee/tee_api_operations.c:152
     8bc:	52800083 	mov	w3, #0x4                   	// #4
     8c0:	14000015 	b	914 <TEE_AllocateOperation+0x65c>
/home/asaf/devel/optee/optee_os/lib/libutee/tee_api_operations.c:130
     8c4:	5280001c 	mov	w28, #0x0                   	// #0
     8c8:	17fffff3 	b	894 <TEE_AllocateOperation+0x5dc>
     8cc:	5280001c 	mov	w28, #0x0                   	// #0
/home/asaf/devel/optee/optee_os/lib/libutee/tee_api_operations.c:66
     8d0:	52800019 	mov	w25, #0x0                   	// #0
     8d4:	17fffff1 	b	898 <TEE_AllocateOperation+0x5e0>
/home/asaf/devel/optee/optee_os/lib/libutee/tee_api_operations.c:203
     8d8:	340008b8 	cbz	w24, 9ec <TEE_AllocateOperation+0x734>
/home/asaf/devel/optee/optee_os/lib/libutee/tee_api_operations.c:205
     8dc:	7100071f 	cmp	w24, #0x1
     8e0:	54ffd721 	b.ne	3c4 <TEE_AllocateOperation+0x10c>
/home/asaf/devel/optee/optee_os/lib/libutee/tee_api_operations.c:66
     8e4:	52800019 	mov	w25, #0x0                   	// #0
/home/asaf/devel/optee/optee_os/lib/libutee/tee_api_operations.c:206
     8e8:	5280003a 	mov	w26, #0x1                   	// #1
/home/asaf/devel/optee/optee_os/lib/libutee/tee_api_operations.c:207
     8ec:	52800283 	mov	w3, #0x14                  	// #20
     8f0:	17ffffc3 	b	7fc <TEE_AllocateOperation+0x544>
/home/asaf/devel/optee/optee_os/lib/libutee/tee_api_operations.c:80
     8f4:	129ffeb4 	mov	w20, #0xffff000a            	// #-65526
/home/asaf/devel/optee/optee_os/lib/libutee/tee_api_operations.c:243
     8f8:	7100171f 	cmp	w24, #0x5
     8fc:	54ffddc1 	b.ne	4b4 <TEE_AllocateOperation+0x1fc>
/home/asaf/devel/optee/optee_os/lib/libutee/tee_api_operations.c:66
     900:	52800019 	mov	w25, #0x0                   	// #0
/home/asaf/devel/optee/optee_os/lib/libutee/tee_api_operations.c:65
     904:	5280001a 	mov	w26, #0x0                   	// #0
/home/asaf/devel/optee/optee_os/lib/libutee/tee_api_operations.c:247
     908:	52800003 	mov	w3, #0x0                   	// #0
/home/asaf/devel/optee/optee_os/lib/libutee/tee_api_operations.c:63
     90c:	d2800036 	mov	x22, #0x1                   	// #1
/home/asaf/devel/optee/optee_os/lib/libutee/tee_api_operations.c:246
     910:	52a0009c 	mov	w28, #0x40000               	// #262144
/home/asaf/devel/optee/optee_os/lib/libutee/tee_api_operations.c:272
     914:	52800001 	mov	w1, #0x0                   	// #0
     918:	52800c00 	mov	w0, #0x60                  	// #96
     91c:	b90067a3 	str	w3, [x29,#100]
/home/asaf/devel/optee/optee_os/lib/libutee/tee_api_operations.c:274
     920:	129ffe74 	mov	w20, #0xffff000c            	// #-65524
/home/asaf/devel/optee/optee_os/lib/libutee/tee_api_operations.c:272
     924:	94000baa 	bl	37cc <TEE_Malloc>
     928:	aa0003f5 	mov	x21, x0
/home/asaf/devel/optee/optee_os/lib/libutee/tee_api_operations.c:273
     92c:	b4ffdc40 	cbz	x0, 4b4 <TEE_AllocateOperation+0x1fc>
/home/asaf/devel/optee/optee_os/lib/libutee/tee_api_operations.c:280
     930:	b94067a3 	ldr	w3, [x29,#100]
/home/asaf/devel/optee/optee_os/lib/libutee/tee_api_operations.c:277
     934:	531c7e7b 	lsr	w27, w19, #28
/home/asaf/devel/optee/optee_os/lib/libutee/tee_api_operations.c:278
     938:	b9000818 	str	w24, [x0,#8]
/home/asaf/devel/optee/optee_os/lib/libutee/tee_api_operations.c:283
     93c:	f10006df 	cmp	x22, #0x1
/home/asaf/devel/optee/optee_os/lib/libutee/tee_api_operations.c:277
     940:	29006c13 	stp	w19, w27, [x0]
/home/asaf/devel/optee/optee_os/lib/libutee/tee_api_operations.c:279
     944:	b9001017 	str	w23, [x0,#16]
/home/asaf/devel/optee/optee_os/lib/libutee/tee_api_operations.c:281
     948:	29037003 	stp	w3, w28, [x0,#24]
/home/asaf/devel/optee/optee_os/lib/libutee/tee_api_operations.c:283
     94c:	540005a1 	b.ne	a00 <TEE_AllocateOperation+0x748>
/home/asaf/devel/optee/optee_os/lib/libutee/tee_api_operations.c:297
     950:	390102b9 	strb	w25, [x21,#64]
/home/asaf/devel/optee/optee_os/lib/libutee/tee_api_operations.c:299
     954:	7100177f 	cmp	w27, #0x5
/home/asaf/devel/optee/optee_os/lib/libutee/tee_api_operations.c:296
     958:	f90026b6 	str	x22, [x21,#72]
/home/asaf/devel/optee/optee_os/lib/libutee/tee_api_operations.c:299
     95c:	54000641 	b.ne	a24 <TEE_AllocateOperation+0x76c>
/home/asaf/devel/optee/optee_os/lib/libutee/tee_api_operations.c:323
     960:	a9420ea2 	ldp	x2, x3, [x21,#32]
     964:	910162a4 	add	x4, x21, #0x58
     968:	2a1803e1 	mov	w1, w24
     96c:	2a1303e0 	mov	w0, w19
     970:	94000826 	bl	2a08 <utee_cryp_state_alloc>
/home/asaf/devel/optee/optee_os/lib/libutee/tee_api_operations.c:325
     974:	35000b00 	cbnz	w0, ad4 <TEE_AllocateOperation+0x81c>
/home/asaf/devel/optee/optee_os/lib/libutee/tee_api_operations.c:333
     978:	7100177f 	cmp	w27, #0x5
     97c:	54000141 	b.ne	9a4 <TEE_AllocateOperation+0x6ec>
/home/asaf/devel/optee/optee_os/lib/libutee/tee_api_operations.c:334
     980:	b9405aa0 	ldr	w0, [x21,#88]
     984:	d2800002 	mov	x2, #0x0                   	// #0
     988:	d2800001 	mov	x1, #0x0                   	// #0
     98c:	94000828 	bl	2a2c <utee_hash_init>
     990:	2a0003f4 	mov	w20, w0
/home/asaf/devel/optee/optee_os/lib/libutee/tee_api_operations.c:335
     994:	35000780 	cbnz	w0, a84 <TEE_AllocateOperation+0x7cc>
/home/asaf/devel/optee/optee_os/lib/libutee/tee_api_operations.c:338
     998:	b9401ea0 	ldr	w0, [x21,#28]
     99c:	320f0000 	orr	w0, w0, #0x20000
     9a0:	b9001ea0 	str	w0, [x21,#28]
/home/asaf/devel/optee/optee_os/lib/libutee/tee_api_operations.c:343
     9a4:	f94037a0 	ldr	x0, [x29,#104]
     9a8:	52800014 	mov	w20, #0x0                   	// #0
/home/asaf/devel/optee/optee_os/lib/libutee/tee_api_operations.c:341
     9ac:	b90032bf 	str	wzr, [x21,#48]
/home/asaf/devel/optee/optee_os/lib/libutee/tee_api_operations.c:343
     9b0:	f9000015 	str	x21, [x0]
     9b4:	17fffec0 	b	4b4 <TEE_AllocateOperation+0x1fc>
/home/asaf/devel/optee/optee_os/lib/libutee/tee_api_operations.c:65
     9b8:	5280001a 	mov	w26, #0x0                   	// #0
/home/asaf/devel/optee/optee_os/lib/libutee/tee_api_operations.c:150
     9bc:	52800043 	mov	w3, #0x2                   	// #2
     9c0:	17ffffd5 	b	914 <TEE_AllocateOperation+0x65c>
/home/asaf/devel/optee/optee_os/lib/libutee/tee_api_operations.c:66
     9c4:	52800019 	mov	w25, #0x0                   	// #0
/home/asaf/devel/optee/optee_os/lib/libutee/tee_api_operations.c:177
     9c8:	5280003a 	mov	w26, #0x1                   	// #1
/home/asaf/devel/optee/optee_os/lib/libutee/tee_api_operations.c:178
     9cc:	52800203 	mov	w3, #0x10                  	// #16
     9d0:	17ffff8b 	b	7fc <TEE_AllocateOperation+0x544>
     9d4:	5280001c 	mov	w28, #0x0                   	// #0
/home/asaf/devel/optee/optee_os/lib/libutee/tee_api_operations.c:66
     9d8:	52800019 	mov	w25, #0x0                   	// #0
/home/asaf/devel/optee/optee_os/lib/libutee/tee_api_operations.c:65
     9dc:	5280001a 	mov	w26, #0x0                   	// #0
/home/asaf/devel/optee/optee_os/lib/libutee/tee_api_operations.c:193
     9e0:	52800043 	mov	w3, #0x2                   	// #2
/home/asaf/devel/optee/optee_os/lib/libutee/tee_api_operations.c:63
     9e4:	d2800036 	mov	x22, #0x1                   	// #1
     9e8:	17ffffcb 	b	914 <TEE_AllocateOperation+0x65c>
     9ec:	5280001c 	mov	w28, #0x0                   	// #0
/home/asaf/devel/optee/optee_os/lib/libutee/tee_api_operations.c:66
     9f0:	52800019 	mov	w25, #0x0                   	// #0
/home/asaf/devel/optee/optee_os/lib/libutee/tee_api_operations.c:65
     9f4:	5280001a 	mov	w26, #0x0                   	// #0
/home/asaf/devel/optee/optee_os/lib/libutee/tee_api_operations.c:204
     9f8:	52800443 	mov	w3, #0x22                  	// #34
     9fc:	17fffffa 	b	9e4 <TEE_AllocateOperation+0x72c>
/home/asaf/devel/optee/optee_os/lib/libutee/tee_api_operations.c:287
     a00:	7100033f 	cmp	w25, #0x0
     a04:	d37ffac0 	lsl	x0, x22, #1
/home/asaf/devel/optee/optee_os/lib/libutee/tee_api_operations.c:289
     a08:	52b00001 	mov	w1, #0x80000000            	// #-2147483648
     a0c:	9a961000 	csel	x0, x0, x22, ne
     a10:	94000b6f 	bl	37cc <TEE_Malloc>
     a14:	f9001ea0 	str	x0, [x21,#56]
/home/asaf/devel/optee/optee_os/lib/libutee/tee_api_operations.c:291
     a18:	b5fff9c0 	cbnz	x0, 950 <TEE_AllocateOperation+0x698>
/home/asaf/devel/optee/optee_os/lib/libutee/tee_api_operations.c:292
     a1c:	129ffe74 	mov	w20, #0xffff000c            	// #-65524
     a20:	14000019 	b	a84 <TEE_AllocateOperation+0x7cc>
/home/asaf/devel/optee/optee_os/lib/libutee/tee_api_operations.c:301
     a24:	7100035f 	cmp	w26, #0x0
     a28:	52b40001 	mov	w1, #0xa0000000            	// #-1610612736
     a2c:	52b42000 	mov	w0, #0xa1000000            	// #-1593835520
     a30:	1a811000 	csel	w0, w0, w1, ne
/home/asaf/devel/optee/optee_os/lib/libutee/tee_api_operations.c:308
     a34:	b9401ea1 	ldr	w1, [x21,#28]
/home/asaf/devel/optee/optee_os/lib/libutee/tee_api_operations.c:301
     a38:	12001e76 	and	w22, w19, #0xff
     a3c:	2a160016 	orr	w22, w0, w22
/home/asaf/devel/optee/optee_os/lib/libutee/tee_api_operations.c:309
     a40:	53017ee0 	lsr	w0, w23, #1
/home/asaf/devel/optee/optee_os/lib/libutee/tee_api_operations.c:311
     a44:	910082a2 	add	x2, x21, #0x20
/home/asaf/devel/optee/optee_os/lib/libutee/tee_api_operations.c:309
     a48:	f26d003f 	tst	x1, #0x80000
     a4c:	1a971017 	csel	w23, w0, w23, ne
/home/asaf/devel/optee/optee_os/lib/libutee/tee_api_operations.c:311
     a50:	2a1603e0 	mov	w0, w22
     a54:	2a1703e1 	mov	w1, w23
     a58:	94000c2b 	bl	3b04 <TEE_AllocateTransientObject>
     a5c:	2a0003f4 	mov	w20, w0
/home/asaf/devel/optee/optee_os/lib/libutee/tee_api_operations.c:312
     a60:	35000120 	cbnz	w0, a84 <TEE_AllocateOperation+0x7cc>
/home/asaf/devel/optee/optee_os/lib/libutee/tee_api_operations.c:315
     a64:	b9401ea0 	ldr	w0, [x21,#28]
     a68:	369ff7c0 	tbz	w0, #19, 960 <TEE_AllocateOperation+0x6a8>
/home/asaf/devel/optee/optee_os/lib/libutee/tee_api_operations.c:316
     a6c:	9100a2a2 	add	x2, x21, #0x28
     a70:	2a1703e1 	mov	w1, w23
     a74:	2a1603e0 	mov	w0, w22
     a78:	94000c23 	bl	3b04 <TEE_AllocateTransientObject>
     a7c:	2a0003f4 	mov	w20, w0
/home/asaf/devel/optee/optee_os/lib/libutee/tee_api_operations.c:318
     a80:	34fff700 	cbz	w0, 960 <TEE_AllocateOperation+0x6a8>
/home/asaf/devel/optee/optee_os/lib/libutee/tee_api_operations.c:348
     a84:	529ffec0 	mov	w0, #0xfff6                	// #65526
     a88:	0b000280 	add	w0, w20, w0
/home/asaf/devel/optee/optee_os/lib/libutee/tee_api_operations.c:347
     a8c:	721e781f 	tst	w0, #0xfffffffd
     a90:	54000060 	b.eq	a9c <TEE_AllocateOperation+0x7e4>
/home/asaf/devel/optee/optee_os/lib/libutee/tee_api_operations.c:349
     a94:	2a1403e0 	mov	w0, w20
     a98:	940006fa 	bl	2680 <TEE_Panic>
/home/asaf/devel/optee/optee_os/lib/libutee/tee_api_operations.c:351
     a9c:	b9405aa0 	ldr	w0, [x21,#88]
     aa0:	34000080 	cbz	w0, ab0 <TEE_AllocateOperation+0x7f8>
/home/asaf/devel/optee/optee_os/lib/libutee/tee_api_operations.c:352
     aa4:	aa1503e0 	mov	x0, x21
     aa8:	97fffdf3 	bl	274 <TEE_FreeOperation>
     aac:	17fffe82 	b	4b4 <TEE_AllocateOperation+0x1fc>
/home/asaf/devel/optee/optee_os/lib/libutee/tee_api_operations.c:354
     ab0:	f9401ea0 	ldr	x0, [x21,#56]
     ab4:	94000b4a 	bl	37dc <TEE_Free>
/home/asaf/devel/optee/optee_os/lib/libutee/tee_api_operations.c:355
     ab8:	f94012a0 	ldr	x0, [x21,#32]
     abc:	94000c2b 	bl	3b68 <TEE_FreeTransientObject>
/home/asaf/devel/optee/optee_os/lib/libutee/tee_api_operations.c:356
     ac0:	f94016a0 	ldr	x0, [x21,#40]
     ac4:	94000c29 	bl	3b68 <TEE_FreeTransientObject>
/home/asaf/devel/optee/optee_os/lib/libutee/tee_api_operations.c:357
     ac8:	aa1503e0 	mov	x0, x21
     acc:	94000b44 	bl	37dc <TEE_Free>
     ad0:	17fffe79 	b	4b4 <TEE_AllocateOperation+0x1fc>
     ad4:	2a0003f4 	mov	w20, w0
     ad8:	17ffffeb 	b	a84 <TEE_AllocateOperation+0x7cc>

0000000000000adc <TEE_GetOperationInfo>:
TEE_GetOperationInfo():
/home/asaf/devel/optee/optee_os/lib/libutee/tee_api_operations.c:387
     adc:	a9be7bfd 	stp	x29, x30, [sp,#-32]!
     ae0:	910003fd 	mov	x29, sp
     ae4:	a90153f3 	stp	x19, x20, [sp,#16]
     ae8:	aa0003f4 	mov	x20, x0
     aec:	aa0103f3 	mov	x19, x1
/home/asaf/devel/optee/optee_os/lib/libutee/tee_api_operations.c:388
     af0:	b5000060 	cbnz	x0, afc <TEE_GetOperationInfo+0x20>
/home/asaf/devel/optee/optee_os/lib/libutee/tee_api_operations.c:389
     af4:	52800000 	mov	w0, #0x0                   	// #0
     af8:	940006e2 	bl	2680 <TEE_Panic>
/home/asaf/devel/optee/optee_os/lib/libutee/tee_api_operations.c:391
     afc:	b5000073 	cbnz	x19, b08 <TEE_GetOperationInfo+0x2c>
/home/asaf/devel/optee/optee_os/lib/libutee/tee_api_operations.c:392
     b00:	52800000 	mov	w0, #0x0                   	// #0
     b04:	940006df 	bl	2680 <TEE_Panic>
/home/asaf/devel/optee/optee_os/lib/libutee/tee_api_operations.c:394
     b08:	aa1403e1 	mov	x1, x20
     b0c:	d2800402 	mov	x2, #0x20                  	// #32
     b10:	aa1303e0 	mov	x0, x19
     b14:	9400149c 	bl	5d84 <memcpy>
/home/asaf/devel/optee/optee_os/lib/libutee/tee_api_operations.c:395
     b18:	a94153f3 	ldp	x19, x20, [sp,#16]
     b1c:	a8c27bfd 	ldp	x29, x30, [sp],#32
     b20:	d65f03c0 	ret

0000000000000b24 <TEE_GetOperationInfoMultiple>:
TEE_GetOperationInfoMultiple():
/home/asaf/devel/optee/optee_os/lib/libutee/tee_api_operations.c:400
     b24:	a9b97bfd 	stp	x29, x30, [sp,#-112]!
/home/asaf/devel/optee/optee_os/lib/libutee/tee_api_operations.c:417
     b28:	f100005f 	cmp	x2, #0x0
     b2c:	fa401824 	ccmp	x1, #0x0, #0x4, ne
/home/asaf/devel/optee/optee_os/lib/libutee/tee_api_operations.c:400
     b30:	910003fd 	mov	x29, sp
     b34:	a9025bf5 	stp	x21, x22, [sp,#32]
/home/asaf/devel/optee/optee_os/lib/libutee/tee_api_operations.c:417
     b38:	fa401804 	ccmp	x0, #0x0, #0x4, ne
/home/asaf/devel/optee/optee_os/lib/libutee/tee_api_operations.c:400
     b3c:	a90153f3 	stp	x19, x20, [sp,#16]
/home/asaf/devel/optee/optee_os/lib/libutee/tee_api_operations.c:418
     b40:	129fff35 	mov	w21, #0xffff0006            	// #-65530
/home/asaf/devel/optee/optee_os/lib/libutee/tee_api_operations.c:417
     b44:	540004a0 	b.eq	bd8 <TEE_GetOperationInfoMultiple+0xb4>
/home/asaf/devel/optee/optee_os/lib/libutee/tee_api_operations.c:422
     b48:	b9400056 	ldr	w22, [x2]
     b4c:	d10082d6 	sub	x22, x22, #0x20
     b50:	d343fed6 	lsr	x22, x22, #3
/home/asaf/devel/optee/optee_os/lib/libutee/tee_api_operations.c:425
     b54:	71000adf 	cmp	w22, #0x2
     b58:	54000408 	b.hi	bd8 <TEE_GetOperationInfoMultiple+0xb4>
     b5c:	aa0003f4 	mov	x20, x0
/home/asaf/devel/optee/optee_os/lib/libutee/tee_api_operations.c:431
     b60:	b9401c00 	ldr	w0, [x0,#28]
/home/asaf/devel/optee/optee_os/lib/libutee/tee_api_operations.c:434
     b64:	129ffdf5 	mov	w21, #0xffff0010            	// #-65520
/home/asaf/devel/optee/optee_os/lib/libutee/tee_api_operations.c:432
     b68:	f26d001f 	tst	x0, #0x80000
     b6c:	7a421ac4 	ccmp	w22, #0x2, #0x4, ne
     b70:	54000341 	b.ne	bd8 <TEE_GetOperationInfoMultiple+0xb4>
/home/asaf/devel/optee/optee_os/lib/libutee/tee_api_operations.c:439
     b74:	92407ec2 	and	x2, x22, #0xffffffff
     b78:	aa0103f3 	mov	x19, x1
     b7c:	91008020 	add	x0, x1, #0x20
/home/asaf/devel/optee/optee_os/lib/libutee/tee_api_operations.c:432
     b80:	d2800001 	mov	x1, #0x0                   	// #0
/home/asaf/devel/optee/optee_os/lib/libutee/tee_api_operations.c:439 (discriminator 1)
     b84:	eb02003f 	cmp	x1, x2
     b88:	540003e3 	b.cc	c04 <TEE_GetOperationInfoMultiple+0xe0>
/home/asaf/devel/optee/optee_os/lib/libutee/tee_api_operations.c:444
     b8c:	71000adf 	cmp	w22, #0x2
     b90:	54000421 	b.ne	c14 <TEE_GetOperationInfoMultiple+0xf0>
/home/asaf/devel/optee/optee_os/lib/libutee/tee_api_operations.c:445
     b94:	f9401680 	ldr	x0, [x20,#40]
     b98:	910143a1 	add	x1, x29, #0x50
     b9c:	94000b3c 	bl	388c <TEE_GetObjectInfo1>
     ba0:	2a0003f5 	mov	w21, w0
/home/asaf/devel/optee/optee_os/lib/libutee/tee_api_operations.c:447
     ba4:	350001a0 	cbnz	w0, bd8 <TEE_GetOperationInfoMultiple+0xb4>
/home/asaf/devel/optee/optee_os/lib/libutee/tee_api_operations.c:450
     ba8:	b94057a0 	ldr	w0, [x29,#84]
     bac:	b9002a60 	str	w0, [x19,#40]
/home/asaf/devel/optee/optee_os/lib/libutee/tee_api_operations.c:452
     bb0:	b9401a80 	ldr	w0, [x20,#24]
     bb4:	b9002e60 	str	w0, [x19,#44]
/home/asaf/devel/optee/optee_os/lib/libutee/tee_api_operations.c:457
     bb8:	f9401280 	ldr	x0, [x20,#32]
     bbc:	9100c3a1 	add	x1, x29, #0x30
     bc0:	94000b33 	bl	388c <TEE_GetObjectInfo1>
     bc4:	2a0003f5 	mov	w21, w0
/home/asaf/devel/optee/optee_os/lib/libutee/tee_api_operations.c:459
     bc8:	34000480 	cbz	w0, c58 <TEE_GetOperationInfoMultiple+0x134>
/home/asaf/devel/optee/optee_os/lib/libutee/tee_api_operations.c:460
     bcc:	71000adf 	cmp	w22, #0x2
     bd0:	54000041 	b.ne	bd8 <TEE_GetOperationInfoMultiple+0xb4>
/home/asaf/devel/optee/optee_os/lib/libutee/tee_api_operations.c:464
     bd4:	29057e7f 	stp	wzr, wzr, [x19,#40]
/home/asaf/devel/optee/optee_os/lib/libutee/tee_api_operations.c:486
     bd8:	710002bf 	cmp	w21, #0x0
     bdc:	129ffde0 	mov	w0, #0xffff0010            	// #-65520
     be0:	7a4012a4 	ccmp	w21, w0, #0x4, ne
     be4:	54000060 	b.eq	bf0 <TEE_GetOperationInfoMultiple+0xcc>
/home/asaf/devel/optee/optee_os/lib/libutee/tee_api_operations.c:488
     be8:	2a1503e0 	mov	w0, w21
     bec:	940006a5 	bl	2680 <TEE_Panic>
/home/asaf/devel/optee/optee_os/lib/libutee/tee_api_operations.c:491
     bf0:	2a1503e0 	mov	w0, w21
     bf4:	a94153f3 	ldp	x19, x20, [sp,#16]
     bf8:	a9425bf5 	ldp	x21, x22, [sp,#32]
     bfc:	a8c77bfd 	ldp	x29, x30, [sp],#112
     c00:	d65f03c0 	ret
/home/asaf/devel/optee/optee_os/lib/libutee/tee_api_operations.c:441 (discriminator 3)
     c04:	29007c1f 	stp	wzr, wzr, [x0]
/home/asaf/devel/optee/optee_os/lib/libutee/tee_api_operations.c:439 (discriminator 3)
     c08:	91000421 	add	x1, x1, #0x1
     c0c:	91002000 	add	x0, x0, #0x8
     c10:	17ffffdd 	b	b84 <TEE_GetOperationInfoMultiple+0x60>
/home/asaf/devel/optee/optee_os/lib/libutee/tee_api_operations.c:456
     c14:	35fffd36 	cbnz	w22, bb8 <TEE_GetOperationInfoMultiple+0x94>
/home/asaf/devel/optee/optee_os/lib/libutee/tee_api_operations.c:476
     c18:	b9400280 	ldr	w0, [x20]
/home/asaf/devel/optee/optee_os/lib/libutee/tee_api_operations.c:483
     c1c:	52800015 	mov	w21, #0x0                   	// #0
/home/asaf/devel/optee/optee_os/lib/libutee/tee_api_operations.c:476
     c20:	b9000260 	str	w0, [x19]
/home/asaf/devel/optee/optee_os/lib/libutee/tee_api_operations.c:477
     c24:	b9400680 	ldr	w0, [x20,#4]
     c28:	b9000660 	str	w0, [x19,#4]
/home/asaf/devel/optee/optee_os/lib/libutee/tee_api_operations.c:478
     c2c:	b9400a80 	ldr	w0, [x20,#8]
     c30:	b9000a60 	str	w0, [x19,#8]
/home/asaf/devel/optee/optee_os/lib/libutee/tee_api_operations.c:479
     c34:	b9400e80 	ldr	w0, [x20,#12]
     c38:	b9000e60 	str	w0, [x19,#12]
/home/asaf/devel/optee/optee_os/lib/libutee/tee_api_operations.c:480
     c3c:	b9401280 	ldr	w0, [x20,#16]
     c40:	b9001260 	str	w0, [x19,#16]
/home/asaf/devel/optee/optee_os/lib/libutee/tee_api_operations.c:481
     c44:	b9401e80 	ldr	w0, [x20,#28]
     c48:	b9001660 	str	w0, [x19,#20]
/home/asaf/devel/optee/optee_os/lib/libutee/tee_api_operations.c:482
     c4c:	b9403280 	ldr	w0, [x20,#48]
/home/asaf/devel/optee/optee_os/lib/libutee/tee_api_operations.c:483
     c50:	29035a60 	stp	w0, w22, [x19,#24]
     c54:	17ffffe1 	b	bd8 <TEE_GetOperationInfoMultiple+0xb4>
/home/asaf/devel/optee/optee_os/lib/libutee/tee_api_operations.c:469
     c58:	b94037a0 	ldr	w0, [x29,#52]
     c5c:	b9002260 	str	w0, [x19,#32]
/home/asaf/devel/optee/optee_os/lib/libutee/tee_api_operations.c:471
     c60:	b9401a80 	ldr	w0, [x20,#24]
     c64:	b9002660 	str	w0, [x19,#36]
     c68:	17ffffec 	b	c18 <TEE_GetOperationInfoMultiple+0xf4>

0000000000000c6c <TEE_ResetOperation>:
TEE_ResetOperation():
/home/asaf/devel/optee/optee_os/lib/libutee/tee_api_operations.c:494
     c6c:	a9be7bfd 	stp	x29, x30, [sp,#-32]!
     c70:	910003fd 	mov	x29, sp
     c74:	f9000bf3 	str	x19, [sp,#16]
     c78:	aa0003f3 	mov	x19, x0
/home/asaf/devel/optee/optee_os/lib/libutee/tee_api_operations.c:497
     c7c:	b5000060 	cbnz	x0, c88 <TEE_ResetOperation+0x1c>
/home/asaf/devel/optee/optee_os/lib/libutee/tee_api_operations.c:498
     c80:	52800000 	mov	w0, #0x0                   	// #0
     c84:	9400067f 	bl	2680 <TEE_Panic>
/home/asaf/devel/optee/optee_os/lib/libutee/tee_api_operations.c:500
     c88:	b9401e60 	ldr	w0, [x19,#28]
     c8c:	37900060 	tbnz	w0, #18, c98 <TEE_ResetOperation+0x2c>
/home/asaf/devel/optee/optee_os/lib/libutee/tee_api_operations.c:501
     c90:	52800000 	mov	w0, #0x0                   	// #0
     c94:	9400067b 	bl	2680 <TEE_Panic>
/home/asaf/devel/optee/optee_os/lib/libutee/tee_api_operations.c:505
     c98:	b9400660 	ldr	w0, [x19,#4]
/home/asaf/devel/optee/optee_os/lib/libutee/tee_api_operations.c:503
     c9c:	b900327f 	str	wzr, [x19,#48]
/home/asaf/devel/optee/optee_os/lib/libutee/tee_api_operations.c:505
     ca0:	7100141f 	cmp	w0, #0x5
     ca4:	540001a1 	b.ne	cd8 <TEE_ResetOperation+0x6c>
/home/asaf/devel/optee/optee_os/lib/libutee/tee_api_operations.c:506
     ca8:	b9405a60 	ldr	w0, [x19,#88]
     cac:	d2800002 	mov	x2, #0x0                   	// #0
     cb0:	d2800001 	mov	x1, #0x0                   	// #0
     cb4:	9400075e 	bl	2a2c <utee_hash_init>
/home/asaf/devel/optee/optee_os/lib/libutee/tee_api_operations.c:507
     cb8:	34000040 	cbz	w0, cc0 <TEE_ResetOperation+0x54>
/home/asaf/devel/optee/optee_os/lib/libutee/tee_api_operations.c:508
     cbc:	94000671 	bl	2680 <TEE_Panic>
/home/asaf/devel/optee/optee_os/lib/libutee/tee_api_operations.c:509
     cc0:	b9401e60 	ldr	w0, [x19,#28]
     cc4:	320f0000 	orr	w0, w0, #0x20000
/home/asaf/devel/optee/optee_os/lib/libutee/tee_api_operations.c:511
     cc8:	b9001e60 	str	w0, [x19,#28]
/home/asaf/devel/optee/optee_os/lib/libutee/tee_api_operations.c:513
     ccc:	f9400bf3 	ldr	x19, [sp,#16]
     cd0:	a8c27bfd 	ldp	x29, x30, [sp],#32
     cd4:	d65f03c0 	ret
/home/asaf/devel/optee/optee_os/lib/libutee/tee_api_operations.c:511
     cd8:	b9401e60 	ldr	w0, [x19,#28]
     cdc:	120e7800 	and	w0, w0, #0xfffdffff
     ce0:	17fffffa 	b	cc8 <TEE_ResetOperation+0x5c>

0000000000000ce4 <TEE_SetOperationKey>:
TEE_SetOperationKey():
/home/asaf/devel/optee/optee_os/lib/libutee/tee_api_operations.c:517
     ce4:	a9bb7bfd 	stp	x29, x30, [sp,#-80]!
     ce8:	910003fd 	mov	x29, sp
     cec:	a90153f3 	stp	x19, x20, [sp,#16]
     cf0:	a9025bf5 	stp	x21, x22, [sp,#32]
/home/asaf/devel/optee/optee_os/lib/libutee/tee_api_operations.c:522
     cf4:	b50001e0 	cbnz	x0, d30 <TEE_SetOperationKey+0x4c>
/home/asaf/devel/optee/optee_os/lib/libutee/tee_api_operations.c:535
     cf8:	129fff34 	mov	w20, #0xffff0006            	// #-65530
/home/asaf/devel/optee/optee_os/lib/libutee/tee_api_operations.c:584
     cfc:	121e7a80 	and	w0, w20, #0xfffffffd
     d00:	7100029f 	cmp	w20, #0x0
     d04:	52800021 	mov	w1, #0x1                   	// #1
     d08:	72be0201 	movk	w1, #0xf010, lsl #16
     d0c:	7a411004 	ccmp	w0, w1, #0x4, ne
     d10:	54000060 	b.eq	d1c <TEE_SetOperationKey+0x38>
/home/asaf/devel/optee/optee_os/lib/libutee/tee_api_operations.c:586
     d14:	2a1403e0 	mov	w0, w20
     d18:	9400065a 	bl	2680 <TEE_Panic>
/home/asaf/devel/optee/optee_os/lib/libutee/tee_api_operations.c:589
     d1c:	2a1403e0 	mov	w0, w20
     d20:	a94153f3 	ldp	x19, x20, [sp,#16]
     d24:	a9425bf5 	ldp	x21, x22, [sp,#32]
     d28:	a8c57bfd 	ldp	x29, x30, [sp],#80
     d2c:	d65f03c0 	ret
     d30:	aa0003f3 	mov	x19, x0
/home/asaf/devel/optee/optee_os/lib/libutee/tee_api_operations.c:527
     d34:	b9403000 	ldr	w0, [x0,#48]
     d38:	35fffe00 	cbnz	w0, cf8 <TEE_SetOperationKey+0x14>
     d3c:	aa0103f5 	mov	x21, x1
/home/asaf/devel/optee/optee_os/lib/libutee/tee_api_operations.c:532
     d40:	b5000081 	cbnz	x1, d50 <TEE_SetOperationKey+0x6c>
/home/asaf/devel/optee/optee_os/lib/libutee/tee_api_operations.c:534
     d44:	f9401260 	ldr	x0, [x19,#32]
     d48:	94000b9d 	bl	3bbc <TEE_ResetTransientObject>
     d4c:	17ffffeb 	b	cf8 <TEE_SetOperationKey+0x14>
/home/asaf/devel/optee/optee_os/lib/libutee/tee_api_operations.c:540
     d50:	b9400660 	ldr	w0, [x19,#4]
     d54:	7100141f 	cmp	w0, #0x5
     d58:	54fffd00 	b.eq	cf8 <TEE_SetOperationKey+0x14>
/home/asaf/devel/optee/optee_os/lib/libutee/tee_api_operations.c:546
     d5c:	b9401e60 	ldr	w0, [x19,#28]
     d60:	379ffcc0 	tbnz	w0, #19, cf8 <TEE_SetOperationKey+0x14>
/home/asaf/devel/optee/optee_os/lib/libutee/tee_api_operations.c:552
     d64:	9100c3a1 	add	x1, x29, #0x30
     d68:	aa1503e0 	mov	x0, x21
     d6c:	94000ac8 	bl	388c <TEE_GetObjectInfo1>
     d70:	2a0003f4 	mov	w20, w0
/home/asaf/devel/optee/optee_os/lib/libutee/tee_api_operations.c:554
     d74:	35fffc40 	cbnz	w0, cfc <TEE_SetOperationKey+0x18>
/home/asaf/devel/optee/optee_os/lib/libutee/tee_api_operations.c:558
     d78:	b9401a60 	ldr	w0, [x19,#24]
     d7c:	b9403fa1 	ldr	w1, [x29,#60]
     d80:	6a21001f 	bics	wzr, w0, w1
     d84:	54fffba1 	b.ne	cf8 <TEE_SetOperationKey+0x14>
/home/asaf/devel/optee/optee_os/lib/libutee/tee_api_operations.c:564
     d88:	b9401260 	ldr	w0, [x19,#16]
     d8c:	b94037b6 	ldr	w22, [x29,#52]
     d90:	6b16001f 	cmp	w0, w22
     d94:	54fffb23 	b.cc	cf8 <TEE_SetOperationKey+0x14>
/home/asaf/devel/optee/optee_os/lib/libutee/tee_api_operations.c:571
     d98:	f9401260 	ldr	x0, [x19,#32]
     d9c:	94000b88 	bl	3bbc <TEE_ResetTransientObject>
/home/asaf/devel/optee/optee_os/lib/libutee/tee_api_operations.c:572
     da0:	b9401e60 	ldr	w0, [x19,#28]
/home/asaf/devel/optee/optee_os/lib/libutee/tee_api_operations.c:574
     da4:	aa1503e1 	mov	x1, x21
/home/asaf/devel/optee/optee_os/lib/libutee/tee_api_operations.c:572
     da8:	120d7800 	and	w0, w0, #0xfffbffff
     dac:	b9001e60 	str	w0, [x19,#28]
/home/asaf/devel/optee/optee_os/lib/libutee/tee_api_operations.c:574
     db0:	f9401260 	ldr	x0, [x19,#32]
     db4:	94000bf0 	bl	3d74 <TEE_CopyObjectAttributes1>
     db8:	2a0003f4 	mov	w20, w0
/home/asaf/devel/optee/optee_os/lib/libutee/tee_api_operations.c:575
     dbc:	35fffa00 	cbnz	w0, cfc <TEE_SetOperationKey+0x18>
/home/asaf/devel/optee/optee_os/lib/libutee/tee_api_operations.c:578
     dc0:	b9401e60 	ldr	w0, [x19,#28]
/home/asaf/devel/optee/optee_os/lib/libutee/tee_api_operations.c:580
     dc4:	b9001676 	str	w22, [x19,#20]
/home/asaf/devel/optee/optee_os/lib/libutee/tee_api_operations.c:578
     dc8:	320e0000 	orr	w0, w0, #0x40000
     dcc:	b9001e60 	str	w0, [x19,#28]
     dd0:	17ffffcb 	b	cfc <TEE_SetOperationKey+0x18>

0000000000000dd4 <TEE_SetOperationKey2>:
TEE_SetOperationKey2():
/home/asaf/devel/optee/optee_os/lib/libutee/tee_api_operations.c:593
     dd4:	a9b87bfd 	stp	x29, x30, [sp,#-128]!
     dd8:	910003fd 	mov	x29, sp
     ddc:	a90153f3 	stp	x19, x20, [sp,#16]
     de0:	a9025bf5 	stp	x21, x22, [sp,#32]
     de4:	f9001bf7 	str	x23, [sp,#48]
/home/asaf/devel/optee/optee_os/lib/libutee/tee_api_operations.c:599
     de8:	b50001e0 	cbnz	x0, e24 <TEE_SetOperationKey2+0x50>
/home/asaf/devel/optee/optee_os/lib/libutee/tee_api_operations.c:620
     dec:	129fff34 	mov	w20, #0xffff0006            	// #-65530
/home/asaf/devel/optee/optee_os/lib/libutee/tee_api_operations.c:707
     df0:	12be0200 	mov	w0, #0xfefffff             	// #267386879
/home/asaf/devel/optee/optee_os/lib/libutee/tee_api_operations.c:706
     df4:	7100029f 	cmp	w20, #0x0
/home/asaf/devel/optee/optee_os/lib/libutee/tee_api_operations.c:707
     df8:	0b000280 	add	w0, w20, w0
/home/asaf/devel/optee/optee_os/lib/libutee/tee_api_operations.c:706
     dfc:	7a431800 	ccmp	w0, #0x3, #0x0, ne
     e00:	54000069 	b.ls	e0c <TEE_SetOperationKey2+0x38>
/home/asaf/devel/optee/optee_os/lib/libutee/tee_api_operations.c:711
     e04:	2a1403e0 	mov	w0, w20
     e08:	9400061e 	bl	2680 <TEE_Panic>
/home/asaf/devel/optee/optee_os/lib/libutee/tee_api_operations.c:714
     e0c:	2a1403e0 	mov	w0, w20
     e10:	f9401bf7 	ldr	x23, [sp,#48]
     e14:	a94153f3 	ldp	x19, x20, [sp,#16]
     e18:	a9425bf5 	ldp	x21, x22, [sp,#32]
     e1c:	a8c87bfd 	ldp	x29, x30, [sp],#128
     e20:	d65f03c0 	ret
     e24:	aa0003f3 	mov	x19, x0
/home/asaf/devel/optee/optee_os/lib/libutee/tee_api_operations.c:604
     e28:	b9403000 	ldr	w0, [x0,#48]
     e2c:	35fffe00 	cbnz	w0, dec <TEE_SetOperationKey2+0x18>
/home/asaf/devel/optee/optee_os/lib/libutee/tee_api_operations.c:613
     e30:	f100003f 	cmp	x1, #0x0
     e34:	aa0103f6 	mov	x22, x1
     e38:	aa0203f5 	mov	x21, x2
     e3c:	fa401844 	ccmp	x2, #0x0, #0x4, ne
     e40:	54000121 	b.ne	e64 <TEE_SetOperationKey2+0x90>
/home/asaf/devel/optee/optee_os/lib/libutee/tee_api_operations.c:615
     e44:	b4000081 	cbz	x1, e54 <TEE_SetOperationKey2+0x80>
/home/asaf/devel/optee/optee_os/lib/libutee/tee_api_operations.c:619
     e48:	f9401660 	ldr	x0, [x19,#40]
     e4c:	94000b5c 	bl	3bbc <TEE_ResetTransientObject>
     e50:	17ffffe7 	b	dec <TEE_SetOperationKey2+0x18>
/home/asaf/devel/optee/optee_os/lib/libutee/tee_api_operations.c:616
     e54:	f9401260 	ldr	x0, [x19,#32]
     e58:	94000b59 	bl	3bbc <TEE_ResetTransientObject>
/home/asaf/devel/optee/optee_os/lib/libutee/tee_api_operations.c:618
     e5c:	b5fffc95 	cbnz	x21, dec <TEE_SetOperationKey2+0x18>
     e60:	17fffffa 	b	e48 <TEE_SetOperationKey2+0x74>
/home/asaf/devel/optee/optee_os/lib/libutee/tee_api_operations.c:625
     e64:	b9400660 	ldr	w0, [x19,#4]
     e68:	7100141f 	cmp	w0, #0x5
     e6c:	54fffc00 	b.eq	dec <TEE_SetOperationKey2+0x18>
/home/asaf/devel/optee/optee_os/lib/libutee/tee_api_operations.c:631
     e70:	b9401e60 	ldr	w0, [x19,#28]
     e74:	369ffbc0 	tbz	w0, #19, dec <TEE_SetOperationKey2+0x18>
/home/asaf/devel/optee/optee_os/lib/libutee/tee_api_operations.c:637
     e78:	910103a1 	add	x1, x29, #0x40
     e7c:	aa1603e0 	mov	x0, x22
     e80:	94000a83 	bl	388c <TEE_GetObjectInfo1>
     e84:	2a0003f4 	mov	w20, w0
/home/asaf/devel/optee/optee_os/lib/libutee/tee_api_operations.c:639
     e88:	35fffb40 	cbnz	w0, df0 <TEE_SetOperationKey2+0x1c>
/home/asaf/devel/optee/optee_os/lib/libutee/tee_api_operations.c:643
     e8c:	b9401a60 	ldr	w0, [x19,#24]
     e90:	b9404fa1 	ldr	w1, [x29,#76]
     e94:	6a21001f 	bics	wzr, w0, w1
     e98:	54fffaa1 	b.ne	dec <TEE_SetOperationKey2+0x18>
/home/asaf/devel/optee/optee_os/lib/libutee/tee_api_operations.c:649
     e9c:	910183a1 	add	x1, x29, #0x60
     ea0:	aa1503e0 	mov	x0, x21
     ea4:	94000a7a 	bl	388c <TEE_GetObjectInfo1>
     ea8:	2a0003f4 	mov	w20, w0
/home/asaf/devel/optee/optee_os/lib/libutee/tee_api_operations.c:651
     eac:	34000100 	cbz	w0, ecc <TEE_SetOperationKey2+0xf8>
/home/asaf/devel/optee/optee_os/lib/libutee/tee_api_operations.c:652
     eb0:	52800020 	mov	w0, #0x1                   	// #1
     eb4:	72be0200 	movk	w0, #0xf010, lsl #16
     eb8:	6b00029f 	cmp	w20, w0
     ebc:	54fff9a1 	b.ne	df0 <TEE_SetOperationKey2+0x1c>
/home/asaf/devel/optee/optee_os/lib/libutee/tee_api_operations.c:653
     ec0:	52800054 	mov	w20, #0x2                   	// #2
     ec4:	72be0214 	movk	w20, #0xf010, lsl #16
     ec8:	17ffffca 	b	df0 <TEE_SetOperationKey2+0x1c>
/home/asaf/devel/optee/optee_os/lib/libutee/tee_api_operations.c:658
     ecc:	b9401a60 	ldr	w0, [x19,#24]
     ed0:	b9406fa1 	ldr	w1, [x29,#108]
     ed4:	6a21001f 	bics	wzr, w0, w1
     ed8:	54fff8a1 	b.ne	dec <TEE_SetOperationKey2+0x18>
/home/asaf/devel/optee/optee_os/lib/libutee/tee_api_operations.c:668
     edc:	b9400261 	ldr	w1, [x19]
     ee0:	52808200 	mov	w0, #0x410                 	// #1040
     ee4:	72a20000 	movk	w0, #0x1000, lsl #16
     ee8:	b94047b7 	ldr	w23, [x29,#68]
     eec:	6b00003f 	cmp	w1, w0
     ef0:	54000081 	b.ne	f00 <TEE_SetOperationKey2+0x12c>
/home/asaf/devel/optee/optee_os/lib/libutee/tee_api_operations.c:668 (discriminator 1)
     ef4:	b94067a0 	ldr	w0, [x29,#100]
     ef8:	6b0002ff 	cmp	w23, w0
     efc:	54fff781 	b.ne	dec <TEE_SetOperationKey2+0x18>
/home/asaf/devel/optee/optee_os/lib/libutee/tee_api_operations.c:675
     f00:	b9401260 	ldr	w0, [x19,#16]
     f04:	6b17001f 	cmp	w0, w23
     f08:	54fff723 	b.cc	dec <TEE_SetOperationKey2+0x18>
/home/asaf/devel/optee/optee_os/lib/libutee/tee_api_operations.c:686
     f0c:	f9401260 	ldr	x0, [x19,#32]
     f10:	94000b2b 	bl	3bbc <TEE_ResetTransientObject>
/home/asaf/devel/optee/optee_os/lib/libutee/tee_api_operations.c:687
     f14:	f9401660 	ldr	x0, [x19,#40]
     f18:	94000b29 	bl	3bbc <TEE_ResetTransientObject>
/home/asaf/devel/optee/optee_os/lib/libutee/tee_api_operations.c:688
     f1c:	b9401e60 	ldr	w0, [x19,#28]
/home/asaf/devel/optee/optee_os/lib/libutee/tee_api_operations.c:690
     f20:	aa1603e1 	mov	x1, x22
/home/asaf/devel/optee/optee_os/lib/libutee/tee_api_operations.c:688
     f24:	120d7800 	and	w0, w0, #0xfffbffff
     f28:	b9001e60 	str	w0, [x19,#28]
/home/asaf/devel/optee/optee_os/lib/libutee/tee_api_operations.c:690
     f2c:	f9401260 	ldr	x0, [x19,#32]
     f30:	94000b91 	bl	3d74 <TEE_CopyObjectAttributes1>
     f34:	2a0003f4 	mov	w20, w0
/home/asaf/devel/optee/optee_os/lib/libutee/tee_api_operations.c:691
     f38:	35fff5c0 	cbnz	w0, df0 <TEE_SetOperationKey2+0x1c>
/home/asaf/devel/optee/optee_os/lib/libutee/tee_api_operations.c:694
     f3c:	f9401660 	ldr	x0, [x19,#40]
     f40:	aa1503e1 	mov	x1, x21
     f44:	94000b8c 	bl	3d74 <TEE_CopyObjectAttributes1>
     f48:	2a0003f4 	mov	w20, w0
/home/asaf/devel/optee/optee_os/lib/libutee/tee_api_operations.c:695
     f4c:	35fffb20 	cbnz	w0, eb0 <TEE_SetOperationKey2+0xdc>
/home/asaf/devel/optee/optee_os/lib/libutee/tee_api_operations.c:701
     f50:	b9401e60 	ldr	w0, [x19,#28]
/home/asaf/devel/optee/optee_os/lib/libutee/tee_api_operations.c:703
     f54:	b9001677 	str	w23, [x19,#20]
/home/asaf/devel/optee/optee_os/lib/libutee/tee_api_operations.c:701
     f58:	320e0000 	orr	w0, w0, #0x40000
     f5c:	b9001e60 	str	w0, [x19,#28]
     f60:	17ffffa4 	b	df0 <TEE_SetOperationKey2+0x1c>

0000000000000f64 <TEE_CopyOperation>:
TEE_CopyOperation():
/home/asaf/devel/optee/optee_os/lib/libutee/tee_api_operations.c:717
     f64:	a9be7bfd 	stp	x29, x30, [sp,#-32]!
/home/asaf/devel/optee/optee_os/lib/libutee/tee_api_operations.c:720
     f68:	f100001f 	cmp	x0, #0x0
     f6c:	fa401824 	ccmp	x1, #0x0, #0x4, ne
/home/asaf/devel/optee/optee_os/lib/libutee/tee_api_operations.c:717
     f70:	910003fd 	mov	x29, sp
     f74:	a90153f3 	stp	x19, x20, [sp,#16]
     f78:	aa0003f4 	mov	x20, x0
     f7c:	aa0103f3 	mov	x19, x1
/home/asaf/devel/optee/optee_os/lib/libutee/tee_api_operations.c:720
     f80:	54000061 	b.ne	f8c <TEE_CopyOperation+0x28>
/home/asaf/devel/optee/optee_os/lib/libutee/tee_api_operations.c:721
     f84:	52800000 	mov	w0, #0x0                   	// #0
     f88:	940005be 	bl	2680 <TEE_Panic>
/home/asaf/devel/optee/optee_os/lib/libutee/tee_api_operations.c:722
     f8c:	b9400260 	ldr	w0, [x19]
     f90:	b9400281 	ldr	w1, [x20]
     f94:	6b00003f 	cmp	w1, w0
     f98:	54000060 	b.eq	fa4 <TEE_CopyOperation+0x40>
/home/asaf/devel/optee/optee_os/lib/libutee/tee_api_operations.c:723
     f9c:	52800000 	mov	w0, #0x0                   	// #0
     fa0:	940005b8 	bl	2680 <TEE_Panic>
/home/asaf/devel/optee/optee_os/lib/libutee/tee_api_operations.c:724
     fa4:	b9400660 	ldr	w0, [x19,#4]
     fa8:	7100141f 	cmp	w0, #0x5
     fac:	540000e0 	b.eq	fc8 <TEE_CopyOperation+0x64>
/home/asaf/devel/optee/optee_os/lib/libutee/tee_api_operations.c:728
     fb0:	b9401e60 	ldr	w0, [x19,#28]
     fb4:	369004e0 	tbz	w0, #18, 1050 <TEE_CopyOperation+0xec>
/home/asaf/devel/optee/optee_os/lib/libutee/tee_api_operations.c:730
     fb8:	a9420a61 	ldp	x1, x2, [x19,#32]
/home/asaf/devel/optee/optee_os/lib/libutee/tee_api_operations.c:733
     fbc:	37980500 	tbnz	w0, #19, 105c <TEE_CopyOperation+0xf8>
/home/asaf/devel/optee/optee_os/lib/libutee/tee_api_operations.c:735
     fc0:	aa1403e0 	mov	x0, x20
     fc4:	97ffff48 	bl	ce4 <TEE_SetOperationKey>
/home/asaf/devel/optee/optee_os/lib/libutee/tee_api_operations.c:740
     fc8:	b9401e60 	ldr	w0, [x19,#28]
     fcc:	b9001e80 	str	w0, [x20,#28]
/home/asaf/devel/optee/optee_os/lib/libutee/tee_api_operations.c:741
     fd0:	b9401660 	ldr	w0, [x19,#20]
     fd4:	b9001680 	str	w0, [x20,#20]
/home/asaf/devel/optee/optee_os/lib/libutee/tee_api_operations.c:742
     fd8:	b9403260 	ldr	w0, [x19,#48]
/home/asaf/devel/optee/optee_os/lib/libutee/tee_api_operations.c:744
     fdc:	39410281 	ldrb	w1, [x20,#64]
/home/asaf/devel/optee/optee_os/lib/libutee/tee_api_operations.c:742
     fe0:	b9003280 	str	w0, [x20,#48]
/home/asaf/devel/optee/optee_os/lib/libutee/tee_api_operations.c:744
     fe4:	39410260 	ldrb	w0, [x19,#64]
     fe8:	6b00003f 	cmp	w1, w0
     fec:	540000a1 	b.ne	1000 <TEE_CopyOperation+0x9c>
/home/asaf/devel/optee/optee_os/lib/libutee/tee_api_operations.c:744 (discriminator 1)
     ff0:	f9402660 	ldr	x0, [x19,#72]
     ff4:	f9402681 	ldr	x1, [x20,#72]
     ff8:	eb00003f 	cmp	x1, x0
     ffc:	54000060 	b.eq	1008 <TEE_CopyOperation+0xa4>
/home/asaf/devel/optee/optee_os/lib/libutee/tee_api_operations.c:746
    1000:	52800000 	mov	w0, #0x0                   	// #0
    1004:	9400059f 	bl	2680 <TEE_Panic>
/home/asaf/devel/optee/optee_os/lib/libutee/tee_api_operations.c:748
    1008:	f9401e81 	ldr	x1, [x20,#56]
    100c:	f9401e60 	ldr	x0, [x19,#56]
    1010:	b40002c1 	cbz	x1, 1068 <TEE_CopyOperation+0x104>
/home/asaf/devel/optee/optee_os/lib/libutee/tee_api_operations.c:749
    1014:	b5000040 	cbnz	x0, 101c <TEE_CopyOperation+0xb8>
/home/asaf/devel/optee/optee_os/lib/libutee/tee_api_operations.c:750
    1018:	9400059a 	bl	2680 <TEE_Panic>
/home/asaf/devel/optee/optee_os/lib/libutee/tee_api_operations.c:752
    101c:	f9401e61 	ldr	x1, [x19,#56]
    1020:	f9402a62 	ldr	x2, [x19,#80]
    1024:	f9401e80 	ldr	x0, [x20,#56]
    1028:	94001357 	bl	5d84 <memcpy>
/home/asaf/devel/optee/optee_os/lib/libutee/tee_api_operations.c:753
    102c:	f9402a60 	ldr	x0, [x19,#80]
    1030:	f9002a80 	str	x0, [x20,#80]
/home/asaf/devel/optee/optee_os/lib/libutee/tee_api_operations.c:758
    1034:	b9405a61 	ldr	w1, [x19,#88]
    1038:	b9405a80 	ldr	w0, [x20,#88]
    103c:	94000676 	bl	2a14 <utee_cryp_state_copy>
/home/asaf/devel/optee/optee_os/lib/libutee/tee_api_operations.c:759
    1040:	340001c0 	cbz	w0, 1078 <TEE_CopyOperation+0x114>
/home/asaf/devel/optee/optee_os/lib/libutee/tee_api_operations.c:761
    1044:	a94153f3 	ldp	x19, x20, [sp,#16]
    1048:	a8c27bfd 	ldp	x29, x30, [sp],#32
/home/asaf/devel/optee/optee_os/lib/libutee/tee_api_operations.c:760
    104c:	1400058d 	b	2680 <TEE_Panic>
/home/asaf/devel/optee/optee_os/lib/libutee/tee_api_operations.c:726
    1050:	d2800002 	mov	x2, #0x0                   	// #0
/home/asaf/devel/optee/optee_os/lib/libutee/tee_api_operations.c:725
    1054:	d2800001 	mov	x1, #0x0                   	// #0
    1058:	17ffffd9 	b	fbc <TEE_CopyOperation+0x58>
/home/asaf/devel/optee/optee_os/lib/libutee/tee_api_operations.c:737
    105c:	aa1403e0 	mov	x0, x20
    1060:	97ffff5d 	bl	dd4 <TEE_SetOperationKey2>
    1064:	17ffffd9 	b	fc8 <TEE_CopyOperation+0x64>
/home/asaf/devel/optee/optee_os/lib/libutee/tee_api_operations.c:754
    1068:	b4fffe60 	cbz	x0, 1034 <TEE_CopyOperation+0xd0>
/home/asaf/devel/optee/optee_os/lib/libutee/tee_api_operations.c:755
    106c:	52800000 	mov	w0, #0x0                   	// #0
    1070:	94000584 	bl	2680 <TEE_Panic>
    1074:	17fffff0 	b	1034 <TEE_CopyOperation+0xd0>
/home/asaf/devel/optee/optee_os/lib/libutee/tee_api_operations.c:761
    1078:	a94153f3 	ldp	x19, x20, [sp,#16]
    107c:	a8c27bfd 	ldp	x29, x30, [sp],#32
    1080:	d65f03c0 	ret

0000000000001084 <TEE_DigestUpdate>:
TEE_DigestUpdate():
/home/asaf/devel/optee/optee_os/lib/libutee/tee_api_operations.c:783
    1084:	a9bd7bfd 	stp	x29, x30, [sp,#-48]!
    1088:	910003fd 	mov	x29, sp
    108c:	a90153f3 	stp	x19, x20, [sp,#16]
    1090:	aa0003f3 	mov	x19, x0
    1094:	f90013f5 	str	x21, [sp,#32]
    1098:	aa0103f4 	mov	x20, x1
    109c:	2a0203f5 	mov	w21, w2
/home/asaf/devel/optee/optee_os/lib/libutee/tee_api_operations.c:786
    10a0:	b4000080 	cbz	x0, 10b0 <TEE_DigestUpdate+0x2c>
/home/asaf/devel/optee/optee_os/lib/libutee/tee_api_operations.c:786 (discriminator 1)
    10a4:	b9400400 	ldr	w0, [x0,#4]
    10a8:	7100141f 	cmp	w0, #0x5
    10ac:	54000060 	b.eq	10b8 <TEE_DigestUpdate+0x34>
/home/asaf/devel/optee/optee_os/lib/libutee/tee_api_operations.c:788
    10b0:	52800000 	mov	w0, #0x0                   	// #0
    10b4:	94000573 	bl	2680 <TEE_Panic>
/home/asaf/devel/optee/optee_os/lib/libutee/tee_api_operations.c:790
    10b8:	52800020 	mov	w0, #0x1                   	// #1
    10bc:	b9003260 	str	w0, [x19,#48]
/home/asaf/devel/optee/optee_os/lib/libutee/tee_api_operations.c:792
    10c0:	b9405a60 	ldr	w0, [x19,#88]
    10c4:	2a1503e2 	mov	w2, w21
    10c8:	aa1403e1 	mov	x1, x20
    10cc:	9400065b 	bl	2a38 <utee_hash_update>
/home/asaf/devel/optee/optee_os/lib/libutee/tee_api_operations.c:793
    10d0:	340000a0 	cbz	w0, 10e4 <TEE_DigestUpdate+0x60>
/home/asaf/devel/optee/optee_os/lib/libutee/tee_api_operations.c:795
    10d4:	a94153f3 	ldp	x19, x20, [sp,#16]
    10d8:	f94013f5 	ldr	x21, [sp,#32]
    10dc:	a8c37bfd 	ldp	x29, x30, [sp],#48
/home/asaf/devel/optee/optee_os/lib/libutee/tee_api_operations.c:794
    10e0:	14000568 	b	2680 <TEE_Panic>
/home/asaf/devel/optee/optee_os/lib/libutee/tee_api_operations.c:795
    10e4:	a94153f3 	ldp	x19, x20, [sp,#16]
    10e8:	f94013f5 	ldr	x21, [sp,#32]
    10ec:	a8c37bfd 	ldp	x29, x30, [sp],#48
    10f0:	d65f03c0 	ret

00000000000010f4 <TEE_DigestDoFinal>:
TEE_DigestDoFinal():
/home/asaf/devel/optee/optee_os/lib/libutee/tee_api_operations.c:799
    10f4:	a9bc7bfd 	stp	x29, x30, [sp,#-64]!
    10f8:	910003fd 	mov	x29, sp
    10fc:	a90153f3 	stp	x19, x20, [sp,#16]
    1100:	aa0003f3 	mov	x19, x0
    1104:	f90013f5 	str	x21, [sp,#32]
/home/asaf/devel/optee/optee_os/lib/libutee/tee_api_operations.c:808
    1108:	129fff34 	mov	w20, #0xffff0006            	// #-65530
/home/asaf/devel/optee/optee_os/lib/libutee/tee_api_operations.c:803
    110c:	b4000400 	cbz	x0, 118c <TEE_DigestDoFinal+0x98>
/home/asaf/devel/optee/optee_os/lib/libutee/tee_api_operations.c:804 (discriminator 1)
    1110:	f100003f 	cmp	x1, #0x0
/home/asaf/devel/optee/optee_os/lib/libutee/tee_api_operations.c:803 (discriminator 1)
    1114:	7a400844 	ccmp	w2, #0x0, #0x4, eq
    1118:	540003a1 	b.ne	118c <TEE_DigestDoFinal+0x98>
/home/asaf/devel/optee/optee_os/lib/libutee/tee_api_operations.c:805
    111c:	f100007f 	cmp	x3, #0x0
    1120:	aa0403f5 	mov	x21, x4
    1124:	fa401884 	ccmp	x4, #0x0, #0x4, ne
    1128:	54000320 	b.eq	118c <TEE_DigestDoFinal+0x98>
/home/asaf/devel/optee/optee_os/lib/libutee/tee_api_operations.c:806
    112c:	b9400660 	ldr	w0, [x19,#4]
    1130:	7100141f 	cmp	w0, #0x5
    1134:	540002c1 	b.ne	118c <TEE_DigestDoFinal+0x98>
/home/asaf/devel/optee/optee_os/lib/libutee/tee_api_operations.c:812
    1138:	910103a4 	add	x4, x29, #0x40
    113c:	b94002a0 	ldr	w0, [x21]
/home/asaf/devel/optee/optee_os/lib/libutee/tee_api_operations.c:813
    1140:	2a0203e2 	mov	w2, w2
/home/asaf/devel/optee/optee_os/lib/libutee/tee_api_operations.c:812
    1144:	f81f8c80 	str	x0, [x4,#-8]!
/home/asaf/devel/optee/optee_os/lib/libutee/tee_api_operations.c:813
    1148:	b9405a60 	ldr	w0, [x19,#88]
    114c:	9400063e 	bl	2a44 <utee_hash_final>
    1150:	2a0003f4 	mov	w20, w0
/home/asaf/devel/optee/optee_os/lib/libutee/tee_api_operations.c:814
    1154:	f9401fa0 	ldr	x0, [x29,#56]
    1158:	b90002a0 	str	w0, [x21]
/home/asaf/devel/optee/optee_os/lib/libutee/tee_api_operations.c:815
    115c:	35000194 	cbnz	w20, 118c <TEE_DigestDoFinal+0x98>
init_hash_operation():
/home/asaf/devel/optee/optee_os/lib/libutee/tee_api_operations.c:774
    1160:	b9405a60 	ldr	w0, [x19,#88]
    1164:	d2800002 	mov	x2, #0x0                   	// #0
    1168:	d2800001 	mov	x1, #0x0                   	// #0
    116c:	94000630 	bl	2a2c <utee_hash_init>
/home/asaf/devel/optee/optee_os/lib/libutee/tee_api_operations.c:775
    1170:	34000040 	cbz	w0, 1178 <TEE_DigestDoFinal+0x84>
/home/asaf/devel/optee/optee_os/lib/libutee/tee_api_operations.c:776
    1174:	94000543 	bl	2680 <TEE_Panic>
/home/asaf/devel/optee/optee_os/lib/libutee/tee_api_operations.c:778
    1178:	b9401e60 	ldr	w0, [x19,#28]
TEE_DigestDoFinal():
/home/asaf/devel/optee/optee_os/lib/libutee/tee_api_operations.c:821
    117c:	b900327f 	str	wzr, [x19,#48]
init_hash_operation():
/home/asaf/devel/optee/optee_os/lib/libutee/tee_api_operations.c:778
    1180:	320f0000 	orr	w0, w0, #0x20000
/home/asaf/devel/optee/optee_os/lib/libutee/tee_api_operations.c:777
    1184:	f9002a7f 	str	xzr, [x19,#80]
/home/asaf/devel/optee/optee_os/lib/libutee/tee_api_operations.c:778
    1188:	b9001e60 	str	w0, [x19,#28]
TEE_DigestDoFinal():
/home/asaf/devel/optee/optee_os/lib/libutee/tee_api_operations.c:824
    118c:	7100029f 	cmp	w20, #0x0
    1190:	129ffde0 	mov	w0, #0xffff0010            	// #-65520
    1194:	7a401284 	ccmp	w20, w0, #0x4, ne
    1198:	54000060 	b.eq	11a4 <TEE_DigestDoFinal+0xb0>
/home/asaf/devel/optee/optee_os/lib/libutee/tee_api_operations.c:826
    119c:	2a1403e0 	mov	w0, w20
    11a0:	94000538 	bl	2680 <TEE_Panic>
/home/asaf/devel/optee/optee_os/lib/libutee/tee_api_operations.c:829
    11a4:	2a1403e0 	mov	w0, w20
    11a8:	f94013f5 	ldr	x21, [sp,#32]
    11ac:	a94153f3 	ldp	x19, x20, [sp,#16]
    11b0:	a8c47bfd 	ldp	x29, x30, [sp],#64
    11b4:	d65f03c0 	ret

00000000000011b8 <TEE_CipherInit>:
TEE_CipherInit():
/home/asaf/devel/optee/optee_os/lib/libutee/tee_api_operations.c:835
    11b8:	a9bd7bfd 	stp	x29, x30, [sp,#-48]!
    11bc:	910003fd 	mov	x29, sp
    11c0:	a90153f3 	stp	x19, x20, [sp,#16]
    11c4:	aa0003f3 	mov	x19, x0
    11c8:	f90013f5 	str	x21, [sp,#32]
    11cc:	aa0103f4 	mov	x20, x1
    11d0:	2a0203f5 	mov	w21, w2
/home/asaf/devel/optee/optee_os/lib/libutee/tee_api_operations.c:838
    11d4:	b5000060 	cbnz	x0, 11e0 <TEE_CipherInit+0x28>
/home/asaf/devel/optee/optee_os/lib/libutee/tee_api_operations.c:839
    11d8:	52800000 	mov	w0, #0x0                   	// #0
    11dc:	94000529 	bl	2680 <TEE_Panic>
/home/asaf/devel/optee/optee_os/lib/libutee/tee_api_operations.c:841
    11e0:	b9400660 	ldr	w0, [x19,#4]
    11e4:	7100041f 	cmp	w0, #0x1
    11e8:	54000060 	b.eq	11f4 <TEE_CipherInit+0x3c>
/home/asaf/devel/optee/optee_os/lib/libutee/tee_api_operations.c:842
    11ec:	52800000 	mov	w0, #0x0                   	// #0
    11f0:	94000524 	bl	2680 <TEE_Panic>
/home/asaf/devel/optee/optee_os/lib/libutee/tee_api_operations.c:844
    11f4:	b9401e60 	ldr	w0, [x19,#28]
    11f8:	36900060 	tbz	w0, #18, 1204 <TEE_CipherInit+0x4c>
/home/asaf/devel/optee/optee_os/lib/libutee/tee_api_operations.c:844 (discriminator 1)
    11fc:	f9401260 	ldr	x0, [x19,#32]
    1200:	b5000060 	cbnz	x0, 120c <TEE_CipherInit+0x54>
/home/asaf/devel/optee/optee_os/lib/libutee/tee_api_operations.c:846
    1204:	52800000 	mov	w0, #0x0                   	// #0
    1208:	9400051e 	bl	2680 <TEE_Panic>
/home/asaf/devel/optee/optee_os/lib/libutee/tee_api_operations.c:848
    120c:	b9403260 	ldr	w0, [x19,#48]
    1210:	34000060 	cbz	w0, 121c <TEE_CipherInit+0x64>
/home/asaf/devel/optee/optee_os/lib/libutee/tee_api_operations.c:849
    1214:	aa1303e0 	mov	x0, x19
    1218:	97fffe95 	bl	c6c <TEE_ResetOperation>
/home/asaf/devel/optee/optee_os/lib/libutee/tee_api_operations.c:851
    121c:	52800020 	mov	w0, #0x1                   	// #1
    1220:	b9003260 	str	w0, [x19,#48]
/home/asaf/devel/optee/optee_os/lib/libutee/tee_api_operations.c:853
    1224:	b9405a60 	ldr	w0, [x19,#88]
    1228:	2a1503e2 	mov	w2, w21
    122c:	aa1403e1 	mov	x1, x20
    1230:	94000608 	bl	2a50 <utee_cipher_init>
/home/asaf/devel/optee/optee_os/lib/libutee/tee_api_operations.c:854
    1234:	34000040 	cbz	w0, 123c <TEE_CipherInit+0x84>
/home/asaf/devel/optee/optee_os/lib/libutee/tee_api_operations.c:855
    1238:	94000512 	bl	2680 <TEE_Panic>
/home/asaf/devel/optee/optee_os/lib/libutee/tee_api_operations.c:858
    123c:	b9401e60 	ldr	w0, [x19,#28]
/home/asaf/devel/optee/optee_os/lib/libutee/tee_api_operations.c:859
    1240:	f94013f5 	ldr	x21, [sp,#32]
/home/asaf/devel/optee/optee_os/lib/libutee/tee_api_operations.c:858
    1244:	320f0000 	orr	w0, w0, #0x20000
/home/asaf/devel/optee/optee_os/lib/libutee/tee_api_operations.c:857
    1248:	f9002a7f 	str	xzr, [x19,#80]
/home/asaf/devel/optee/optee_os/lib/libutee/tee_api_operations.c:858
    124c:	b9001e60 	str	w0, [x19,#28]
/home/asaf/devel/optee/optee_os/lib/libutee/tee_api_operations.c:859
    1250:	a94153f3 	ldp	x19, x20, [sp,#16]
    1254:	a8c37bfd 	ldp	x29, x30, [sp],#48
    1258:	d65f03c0 	ret

000000000000125c <TEE_CipherUpdate>:
TEE_CipherUpdate():
/home/asaf/devel/optee/optee_os/lib/libutee/tee_api_operations.c:961
    125c:	a9bd7bfd 	stp	x29, x30, [sp,#-48]!
    1260:	910003fd 	mov	x29, sp
    1264:	a90153f3 	stp	x19, x20, [sp,#16]
/home/asaf/devel/optee/optee_os/lib/libutee/tee_api_operations.c:970
    1268:	129fff33 	mov	w19, #0xffff0006            	// #-65530
/home/asaf/devel/optee/optee_os/lib/libutee/tee_api_operations.c:966
    126c:	b40003c0 	cbz	x0, 12e4 <TEE_CipherUpdate+0x88>
/home/asaf/devel/optee/optee_os/lib/libutee/tee_api_operations.c:967 (discriminator 1)
    1270:	f100003f 	cmp	x1, #0x0
    1274:	aa0403f4 	mov	x20, x4
    1278:	1a9f17e5 	cset	w5, eq
    127c:	7100005f 	cmp	w2, #0x0
    1280:	2a0203e6 	mov	w6, w2
    1284:	1a9f07e2 	cset	w2, ne
    1288:	f100029f 	cmp	x20, #0x0
    128c:	0a0200a4 	and	w4, w5, w2
    1290:	1a9f17e2 	cset	w2, eq
    1294:	2a040042 	orr	w2, w2, w4
    1298:	35000262 	cbnz	w2, 12e4 <TEE_CipherUpdate+0x88>
/home/asaf/devel/optee/optee_os/lib/libutee/tee_api_operations.c:968
    129c:	b5000063 	cbnz	x3, 12a8 <TEE_CipherUpdate+0x4c>
/home/asaf/devel/optee/optee_os/lib/libutee/tee_api_operations.c:969
    12a0:	b9400282 	ldr	w2, [x20]
    12a4:	35000202 	cbnz	w2, 12e4 <TEE_CipherUpdate+0x88>
/home/asaf/devel/optee/optee_os/lib/libutee/tee_api_operations.c:974
    12a8:	b9400402 	ldr	w2, [x0,#4]
/home/asaf/devel/optee/optee_os/lib/libutee/tee_api_operations.c:970
    12ac:	129fff33 	mov	w19, #0xffff0006            	// #-65530
/home/asaf/devel/optee/optee_os/lib/libutee/tee_api_operations.c:974
    12b0:	7100045f 	cmp	w2, #0x1
    12b4:	54000181 	b.ne	12e4 <TEE_CipherUpdate+0x88>
/home/asaf/devel/optee/optee_os/lib/libutee/tee_api_operations.c:979
    12b8:	b9401c02 	ldr	w2, [x0,#28]
    12bc:	36880142 	tbz	w2, #17, 12e4 <TEE_CipherUpdate+0x88>
/home/asaf/devel/optee/optee_os/lib/libutee/tee_api_operations.c:984
    12c0:	b9403002 	ldr	w2, [x0,#48]
    12c4:	7100045f 	cmp	w2, #0x1
    12c8:	540000e1 	b.ne	12e4 <TEE_CipherUpdate+0x88>
/home/asaf/devel/optee/optee_os/lib/libutee/tee_api_operations.c:989
    12cc:	710000df 	cmp	w6, #0x0
    12d0:	1a9f17e2 	cset	w2, eq
    12d4:	6a0200bf 	tst	w5, w2
    12d8:	540001a0 	b.eq	130c <TEE_CipherUpdate+0xb0>
/home/asaf/devel/optee/optee_os/lib/libutee/tee_api_operations.c:991
    12dc:	52800013 	mov	w19, #0x0                   	// #0
/home/asaf/devel/optee/optee_os/lib/libutee/tee_api_operations.c:990
    12e0:	b900029f 	str	wzr, [x20]
/home/asaf/devel/optee/optee_os/lib/libutee/tee_api_operations.c:1035
    12e4:	7100027f 	cmp	w19, #0x0
    12e8:	129ffde0 	mov	w0, #0xffff0010            	// #-65520
    12ec:	7a401264 	ccmp	w19, w0, #0x4, ne
    12f0:	54000060 	b.eq	12fc <TEE_CipherUpdate+0xa0>
/home/asaf/devel/optee/optee_os/lib/libutee/tee_api_operations.c:1037
    12f4:	2a1303e0 	mov	w0, w19
    12f8:	940004e2 	bl	2680 <TEE_Panic>
/home/asaf/devel/optee/optee_os/lib/libutee/tee_api_operations.c:1040
    12fc:	2a1303e0 	mov	w0, w19
    1300:	a94153f3 	ldp	x19, x20, [sp,#16]
    1304:	a8c37bfd 	ldp	x29, x30, [sp],#48
    1308:	d65f03c0 	ret
/home/asaf/devel/optee/optee_os/lib/libutee/tee_api_operations.c:996
    130c:	f9402405 	ldr	x5, [x0,#72]
    1310:	2a0603e2 	mov	w2, w6
/home/asaf/devel/optee/optee_os/lib/libutee/tee_api_operations.c:1000
    1314:	aa0203e4 	mov	x4, x2
/home/asaf/devel/optee/optee_os/lib/libutee/tee_api_operations.c:996
    1318:	f10004bf 	cmp	x5, #0x1
    131c:	540000a9 	b.ls	1330 <TEE_CipherUpdate+0xd4>
/home/asaf/devel/optee/optee_os/lib/libutee/tee_api_operations.c:997
    1320:	f9402804 	ldr	x4, [x0,#80]
    1324:	8b040044 	add	x4, x2, x4
    1328:	9ac50884 	udiv	x4, x4, x5
    132c:	9b057c84 	mul	x4, x4, x5
/home/asaf/devel/optee/optee_os/lib/libutee/tee_api_operations.c:1002
    1330:	39410007 	ldrb	w7, [x0,#64]
    1334:	340000a7 	cbz	w7, 1348 <TEE_CipherUpdate+0xec>
/home/asaf/devel/optee/optee_os/lib/libutee/tee_api_operations.c:1003
    1338:	d37ff8a7 	lsl	x7, x5, #1
/home/asaf/devel/optee/optee_os/lib/libutee/tee_api_operations.c:1004
    133c:	cb070088 	sub	x8, x4, x7
    1340:	eb07009f 	cmp	x4, x7
    1344:	9a9f8104 	csel	x4, x8, xzr, hi
/home/asaf/devel/optee/optee_os/lib/libutee/tee_api_operations.c:1013
    1348:	b9400287 	ldr	w7, [x20]
    134c:	eb07009f 	cmp	x4, x7
    1350:	54000089 	b.ls	1360 <TEE_CipherUpdate+0x104>
/home/asaf/devel/optee/optee_os/lib/libutee/tee_api_operations.c:1015
    1354:	129ffdf3 	mov	w19, #0xffff0010            	// #-65520
/home/asaf/devel/optee/optee_os/lib/libutee/tee_api_operations.c:1014
    1358:	b9000284 	str	w4, [x20]
/home/asaf/devel/optee/optee_os/lib/libutee/tee_api_operations.c:1016
    135c:	17ffffe2 	b	12e4 <TEE_CipherUpdate+0x88>
/home/asaf/devel/optee/optee_os/lib/libutee/tee_api_operations.c:1019
    1360:	f90017a7 	str	x7, [x29,#40]
/home/asaf/devel/optee/optee_os/lib/libutee/tee_api_operations.c:1020
    1364:	f10004bf 	cmp	x5, #0x1
    1368:	54000189 	b.ls	1398 <TEE_CipherUpdate+0x13c>
/home/asaf/devel/optee/optee_os/lib/libutee/tee_api_operations.c:1021
    136c:	aa0303e4 	mov	x4, x3
    1370:	aa0203e3 	mov	x3, x2
    1374:	aa0103e2 	mov	x2, x1
    1378:	f0000041 	adrp	x1, c000 <__func__.3637+0x608>
    137c:	9100a3a5 	add	x5, x29, #0x28
    1380:	f941ec21 	ldr	x1, [x1,#984]
    1384:	94000438 	bl	2464 <tee_buffer_update>
/home/asaf/devel/optee/optee_os/lib/libutee/tee_api_operations.c:1025
    1388:	2a0003f3 	mov	w19, w0
/home/asaf/devel/optee/optee_os/lib/libutee/tee_api_operations.c:1032
    138c:	f94017a0 	ldr	x0, [x29,#40]
    1390:	b9000280 	str	w0, [x20]
    1394:	17ffffd4 	b	12e4 <TEE_CipherUpdate+0x88>
/home/asaf/devel/optee/optee_os/lib/libutee/tee_api_operations.c:1024
    1398:	340000a6 	cbz	w6, 13ac <TEE_CipherUpdate+0x150>
/home/asaf/devel/optee/optee_os/lib/libutee/tee_api_operations.c:1025
    139c:	b9405800 	ldr	w0, [x0,#88]
    13a0:	9100a3a4 	add	x4, x29, #0x28
    13a4:	940005ae 	bl	2a5c <utee_cipher_update>
    13a8:	17fffff8 	b	1388 <TEE_CipherUpdate+0x12c>
/home/asaf/devel/optee/optee_os/lib/libutee/tee_api_operations.c:1028
    13ac:	52800013 	mov	w19, #0x0                   	// #0
/home/asaf/devel/optee/optee_os/lib/libutee/tee_api_operations.c:1029
    13b0:	f90017bf 	str	xzr, [x29,#40]
    13b4:	17fffff6 	b	138c <TEE_CipherUpdate+0x130>

00000000000013b8 <TEE_CipherDoFinal>:
TEE_CipherDoFinal():
/home/asaf/devel/optee/optee_os/lib/libutee/tee_api_operations.c:1045
    13b8:	a9bb7bfd 	stp	x29, x30, [sp,#-80]!
    13bc:	910003fd 	mov	x29, sp
    13c0:	a90153f3 	stp	x19, x20, [sp,#16]
/home/asaf/devel/optee/optee_os/lib/libutee/tee_api_operations.c:1056
    13c4:	129fff34 	mov	w20, #0xffff0006            	// #-65530
/home/asaf/devel/optee/optee_os/lib/libutee/tee_api_operations.c:1045
    13c8:	a9025bf5 	stp	x21, x22, [sp,#32]
    13cc:	a90363f7 	stp	x23, x24, [sp,#48]
/home/asaf/devel/optee/optee_os/lib/libutee/tee_api_operations.c:1052
    13d0:	b40005e0 	cbz	x0, 148c <TEE_CipherDoFinal+0xd4>
/home/asaf/devel/optee/optee_os/lib/libutee/tee_api_operations.c:1053 (discriminator 1)
    13d4:	f100003f 	cmp	x1, #0x0
    13d8:	aa0403f5 	mov	x21, x4
    13dc:	7a400844 	ccmp	w2, #0x0, #0x4, eq
    13e0:	fa400884 	ccmp	x4, #0x0, #0x4, eq
    13e4:	54000540 	b.eq	148c <TEE_CipherDoFinal+0xd4>
    13e8:	aa0003f3 	mov	x19, x0
    13ec:	aa0303f8 	mov	x24, x3
/home/asaf/devel/optee/optee_os/lib/libutee/tee_api_operations.c:1054
    13f0:	b5000063 	cbnz	x3, 13fc <TEE_CipherDoFinal+0x44>
/home/asaf/devel/optee/optee_os/lib/libutee/tee_api_operations.c:1055
    13f4:	b9400080 	ldr	w0, [x4]
    13f8:	350004a0 	cbnz	w0, 148c <TEE_CipherDoFinal+0xd4>
/home/asaf/devel/optee/optee_os/lib/libutee/tee_api_operations.c:1060
    13fc:	b9400660 	ldr	w0, [x19,#4]
/home/asaf/devel/optee/optee_os/lib/libutee/tee_api_operations.c:1056
    1400:	129fff34 	mov	w20, #0xffff0006            	// #-65530
/home/asaf/devel/optee/optee_os/lib/libutee/tee_api_operations.c:1060
    1404:	7100041f 	cmp	w0, #0x1
    1408:	54000421 	b.ne	148c <TEE_CipherDoFinal+0xd4>
/home/asaf/devel/optee/optee_os/lib/libutee/tee_api_operations.c:1065
    140c:	b9401e60 	ldr	w0, [x19,#28]
    1410:	368803e0 	tbz	w0, #17, 148c <TEE_CipherDoFinal+0xd4>
/home/asaf/devel/optee/optee_os/lib/libutee/tee_api_operations.c:1070
    1414:	b9403260 	ldr	w0, [x19,#48]
    1418:	7100041f 	cmp	w0, #0x1
    141c:	54000381 	b.ne	148c <TEE_CipherDoFinal+0xd4>
/home/asaf/devel/optee/optee_os/lib/libutee/tee_api_operations.c:1079
    1420:	b9400260 	ldr	w0, [x19]
    1424:	529ffe03 	mov	w3, #0xfff0                	// #65520
    1428:	72bdffe3 	movk	w3, #0xefff, lsl #16
    142c:	2a0203e2 	mov	w2, w2
    1430:	12177800 	and	w0, w0, #0xfffffeff
    1434:	0b030003 	add	w3, w0, w3
/home/asaf/devel/optee/optee_os/lib/libutee/tee_api_operations.c:1083
    1438:	7100047f 	cmp	w3, #0x1
    143c:	52800263 	mov	w3, #0x13                  	// #19
    1440:	72a20003 	movk	w3, #0x1000, lsl #16
    1444:	7a438004 	ccmp	w0, w3, #0x4, hi
    1448:	f9402663 	ldr	x3, [x19,#72]
    144c:	540000c1 	b.ne	1464 <TEE_CipherDoFinal+0xac>
/home/asaf/devel/optee/optee_os/lib/libutee/tee_api_operations.c:1085
    1450:	f9402a60 	ldr	x0, [x19,#80]
    1454:	8b000040 	add	x0, x2, x0
    1458:	9ac30804 	udiv	x4, x0, x3
    145c:	9b038080 	msub	x0, x4, x3, x0
    1460:	b5000160 	cbnz	x0, 148c <TEE_CipherDoFinal+0xd4>
/home/asaf/devel/optee/optee_os/lib/libutee/tee_api_operations.c:1100
    1464:	aa0203e0 	mov	x0, x2
/home/asaf/devel/optee/optee_os/lib/libutee/tee_api_operations.c:1097
    1468:	f100047f 	cmp	x3, #0x1
    146c:	54000069 	b.ls	1478 <TEE_CipherDoFinal+0xc0>
/home/asaf/devel/optee/optee_os/lib/libutee/tee_api_operations.c:1098
    1470:	f9402a60 	ldr	x0, [x19,#80]
    1474:	8b000040 	add	x0, x2, x0
/home/asaf/devel/optee/optee_os/lib/libutee/tee_api_operations.c:1102
    1478:	b94002a4 	ldr	w4, [x21]
    147c:	eb04001f 	cmp	x0, x4
    1480:	540001e9 	b.ls	14bc <TEE_CipherDoFinal+0x104>
/home/asaf/devel/optee/optee_os/lib/libutee/tee_api_operations.c:1104
    1484:	129ffdf4 	mov	w20, #0xffff0010            	// #-65520
/home/asaf/devel/optee/optee_os/lib/libutee/tee_api_operations.c:1103
    1488:	b90002a0 	str	w0, [x21]
/home/asaf/devel/optee/optee_os/lib/libutee/tee_api_operations.c:1136
    148c:	7100029f 	cmp	w20, #0x0
    1490:	129ffde0 	mov	w0, #0xffff0010            	// #-65520
    1494:	7a401284 	ccmp	w20, w0, #0x4, ne
    1498:	54000060 	b.eq	14a4 <TEE_CipherDoFinal+0xec>
/home/asaf/devel/optee/optee_os/lib/libutee/tee_api_operations.c:1138
    149c:	2a1403e0 	mov	w0, w20
    14a0:	94000478 	bl	2680 <TEE_Panic>
/home/asaf/devel/optee/optee_os/lib/libutee/tee_api_operations.c:1141
    14a4:	2a1403e0 	mov	w0, w20
    14a8:	a94153f3 	ldp	x19, x20, [sp,#16]
    14ac:	a9425bf5 	ldp	x21, x22, [sp,#32]
    14b0:	a94363f7 	ldp	x23, x24, [sp,#48]
    14b4:	a8c57bfd 	ldp	x29, x30, [sp],#80
    14b8:	d65f03c0 	ret
/home/asaf/devel/optee/optee_os/lib/libutee/tee_api_operations.c:1108
    14bc:	910143b7 	add	x23, x29, #0x50
/home/asaf/devel/optee/optee_os/lib/libutee/tee_api_operations.c:1109
    14c0:	f100047f 	cmp	x3, #0x1
/home/asaf/devel/optee/optee_os/lib/libutee/tee_api_operations.c:1108
    14c4:	f81f8ee4 	str	x4, [x23,#-8]!
/home/asaf/devel/optee/optee_os/lib/libutee/tee_api_operations.c:1109
    14c8:	540003e9 	b.ls	1544 <TEE_CipherDoFinal+0x18c>
/home/asaf/devel/optee/optee_os/lib/libutee/tee_api_operations.c:1110
    14cc:	aa0203e3 	mov	x3, x2
    14d0:	aa0103e2 	mov	x2, x1
    14d4:	f0000041 	adrp	x1, c000 <__func__.3637+0x608>
    14d8:	aa1703e5 	mov	x5, x23
    14dc:	aa1803e4 	mov	x4, x24
    14e0:	aa1303e0 	mov	x0, x19
    14e4:	f941ec21 	ldr	x1, [x1,#984]
    14e8:	940003df 	bl	2464 <tee_buffer_update>
    14ec:	2a0003f4 	mov	w20, w0
/home/asaf/devel/optee/optee_os/lib/libutee/tee_api_operations.c:1112
    14f0:	35fffce0 	cbnz	w0, 148c <TEE_CipherDoFinal+0xd4>
/home/asaf/devel/optee/optee_os/lib/libutee/tee_api_operations.c:1115
    14f4:	f94027b6 	ldr	x22, [x29,#72]
/home/asaf/devel/optee/optee_os/lib/libutee/tee_api_operations.c:1119
    14f8:	aa1703e4 	mov	x4, x23
/home/asaf/devel/optee/optee_os/lib/libutee/tee_api_operations.c:1118
    14fc:	b94002a0 	ldr	w0, [x21]
/home/asaf/devel/optee/optee_os/lib/libutee/tee_api_operations.c:1119
    1500:	f9401e61 	ldr	x1, [x19,#56]
    1504:	8b160303 	add	x3, x24, x22
/home/asaf/devel/optee/optee_os/lib/libutee/tee_api_operations.c:1118
    1508:	cb160000 	sub	x0, x0, x22
/home/asaf/devel/optee/optee_os/lib/libutee/tee_api_operations.c:1119
    150c:	f9402a62 	ldr	x2, [x19,#80]
/home/asaf/devel/optee/optee_os/lib/libutee/tee_api_operations.c:1118
    1510:	f90027a0 	str	x0, [x29,#72]
/home/asaf/devel/optee/optee_os/lib/libutee/tee_api_operations.c:1119
    1514:	b9405a60 	ldr	w0, [x19,#88]
    1518:	94000554 	bl	2a68 <utee_cipher_final>
    151c:	2a0003f4 	mov	w20, w0
/home/asaf/devel/optee/optee_os/lib/libutee/tee_api_operations.c:1125
    1520:	35fffb74 	cbnz	w20, 148c <TEE_CipherDoFinal+0xd4>
/home/asaf/devel/optee/optee_os/lib/libutee/tee_api_operations.c:1128
    1524:	f94027a0 	ldr	x0, [x29,#72]
    1528:	8b0002d6 	add	x22, x22, x0
/home/asaf/devel/optee/optee_os/lib/libutee/tee_api_operations.c:1129
    152c:	b90002b6 	str	w22, [x21]
/home/asaf/devel/optee/optee_os/lib/libutee/tee_api_operations.c:1133
    1530:	b900327f 	str	wzr, [x19,#48]
/home/asaf/devel/optee/optee_os/lib/libutee/tee_api_operations.c:1131
    1534:	b9401e60 	ldr	w0, [x19,#28]
    1538:	120e7800 	and	w0, w0, #0xfffdffff
    153c:	b9001e60 	str	w0, [x19,#28]
    1540:	17ffffd3 	b	148c <TEE_CipherDoFinal+0xd4>
/home/asaf/devel/optee/optee_os/lib/libutee/tee_api_operations.c:1122
    1544:	b9405a60 	ldr	w0, [x19,#88]
    1548:	aa1703e4 	mov	x4, x23
    154c:	aa1803e3 	mov	x3, x24
/home/asaf/devel/optee/optee_os/lib/libutee/tee_api_operations.c:1048
    1550:	d2800016 	mov	x22, #0x0                   	// #0
/home/asaf/devel/optee/optee_os/lib/libutee/tee_api_operations.c:1122
    1554:	94000545 	bl	2a68 <utee_cipher_final>
    1558:	2a0003f4 	mov	w20, w0
    155c:	17fffff1 	b	1520 <TEE_CipherDoFinal+0x168>

0000000000001560 <TEE_MACInit>:
TEE_MACInit():
/home/asaf/devel/optee/optee_os/lib/libutee/tee_api_operations.c:1146
    1560:	a9bd7bfd 	stp	x29, x30, [sp,#-48]!
    1564:	910003fd 	mov	x29, sp
    1568:	a90153f3 	stp	x19, x20, [sp,#16]
    156c:	aa0003f3 	mov	x19, x0
    1570:	f90013f5 	str	x21, [sp,#32]
    1574:	aa0103f4 	mov	x20, x1
    1578:	2a0203f5 	mov	w21, w2
/home/asaf/devel/optee/optee_os/lib/libutee/tee_api_operations.c:1147
    157c:	b5000060 	cbnz	x0, 1588 <TEE_MACInit+0x28>
/home/asaf/devel/optee/optee_os/lib/libutee/tee_api_operations.c:1148
    1580:	52800000 	mov	w0, #0x0                   	// #0
    1584:	9400043f 	bl	2680 <TEE_Panic>
/home/asaf/devel/optee/optee_os/lib/libutee/tee_api_operations.c:1150
    1588:	b9400660 	ldr	w0, [x19,#4]
    158c:	71000c1f 	cmp	w0, #0x3
    1590:	54000060 	b.eq	159c <TEE_MACInit+0x3c>
/home/asaf/devel/optee/optee_os/lib/libutee/tee_api_operations.c:1151
    1594:	52800000 	mov	w0, #0x0                   	// #0
    1598:	9400043a 	bl	2680 <TEE_Panic>
/home/asaf/devel/optee/optee_os/lib/libutee/tee_api_operations.c:1153
    159c:	b9401e60 	ldr	w0, [x19,#28]
    15a0:	36900060 	tbz	w0, #18, 15ac <TEE_MACInit+0x4c>
/home/asaf/devel/optee/optee_os/lib/libutee/tee_api_operations.c:1153 (discriminator 1)
    15a4:	f9401260 	ldr	x0, [x19,#32]
    15a8:	b5000060 	cbnz	x0, 15b4 <TEE_MACInit+0x54>
/home/asaf/devel/optee/optee_os/lib/libutee/tee_api_operations.c:1155
    15ac:	52800000 	mov	w0, #0x0                   	// #0
    15b0:	94000434 	bl	2680 <TEE_Panic>
/home/asaf/devel/optee/optee_os/lib/libutee/tee_api_operations.c:1157
    15b4:	b9403260 	ldr	w0, [x19,#48]
    15b8:	34000060 	cbz	w0, 15c4 <TEE_MACInit+0x64>
/home/asaf/devel/optee/optee_os/lib/libutee/tee_api_operations.c:1158
    15bc:	aa1303e0 	mov	x0, x19
    15c0:	97fffdab 	bl	c6c <TEE_ResetOperation>
/home/asaf/devel/optee/optee_os/lib/libutee/tee_api_operations.c:1160
    15c4:	52800020 	mov	w0, #0x1                   	// #1
    15c8:	b9003260 	str	w0, [x19,#48]
init_hash_operation():
/home/asaf/devel/optee/optee_os/lib/libutee/tee_api_operations.c:774
    15cc:	b9405a60 	ldr	w0, [x19,#88]
    15d0:	2a1503e2 	mov	w2, w21
    15d4:	aa1403e1 	mov	x1, x20
    15d8:	94000515 	bl	2a2c <utee_hash_init>
/home/asaf/devel/optee/optee_os/lib/libutee/tee_api_operations.c:775
    15dc:	34000040 	cbz	w0, 15e4 <TEE_MACInit+0x84>
/home/asaf/devel/optee/optee_os/lib/libutee/tee_api_operations.c:776
    15e0:	94000428 	bl	2680 <TEE_Panic>
/home/asaf/devel/optee/optee_os/lib/libutee/tee_api_operations.c:778
    15e4:	b9401e60 	ldr	w0, [x19,#28]
TEE_MACInit():
/home/asaf/devel/optee/optee_os/lib/libutee/tee_api_operations.c:1163
    15e8:	f94013f5 	ldr	x21, [sp,#32]
init_hash_operation():
/home/asaf/devel/optee/optee_os/lib/libutee/tee_api_operations.c:778
    15ec:	320f0000 	orr	w0, w0, #0x20000
/home/asaf/devel/optee/optee_os/lib/libutee/tee_api_operations.c:777
    15f0:	f9002a7f 	str	xzr, [x19,#80]
/home/asaf/devel/optee/optee_os/lib/libutee/tee_api_operations.c:778
    15f4:	b9001e60 	str	w0, [x19,#28]
TEE_MACInit():
/home/asaf/devel/optee/optee_os/lib/libutee/tee_api_operations.c:1163
    15f8:	a94153f3 	ldp	x19, x20, [sp,#16]
    15fc:	a8c37bfd 	ldp	x29, x30, [sp],#48
    1600:	d65f03c0 	ret

0000000000001604 <TEE_MACUpdate>:
TEE_MACUpdate():
/home/asaf/devel/optee/optee_os/lib/libutee/tee_api_operations.c:1167
    1604:	a9bd7bfd 	stp	x29, x30, [sp,#-48]!
    1608:	910003fd 	mov	x29, sp
    160c:	a90153f3 	stp	x19, x20, [sp,#16]
    1610:	aa0003f3 	mov	x19, x0
    1614:	f90013f5 	str	x21, [sp,#32]
    1618:	aa0103f4 	mov	x20, x1
    161c:	2a0203f5 	mov	w21, w2
/home/asaf/devel/optee/optee_os/lib/libutee/tee_api_operations.c:1170
    1620:	b4000080 	cbz	x0, 1630 <TEE_MACUpdate+0x2c>
/home/asaf/devel/optee/optee_os/lib/libutee/tee_api_operations.c:1170 (discriminator 1)
    1624:	f100003f 	cmp	x1, #0x0
    1628:	7a400844 	ccmp	w2, #0x0, #0x4, eq
    162c:	54000060 	b.eq	1638 <TEE_MACUpdate+0x34>
/home/asaf/devel/optee/optee_os/lib/libutee/tee_api_operations.c:1171
    1630:	52800000 	mov	w0, #0x0                   	// #0
    1634:	94000413 	bl	2680 <TEE_Panic>
/home/asaf/devel/optee/optee_os/lib/libutee/tee_api_operations.c:1173
    1638:	b9400660 	ldr	w0, [x19,#4]
    163c:	71000c1f 	cmp	w0, #0x3
    1640:	54000060 	b.eq	164c <TEE_MACUpdate+0x48>
/home/asaf/devel/optee/optee_os/lib/libutee/tee_api_operations.c:1174
    1644:	52800000 	mov	w0, #0x0                   	// #0
    1648:	9400040e 	bl	2680 <TEE_Panic>
/home/asaf/devel/optee/optee_os/lib/libutee/tee_api_operations.c:1176
    164c:	b9401e60 	ldr	w0, [x19,#28]
    1650:	37880060 	tbnz	w0, #17, 165c <TEE_MACUpdate+0x58>
/home/asaf/devel/optee/optee_os/lib/libutee/tee_api_operations.c:1177
    1654:	52800000 	mov	w0, #0x0                   	// #0
    1658:	9400040a 	bl	2680 <TEE_Panic>
/home/asaf/devel/optee/optee_os/lib/libutee/tee_api_operations.c:1179
    165c:	b9403260 	ldr	w0, [x19,#48]
    1660:	7100041f 	cmp	w0, #0x1
    1664:	54000060 	b.eq	1670 <TEE_MACUpdate+0x6c>
/home/asaf/devel/optee/optee_os/lib/libutee/tee_api_operations.c:1180
    1668:	52800000 	mov	w0, #0x0                   	// #0
    166c:	94000405 	bl	2680 <TEE_Panic>
/home/asaf/devel/optee/optee_os/lib/libutee/tee_api_operations.c:1182
    1670:	b9405a60 	ldr	w0, [x19,#88]
    1674:	2a1503e2 	mov	w2, w21
    1678:	aa1403e1 	mov	x1, x20
    167c:	940004ef 	bl	2a38 <utee_hash_update>
/home/asaf/devel/optee/optee_os/lib/libutee/tee_api_operations.c:1183
    1680:	340000a0 	cbz	w0, 1694 <TEE_MACUpdate+0x90>
/home/asaf/devel/optee/optee_os/lib/libutee/tee_api_operations.c:1185
    1684:	a94153f3 	ldp	x19, x20, [sp,#16]
    1688:	f94013f5 	ldr	x21, [sp,#32]
    168c:	a8c37bfd 	ldp	x29, x30, [sp],#48
/home/asaf/devel/optee/optee_os/lib/libutee/tee_api_operations.c:1184
    1690:	140003fc 	b	2680 <TEE_Panic>
/home/asaf/devel/optee/optee_os/lib/libutee/tee_api_operations.c:1185
    1694:	a94153f3 	ldp	x19, x20, [sp,#16]
    1698:	f94013f5 	ldr	x21, [sp,#32]
    169c:	a8c37bfd 	ldp	x29, x30, [sp],#48
    16a0:	d65f03c0 	ret

00000000000016a4 <TEE_MACComputeFinal>:
TEE_MACComputeFinal():
/home/asaf/devel/optee/optee_os/lib/libutee/tee_api_operations.c:1190
    16a4:	a9bc7bfd 	stp	x29, x30, [sp,#-64]!
    16a8:	910003fd 	mov	x29, sp
    16ac:	a90153f3 	stp	x19, x20, [sp,#16]
    16b0:	aa0003f3 	mov	x19, x0
    16b4:	f90013f5 	str	x21, [sp,#32]
/home/asaf/devel/optee/optee_os/lib/libutee/tee_api_operations.c:1198
    16b8:	129fff34 	mov	w20, #0xffff0006            	// #-65530
/home/asaf/devel/optee/optee_os/lib/libutee/tee_api_operations.c:1194
    16bc:	b40003c0 	cbz	x0, 1734 <TEE_MACComputeFinal+0x90>
/home/asaf/devel/optee/optee_os/lib/libutee/tee_api_operations.c:1195 (discriminator 1)
    16c0:	f100003f 	cmp	x1, #0x0
/home/asaf/devel/optee/optee_os/lib/libutee/tee_api_operations.c:1194 (discriminator 1)
    16c4:	7a400844 	ccmp	w2, #0x0, #0x4, eq
    16c8:	54000361 	b.ne	1734 <TEE_MACComputeFinal+0x90>
/home/asaf/devel/optee/optee_os/lib/libutee/tee_api_operations.c:1196
    16cc:	f100007f 	cmp	x3, #0x0
    16d0:	aa0403f5 	mov	x21, x4
    16d4:	fa401884 	ccmp	x4, #0x0, #0x4, ne
    16d8:	540002e0 	b.eq	1734 <TEE_MACComputeFinal+0x90>
/home/asaf/devel/optee/optee_os/lib/libutee/tee_api_operations.c:1202
    16dc:	b9400660 	ldr	w0, [x19,#4]
    16e0:	71000c1f 	cmp	w0, #0x3
    16e4:	54000281 	b.ne	1734 <TEE_MACComputeFinal+0x90>
/home/asaf/devel/optee/optee_os/lib/libutee/tee_api_operations.c:1207
    16e8:	b9401e60 	ldr	w0, [x19,#28]
    16ec:	36880240 	tbz	w0, #17, 1734 <TEE_MACComputeFinal+0x90>
/home/asaf/devel/optee/optee_os/lib/libutee/tee_api_operations.c:1212
    16f0:	b9403260 	ldr	w0, [x19,#48]
    16f4:	7100041f 	cmp	w0, #0x1
    16f8:	540001e1 	b.ne	1734 <TEE_MACComputeFinal+0x90>
/home/asaf/devel/optee/optee_os/lib/libutee/tee_api_operations.c:1217
    16fc:	910103a4 	add	x4, x29, #0x40
    1700:	b94002a0 	ldr	w0, [x21]
/home/asaf/devel/optee/optee_os/lib/libutee/tee_api_operations.c:1218
    1704:	2a0203e2 	mov	w2, w2
/home/asaf/devel/optee/optee_os/lib/libutee/tee_api_operations.c:1217
    1708:	f81f8c80 	str	x0, [x4,#-8]!
/home/asaf/devel/optee/optee_os/lib/libutee/tee_api_operations.c:1218
    170c:	b9405a60 	ldr	w0, [x19,#88]
    1710:	940004cd 	bl	2a44 <utee_hash_final>
    1714:	2a0003f4 	mov	w20, w0
/home/asaf/devel/optee/optee_os/lib/libutee/tee_api_operations.c:1219
    1718:	f9401fa0 	ldr	x0, [x29,#56]
    171c:	b90002a0 	str	w0, [x21]
/home/asaf/devel/optee/optee_os/lib/libutee/tee_api_operations.c:1220
    1720:	350000b4 	cbnz	w20, 1734 <TEE_MACComputeFinal+0x90>
/home/asaf/devel/optee/optee_os/lib/libutee/tee_api_operations.c:1223
    1724:	b9401e60 	ldr	w0, [x19,#28]
/home/asaf/devel/optee/optee_os/lib/libutee/tee_api_operations.c:1225
    1728:	b900327f 	str	wzr, [x19,#48]
/home/asaf/devel/optee/optee_os/lib/libutee/tee_api_operations.c:1223
    172c:	120e7800 	and	w0, w0, #0xfffdffff
    1730:	b9001e60 	str	w0, [x19,#28]
/home/asaf/devel/optee/optee_os/lib/libutee/tee_api_operations.c:1228
    1734:	7100029f 	cmp	w20, #0x0
    1738:	129ffde0 	mov	w0, #0xffff0010            	// #-65520
    173c:	7a401284 	ccmp	w20, w0, #0x4, ne
    1740:	54000060 	b.eq	174c <TEE_MACComputeFinal+0xa8>
/home/asaf/devel/optee/optee_os/lib/libutee/tee_api_operations.c:1230
    1744:	2a1403e0 	mov	w0, w20
    1748:	940003ce 	bl	2680 <TEE_Panic>
/home/asaf/devel/optee/optee_os/lib/libutee/tee_api_operations.c:1233
    174c:	2a1403e0 	mov	w0, w20
    1750:	f94013f5 	ldr	x21, [sp,#32]
    1754:	a94153f3 	ldp	x19, x20, [sp,#16]
    1758:	a8c47bfd 	ldp	x29, x30, [sp],#64
    175c:	d65f03c0 	ret

0000000000001760 <TEE_MACCompareFinal>:
TEE_MACCompareFinal():
/home/asaf/devel/optee/optee_os/lib/libutee/tee_api_operations.c:1238
    1760:	a9b77bfd 	stp	x29, x30, [sp,#-144]!
    1764:	910003fd 	mov	x29, sp
    1768:	a9025bf5 	stp	x21, x22, [sp,#32]
    176c:	aa0303f6 	mov	x22, x3
/home/asaf/devel/optee/optee_os/lib/libutee/tee_api_operations.c:1241
    1770:	52800803 	mov	w3, #0x40                  	// #64
/home/asaf/devel/optee/optee_os/lib/libutee/tee_api_operations.c:1238
    1774:	a90153f3 	stp	x19, x20, [sp,#16]
/home/asaf/devel/optee/optee_os/lib/libutee/tee_api_operations.c:1241
    1778:	b9004fa3 	str	w3, [x29,#76]
/home/asaf/devel/optee/optee_os/lib/libutee/tee_api_operations.c:1244
    177c:	129fff33 	mov	w19, #0xffff0006            	// #-65530
/home/asaf/devel/optee/optee_os/lib/libutee/tee_api_operations.c:1243
    1780:	b9400403 	ldr	w3, [x0,#4]
/home/asaf/devel/optee/optee_os/lib/libutee/tee_api_operations.c:1238
    1784:	f9001bf7 	str	x23, [sp,#48]
/home/asaf/devel/optee/optee_os/lib/libutee/tee_api_operations.c:1243
    1788:	71000c7f 	cmp	w3, #0x3
    178c:	54000241 	b.ne	17d4 <TEE_MACCompareFinal+0x74>
/home/asaf/devel/optee/optee_os/lib/libutee/tee_api_operations.c:1248
    1790:	b9401c03 	ldr	w3, [x0,#28]
    1794:	aa0003f4 	mov	x20, x0
    1798:	368801e3 	tbz	w3, #17, 17d4 <TEE_MACCompareFinal+0x74>
/home/asaf/devel/optee/optee_os/lib/libutee/tee_api_operations.c:1253
    179c:	b9403003 	ldr	w3, [x0,#48]
    17a0:	7100047f 	cmp	w3, #0x1
    17a4:	54000181 	b.ne	17d4 <TEE_MACCompareFinal+0x74>
/home/asaf/devel/optee/optee_os/lib/libutee/tee_api_operations.c:1258
    17a8:	910143b5 	add	x21, x29, #0x50
    17ac:	2a0403f7 	mov	w23, w4
    17b0:	aa1503e3 	mov	x3, x21
    17b4:	910133a4 	add	x4, x29, #0x4c
    17b8:	97ffffbb 	bl	16a4 <TEE_MACComputeFinal>
    17bc:	2a0003f3 	mov	w19, w0
/home/asaf/devel/optee/optee_os/lib/libutee/tee_api_operations.c:1260
    17c0:	350000a0 	cbnz	w0, 17d4 <TEE_MACCompareFinal+0x74>
/home/asaf/devel/optee/optee_os/lib/libutee/tee_api_operations.c:1263
    17c4:	b9404fa2 	ldr	w2, [x29,#76]
    17c8:	6b17005f 	cmp	w2, w23
    17cc:	540001c0 	b.eq	1804 <TEE_MACCompareFinal+0xa4>
/home/asaf/devel/optee/optee_os/lib/libutee/tee_api_operations.c:1264
    17d0:	1299f1d3 	mov	w19, #0xffff3071            	// #-53135
/home/asaf/devel/optee/optee_os/lib/libutee/tee_api_operations.c:1276
    17d4:	7100027f 	cmp	w19, #0x0
    17d8:	1299f1c0 	mov	w0, #0xffff3071            	// #-53135
    17dc:	7a401264 	ccmp	w19, w0, #0x4, ne
    17e0:	54000060 	b.eq	17ec <TEE_MACCompareFinal+0x8c>
/home/asaf/devel/optee/optee_os/lib/libutee/tee_api_operations.c:1278
    17e4:	2a1303e0 	mov	w0, w19
    17e8:	940003a6 	bl	2680 <TEE_Panic>
/home/asaf/devel/optee/optee_os/lib/libutee/tee_api_operations.c:1281
    17ec:	2a1303e0 	mov	w0, w19
    17f0:	f9401bf7 	ldr	x23, [sp,#48]
    17f4:	a94153f3 	ldp	x19, x20, [sp,#16]
    17f8:	a9425bf5 	ldp	x21, x22, [sp,#32]
    17fc:	a8c97bfd 	ldp	x29, x30, [sp],#144
    1800:	d65f03c0 	ret
/home/asaf/devel/optee/optee_os/lib/libutee/tee_api_operations.c:1268
    1804:	2a0203e2 	mov	w2, w2
    1808:	aa1503e1 	mov	x1, x21
    180c:	aa1603e0 	mov	x0, x22
    1810:	940014a2 	bl	6a98 <buf_compare_ct>
    1814:	35fffde0 	cbnz	w0, 17d0 <TEE_MACCompareFinal+0x70>
/home/asaf/devel/optee/optee_os/lib/libutee/tee_api_operations.c:1273
    1818:	b900329f 	str	wzr, [x20,#48]
    181c:	17ffffee 	b	17d4 <TEE_MACCompareFinal+0x74>

0000000000001820 <TEE_AEInit>:
TEE_AEInit():
/home/asaf/devel/optee/optee_os/lib/libutee/tee_api_operations.c:1288
    1820:	a9bd7bfd 	stp	x29, x30, [sp,#-48]!
/home/asaf/devel/optee/optee_os/lib/libutee/tee_api_operations.c:1291
    1824:	f100001f 	cmp	x0, #0x0
    1828:	fa401824 	ccmp	x1, #0x0, #0x4, ne
/home/asaf/devel/optee/optee_os/lib/libutee/tee_api_operations.c:1288
    182c:	910003fd 	mov	x29, sp
    1830:	a90153f3 	stp	x19, x20, [sp,#16]
/home/asaf/devel/optee/optee_os/lib/libutee/tee_api_operations.c:1292
    1834:	129fff34 	mov	w20, #0xffff0006            	// #-65530
/home/asaf/devel/optee/optee_os/lib/libutee/tee_api_operations.c:1288
    1838:	f90013f5 	str	x21, [sp,#32]
/home/asaf/devel/optee/optee_os/lib/libutee/tee_api_operations.c:1291
    183c:	540003e0 	b.eq	18b8 <TEE_AEInit+0x98>
    1840:	aa0003f3 	mov	x19, x0
/home/asaf/devel/optee/optee_os/lib/libutee/tee_api_operations.c:1296
    1844:	b9400400 	ldr	w0, [x0,#4]
    1848:	7100101f 	cmp	w0, #0x4
    184c:	54000361 	b.ne	18b8 <TEE_AEInit+0x98>
/home/asaf/devel/optee/optee_os/lib/libutee/tee_api_operations.c:1301
    1850:	b9403260 	ldr	w0, [x19,#48]
    1854:	35000320 	cbnz	w0, 18b8 <TEE_AEInit+0x98>
/home/asaf/devel/optee/optee_os/lib/libutee/tee_api_operations.c:1312
    1858:	b9400266 	ldr	w6, [x19]
    185c:	52810200 	mov	w0, #0x810                 	// #2064
    1860:	72a80000 	movk	w0, #0x4000, lsl #16
    1864:	6b0000df 	cmp	w6, w0
    1868:	540000e1 	b.ne	1884 <TEE_AEInit+0x64>
/home/asaf/devel/optee/optee_os/lib/libutee/tee_api_operations.c:1316
    186c:	51018060 	sub	w0, w3, #0x60
/home/asaf/devel/optee/optee_os/lib/libutee/tee_api_operations.c:1317
    1870:	129ffeb4 	mov	w20, #0xffff000a            	// #-65526
/home/asaf/devel/optee/optee_os/lib/libutee/tee_api_operations.c:1316
    1874:	7100801f 	cmp	w0, #0x20
    1878:	54000208 	b.hi	18b8 <TEE_AEInit+0x98>
/home/asaf/devel/optee/optee_os/lib/libutee/tee_api_operations.c:1316 (discriminator 1)
    187c:	f240087f 	tst	x3, #0x7
    1880:	540001c1 	b.ne	18b8 <TEE_AEInit+0x98>
/home/asaf/devel/optee/optee_os/lib/libutee/tee_api_operations.c:1322
    1884:	b9405a60 	ldr	w0, [x19,#88]
/home/asaf/devel/optee/optee_os/lib/libutee/tee_api_operations.c:1323
    1888:	53037c75 	lsr	w21, w3, #3
/home/asaf/devel/optee/optee_os/lib/libutee/tee_api_operations.c:1322
    188c:	2a0503e5 	mov	w5, w5
    1890:	2a0403e4 	mov	w4, w4
    1894:	924072a3 	and	x3, x21, #0x1fffffff
    1898:	2a0203e2 	mov	w2, w2
    189c:	94000494 	bl	2aec <utee_authenc_init>
    18a0:	2a0003f4 	mov	w20, w0
/home/asaf/devel/optee/optee_os/lib/libutee/tee_api_operations.c:1324
    18a4:	350000a0 	cbnz	w0, 18b8 <TEE_AEInit+0x98>
/home/asaf/devel/optee/optee_os/lib/libutee/tee_api_operations.c:1328
    18a8:	b9401e60 	ldr	w0, [x19,#28]
/home/asaf/devel/optee/optee_os/lib/libutee/tee_api_operations.c:1327
    18ac:	b9005e75 	str	w21, [x19,#92]
/home/asaf/devel/optee/optee_os/lib/libutee/tee_api_operations.c:1328
    18b0:	320f0000 	orr	w0, w0, #0x20000
    18b4:	b9001e60 	str	w0, [x19,#28]
/home/asaf/devel/optee/optee_os/lib/libutee/tee_api_operations.c:1331
    18b8:	7100029f 	cmp	w20, #0x0
    18bc:	129ffea0 	mov	w0, #0xffff000a            	// #-65526
    18c0:	7a401284 	ccmp	w20, w0, #0x4, ne
    18c4:	54000060 	b.eq	18d0 <TEE_AEInit+0xb0>
/home/asaf/devel/optee/optee_os/lib/libutee/tee_api_operations.c:1333
    18c8:	2a1403e0 	mov	w0, w20
    18cc:	9400036d 	bl	2680 <TEE_Panic>
/home/asaf/devel/optee/optee_os/lib/libutee/tee_api_operations.c:1336
    18d0:	2a1403e0 	mov	w0, w20
    18d4:	f94013f5 	ldr	x21, [sp,#32]
    18d8:	a94153f3 	ldp	x19, x20, [sp,#16]
    18dc:	a8c37bfd 	ldp	x29, x30, [sp],#48
    18e0:	d65f03c0 	ret

00000000000018e4 <TEE_AEUpdateAAD>:
TEE_AEUpdateAAD():
/home/asaf/devel/optee/optee_os/lib/libutee/tee_api_operations.c:1340
    18e4:	a9bd7bfd 	stp	x29, x30, [sp,#-48]!
    18e8:	910003fd 	mov	x29, sp
    18ec:	a90153f3 	stp	x19, x20, [sp,#16]
    18f0:	aa0003f3 	mov	x19, x0
    18f4:	f90013f5 	str	x21, [sp,#32]
    18f8:	aa0103f4 	mov	x20, x1
    18fc:	2a0203f5 	mov	w21, w2
/home/asaf/devel/optee/optee_os/lib/libutee/tee_api_operations.c:1343
    1900:	b4000080 	cbz	x0, 1910 <TEE_AEUpdateAAD+0x2c>
/home/asaf/devel/optee/optee_os/lib/libutee/tee_api_operations.c:1344 (discriminator 1)
    1904:	f100003f 	cmp	x1, #0x0
/home/asaf/devel/optee/optee_os/lib/libutee/tee_api_operations.c:1343 (discriminator 1)
    1908:	7a400844 	ccmp	w2, #0x0, #0x4, eq
    190c:	54000060 	b.eq	1918 <TEE_AEUpdateAAD+0x34>
/home/asaf/devel/optee/optee_os/lib/libutee/tee_api_operations.c:1345
    1910:	52800000 	mov	w0, #0x0                   	// #0
    1914:	9400035b 	bl	2680 <TEE_Panic>
/home/asaf/devel/optee/optee_os/lib/libutee/tee_api_operations.c:1347
    1918:	b9400660 	ldr	w0, [x19,#4]
    191c:	7100101f 	cmp	w0, #0x4
    1920:	54000060 	b.eq	192c <TEE_AEUpdateAAD+0x48>
/home/asaf/devel/optee/optee_os/lib/libutee/tee_api_operations.c:1348
    1924:	52800000 	mov	w0, #0x0                   	// #0
    1928:	94000356 	bl	2680 <TEE_Panic>
/home/asaf/devel/optee/optee_os/lib/libutee/tee_api_operations.c:1350
    192c:	b9401e60 	ldr	w0, [x19,#28]
    1930:	37880060 	tbnz	w0, #17, 193c <TEE_AEUpdateAAD+0x58>
/home/asaf/devel/optee/optee_os/lib/libutee/tee_api_operations.c:1351
    1934:	52800000 	mov	w0, #0x0                   	// #0
    1938:	94000352 	bl	2680 <TEE_Panic>
/home/asaf/devel/optee/optee_os/lib/libutee/tee_api_operations.c:1353
    193c:	b9405a60 	ldr	w0, [x19,#88]
    1940:	aa1403e1 	mov	x1, x20
    1944:	2a1503e2 	mov	w2, w21
    1948:	9400046c 	bl	2af8 <utee_authenc_update_aad>
/home/asaf/devel/optee/optee_os/lib/libutee/tee_api_operations.c:1355
    194c:	52800021 	mov	w1, #0x1                   	// #1
    1950:	b9003261 	str	w1, [x19,#48]
/home/asaf/devel/optee/optee_os/lib/libutee/tee_api_operations.c:1357
    1954:	340000a0 	cbz	w0, 1968 <TEE_AEUpdateAAD+0x84>
/home/asaf/devel/optee/optee_os/lib/libutee/tee_api_operations.c:1359
    1958:	a94153f3 	ldp	x19, x20, [sp,#16]
    195c:	f94013f5 	ldr	x21, [sp,#32]
    1960:	a8c37bfd 	ldp	x29, x30, [sp],#48
/home/asaf/devel/optee/optee_os/lib/libutee/tee_api_operations.c:1358
    1964:	14000347 	b	2680 <TEE_Panic>
/home/asaf/devel/optee/optee_os/lib/libutee/tee_api_operations.c:1359
    1968:	a94153f3 	ldp	x19, x20, [sp,#16]
    196c:	f94013f5 	ldr	x21, [sp,#32]
    1970:	a8c37bfd 	ldp	x29, x30, [sp],#48
    1974:	d65f03c0 	ret

0000000000001978 <TEE_AEUpdate>:
TEE_AEUpdate():
/home/asaf/devel/optee/optee_os/lib/libutee/tee_api_operations.c:1363
    1978:	a9bc7bfd 	stp	x29, x30, [sp,#-64]!
    197c:	910003fd 	mov	x29, sp
    1980:	a90153f3 	stp	x19, x20, [sp,#16]
/home/asaf/devel/optee/optee_os/lib/libutee/tee_api_operations.c:1372
    1984:	129fff33 	mov	w19, #0xffff0006            	// #-65530
/home/asaf/devel/optee/optee_os/lib/libutee/tee_api_operations.c:1363
    1988:	f90013f5 	str	x21, [sp,#32]
/home/asaf/devel/optee/optee_os/lib/libutee/tee_api_operations.c:1368
    198c:	b4000560 	cbz	x0, 1a38 <TEE_AEUpdate+0xc0>
/home/asaf/devel/optee/optee_os/lib/libutee/tee_api_operations.c:1369 (discriminator 1)
    1990:	f100003f 	cmp	x1, #0x0
    1994:	aa0403f5 	mov	x21, x4
    1998:	1a9f17e4 	cset	w4, eq
    199c:	7100005f 	cmp	w2, #0x0
    19a0:	aa0003f4 	mov	x20, x0
    19a4:	1a9f07e0 	cset	w0, ne
    19a8:	f10002bf 	cmp	x21, #0x0
    19ac:	2a0203e5 	mov	w5, w2
    19b0:	0a000082 	and	w2, w4, w0
    19b4:	1a9f17e0 	cset	w0, eq
    19b8:	2a020000 	orr	w0, w0, w2
    19bc:	350003e0 	cbnz	w0, 1a38 <TEE_AEUpdate+0xc0>
/home/asaf/devel/optee/optee_os/lib/libutee/tee_api_operations.c:1370
    19c0:	b5000063 	cbnz	x3, 19cc <TEE_AEUpdate+0x54>
/home/asaf/devel/optee/optee_os/lib/libutee/tee_api_operations.c:1371
    19c4:	b94002a0 	ldr	w0, [x21]
    19c8:	35000380 	cbnz	w0, 1a38 <TEE_AEUpdate+0xc0>
/home/asaf/devel/optee/optee_os/lib/libutee/tee_api_operations.c:1376
    19cc:	b9400680 	ldr	w0, [x20,#4]
/home/asaf/devel/optee/optee_os/lib/libutee/tee_api_operations.c:1372
    19d0:	129fff33 	mov	w19, #0xffff0006            	// #-65530
/home/asaf/devel/optee/optee_os/lib/libutee/tee_api_operations.c:1376
    19d4:	7100101f 	cmp	w0, #0x4
    19d8:	54000301 	b.ne	1a38 <TEE_AEUpdate+0xc0>
/home/asaf/devel/optee/optee_os/lib/libutee/tee_api_operations.c:1381
    19dc:	b9401e80 	ldr	w0, [x20,#28]
    19e0:	368802c0 	tbz	w0, #17, 1a38 <TEE_AEUpdate+0xc0>
/home/asaf/devel/optee/optee_os/lib/libutee/tee_api_operations.c:1386
    19e4:	710000bf 	cmp	w5, #0x0
    19e8:	1a9f17e0 	cset	w0, eq
    19ec:	6a00009f 	tst	w4, w0
    19f0:	54000080 	b.eq	1a00 <TEE_AEUpdate+0x88>
/home/asaf/devel/optee/optee_os/lib/libutee/tee_api_operations.c:1387
    19f4:	b90002bf 	str	wzr, [x21]
/home/asaf/devel/optee/optee_os/lib/libutee/tee_api_operations.c:1429
    19f8:	52800013 	mov	w19, #0x0                   	// #0
    19fc:	1400000f 	b	1a38 <TEE_AEUpdate+0xc0>
/home/asaf/devel/optee/optee_os/lib/libutee/tee_api_operations.c:1397
    1a00:	f9402684 	ldr	x4, [x20,#72]
    1a04:	2a0503e2 	mov	w2, w5
/home/asaf/devel/optee/optee_os/lib/libutee/tee_api_operations.c:1401
    1a08:	aa0203e0 	mov	x0, x2
/home/asaf/devel/optee/optee_os/lib/libutee/tee_api_operations.c:1397
    1a0c:	f100049f 	cmp	x4, #0x1
    1a10:	540000a9 	b.ls	1a24 <TEE_AEUpdate+0xac>
/home/asaf/devel/optee/optee_os/lib/libutee/tee_api_operations.c:1398
    1a14:	f9402a80 	ldr	x0, [x20,#80]
    1a18:	cb0403e6 	neg	x6, x4
    1a1c:	8b000040 	add	x0, x2, x0
    1a20:	8a060000 	and	x0, x0, x6
/home/asaf/devel/optee/optee_os/lib/libutee/tee_api_operations.c:1404
    1a24:	b94002a6 	ldr	w6, [x21]
    1a28:	eb06001f 	cmp	x0, x6
    1a2c:	540001c9 	b.ls	1a64 <TEE_AEUpdate+0xec>
/home/asaf/devel/optee/optee_os/lib/libutee/tee_api_operations.c:1406
    1a30:	129ffdf3 	mov	w19, #0xffff0010            	// #-65520
/home/asaf/devel/optee/optee_os/lib/libutee/tee_api_operations.c:1405
    1a34:	b90002a0 	str	w0, [x21]
/home/asaf/devel/optee/optee_os/lib/libutee/tee_api_operations.c:1432
    1a38:	7100027f 	cmp	w19, #0x0
    1a3c:	129ffde0 	mov	w0, #0xffff0010            	// #-65520
    1a40:	7a401264 	ccmp	w19, w0, #0x4, ne
    1a44:	54000060 	b.eq	1a50 <TEE_AEUpdate+0xd8>
/home/asaf/devel/optee/optee_os/lib/libutee/tee_api_operations.c:1434
    1a48:	2a1303e0 	mov	w0, w19
    1a4c:	9400030d 	bl	2680 <TEE_Panic>
/home/asaf/devel/optee/optee_os/lib/libutee/tee_api_operations.c:1437
    1a50:	2a1303e0 	mov	w0, w19
    1a54:	f94013f5 	ldr	x21, [sp,#32]
    1a58:	a94153f3 	ldp	x19, x20, [sp,#16]
    1a5c:	a8c47bfd 	ldp	x29, x30, [sp],#64
    1a60:	d65f03c0 	ret
/home/asaf/devel/optee/optee_os/lib/libutee/tee_api_operations.c:1410
    1a64:	f9001fa6 	str	x6, [x29,#56]
/home/asaf/devel/optee/optee_os/lib/libutee/tee_api_operations.c:1411
    1a68:	f100049f 	cmp	x4, #0x1
    1a6c:	54000209 	b.ls	1aac <TEE_AEUpdate+0x134>
/home/asaf/devel/optee/optee_os/lib/libutee/tee_api_operations.c:1412
    1a70:	aa0303e4 	mov	x4, x3
    1a74:	aa0203e3 	mov	x3, x2
    1a78:	aa0103e2 	mov	x2, x1
    1a7c:	f0000041 	adrp	x1, c000 <__func__.3637+0x608>
    1a80:	9100e3a5 	add	x5, x29, #0x38
    1a84:	aa1403e0 	mov	x0, x20
    1a88:	f941dc21 	ldr	x1, [x1,#952]
    1a8c:	94000276 	bl	2464 <tee_buffer_update>
/home/asaf/devel/optee/optee_os/lib/libutee/tee_api_operations.c:1416
    1a90:	2a0003f3 	mov	w19, w0
/home/asaf/devel/optee/optee_os/lib/libutee/tee_api_operations.c:1424
    1a94:	35fffd20 	cbnz	w0, 1a38 <TEE_AEUpdate+0xc0>
/home/asaf/devel/optee/optee_os/lib/libutee/tee_api_operations.c:1427
    1a98:	f9401fa0 	ldr	x0, [x29,#56]
    1a9c:	b90002a0 	str	w0, [x21]
/home/asaf/devel/optee/optee_os/lib/libutee/tee_api_operations.c:1429
    1aa0:	52800020 	mov	w0, #0x1                   	// #1
    1aa4:	b9003280 	str	w0, [x20,#48]
    1aa8:	17ffffd4 	b	19f8 <TEE_AEUpdate+0x80>
/home/asaf/devel/optee/optee_os/lib/libutee/tee_api_operations.c:1415
    1aac:	340000a5 	cbz	w5, 1ac0 <TEE_AEUpdate+0x148>
/home/asaf/devel/optee/optee_os/lib/libutee/tee_api_operations.c:1416
    1ab0:	b9405a80 	ldr	w0, [x20,#88]
    1ab4:	9100e3a4 	add	x4, x29, #0x38
    1ab8:	94000413 	bl	2b04 <utee_authenc_update_payload>
    1abc:	17fffff5 	b	1a90 <TEE_AEUpdate+0x118>
/home/asaf/devel/optee/optee_os/lib/libutee/tee_api_operations.c:1420
    1ac0:	f9001fbf 	str	xzr, [x29,#56]
    1ac4:	17fffff5 	b	1a98 <TEE_AEUpdate+0x120>

0000000000001ac8 <TEE_AEEncryptFinal>:
TEE_AEEncryptFinal():
/home/asaf/devel/optee/optee_os/lib/libutee/tee_api_operations.c:1443
    1ac8:	a9ba7bfd 	stp	x29, x30, [sp,#-96]!
    1acc:	910003fd 	mov	x29, sp
    1ad0:	a90153f3 	stp	x19, x20, [sp,#16]
/home/asaf/devel/optee/optee_os/lib/libutee/tee_api_operations.c:1456
    1ad4:	129fff33 	mov	w19, #0xffff0006            	// #-65530
/home/asaf/devel/optee/optee_os/lib/libutee/tee_api_operations.c:1443
    1ad8:	a9025bf5 	stp	x21, x22, [sp,#32]
    1adc:	a90363f7 	stp	x23, x24, [sp,#48]
    1ae0:	a9046bf9 	stp	x25, x26, [sp,#64]
/home/asaf/devel/optee/optee_os/lib/libutee/tee_api_operations.c:1451
    1ae4:	b40003c0 	cbz	x0, 1b5c <TEE_AEEncryptFinal+0x94>
/home/asaf/devel/optee/optee_os/lib/libutee/tee_api_operations.c:1452 (discriminator 1)
    1ae8:	f100003f 	cmp	x1, #0x0
    1aec:	aa0403f5 	mov	x21, x4
    1af0:	7a400844 	ccmp	w2, #0x0, #0x4, eq
    1af4:	fa400884 	ccmp	x4, #0x0, #0x4, eq
    1af8:	54000320 	b.eq	1b5c <TEE_AEEncryptFinal+0x94>
    1afc:	aa0003f4 	mov	x20, x0
    1b00:	aa0303f9 	mov	x25, x3
    1b04:	aa0503fa 	mov	x26, x5
    1b08:	aa0603f8 	mov	x24, x6
/home/asaf/devel/optee/optee_os/lib/libutee/tee_api_operations.c:1453
    1b0c:	b5000063 	cbnz	x3, 1b18 <TEE_AEEncryptFinal+0x50>
/home/asaf/devel/optee/optee_os/lib/libutee/tee_api_operations.c:1454
    1b10:	b9400080 	ldr	w0, [x4]
    1b14:	35000240 	cbnz	w0, 1b5c <TEE_AEEncryptFinal+0x94>
/home/asaf/devel/optee/optee_os/lib/libutee/tee_api_operations.c:1455
    1b18:	f100035f 	cmp	x26, #0x0
/home/asaf/devel/optee/optee_os/lib/libutee/tee_api_operations.c:1456
    1b1c:	129fff33 	mov	w19, #0xffff0006            	// #-65530
/home/asaf/devel/optee/optee_os/lib/libutee/tee_api_operations.c:1455
    1b20:	fa401b04 	ccmp	x24, #0x0, #0x4, ne
    1b24:	540001c0 	b.eq	1b5c <TEE_AEEncryptFinal+0x94>
/home/asaf/devel/optee/optee_os/lib/libutee/tee_api_operations.c:1460
    1b28:	b9400680 	ldr	w0, [x20,#4]
    1b2c:	7100101f 	cmp	w0, #0x4
    1b30:	54000161 	b.ne	1b5c <TEE_AEEncryptFinal+0x94>
/home/asaf/devel/optee/optee_os/lib/libutee/tee_api_operations.c:1465
    1b34:	b9401e80 	ldr	w0, [x20,#28]
    1b38:	36880120 	tbz	w0, #17, 1b5c <TEE_AEEncryptFinal+0x94>
/home/asaf/devel/optee/optee_os/lib/libutee/tee_api_operations.c:1475
    1b3c:	f9402a80 	ldr	x0, [x20,#80]
    1b40:	2a0203e2 	mov	w2, w2
/home/asaf/devel/optee/optee_os/lib/libutee/tee_api_operations.c:1476
    1b44:	b94002a3 	ldr	w3, [x21]
/home/asaf/devel/optee/optee_os/lib/libutee/tee_api_operations.c:1475
    1b48:	8b000040 	add	x0, x2, x0
/home/asaf/devel/optee/optee_os/lib/libutee/tee_api_operations.c:1476
    1b4c:	eb03001f 	cmp	x0, x3
    1b50:	54000209 	b.ls	1b90 <TEE_AEEncryptFinal+0xc8>
/home/asaf/devel/optee/optee_os/lib/libutee/tee_api_operations.c:1477
    1b54:	b90002a0 	str	w0, [x21]
/home/asaf/devel/optee/optee_os/lib/libutee/tee_api_operations.c:1488
    1b58:	129ffdf3 	mov	w19, #0xffff0010            	// #-65520
/home/asaf/devel/optee/optee_os/lib/libutee/tee_api_operations.c:1525
    1b5c:	7100027f 	cmp	w19, #0x0
    1b60:	129ffde0 	mov	w0, #0xffff0010            	// #-65520
    1b64:	7a401264 	ccmp	w19, w0, #0x4, ne
    1b68:	54000060 	b.eq	1b74 <TEE_AEEncryptFinal+0xac>
/home/asaf/devel/optee/optee_os/lib/libutee/tee_api_operations.c:1527
    1b6c:	2a1303e0 	mov	w0, w19
    1b70:	940002c4 	bl	2680 <TEE_Panic>
/home/asaf/devel/optee/optee_os/lib/libutee/tee_api_operations.c:1530
    1b74:	2a1303e0 	mov	w0, w19
    1b78:	a94153f3 	ldp	x19, x20, [sp,#16]
    1b7c:	a9425bf5 	ldp	x21, x22, [sp,#32]
    1b80:	a94363f7 	ldp	x23, x24, [sp,#48]
    1b84:	a9446bf9 	ldp	x25, x26, [sp,#64]
    1b88:	a8c67bfd 	ldp	x29, x30, [sp],#96
    1b8c:	d65f03c0 	ret
/home/asaf/devel/optee/optee_os/lib/libutee/tee_api_operations.c:1486
    1b90:	b9405e84 	ldr	w4, [x20,#92]
    1b94:	b9400300 	ldr	w0, [x24]
    1b98:	6b04001f 	cmp	w0, w4
    1b9c:	54000062 	b.cs	1ba8 <TEE_AEEncryptFinal+0xe0>
/home/asaf/devel/optee/optee_os/lib/libutee/tee_api_operations.c:1487
    1ba0:	b9000304 	str	w4, [x24]
    1ba4:	17ffffed 	b	1b58 <TEE_AEEncryptFinal+0x90>
/home/asaf/devel/optee/optee_os/lib/libutee/tee_api_operations.c:1493
    1ba8:	910183b7 	add	x23, x29, #0x60
/home/asaf/devel/optee/optee_os/lib/libutee/tee_api_operations.c:1492
    1bac:	2a0003e0 	mov	w0, w0
    1bb0:	f9002fa0 	str	x0, [x29,#88]
/home/asaf/devel/optee/optee_os/lib/libutee/tee_api_operations.c:1494
    1bb4:	f9402680 	ldr	x0, [x20,#72]
/home/asaf/devel/optee/optee_os/lib/libutee/tee_api_operations.c:1493
    1bb8:	f81f0ee3 	str	x3, [x23,#-16]!
/home/asaf/devel/optee/optee_os/lib/libutee/tee_api_operations.c:1494
    1bbc:	f100041f 	cmp	x0, #0x1
    1bc0:	54000469 	b.ls	1c4c <TEE_AEEncryptFinal+0x184>
/home/asaf/devel/optee/optee_os/lib/libutee/tee_api_operations.c:1495
    1bc4:	aa0203e3 	mov	x3, x2
    1bc8:	aa0103e2 	mov	x2, x1
    1bcc:	f0000041 	adrp	x1, c000 <__func__.3637+0x608>
    1bd0:	aa1703e5 	mov	x5, x23
    1bd4:	aa1903e4 	mov	x4, x25
    1bd8:	aa1403e0 	mov	x0, x20
    1bdc:	f941dc21 	ldr	x1, [x1,#952]
    1be0:	94000221 	bl	2464 <tee_buffer_update>
    1be4:	2a0003f3 	mov	w19, w0
/home/asaf/devel/optee/optee_os/lib/libutee/tee_api_operations.c:1497
    1be8:	35fffba0 	cbnz	w0, 1b5c <TEE_AEEncryptFinal+0x94>
/home/asaf/devel/optee/optee_os/lib/libutee/tee_api_operations.c:1500
    1bec:	f9402bb6 	ldr	x22, [x29,#80]
/home/asaf/devel/optee/optee_os/lib/libutee/tee_api_operations.c:1504
    1bf0:	910163a6 	add	x6, x29, #0x58
/home/asaf/devel/optee/optee_os/lib/libutee/tee_api_operations.c:1503
    1bf4:	b94002a0 	ldr	w0, [x21]
/home/asaf/devel/optee/optee_os/lib/libutee/tee_api_operations.c:1504
    1bf8:	aa1a03e5 	mov	x5, x26
    1bfc:	f9401e81 	ldr	x1, [x20,#56]
    1c00:	aa1703e4 	mov	x4, x23
/home/asaf/devel/optee/optee_os/lib/libutee/tee_api_operations.c:1503
    1c04:	cb160000 	sub	x0, x0, x22
/home/asaf/devel/optee/optee_os/lib/libutee/tee_api_operations.c:1504
    1c08:	f9402a82 	ldr	x2, [x20,#80]
/home/asaf/devel/optee/optee_os/lib/libutee/tee_api_operations.c:1503
    1c0c:	f9002ba0 	str	x0, [x29,#80]
/home/asaf/devel/optee/optee_os/lib/libutee/tee_api_operations.c:1504
    1c10:	8b160323 	add	x3, x25, x22
    1c14:	b9405a80 	ldr	w0, [x20,#88]
    1c18:	940003be 	bl	2b10 <utee_authenc_enc_final>
    1c1c:	2a0003f3 	mov	w19, w0
/home/asaf/devel/optee/optee_os/lib/libutee/tee_api_operations.c:1513
    1c20:	f9402fa0 	ldr	x0, [x29,#88]
    1c24:	b9000300 	str	w0, [x24]
/home/asaf/devel/optee/optee_os/lib/libutee/tee_api_operations.c:1514
    1c28:	35fff9b3 	cbnz	w19, 1b5c <TEE_AEEncryptFinal+0x94>
/home/asaf/devel/optee/optee_os/lib/libutee/tee_api_operations.c:1517
    1c2c:	f9402ba0 	ldr	x0, [x29,#80]
    1c30:	8b0002d6 	add	x22, x22, x0
/home/asaf/devel/optee/optee_os/lib/libutee/tee_api_operations.c:1518
    1c34:	b90002b6 	str	w22, [x21]
/home/asaf/devel/optee/optee_os/lib/libutee/tee_api_operations.c:1522
    1c38:	b900329f 	str	wzr, [x20,#48]
/home/asaf/devel/optee/optee_os/lib/libutee/tee_api_operations.c:1520
    1c3c:	b9401e80 	ldr	w0, [x20,#28]
    1c40:	120e7800 	and	w0, w0, #0xfffdffff
    1c44:	b9001e80 	str	w0, [x20,#28]
    1c48:	17ffffc5 	b	1b5c <TEE_AEEncryptFinal+0x94>
/home/asaf/devel/optee/optee_os/lib/libutee/tee_api_operations.c:1509
    1c4c:	b9405a80 	ldr	w0, [x20,#88]
    1c50:	910163a6 	add	x6, x29, #0x58
    1c54:	aa1a03e5 	mov	x5, x26
    1c58:	aa1703e4 	mov	x4, x23
    1c5c:	aa1903e3 	mov	x3, x25
/home/asaf/devel/optee/optee_os/lib/libutee/tee_api_operations.c:1446
    1c60:	d2800016 	mov	x22, #0x0                   	// #0
/home/asaf/devel/optee/optee_os/lib/libutee/tee_api_operations.c:1509
    1c64:	940003ab 	bl	2b10 <utee_authenc_enc_final>
    1c68:	2a0003f3 	mov	w19, w0
    1c6c:	17ffffed 	b	1c20 <TEE_AEEncryptFinal+0x158>

0000000000001c70 <TEE_AEDecryptFinal>:
TEE_AEDecryptFinal():
/home/asaf/devel/optee/optee_os/lib/libutee/tee_api_operations.c:1536
    1c70:	a9ba7bfd 	stp	x29, x30, [sp,#-96]!
    1c74:	910003fd 	mov	x29, sp
    1c78:	a90153f3 	stp	x19, x20, [sp,#16]
/home/asaf/devel/optee/optee_os/lib/libutee/tee_api_operations.c:1548
    1c7c:	129fff33 	mov	w19, #0xffff0006            	// #-65530
/home/asaf/devel/optee/optee_os/lib/libutee/tee_api_operations.c:1536
    1c80:	a9025bf5 	stp	x21, x22, [sp,#32]
    1c84:	a90363f7 	stp	x23, x24, [sp,#48]
    1c88:	a9046bf9 	stp	x25, x26, [sp,#64]
/home/asaf/devel/optee/optee_os/lib/libutee/tee_api_operations.c:1543
    1c8c:	b40003c0 	cbz	x0, 1d04 <TEE_AEDecryptFinal+0x94>
/home/asaf/devel/optee/optee_os/lib/libutee/tee_api_operations.c:1544 (discriminator 1)
    1c90:	f100003f 	cmp	x1, #0x0
    1c94:	aa0403f5 	mov	x21, x4
    1c98:	7a400844 	ccmp	w2, #0x0, #0x4, eq
    1c9c:	fa400884 	ccmp	x4, #0x0, #0x4, eq
    1ca0:	54000320 	b.eq	1d04 <TEE_AEDecryptFinal+0x94>
    1ca4:	aa0003f4 	mov	x20, x0
    1ca8:	aa0303f9 	mov	x25, x3
    1cac:	aa0503fa 	mov	x26, x5
    1cb0:	2a0603f8 	mov	w24, w6
/home/asaf/devel/optee/optee_os/lib/libutee/tee_api_operations.c:1545
    1cb4:	b5000063 	cbnz	x3, 1cc0 <TEE_AEDecryptFinal+0x50>
/home/asaf/devel/optee/optee_os/lib/libutee/tee_api_operations.c:1546
    1cb8:	b9400080 	ldr	w0, [x4]
    1cbc:	35000240 	cbnz	w0, 1d04 <TEE_AEDecryptFinal+0x94>
/home/asaf/devel/optee/optee_os/lib/libutee/tee_api_operations.c:1547 (discriminator 1)
    1cc0:	f100035f 	cmp	x26, #0x0
/home/asaf/devel/optee/optee_os/lib/libutee/tee_api_operations.c:1548 (discriminator 1)
    1cc4:	129fff33 	mov	w19, #0xffff0006            	// #-65530
/home/asaf/devel/optee/optee_os/lib/libutee/tee_api_operations.c:1546 (discriminator 1)
    1cc8:	7a400b04 	ccmp	w24, #0x0, #0x4, eq
    1ccc:	540001c1 	b.ne	1d04 <TEE_AEDecryptFinal+0x94>
/home/asaf/devel/optee/optee_os/lib/libutee/tee_api_operations.c:1552
    1cd0:	b9400680 	ldr	w0, [x20,#4]
    1cd4:	7100101f 	cmp	w0, #0x4
    1cd8:	54000161 	b.ne	1d04 <TEE_AEDecryptFinal+0x94>
/home/asaf/devel/optee/optee_os/lib/libutee/tee_api_operations.c:1557
    1cdc:	b9401e80 	ldr	w0, [x20,#28]
    1ce0:	36880120 	tbz	w0, #17, 1d04 <TEE_AEDecryptFinal+0x94>
/home/asaf/devel/optee/optee_os/lib/libutee/tee_api_operations.c:1567
    1ce4:	f9402a80 	ldr	x0, [x20,#80]
    1ce8:	2a0203e2 	mov	w2, w2
/home/asaf/devel/optee/optee_os/lib/libutee/tee_api_operations.c:1568
    1cec:	b94002a3 	ldr	w3, [x21]
/home/asaf/devel/optee/optee_os/lib/libutee/tee_api_operations.c:1567
    1cf0:	8b000040 	add	x0, x2, x0
/home/asaf/devel/optee/optee_os/lib/libutee/tee_api_operations.c:1568
    1cf4:	eb03001f 	cmp	x0, x3
    1cf8:	54000249 	b.ls	1d40 <TEE_AEDecryptFinal+0xd0>
/home/asaf/devel/optee/optee_os/lib/libutee/tee_api_operations.c:1570
    1cfc:	129ffdf3 	mov	w19, #0xffff0010            	// #-65520
/home/asaf/devel/optee/optee_os/lib/libutee/tee_api_operations.c:1569
    1d00:	b90002a0 	str	w0, [x21]
/home/asaf/devel/optee/optee_os/lib/libutee/tee_api_operations.c:1610
    1d04:	7100027f 	cmp	w19, #0x0
    1d08:	129ffde0 	mov	w0, #0xffff0010            	// #-65520
    1d0c:	7a401264 	ccmp	w19, w0, #0x4, ne
    1d10:	1299f1c0 	mov	w0, #0xffff3071            	// #-53135
    1d14:	7a401264 	ccmp	w19, w0, #0x4, ne
    1d18:	54000060 	b.eq	1d24 <TEE_AEDecryptFinal+0xb4>
/home/asaf/devel/optee/optee_os/lib/libutee/tee_api_operations.c:1612
    1d1c:	2a1303e0 	mov	w0, w19
    1d20:	94000258 	bl	2680 <TEE_Panic>
/home/asaf/devel/optee/optee_os/lib/libutee/tee_api_operations.c:1615
    1d24:	2a1303e0 	mov	w0, w19
    1d28:	a94153f3 	ldp	x19, x20, [sp,#16]
    1d2c:	a9425bf5 	ldp	x21, x22, [sp,#32]
    1d30:	a94363f7 	ldp	x23, x24, [sp,#48]
    1d34:	a9446bf9 	ldp	x25, x26, [sp,#64]
    1d38:	a8c67bfd 	ldp	x29, x30, [sp],#96
    1d3c:	d65f03c0 	ret
/home/asaf/devel/optee/optee_os/lib/libutee/tee_api_operations.c:1574
    1d40:	910183b7 	add	x23, x29, #0x60
/home/asaf/devel/optee/optee_os/lib/libutee/tee_api_operations.c:1575
    1d44:	f9402680 	ldr	x0, [x20,#72]
    1d48:	f100041f 	cmp	x0, #0x1
/home/asaf/devel/optee/optee_os/lib/libutee/tee_api_operations.c:1574
    1d4c:	f81f8ee3 	str	x3, [x23,#-8]!
/home/asaf/devel/optee/optee_os/lib/libutee/tee_api_operations.c:1575
    1d50:	540004a9 	b.ls	1de4 <TEE_AEDecryptFinal+0x174>
/home/asaf/devel/optee/optee_os/lib/libutee/tee_api_operations.c:1576
    1d54:	aa0203e3 	mov	x3, x2
    1d58:	aa0103e2 	mov	x2, x1
    1d5c:	f0000041 	adrp	x1, c000 <__func__.3637+0x608>
    1d60:	aa1703e5 	mov	x5, x23
    1d64:	aa1903e4 	mov	x4, x25
    1d68:	aa1403e0 	mov	x0, x20
    1d6c:	f941dc21 	ldr	x1, [x1,#952]
    1d70:	940001bd 	bl	2464 <tee_buffer_update>
    1d74:	2a0003f3 	mov	w19, w0
/home/asaf/devel/optee/optee_os/lib/libutee/tee_api_operations.c:1578
    1d78:	35fffc60 	cbnz	w0, 1d04 <TEE_AEDecryptFinal+0x94>
/home/asaf/devel/optee/optee_os/lib/libutee/tee_api_operations.c:1581
    1d7c:	f9402fb6 	ldr	x22, [x29,#88]
/home/asaf/devel/optee/optee_os/lib/libutee/tee_api_operations.c:1585
    1d80:	2a1803e6 	mov	w6, w24
/home/asaf/devel/optee/optee_os/lib/libutee/tee_api_operations.c:1584
    1d84:	b94002a0 	ldr	w0, [x21]
/home/asaf/devel/optee/optee_os/lib/libutee/tee_api_operations.c:1585
    1d88:	aa1a03e5 	mov	x5, x26
    1d8c:	f9401e81 	ldr	x1, [x20,#56]
    1d90:	aa1703e4 	mov	x4, x23
/home/asaf/devel/optee/optee_os/lib/libutee/tee_api_operations.c:1584
    1d94:	cb160000 	sub	x0, x0, x22
/home/asaf/devel/optee/optee_os/lib/libutee/tee_api_operations.c:1585
    1d98:	f9402a82 	ldr	x2, [x20,#80]
/home/asaf/devel/optee/optee_os/lib/libutee/tee_api_operations.c:1584
    1d9c:	f9002fa0 	str	x0, [x29,#88]
/home/asaf/devel/optee/optee_os/lib/libutee/tee_api_operations.c:1585
    1da0:	8b160323 	add	x3, x25, x22
    1da4:	b9405a80 	ldr	w0, [x20,#88]
    1da8:	9400035d 	bl	2b1c <utee_authenc_dec_final>
    1dac:	2a0003f3 	mov	w19, w0
/home/asaf/devel/optee/optee_os/lib/libutee/tee_api_operations.c:1594
    1db0:	35fffab3 	cbnz	w19, 1d04 <TEE_AEDecryptFinal+0x94>
/home/asaf/devel/optee/optee_os/lib/libutee/tee_api_operations.c:1598
    1db4:	b9405e80 	ldr	w0, [x20,#92]
/home/asaf/devel/optee/optee_os/lib/libutee/tee_api_operations.c:1599
    1db8:	1299f1d3 	mov	w19, #0xffff3071            	// #-53135
    1dbc:	6b00031f 	cmp	w24, w0
/home/asaf/devel/optee/optee_os/lib/libutee/tee_api_operations.c:1601
    1dc0:	f9402fa0 	ldr	x0, [x29,#88]
/home/asaf/devel/optee/optee_os/lib/libutee/tee_api_operations.c:1599
    1dc4:	1a9303f3 	csel	w19, wzr, w19, eq
/home/asaf/devel/optee/optee_os/lib/libutee/tee_api_operations.c:1601
    1dc8:	8b0002d6 	add	x22, x22, x0
/home/asaf/devel/optee/optee_os/lib/libutee/tee_api_operations.c:1602
    1dcc:	b90002b6 	str	w22, [x21]
/home/asaf/devel/optee/optee_os/lib/libutee/tee_api_operations.c:1606
    1dd0:	b900329f 	str	wzr, [x20,#48]
/home/asaf/devel/optee/optee_os/lib/libutee/tee_api_operations.c:1604
    1dd4:	b9401e80 	ldr	w0, [x20,#28]
    1dd8:	120e7800 	and	w0, w0, #0xfffdffff
    1ddc:	b9001e80 	str	w0, [x20,#28]
    1de0:	17ffffc9 	b	1d04 <TEE_AEDecryptFinal+0x94>
/home/asaf/devel/optee/optee_os/lib/libutee/tee_api_operations.c:1590
    1de4:	b9405a80 	ldr	w0, [x20,#88]
    1de8:	2a1803e6 	mov	w6, w24
    1dec:	aa1a03e5 	mov	x5, x26
    1df0:	aa1703e4 	mov	x4, x23
    1df4:	aa1903e3 	mov	x3, x25
/home/asaf/devel/optee/optee_os/lib/libutee/tee_api_operations.c:1539
    1df8:	d2800016 	mov	x22, #0x0                   	// #0
/home/asaf/devel/optee/optee_os/lib/libutee/tee_api_operations.c:1590
    1dfc:	94000348 	bl	2b1c <utee_authenc_dec_final>
    1e00:	2a0003f3 	mov	w19, w0
    1e04:	17ffffeb 	b	1db0 <TEE_AEDecryptFinal+0x140>

0000000000001e08 <TEE_AsymmetricEncrypt>:
TEE_AsymmetricEncrypt():
/home/asaf/devel/optee/optee_os/lib/libutee/tee_api_operations.c:1624
    1e08:	a9b97bfd 	stp	x29, x30, [sp,#-112]!
    1e0c:	910003fd 	mov	x29, sp
    1e10:	a9046bf9 	stp	x25, x26, [sp,#64]
    1e14:	2a0203fa 	mov	w26, w2
    1e18:	a90153f3 	stp	x19, x20, [sp,#16]
    1e1c:	aa0003f3 	mov	x19, x0
/home/asaf/devel/optee/optee_os/lib/libutee/tee_api_operations.c:1626
    1e20:	52800300 	mov	w0, #0x18                  	// #24
/home/asaf/devel/optee/optee_os/lib/libutee/tee_api_operations.c:1624
    1e24:	a9025bf5 	stp	x21, x22, [sp,#32]
    1e28:	a90363f7 	stp	x23, x24, [sp,#48]
    1e2c:	aa0103f9 	mov	x25, x1
/home/asaf/devel/optee/optee_os/lib/libutee/tee_api_operations.c:1626
    1e30:	9ba07f40 	umull	x0, w26, w0
/home/asaf/devel/optee/optee_os/lib/libutee/tee_api_operations.c:1624
    1e34:	f9002bfb 	str	x27, [sp,#80]
    1e38:	aa1a03f5 	mov	x21, x26
    1e3c:	aa0303f6 	mov	x22, x3
/home/asaf/devel/optee/optee_os/lib/libutee/tee_api_operations.c:1626
    1e40:	91005800 	add	x0, x0, #0x16
/home/asaf/devel/optee/optee_os/lib/libutee/tee_api_operations.c:1624
    1e44:	2a0403f7 	mov	w23, w4
/home/asaf/devel/optee/optee_os/lib/libutee/tee_api_operations.c:1626
    1e48:	927c8400 	and	x0, x0, #0x3ffffffff0
/home/asaf/devel/optee/optee_os/lib/libutee/tee_api_operations.c:1624
    1e4c:	aa0503f8 	mov	x24, x5
/home/asaf/devel/optee/optee_os/lib/libutee/tee_api_operations.c:1626
    1e50:	cb2063ff 	sub	sp, sp, x0
/home/asaf/devel/optee/optee_os/lib/libutee/tee_api_operations.c:1624
    1e54:	aa0603f4 	mov	x20, x6
/home/asaf/devel/optee/optee_os/lib/libutee/tee_api_operations.c:1626
    1e58:	910003fb 	mov	x27, sp
/home/asaf/devel/optee/optee_os/lib/libutee/tee_api_operations.c:1629
    1e5c:	b4000113 	cbz	x19, 1e7c <TEE_AsymmetricEncrypt+0x74>
/home/asaf/devel/optee/optee_os/lib/libutee/tee_api_operations.c:1629 (discriminator 1)
    1e60:	f100007f 	cmp	x3, #0x0
    1e64:	7a400884 	ccmp	w4, #0x0, #0x4, eq
    1e68:	fa4008c4 	ccmp	x6, #0x0, #0x4, eq
    1e6c:	54000080 	b.eq	1e7c <TEE_AsymmetricEncrypt+0x74>
/home/asaf/devel/optee/optee_os/lib/libutee/tee_api_operations.c:1630
    1e70:	b50000a5 	cbnz	x5, 1e84 <TEE_AsymmetricEncrypt+0x7c>
/home/asaf/devel/optee/optee_os/lib/libutee/tee_api_operations.c:1630 (discriminator 1)
    1e74:	b94000c0 	ldr	w0, [x6]
    1e78:	34000060 	cbz	w0, 1e84 <TEE_AsymmetricEncrypt+0x7c>
/home/asaf/devel/optee/optee_os/lib/libutee/tee_api_operations.c:1631
    1e7c:	52800000 	mov	w0, #0x0                   	// #0
    1e80:	94000200 	bl	2680 <TEE_Panic>
/home/asaf/devel/optee/optee_os/lib/libutee/tee_api_operations.c:1632
    1e84:	f100033f 	cmp	x25, #0x0
    1e88:	7a400aa4 	ccmp	w21, #0x0, #0x4, eq
    1e8c:	54000060 	b.eq	1e98 <TEE_AsymmetricEncrypt+0x90>
/home/asaf/devel/optee/optee_os/lib/libutee/tee_api_operations.c:1633
    1e90:	52800000 	mov	w0, #0x0                   	// #0
    1e94:	940001fb 	bl	2680 <TEE_Panic>
/home/asaf/devel/optee/optee_os/lib/libutee/tee_api_operations.c:1634
    1e98:	f9401260 	ldr	x0, [x19,#32]
    1e9c:	b5000040 	cbnz	x0, 1ea4 <TEE_AsymmetricEncrypt+0x9c>
/home/asaf/devel/optee/optee_os/lib/libutee/tee_api_operations.c:1635
    1ea0:	940001f8 	bl	2680 <TEE_Panic>
/home/asaf/devel/optee/optee_os/lib/libutee/tee_api_operations.c:1636
    1ea4:	b9400660 	ldr	w0, [x19,#4]
    1ea8:	7100181f 	cmp	w0, #0x6
    1eac:	54000060 	b.eq	1eb8 <TEE_AsymmetricEncrypt+0xb0>
/home/asaf/devel/optee/optee_os/lib/libutee/tee_api_operations.c:1637
    1eb0:	52800000 	mov	w0, #0x0                   	// #0
    1eb4:	940001f3 	bl	2680 <TEE_Panic>
/home/asaf/devel/optee/optee_os/lib/libutee/tee_api_operations.c:1638
    1eb8:	b9400a60 	ldr	w0, [x19,#8]
    1ebc:	34000060 	cbz	w0, 1ec8 <TEE_AsymmetricEncrypt+0xc0>
/home/asaf/devel/optee/optee_os/lib/libutee/tee_api_operations.c:1639
    1ec0:	52800000 	mov	w0, #0x0                   	// #0
    1ec4:	940001ef 	bl	2680 <TEE_Panic>
/home/asaf/devel/optee/optee_os/lib/libutee/tee_api_operations.c:1641
    1ec8:	2a1503e2 	mov	w2, w21
    1ecc:	aa1903e1 	mov	x1, x25
    1ed0:	aa1b03e0 	mov	x0, x27
    1ed4:	94000649 	bl	37f8 <__utee_from_attr>
/home/asaf/devel/optee/optee_os/lib/libutee/tee_api_operations.c:1642
    1ed8:	9101c3a6 	add	x6, x29, #0x70
    1edc:	b9400280 	ldr	w0, [x20]
/home/asaf/devel/optee/optee_os/lib/libutee/tee_api_operations.c:1643
    1ee0:	aa1b03e1 	mov	x1, x27
    1ee4:	aa1803e5 	mov	x5, x24
    1ee8:	2a1703e4 	mov	w4, w23
    1eec:	aa1603e3 	mov	x3, x22
/home/asaf/devel/optee/optee_os/lib/libutee/tee_api_operations.c:1642
    1ef0:	f81f8cc0 	str	x0, [x6,#-8]!
/home/asaf/devel/optee/optee_os/lib/libutee/tee_api_operations.c:1643
    1ef4:	aa1a03e2 	mov	x2, x26
    1ef8:	b9405a60 	ldr	w0, [x19,#88]
    1efc:	9400030b 	bl	2b28 <utee_asymm_operate>
/home/asaf/devel/optee/optee_os/lib/libutee/tee_api_operations.c:1648
    1f00:	7100001f 	cmp	w0, #0x0
/home/asaf/devel/optee/optee_os/lib/libutee/tee_api_operations.c:1645
    1f04:	f94037a1 	ldr	x1, [x29,#104]
/home/asaf/devel/optee/optee_os/lib/libutee/tee_api_operations.c:1643
    1f08:	2a0003f3 	mov	w19, w0
/home/asaf/devel/optee/optee_os/lib/libutee/tee_api_operations.c:1645
    1f0c:	b9000281 	str	w1, [x20]
/home/asaf/devel/optee/optee_os/lib/libutee/tee_api_operations.c:1648
    1f10:	129ffde1 	mov	w1, #0xffff0010            	// #-65520
    1f14:	7a411004 	ccmp	w0, w1, #0x4, ne
    1f18:	129fff21 	mov	w1, #0xffff0006            	// #-65530
    1f1c:	7a411004 	ccmp	w0, w1, #0x4, ne
    1f20:	54000040 	b.eq	1f28 <TEE_AsymmetricEncrypt+0x120>
/home/asaf/devel/optee/optee_os/lib/libutee/tee_api_operations.c:1650
    1f24:	940001d7 	bl	2680 <TEE_Panic>
/home/asaf/devel/optee/optee_os/lib/libutee/tee_api_operations.c:1653
    1f28:	910003bf 	mov	sp, x29
    1f2c:	2a1303e0 	mov	w0, w19
    1f30:	f9402bfb 	ldr	x27, [sp,#80]
    1f34:	a94153f3 	ldp	x19, x20, [sp,#16]
    1f38:	a9425bf5 	ldp	x21, x22, [sp,#32]
    1f3c:	a94363f7 	ldp	x23, x24, [sp,#48]
    1f40:	a9446bf9 	ldp	x25, x26, [sp,#64]
    1f44:	a8c77bfd 	ldp	x29, x30, [sp],#112
    1f48:	d65f03c0 	ret

0000000000001f4c <TEE_AsymmetricDecrypt>:
TEE_AsymmetricDecrypt():
/home/asaf/devel/optee/optee_os/lib/libutee/tee_api_operations.c:1660
    1f4c:	a9b97bfd 	stp	x29, x30, [sp,#-112]!
    1f50:	910003fd 	mov	x29, sp
    1f54:	a9046bf9 	stp	x25, x26, [sp,#64]
    1f58:	2a0203fa 	mov	w26, w2
    1f5c:	a90153f3 	stp	x19, x20, [sp,#16]
    1f60:	aa0003f3 	mov	x19, x0
/home/asaf/devel/optee/optee_os/lib/libutee/tee_api_operations.c:1662
    1f64:	52800300 	mov	w0, #0x18                  	// #24
/home/asaf/devel/optee/optee_os/lib/libutee/tee_api_operations.c:1660
    1f68:	a9025bf5 	stp	x21, x22, [sp,#32]
    1f6c:	a90363f7 	stp	x23, x24, [sp,#48]
    1f70:	aa0103f9 	mov	x25, x1
/home/asaf/devel/optee/optee_os/lib/libutee/tee_api_operations.c:1662
    1f74:	9ba07f40 	umull	x0, w26, w0
/home/asaf/devel/optee/optee_os/lib/libutee/tee_api_operations.c:1660
    1f78:	f9002bfb 	str	x27, [sp,#80]
    1f7c:	aa1a03f5 	mov	x21, x26
    1f80:	aa0303f6 	mov	x22, x3
/home/asaf/devel/optee/optee_os/lib/libutee/tee_api_operations.c:1662
    1f84:	91005800 	add	x0, x0, #0x16
/home/asaf/devel/optee/optee_os/lib/libutee/tee_api_operations.c:1660
    1f88:	2a0403f7 	mov	w23, w4
/home/asaf/devel/optee/optee_os/lib/libutee/tee_api_operations.c:1662
    1f8c:	927c8400 	and	x0, x0, #0x3ffffffff0
/home/asaf/devel/optee/optee_os/lib/libutee/tee_api_operations.c:1660
    1f90:	aa0503f8 	mov	x24, x5
/home/asaf/devel/optee/optee_os/lib/libutee/tee_api_operations.c:1662
    1f94:	cb2063ff 	sub	sp, sp, x0
/home/asaf/devel/optee/optee_os/lib/libutee/tee_api_operations.c:1660
    1f98:	aa0603f4 	mov	x20, x6
/home/asaf/devel/optee/optee_os/lib/libutee/tee_api_operations.c:1662
    1f9c:	910003fb 	mov	x27, sp
/home/asaf/devel/optee/optee_os/lib/libutee/tee_api_operations.c:1665
    1fa0:	b4000113 	cbz	x19, 1fc0 <TEE_AsymmetricDecrypt+0x74>
/home/asaf/devel/optee/optee_os/lib/libutee/tee_api_operations.c:1665 (discriminator 1)
    1fa4:	f100007f 	cmp	x3, #0x0
    1fa8:	7a400884 	ccmp	w4, #0x0, #0x4, eq
    1fac:	fa4008c4 	ccmp	x6, #0x0, #0x4, eq
    1fb0:	54000080 	b.eq	1fc0 <TEE_AsymmetricDecrypt+0x74>
/home/asaf/devel/optee/optee_os/lib/libutee/tee_api_operations.c:1666
    1fb4:	b50000a5 	cbnz	x5, 1fc8 <TEE_AsymmetricDecrypt+0x7c>
/home/asaf/devel/optee/optee_os/lib/libutee/tee_api_operations.c:1666 (discriminator 1)
    1fb8:	b94000c0 	ldr	w0, [x6]
    1fbc:	34000060 	cbz	w0, 1fc8 <TEE_AsymmetricDecrypt+0x7c>
/home/asaf/devel/optee/optee_os/lib/libutee/tee_api_operations.c:1667
    1fc0:	52800000 	mov	w0, #0x0                   	// #0
    1fc4:	940001af 	bl	2680 <TEE_Panic>
/home/asaf/devel/optee/optee_os/lib/libutee/tee_api_operations.c:1668
    1fc8:	f100033f 	cmp	x25, #0x0
    1fcc:	7a400aa4 	ccmp	w21, #0x0, #0x4, eq
    1fd0:	54000060 	b.eq	1fdc <TEE_AsymmetricDecrypt+0x90>
/home/asaf/devel/optee/optee_os/lib/libutee/tee_api_operations.c:1669
    1fd4:	52800000 	mov	w0, #0x0                   	// #0
    1fd8:	940001aa 	bl	2680 <TEE_Panic>
/home/asaf/devel/optee/optee_os/lib/libutee/tee_api_operations.c:1670
    1fdc:	f9401260 	ldr	x0, [x19,#32]
    1fe0:	b5000040 	cbnz	x0, 1fe8 <TEE_AsymmetricDecrypt+0x9c>
/home/asaf/devel/optee/optee_os/lib/libutee/tee_api_operations.c:1671
    1fe4:	940001a7 	bl	2680 <TEE_Panic>
/home/asaf/devel/optee/optee_os/lib/libutee/tee_api_operations.c:1672
    1fe8:	b9400660 	ldr	w0, [x19,#4]
    1fec:	7100181f 	cmp	w0, #0x6
    1ff0:	54000060 	b.eq	1ffc <TEE_AsymmetricDecrypt+0xb0>
/home/asaf/devel/optee/optee_os/lib/libutee/tee_api_operations.c:1673
    1ff4:	52800000 	mov	w0, #0x0                   	// #0
    1ff8:	940001a2 	bl	2680 <TEE_Panic>
/home/asaf/devel/optee/optee_os/lib/libutee/tee_api_operations.c:1674
    1ffc:	b9400a60 	ldr	w0, [x19,#8]
    2000:	7100041f 	cmp	w0, #0x1
    2004:	54000060 	b.eq	2010 <TEE_AsymmetricDecrypt+0xc4>
/home/asaf/devel/optee/optee_os/lib/libutee/tee_api_operations.c:1675
    2008:	52800000 	mov	w0, #0x0                   	// #0
    200c:	9400019d 	bl	2680 <TEE_Panic>
/home/asaf/devel/optee/optee_os/lib/libutee/tee_api_operations.c:1677
    2010:	2a1503e2 	mov	w2, w21
    2014:	aa1903e1 	mov	x1, x25
    2018:	aa1b03e0 	mov	x0, x27
    201c:	940005f7 	bl	37f8 <__utee_from_attr>
/home/asaf/devel/optee/optee_os/lib/libutee/tee_api_operations.c:1678
    2020:	9101c3a6 	add	x6, x29, #0x70
    2024:	b9400280 	ldr	w0, [x20]
/home/asaf/devel/optee/optee_os/lib/libutee/tee_api_operations.c:1679
    2028:	aa1b03e1 	mov	x1, x27
    202c:	aa1803e5 	mov	x5, x24
    2030:	2a1703e4 	mov	w4, w23
    2034:	aa1603e3 	mov	x3, x22
/home/asaf/devel/optee/optee_os/lib/libutee/tee_api_operations.c:1678
    2038:	f81f8cc0 	str	x0, [x6,#-8]!
/home/asaf/devel/optee/optee_os/lib/libutee/tee_api_operations.c:1679
    203c:	aa1a03e2 	mov	x2, x26
    2040:	b9405a60 	ldr	w0, [x19,#88]
    2044:	940002b9 	bl	2b28 <utee_asymm_operate>
/home/asaf/devel/optee/optee_os/lib/libutee/tee_api_operations.c:1684
    2048:	7100001f 	cmp	w0, #0x0
/home/asaf/devel/optee/optee_os/lib/libutee/tee_api_operations.c:1681
    204c:	f94037a1 	ldr	x1, [x29,#104]
/home/asaf/devel/optee/optee_os/lib/libutee/tee_api_operations.c:1679
    2050:	2a0003f3 	mov	w19, w0
/home/asaf/devel/optee/optee_os/lib/libutee/tee_api_operations.c:1681
    2054:	b9000281 	str	w1, [x20]
/home/asaf/devel/optee/optee_os/lib/libutee/tee_api_operations.c:1684
    2058:	129ffde1 	mov	w1, #0xffff0010            	// #-65520
    205c:	7a411004 	ccmp	w0, w1, #0x4, ne
    2060:	129fff21 	mov	w1, #0xffff0006            	// #-65530
    2064:	7a411004 	ccmp	w0, w1, #0x4, ne
    2068:	54000040 	b.eq	2070 <TEE_AsymmetricDecrypt+0x124>
/home/asaf/devel/optee/optee_os/lib/libutee/tee_api_operations.c:1686
    206c:	94000185 	bl	2680 <TEE_Panic>
/home/asaf/devel/optee/optee_os/lib/libutee/tee_api_operations.c:1689
    2070:	910003bf 	mov	sp, x29
    2074:	2a1303e0 	mov	w0, w19
    2078:	f9402bfb 	ldr	x27, [sp,#80]
    207c:	a94153f3 	ldp	x19, x20, [sp,#16]
    2080:	a9425bf5 	ldp	x21, x22, [sp,#32]
    2084:	a94363f7 	ldp	x23, x24, [sp,#48]
    2088:	a9446bf9 	ldp	x25, x26, [sp,#64]
    208c:	a8c77bfd 	ldp	x29, x30, [sp],#112
    2090:	d65f03c0 	ret

0000000000002094 <TEE_AsymmetricSignDigest>:
TEE_AsymmetricSignDigest():
/home/asaf/devel/optee/optee_os/lib/libutee/tee_api_operations.c:1696
    2094:	a9b97bfd 	stp	x29, x30, [sp,#-112]!
    2098:	910003fd 	mov	x29, sp
    209c:	a9046bf9 	stp	x25, x26, [sp,#64]
    20a0:	2a0203fa 	mov	w26, w2
    20a4:	a90153f3 	stp	x19, x20, [sp,#16]
    20a8:	aa0003f3 	mov	x19, x0
/home/asaf/devel/optee/optee_os/lib/libutee/tee_api_operations.c:1698
    20ac:	52800300 	mov	w0, #0x18                  	// #24
/home/asaf/devel/optee/optee_os/lib/libutee/tee_api_operations.c:1696
    20b0:	a9025bf5 	stp	x21, x22, [sp,#32]
    20b4:	a90363f7 	stp	x23, x24, [sp,#48]
    20b8:	aa0103f9 	mov	x25, x1
/home/asaf/devel/optee/optee_os/lib/libutee/tee_api_operations.c:1698
    20bc:	9ba07f40 	umull	x0, w26, w0
/home/asaf/devel/optee/optee_os/lib/libutee/tee_api_operations.c:1696
    20c0:	f9002bfb 	str	x27, [sp,#80]
    20c4:	aa1a03f4 	mov	x20, x26
    20c8:	aa0303f6 	mov	x22, x3
/home/asaf/devel/optee/optee_os/lib/libutee/tee_api_operations.c:1698
    20cc:	91005800 	add	x0, x0, #0x16
/home/asaf/devel/optee/optee_os/lib/libutee/tee_api_operations.c:1696
    20d0:	2a0403f7 	mov	w23, w4
/home/asaf/devel/optee/optee_os/lib/libutee/tee_api_operations.c:1698
    20d4:	927c8400 	and	x0, x0, #0x3ffffffff0
/home/asaf/devel/optee/optee_os/lib/libutee/tee_api_operations.c:1696
    20d8:	aa0503f8 	mov	x24, x5
/home/asaf/devel/optee/optee_os/lib/libutee/tee_api_operations.c:1698
    20dc:	cb2063ff 	sub	sp, sp, x0
/home/asaf/devel/optee/optee_os/lib/libutee/tee_api_operations.c:1696
    20e0:	aa0603f5 	mov	x21, x6
/home/asaf/devel/optee/optee_os/lib/libutee/tee_api_operations.c:1698
    20e4:	910003fb 	mov	x27, sp
/home/asaf/devel/optee/optee_os/lib/libutee/tee_api_operations.c:1701
    20e8:	b40000f3 	cbz	x19, 2104 <TEE_AsymmetricSignDigest+0x70>
/home/asaf/devel/optee/optee_os/lib/libutee/tee_api_operations.c:1702 (discriminator 1)
    20ec:	f100007f 	cmp	x3, #0x0
/home/asaf/devel/optee/optee_os/lib/libutee/tee_api_operations.c:1701 (discriminator 1)
    20f0:	7a400884 	ccmp	w4, #0x0, #0x4, eq
    20f4:	54000081 	b.ne	2104 <TEE_AsymmetricSignDigest+0x70>
/home/asaf/devel/optee/optee_os/lib/libutee/tee_api_operations.c:1703
    20f8:	f10000bf 	cmp	x5, #0x0
    20fc:	fa4018c4 	ccmp	x6, #0x0, #0x4, ne
    2100:	54000061 	b.ne	210c <TEE_AsymmetricSignDigest+0x78>
/home/asaf/devel/optee/optee_os/lib/libutee/tee_api_operations.c:1704
    2104:	52800000 	mov	w0, #0x0                   	// #0
    2108:	9400015e 	bl	2680 <TEE_Panic>
/home/asaf/devel/optee/optee_os/lib/libutee/tee_api_operations.c:1705
    210c:	f100033f 	cmp	x25, #0x0
    2110:	7a400a84 	ccmp	w20, #0x0, #0x4, eq
    2114:	54000060 	b.eq	2120 <TEE_AsymmetricSignDigest+0x8c>
/home/asaf/devel/optee/optee_os/lib/libutee/tee_api_operations.c:1706
    2118:	52800000 	mov	w0, #0x0                   	// #0
    211c:	94000159 	bl	2680 <TEE_Panic>
/home/asaf/devel/optee/optee_os/lib/libutee/tee_api_operations.c:1707
    2120:	f9401260 	ldr	x0, [x19,#32]
    2124:	b5000040 	cbnz	x0, 212c <TEE_AsymmetricSignDigest+0x98>
/home/asaf/devel/optee/optee_os/lib/libutee/tee_api_operations.c:1708
    2128:	94000156 	bl	2680 <TEE_Panic>
/home/asaf/devel/optee/optee_os/lib/libutee/tee_api_operations.c:1709
    212c:	b9400660 	ldr	w0, [x19,#4]
    2130:	71001c1f 	cmp	w0, #0x7
    2134:	54000060 	b.eq	2140 <TEE_AsymmetricSignDigest+0xac>
/home/asaf/devel/optee/optee_os/lib/libutee/tee_api_operations.c:1711
    2138:	52800000 	mov	w0, #0x0                   	// #0
    213c:	94000151 	bl	2680 <TEE_Panic>
/home/asaf/devel/optee/optee_os/lib/libutee/tee_api_operations.c:1712
    2140:	b9400a60 	ldr	w0, [x19,#8]
    2144:	7100081f 	cmp	w0, #0x2
    2148:	54000060 	b.eq	2154 <TEE_AsymmetricSignDigest+0xc0>
/home/asaf/devel/optee/optee_os/lib/libutee/tee_api_operations.c:1713
    214c:	52800000 	mov	w0, #0x0                   	// #0
    2150:	9400014c 	bl	2680 <TEE_Panic>
/home/asaf/devel/optee/optee_os/lib/libutee/tee_api_operations.c:1715
    2154:	2a1403e2 	mov	w2, w20
    2158:	aa1903e1 	mov	x1, x25
    215c:	aa1b03e0 	mov	x0, x27
    2160:	940005a6 	bl	37f8 <__utee_from_attr>
/home/asaf/devel/optee/optee_os/lib/libutee/tee_api_operations.c:1716
    2164:	9101c3a6 	add	x6, x29, #0x70
    2168:	b94002a0 	ldr	w0, [x21]
/home/asaf/devel/optee/optee_os/lib/libutee/tee_api_operations.c:1717
    216c:	aa1b03e1 	mov	x1, x27
    2170:	aa1803e5 	mov	x5, x24
    2174:	2a1703e4 	mov	w4, w23
    2178:	aa1603e3 	mov	x3, x22
/home/asaf/devel/optee/optee_os/lib/libutee/tee_api_operations.c:1716
    217c:	f81f8cc0 	str	x0, [x6,#-8]!
/home/asaf/devel/optee/optee_os/lib/libutee/tee_api_operations.c:1717
    2180:	aa1a03e2 	mov	x2, x26
    2184:	b9405a60 	ldr	w0, [x19,#88]
    2188:	94000268 	bl	2b28 <utee_asymm_operate>
/home/asaf/devel/optee/optee_os/lib/libutee/tee_api_operations.c:1721
    218c:	7100001f 	cmp	w0, #0x0
/home/asaf/devel/optee/optee_os/lib/libutee/tee_api_operations.c:1719
    2190:	f94037a1 	ldr	x1, [x29,#104]
/home/asaf/devel/optee/optee_os/lib/libutee/tee_api_operations.c:1717
    2194:	2a0003f3 	mov	w19, w0
/home/asaf/devel/optee/optee_os/lib/libutee/tee_api_operations.c:1719
    2198:	b90002a1 	str	w1, [x21]
/home/asaf/devel/optee/optee_os/lib/libutee/tee_api_operations.c:1721
    219c:	129ffde1 	mov	w1, #0xffff0010            	// #-65520
    21a0:	7a411004 	ccmp	w0, w1, #0x4, ne
    21a4:	54000040 	b.eq	21ac <TEE_AsymmetricSignDigest+0x118>
/home/asaf/devel/optee/optee_os/lib/libutee/tee_api_operations.c:1722
    21a8:	94000136 	bl	2680 <TEE_Panic>
/home/asaf/devel/optee/optee_os/lib/libutee/tee_api_operations.c:1725
    21ac:	910003bf 	mov	sp, x29
    21b0:	2a1303e0 	mov	w0, w19
    21b4:	f9402bfb 	ldr	x27, [sp,#80]
    21b8:	a94153f3 	ldp	x19, x20, [sp,#16]
    21bc:	a9425bf5 	ldp	x21, x22, [sp,#32]
    21c0:	a94363f7 	ldp	x23, x24, [sp,#48]
    21c4:	a9446bf9 	ldp	x25, x26, [sp,#64]
    21c8:	a8c77bfd 	ldp	x29, x30, [sp],#112
    21cc:	d65f03c0 	ret

00000000000021d0 <TEE_AsymmetricVerifyDigest>:
TEE_AsymmetricVerifyDigest():
/home/asaf/devel/optee/optee_os/lib/libutee/tee_api_operations.c:1733
    21d0:	a9ba7bfd 	stp	x29, x30, [sp,#-96]!
    21d4:	910003fd 	mov	x29, sp
    21d8:	a9046bf9 	stp	x25, x26, [sp,#64]
    21dc:	2a0203fa 	mov	w26, w2
    21e0:	a90153f3 	stp	x19, x20, [sp,#16]
    21e4:	aa0003f3 	mov	x19, x0
/home/asaf/devel/optee/optee_os/lib/libutee/tee_api_operations.c:1735
    21e8:	52800300 	mov	w0, #0x18                  	// #24
/home/asaf/devel/optee/optee_os/lib/libutee/tee_api_operations.c:1733
    21ec:	a9025bf5 	stp	x21, x22, [sp,#32]
    21f0:	a90363f7 	stp	x23, x24, [sp,#48]
    21f4:	aa0103f9 	mov	x25, x1
/home/asaf/devel/optee/optee_os/lib/libutee/tee_api_operations.c:1735
    21f8:	9ba07f40 	umull	x0, w26, w0
/home/asaf/devel/optee/optee_os/lib/libutee/tee_api_operations.c:1733
    21fc:	f9002bfb 	str	x27, [sp,#80]
    2200:	aa1a03f4 	mov	x20, x26
    2204:	aa0303f5 	mov	x21, x3
/home/asaf/devel/optee/optee_os/lib/libutee/tee_api_operations.c:1735
    2208:	91005800 	add	x0, x0, #0x16
/home/asaf/devel/optee/optee_os/lib/libutee/tee_api_operations.c:1733
    220c:	2a0403f6 	mov	w22, w4
/home/asaf/devel/optee/optee_os/lib/libutee/tee_api_operations.c:1735
    2210:	927c8400 	and	x0, x0, #0x3ffffffff0
/home/asaf/devel/optee/optee_os/lib/libutee/tee_api_operations.c:1733
    2214:	aa0503f7 	mov	x23, x5
/home/asaf/devel/optee/optee_os/lib/libutee/tee_api_operations.c:1735
    2218:	cb2063ff 	sub	sp, sp, x0
/home/asaf/devel/optee/optee_os/lib/libutee/tee_api_operations.c:1733
    221c:	2a0603f8 	mov	w24, w6
/home/asaf/devel/optee/optee_os/lib/libutee/tee_api_operations.c:1735
    2220:	910003fb 	mov	x27, sp
/home/asaf/devel/optee/optee_os/lib/libutee/tee_api_operations.c:1737
    2224:	b40000f3 	cbz	x19, 2240 <TEE_AsymmetricVerifyDigest+0x70>
/home/asaf/devel/optee/optee_os/lib/libutee/tee_api_operations.c:1738 (discriminator 1)
    2228:	f100007f 	cmp	x3, #0x0
/home/asaf/devel/optee/optee_os/lib/libutee/tee_api_operations.c:1737 (discriminator 1)
    222c:	7a400884 	ccmp	w4, #0x0, #0x4, eq
    2230:	54000081 	b.ne	2240 <TEE_AsymmetricVerifyDigest+0x70>
/home/asaf/devel/optee/optee_os/lib/libutee/tee_api_operations.c:1739
    2234:	f10000bf 	cmp	x5, #0x0
/home/asaf/devel/optee/optee_os/lib/libutee/tee_api_operations.c:1738
    2238:	7a4008c4 	ccmp	w6, #0x0, #0x4, eq
    223c:	54000060 	b.eq	2248 <TEE_AsymmetricVerifyDigest+0x78>
/home/asaf/devel/optee/optee_os/lib/libutee/tee_api_operations.c:1740
    2240:	52800000 	mov	w0, #0x0                   	// #0
    2244:	9400010f 	bl	2680 <TEE_Panic>
/home/asaf/devel/optee/optee_os/lib/libutee/tee_api_operations.c:1741
    2248:	f100033f 	cmp	x25, #0x0
    224c:	7a400a84 	ccmp	w20, #0x0, #0x4, eq
    2250:	54000060 	b.eq	225c <TEE_AsymmetricVerifyDigest+0x8c>
/home/asaf/devel/optee/optee_os/lib/libutee/tee_api_operations.c:1742
    2254:	52800000 	mov	w0, #0x0                   	// #0
    2258:	9400010a 	bl	2680 <TEE_Panic>
/home/asaf/devel/optee/optee_os/lib/libutee/tee_api_operations.c:1743
    225c:	f9401260 	ldr	x0, [x19,#32]
    2260:	b5000040 	cbnz	x0, 2268 <TEE_AsymmetricVerifyDigest+0x98>
/home/asaf/devel/optee/optee_os/lib/libutee/tee_api_operations.c:1744
    2264:	94000107 	bl	2680 <TEE_Panic>
/home/asaf/devel/optee/optee_os/lib/libutee/tee_api_operations.c:1745
    2268:	b9400660 	ldr	w0, [x19,#4]
    226c:	71001c1f 	cmp	w0, #0x7
    2270:	54000060 	b.eq	227c <TEE_AsymmetricVerifyDigest+0xac>
/home/asaf/devel/optee/optee_os/lib/libutee/tee_api_operations.c:1747
    2274:	52800000 	mov	w0, #0x0                   	// #0
    2278:	94000102 	bl	2680 <TEE_Panic>
/home/asaf/devel/optee/optee_os/lib/libutee/tee_api_operations.c:1748
    227c:	b9400a60 	ldr	w0, [x19,#8]
    2280:	71000c1f 	cmp	w0, #0x3
    2284:	54000060 	b.eq	2290 <TEE_AsymmetricVerifyDigest+0xc0>
/home/asaf/devel/optee/optee_os/lib/libutee/tee_api_operations.c:1749
    2288:	52800000 	mov	w0, #0x0                   	// #0
    228c:	940000fd 	bl	2680 <TEE_Panic>
/home/asaf/devel/optee/optee_os/lib/libutee/tee_api_operations.c:1751
    2290:	2a1403e2 	mov	w2, w20
    2294:	aa1903e1 	mov	x1, x25
    2298:	aa1b03e0 	mov	x0, x27
    229c:	94000557 	bl	37f8 <__utee_from_attr>
/home/asaf/devel/optee/optee_os/lib/libutee/tee_api_operations.c:1752
    22a0:	b9405a60 	ldr	w0, [x19,#88]
    22a4:	aa1b03e1 	mov	x1, x27
    22a8:	2a1803e6 	mov	w6, w24
    22ac:	aa1703e5 	mov	x5, x23
    22b0:	2a1603e4 	mov	w4, w22
    22b4:	aa1503e3 	mov	x3, x21
    22b8:	aa1a03e2 	mov	x2, x26
    22bc:	9400021e 	bl	2b34 <utee_asymm_verify>
/home/asaf/devel/optee/optee_os/lib/libutee/tee_api_operations.c:1755
    22c0:	7100001f 	cmp	w0, #0x0
    22c4:	1299f1a1 	mov	w1, #0xffff3072            	// #-53134
/home/asaf/devel/optee/optee_os/lib/libutee/tee_api_operations.c:1752
    22c8:	2a0003f3 	mov	w19, w0
/home/asaf/devel/optee/optee_os/lib/libutee/tee_api_operations.c:1755
    22cc:	7a411004 	ccmp	w0, w1, #0x4, ne
    22d0:	54000040 	b.eq	22d8 <TEE_AsymmetricVerifyDigest+0x108>
/home/asaf/devel/optee/optee_os/lib/libutee/tee_api_operations.c:1756
    22d4:	940000eb 	bl	2680 <TEE_Panic>
/home/asaf/devel/optee/optee_os/lib/libutee/tee_api_operations.c:1759
    22d8:	910003bf 	mov	sp, x29
    22dc:	2a1303e0 	mov	w0, w19
    22e0:	f9402bfb 	ldr	x27, [sp,#80]
    22e4:	a94153f3 	ldp	x19, x20, [sp,#16]
    22e8:	a9425bf5 	ldp	x21, x22, [sp,#32]
    22ec:	a94363f7 	ldp	x23, x24, [sp,#48]
    22f0:	a9446bf9 	ldp	x25, x26, [sp,#64]
    22f4:	a8c67bfd 	ldp	x29, x30, [sp],#96
    22f8:	d65f03c0 	ret

00000000000022fc <TEE_DeriveKey>:
TEE_DeriveKey():
/home/asaf/devel/optee/optee_os/lib/libutee/tee_api_operations.c:1766
    22fc:	a9ba7bfd 	stp	x29, x30, [sp,#-96]!
    2300:	910003fd 	mov	x29, sp
    2304:	a90363f7 	stp	x23, x24, [sp,#48]
    2308:	2a0203f7 	mov	w23, w2
    230c:	a90153f3 	stp	x19, x20, [sp,#16]
    2310:	aa0003f3 	mov	x19, x0
/home/asaf/devel/optee/optee_os/lib/libutee/tee_api_operations.c:1769
    2314:	52800300 	mov	w0, #0x18                  	// #24
/home/asaf/devel/optee/optee_os/lib/libutee/tee_api_operations.c:1766
    2318:	a9025bf5 	stp	x21, x22, [sp,#32]
/home/asaf/devel/optee/optee_os/lib/libutee/tee_api_operations.c:1771
    231c:	f100027f 	cmp	x19, #0x0
/home/asaf/devel/optee/optee_os/lib/libutee/tee_api_operations.c:1766
    2320:	aa0103f6 	mov	x22, x1
/home/asaf/devel/optee/optee_os/lib/libutee/tee_api_operations.c:1769
    2324:	9ba07ee0 	umull	x0, w23, w0
/home/asaf/devel/optee/optee_os/lib/libutee/tee_api_operations.c:1766
    2328:	aa1703f4 	mov	x20, x23
    232c:	aa0303f5 	mov	x21, x3
/home/asaf/devel/optee/optee_os/lib/libutee/tee_api_operations.c:1771
    2330:	fa401864 	ccmp	x3, #0x0, #0x4, ne
/home/asaf/devel/optee/optee_os/lib/libutee/tee_api_operations.c:1769
    2334:	91005800 	add	x0, x0, #0x16
    2338:	927c8400 	and	x0, x0, #0x3ffffffff0
    233c:	cb2063ff 	sub	sp, sp, x0
    2340:	910003f8 	mov	x24, sp
/home/asaf/devel/optee/optee_os/lib/libutee/tee_api_operations.c:1771
    2344:	54000061 	b.ne	2350 <TEE_DeriveKey+0x54>
/home/asaf/devel/optee/optee_os/lib/libutee/tee_api_operations.c:1772
    2348:	52800000 	mov	w0, #0x0                   	// #0
    234c:	940000cd 	bl	2680 <TEE_Panic>
/home/asaf/devel/optee/optee_os/lib/libutee/tee_api_operations.c:1773
    2350:	f10002df 	cmp	x22, #0x0
    2354:	7a400a84 	ccmp	w20, #0x0, #0x4, eq
    2358:	54000060 	b.eq	2364 <TEE_DeriveKey+0x68>
/home/asaf/devel/optee/optee_os/lib/libutee/tee_api_operations.c:1774
    235c:	52800000 	mov	w0, #0x0                   	// #0
    2360:	940000c8 	bl	2680 <TEE_Panic>
/home/asaf/devel/optee/optee_os/lib/libutee/tee_api_operations.c:1775
    2364:	b9400260 	ldr	w0, [x19]
    2368:	531c7c00 	lsr	w0, w0, #28
    236c:	7100201f 	cmp	w0, #0x8
    2370:	54000060 	b.eq	237c <TEE_DeriveKey+0x80>
/home/asaf/devel/optee/optee_os/lib/libutee/tee_api_operations.c:1777
    2374:	52800000 	mov	w0, #0x0                   	// #0
    2378:	940000c2 	bl	2680 <TEE_Panic>
/home/asaf/devel/optee/optee_os/lib/libutee/tee_api_operations.c:1779
    237c:	b9400660 	ldr	w0, [x19,#4]
    2380:	7100201f 	cmp	w0, #0x8
    2384:	54000060 	b.eq	2390 <TEE_DeriveKey+0x94>
/home/asaf/devel/optee/optee_os/lib/libutee/tee_api_operations.c:1780
    2388:	52800000 	mov	w0, #0x0                   	// #0
    238c:	940000bd 	bl	2680 <TEE_Panic>
/home/asaf/devel/optee/optee_os/lib/libutee/tee_api_operations.c:1781
    2390:	f9401260 	ldr	x0, [x19,#32]
    2394:	b5000040 	cbnz	x0, 239c <TEE_DeriveKey+0xa0>
/home/asaf/devel/optee/optee_os/lib/libutee/tee_api_operations.c:1782
    2398:	940000ba 	bl	2680 <TEE_Panic>
/home/asaf/devel/optee/optee_os/lib/libutee/tee_api_operations.c:1783
    239c:	b9400a60 	ldr	w0, [x19,#8]
    23a0:	7100181f 	cmp	w0, #0x6
    23a4:	54000060 	b.eq	23b0 <TEE_DeriveKey+0xb4>
/home/asaf/devel/optee/optee_os/lib/libutee/tee_api_operations.c:1784
    23a8:	52800000 	mov	w0, #0x0                   	// #0
    23ac:	940000b5 	bl	2680 <TEE_Panic>
/home/asaf/devel/optee/optee_os/lib/libutee/tee_api_operations.c:1785
    23b0:	b9401e60 	ldr	w0, [x19,#28]
    23b4:	37900060 	tbnz	w0, #18, 23c0 <TEE_DeriveKey+0xc4>
/home/asaf/devel/optee/optee_os/lib/libutee/tee_api_operations.c:1786
    23b8:	52800000 	mov	w0, #0x0                   	// #0
    23bc:	940000b1 	bl	2680 <TEE_Panic>
/home/asaf/devel/optee/optee_os/lib/libutee/tee_api_operations.c:1788
    23c0:	910103a1 	add	x1, x29, #0x40
    23c4:	aa1503e0 	mov	x0, x21
    23c8:	940001ab 	bl	2a74 <utee_cryp_obj_get_info>
/home/asaf/devel/optee/optee_os/lib/libutee/tee_api_operations.c:1789
    23cc:	34000040 	cbz	w0, 23d4 <TEE_DeriveKey+0xd8>
/home/asaf/devel/optee/optee_os/lib/libutee/tee_api_operations.c:1790
    23d0:	940000ac 	bl	2680 <TEE_Panic>
/home/asaf/devel/optee/optee_os/lib/libutee/tee_api_operations.c:1792
    23d4:	b94043a1 	ldr	w1, [x29,#64]
    23d8:	52b40000 	mov	w0, #0xa0000000            	// #-1610612736
    23dc:	6b00003f 	cmp	w1, w0
    23e0:	54000060 	b.eq	23ec <TEE_DeriveKey+0xf0>
/home/asaf/devel/optee/optee_os/lib/libutee/tee_api_operations.c:1793
    23e4:	52800000 	mov	w0, #0x0                   	// #0
    23e8:	940000a6 	bl	2680 <TEE_Panic>
/home/asaf/devel/optee/optee_os/lib/libutee/tee_api_operations.c:1794
    23ec:	b9405ba0 	ldr	w0, [x29,#88]
    23f0:	36880060 	tbz	w0, #17, 23fc <TEE_DeriveKey+0x100>
/home/asaf/devel/optee/optee_os/lib/libutee/tee_api_operations.c:1795
    23f4:	52800000 	mov	w0, #0x0                   	// #0
    23f8:	940000a2 	bl	2680 <TEE_Panic>
/home/asaf/devel/optee/optee_os/lib/libutee/tee_api_operations.c:1797
    23fc:	2a1403e2 	mov	w2, w20
    2400:	aa1603e1 	mov	x1, x22
    2404:	aa1803e0 	mov	x0, x24
    2408:	940004fc 	bl	37f8 <__utee_from_attr>
/home/asaf/devel/optee/optee_os/lib/libutee/tee_api_operations.c:1798
    240c:	b9405a60 	ldr	w0, [x19,#88]
    2410:	aa1503e3 	mov	x3, x21
    2414:	aa1703e2 	mov	x2, x23
    2418:	aa1803e1 	mov	x1, x24
    241c:	940001ae 	bl	2ad4 <utee_cryp_derive_key>
/home/asaf/devel/optee/optee_os/lib/libutee/tee_api_operations.c:1800
    2420:	34000040 	cbz	w0, 2428 <TEE_DeriveKey+0x12c>
/home/asaf/devel/optee/optee_os/lib/libutee/tee_api_operations.c:1801
    2424:	94000097 	bl	2680 <TEE_Panic>
/home/asaf/devel/optee/optee_os/lib/libutee/tee_api_operations.c:1802
    2428:	910003bf 	mov	sp, x29
    242c:	a94153f3 	ldp	x19, x20, [sp,#16]
    2430:	a9425bf5 	ldp	x21, x22, [sp,#32]
    2434:	a94363f7 	ldp	x23, x24, [sp,#48]
    2438:	a8c67bfd 	ldp	x29, x30, [sp],#96
    243c:	d65f03c0 	ret

0000000000002440 <TEE_GenerateRandom>:
TEE_GenerateRandom():
/home/asaf/devel/optee/optee_os/lib/libutee/tee_api_operations.c:1807
    2440:	a9bf7bfd 	stp	x29, x30, [sp,#-16]!
/home/asaf/devel/optee/optee_os/lib/libutee/tee_api_operations.c:1810
    2444:	2a0103e1 	mov	w1, w1
/home/asaf/devel/optee/optee_os/lib/libutee/tee_api_operations.c:1807
    2448:	910003fd 	mov	x29, sp
/home/asaf/devel/optee/optee_os/lib/libutee/tee_api_operations.c:1810
    244c:	940001a5 	bl	2ae0 <utee_cryp_random_number_generate>
/home/asaf/devel/optee/optee_os/lib/libutee/tee_api_operations.c:1811
    2450:	34000060 	cbz	w0, 245c <TEE_GenerateRandom+0x1c>
/home/asaf/devel/optee/optee_os/lib/libutee/tee_api_operations.c:1813
    2454:	a8c17bfd 	ldp	x29, x30, [sp],#16
/home/asaf/devel/optee/optee_os/lib/libutee/tee_api_operations.c:1812
    2458:	1400008a 	b	2680 <TEE_Panic>
/home/asaf/devel/optee/optee_os/lib/libutee/tee_api_operations.c:1813
    245c:	a8c17bfd 	ldp	x29, x30, [sp],#16
    2460:	d65f03c0 	ret

0000000000002464 <tee_buffer_update>:
tee_buffer_update():
/home/asaf/devel/optee/optee_os/lib/libutee/tee_api_operations.c:867
    2464:	a9b87bfd 	stp	x29, x30, [sp,#-128]!
    2468:	910003fd 	mov	x29, sp
    246c:	a90153f3 	stp	x19, x20, [sp,#16]
    2470:	aa0003f3 	mov	x19, x0
    2474:	a9025bf5 	stp	x21, x22, [sp,#32]
    2478:	a9046bf9 	stp	x25, x26, [sp,#64]
    247c:	aa0303f9 	mov	x25, x3
    2480:	a90363f7 	stp	x23, x24, [sp,#48]
    2484:	a90573fb 	stp	x27, x28, [sp,#80]
    2488:	f90037a5 	str	x5, [x29,#104]
/home/asaf/devel/optee/optee_os/lib/libutee/tee_api_operations.c:872
    248c:	f94000b6 	ldr	x22, [x5]
/home/asaf/devel/optee/optee_os/lib/libutee/tee_api_operations.c:879
    2490:	b5000202 	cbnz	x2, 24d0 <tee_buffer_update+0x6c>
/home/asaf/devel/optee/optee_os/lib/libutee/tee_api_operations.c:880
    2494:	b5000183 	cbnz	x3, 24c4 <tee_buffer_update+0x60>
/home/asaf/devel/optee/optee_os/lib/libutee/tee_api_operations.c:873
    2498:	d2800017 	mov	x23, #0x0                   	// #0
/home/asaf/devel/optee/optee_os/lib/libutee/tee_api_operations.c:955
    249c:	f94037a0 	ldr	x0, [x29,#104]
/home/asaf/devel/optee/optee_os/lib/libutee/tee_api_operations.c:957
    24a0:	a94153f3 	ldp	x19, x20, [sp,#16]
    24a4:	a9425bf5 	ldp	x21, x22, [sp,#32]
    24a8:	a9446bf9 	ldp	x25, x26, [sp,#64]
    24ac:	a94573fb 	ldp	x27, x28, [sp,#80]
/home/asaf/devel/optee/optee_os/lib/libutee/tee_api_operations.c:955
    24b0:	f9000017 	str	x23, [x0]
/home/asaf/devel/optee/optee_os/lib/libutee/tee_api_operations.c:957
    24b4:	a94363f7 	ldp	x23, x24, [sp,#48]
    24b8:	52800000 	mov	w0, #0x0                   	// #0
    24bc:	a8c87bfd 	ldp	x29, x30, [sp],#128
    24c0:	d65f03c0 	ret
/home/asaf/devel/optee/optee_os/lib/libutee/tee_api_operations.c:881
    24c4:	52800000 	mov	w0, #0x0                   	// #0
    24c8:	9400006e 	bl	2680 <TEE_Panic>
    24cc:	17fffff3 	b	2498 <tee_buffer_update+0x34>
/home/asaf/devel/optee/optee_os/lib/libutee/tee_api_operations.c:885
    24d0:	39410000 	ldrb	w0, [x0,#64]
    24d4:	aa0103f8 	mov	x24, x1
    24d8:	aa0203f5 	mov	x21, x2
    24dc:	aa0403fb 	mov	x27, x4
    24e0:	f940267a 	ldr	x26, [x19,#72]
    24e4:	34000860 	cbz	w0, 25f0 <tee_buffer_update+0x18c>
/home/asaf/devel/optee/optee_os/lib/libutee/tee_api_operations.c:886
    24e8:	d37ffb54 	lsl	x20, x26, #1
/home/asaf/devel/optee/optee_os/lib/libutee/tee_api_operations.c:887
    24ec:	d280003c 	mov	x28, #0x1                   	// #1
/home/asaf/devel/optee/optee_os/lib/libutee/tee_api_operations.c:893
    24f0:	f9402a60 	ldr	x0, [x19,#80]
    24f4:	b4000260 	cbz	x0, 2540 <tee_buffer_update+0xdc>
/home/asaf/devel/optee/optee_os/lib/libutee/tee_api_operations.c:895
    24f8:	eb1a001f 	cmp	x0, x26
    24fc:	54000802 	b.cs	25fc <tee_buffer_update+0x198>
/home/asaf/devel/optee/optee_os/lib/libutee/tee_api_operations.c:896
    2500:	cb00035a 	sub	x26, x26, x0
/home/asaf/devel/optee/optee_os/lib/libutee/tee_api_operations.c:899
    2504:	f9401e63 	ldr	x3, [x19,#56]
/home/asaf/devel/optee/optee_os/lib/libutee/tee_api_operations.c:898
    2508:	eb19035f 	cmp	x26, x25
    250c:	9a99935a 	csel	x26, x26, x25, ls
/home/asaf/devel/optee/optee_os/lib/libutee/tee_api_operations.c:899
    2510:	aa1503e1 	mov	x1, x21
    2514:	aa1a03e2 	mov	x2, x26
    2518:	8b000060 	add	x0, x3, x0
    251c:	94000e1a 	bl	5d84 <memcpy>
/home/asaf/devel/optee/optee_os/lib/libutee/tee_api_operations.c:900
    2520:	a9448262 	ldp	x2, x0, [x19,#72]
    2524:	8b000340 	add	x0, x26, x0
    2528:	f9002a60 	str	x0, [x19,#80]
/home/asaf/devel/optee/optee_os/lib/libutee/tee_api_operations.c:903
    252c:	9ac20801 	udiv	x1, x0, x2
    2530:	9b028020 	msub	x0, x1, x2, x0
    2534:	b5fffb20 	cbnz	x0, 2498 <tee_buffer_update+0x34>
/home/asaf/devel/optee/optee_os/lib/libutee/tee_api_operations.c:901
    2538:	8b1a02b5 	add	x21, x21, x26
/home/asaf/devel/optee/optee_os/lib/libutee/tee_api_operations.c:902
    253c:	cb1a0339 	sub	x25, x25, x26
/home/asaf/devel/optee/optee_os/lib/libutee/tee_api_operations.c:908
    2540:	f9402a77 	ldr	x23, [x19,#80]
    2544:	8b1c029c 	add	x28, x20, x28
    2548:	b4000617 	cbz	x23, 2608 <tee_buffer_update+0x1a4>
/home/asaf/devel/optee/optee_os/lib/libutee/tee_api_operations.c:909 (discriminator 1)
    254c:	8b170320 	add	x0, x25, x23
/home/asaf/devel/optee/optee_os/lib/libutee/tee_api_operations.c:908 (discriminator 1)
    2550:	eb1c001f 	cmp	x0, x28
    2554:	54000583 	b.cc	2604 <tee_buffer_update+0x1a0>
/home/asaf/devel/optee/optee_os/lib/libutee/tee_api_operations.c:910
    2558:	f9402661 	ldr	x1, [x19,#72]
    255c:	cb14001a 	sub	x26, x0, x20
/home/asaf/devel/optee/optee_os/lib/libutee/tee_api_operations.c:913
    2560:	910203a4 	add	x4, x29, #0x80
/home/asaf/devel/optee/optee_os/lib/libutee/tee_api_operations.c:914
    2564:	aa1b03e3 	mov	x3, x27
/home/asaf/devel/optee/optee_os/lib/libutee/tee_api_operations.c:910
    2568:	d1000420 	sub	x0, x1, #0x1
    256c:	cb0103e1 	neg	x1, x1
    2570:	8b00035a 	add	x26, x26, x0
/home/asaf/devel/optee/optee_os/lib/libutee/tee_api_operations.c:914
    2574:	b9405a60 	ldr	w0, [x19,#88]
/home/asaf/devel/optee/optee_os/lib/libutee/tee_api_operations.c:910
    2578:	8a01035a 	and	x26, x26, x1
/home/asaf/devel/optee/optee_os/lib/libutee/tee_api_operations.c:914
    257c:	f9401e61 	ldr	x1, [x19,#56]
/home/asaf/devel/optee/optee_os/lib/libutee/tee_api_operations.c:912
    2580:	eb17035f 	cmp	x26, x23
/home/asaf/devel/optee/optee_os/lib/libutee/tee_api_operations.c:913
    2584:	f81f8c96 	str	x22, [x4,#-8]!
/home/asaf/devel/optee/optee_os/lib/libutee/tee_api_operations.c:912
    2588:	9a97935a 	csel	x26, x26, x23, ls
/home/asaf/devel/optee/optee_os/lib/libutee/tee_api_operations.c:914
    258c:	aa1a03e2 	mov	x2, x26
    2590:	d63f0300 	blr	x24
/home/asaf/devel/optee/optee_os/lib/libutee/tee_api_operations.c:915
    2594:	34000040 	cbz	w0, 259c <tee_buffer_update+0x138>
/home/asaf/devel/optee/optee_os/lib/libutee/tee_api_operations.c:916
    2598:	9400003a 	bl	2680 <TEE_Panic>
/home/asaf/devel/optee/optee_os/lib/libutee/tee_api_operations.c:920
    259c:	f9402a60 	ldr	x0, [x19,#80]
/home/asaf/devel/optee/optee_os/lib/libutee/tee_api_operations.c:917
    25a0:	f9403fb7 	ldr	x23, [x29,#120]
/home/asaf/devel/optee/optee_os/lib/libutee/tee_api_operations.c:920
    25a4:	cb1a0000 	sub	x0, x0, x26
    25a8:	f9002a60 	str	x0, [x19,#80]
/home/asaf/devel/optee/optee_os/lib/libutee/tee_api_operations.c:917
    25ac:	8b17037b 	add	x27, x27, x23
/home/asaf/devel/optee/optee_os/lib/libutee/tee_api_operations.c:918
    25b0:	cb1702d6 	sub	x22, x22, x23
/home/asaf/devel/optee/optee_os/lib/libutee/tee_api_operations.c:921
    25b4:	b40002a0 	cbz	x0, 2608 <tee_buffer_update+0x1a4>
/home/asaf/devel/optee/optee_os/lib/libutee/tee_api_operations.c:925
    25b8:	f9401e60 	ldr	x0, [x19,#56]
    25bc:	cb1a0282 	sub	x2, x20, x26
    25c0:	8b1a0001 	add	x1, x0, x26
    25c4:	94000df0 	bl	5d84 <memcpy>
/home/asaf/devel/optee/optee_os/lib/libutee/tee_api_operations.c:951
    25c8:	f9401e63 	ldr	x3, [x19,#56]
    25cc:	aa1903e2 	mov	x2, x25
    25d0:	f9402a60 	ldr	x0, [x19,#80]
    25d4:	aa1503e1 	mov	x1, x21
    25d8:	8b000060 	add	x0, x3, x0
    25dc:	94000dea 	bl	5d84 <memcpy>
/home/asaf/devel/optee/optee_os/lib/libutee/tee_api_operations.c:952
    25e0:	f9402a60 	ldr	x0, [x19,#80]
    25e4:	8b190019 	add	x25, x0, x25
    25e8:	f9002a79 	str	x25, [x19,#80]
    25ec:	17ffffac 	b	249c <tee_buffer_update+0x38>
/home/asaf/devel/optee/optee_os/lib/libutee/tee_api_operations.c:889
    25f0:	aa1a03f4 	mov	x20, x26
/home/asaf/devel/optee/optee_os/lib/libutee/tee_api_operations.c:890
    25f4:	d280001c 	mov	x28, #0x0                   	// #0
    25f8:	17ffffbe 	b	24f0 <tee_buffer_update+0x8c>
/home/asaf/devel/optee/optee_os/lib/libutee/tee_api_operations.c:898
    25fc:	cb00029a 	sub	x26, x20, x0
    2600:	17ffffc1 	b	2504 <tee_buffer_update+0xa0>
/home/asaf/devel/optee/optee_os/lib/libutee/tee_api_operations.c:873
    2604:	d2800017 	mov	x23, #0x0                   	// #0
/home/asaf/devel/optee/optee_os/lib/libutee/tee_api_operations.c:932
    2608:	eb1c033f 	cmp	x25, x28
    260c:	54fffde3 	b.cc	25c8 <tee_buffer_update+0x164>
/home/asaf/devel/optee/optee_os/lib/libutee/tee_api_operations.c:934
    2610:	52806200 	mov	w0, #0x310                 	// #784
    2614:	b9400261 	ldr	w1, [x19]
    2618:	72a20000 	movk	w0, #0x1000, lsl #16
    261c:	6b00003f 	cmp	w1, w0
    2620:	f9402660 	ldr	x0, [x19,#72]
    2624:	54000281 	b.ne	2674 <tee_buffer_update+0x210>
/home/asaf/devel/optee/optee_os/lib/libutee/tee_api_operations.c:935
    2628:	cb140334 	sub	x20, x25, x20
    262c:	d1000401 	sub	x1, x0, #0x1
    2630:	8b010294 	add	x20, x20, x1
/home/asaf/devel/optee/optee_os/lib/libutee/tee_api_operations.c:937
    2634:	cb0003e0 	neg	x0, x0
/home/asaf/devel/optee/optee_os/lib/libutee/tee_api_operations.c:939
    2638:	910203a4 	add	x4, x29, #0x80
/home/asaf/devel/optee/optee_os/lib/libutee/tee_api_operations.c:937
    263c:	8a000294 	and	x20, x20, x0
/home/asaf/devel/optee/optee_os/lib/libutee/tee_api_operations.c:940
    2640:	b9405a60 	ldr	w0, [x19,#88]
    2644:	aa1b03e3 	mov	x3, x27
    2648:	aa1403e2 	mov	x2, x20
/home/asaf/devel/optee/optee_os/lib/libutee/tee_api_operations.c:939
    264c:	f81f8c96 	str	x22, [x4,#-8]!
/home/asaf/devel/optee/optee_os/lib/libutee/tee_api_operations.c:940
    2650:	aa1503e1 	mov	x1, x21
    2654:	d63f0300 	blr	x24
/home/asaf/devel/optee/optee_os/lib/libutee/tee_api_operations.c:941
    2658:	34000040 	cbz	w0, 2660 <tee_buffer_update+0x1fc>
/home/asaf/devel/optee/optee_os/lib/libutee/tee_api_operations.c:942
    265c:	94000009 	bl	2680 <TEE_Panic>
/home/asaf/devel/optee/optee_os/lib/libutee/tee_api_operations.c:947
    2660:	f9403fa0 	ldr	x0, [x29,#120]
/home/asaf/devel/optee/optee_os/lib/libutee/tee_api_operations.c:943
    2664:	8b1402b5 	add	x21, x21, x20
/home/asaf/devel/optee/optee_os/lib/libutee/tee_api_operations.c:944
    2668:	cb140339 	sub	x25, x25, x20
/home/asaf/devel/optee/optee_os/lib/libutee/tee_api_operations.c:947
    266c:	8b0002f7 	add	x23, x23, x0
    2670:	17ffffd6 	b	25c8 <tee_buffer_update+0x164>
/home/asaf/devel/optee/optee_os/lib/libutee/tee_api_operations.c:937
    2674:	cb140014 	sub	x20, x0, x20
    2678:	8b190294 	add	x20, x20, x25
    267c:	17ffffee 	b	2634 <tee_buffer_update+0x1d0>

0000000000002680 <TEE_Panic>:
TEE_Panic():
/home/asaf/devel/optee/optee_os/lib/libutee/tee_api_panic.c:34
    2680:	2a0003e0 	mov	w0, w0
    2684:	140000b1 	b	2948 <utee_panic>

0000000000002688 <ta_header_get_session>:
ta_header_get_session():
/home/asaf/devel/optee/optee_os/lib/libutee/arch/arm/user_ta_entry.c:85
    2688:	2a0003e1 	mov	w1, w0
/home/asaf/devel/optee/optee_os/lib/libutee/arch/arm/user_ta_entry.c:88
    268c:	f0000040 	adrp	x0, d000 <ta_props>
    2690:	f9407000 	ldr	x0, [x0,#224]
/home/asaf/devel/optee/optee_os/lib/libutee/arch/arm/user_ta_entry.c:88 (discriminator 1)
    2694:	b5000040 	cbnz	x0, 269c <ta_header_get_session+0x14>
/home/asaf/devel/optee/optee_os/lib/libutee/arch/arm/user_ta_entry.c:93
    2698:	d65f03c0 	ret
/home/asaf/devel/optee/optee_os/lib/libutee/arch/arm/user_ta_entry.c:89
    269c:	b9400002 	ldr	w2, [x0]
    26a0:	6b01005f 	cmp	w2, w1
    26a4:	54ffffa0 	b.eq	2698 <ta_header_get_session+0x10>
/home/asaf/devel/optee/optee_os/lib/libutee/arch/arm/user_ta_entry.c:88 (discriminator 2)
    26a8:	f9400800 	ldr	x0, [x0,#16]
    26ac:	17fffffa 	b	2694 <ta_header_get_session+0xc>

00000000000026b0 <ta_header_remove_session>:
ta_header_remove_session():
/home/asaf/devel/optee/optee_os/lib/libutee/arch/arm/user_ta_entry.c:135
    26b0:	f0000041 	adrp	x1, d000 <ta_props>
/home/asaf/devel/optee/optee_os/lib/libutee/arch/arm/user_ta_entry.c:132
    26b4:	2a0003e3 	mov	w3, w0
/home/asaf/devel/optee/optee_os/lib/libutee/arch/arm/user_ta_entry.c:135
    26b8:	f9407020 	ldr	x0, [x1,#224]
/home/asaf/devel/optee/optee_os/lib/libutee/arch/arm/user_ta_entry.c:135 (discriminator 1)
    26bc:	b5000040 	cbnz	x0, 26c4 <ta_header_remove_session+0x14>
    26c0:	d65f03c0 	ret
/home/asaf/devel/optee/optee_os/lib/libutee/arch/arm/user_ta_entry.c:136
    26c4:	b9400002 	ldr	w2, [x0]
    26c8:	6b03005f 	cmp	w2, w3
    26cc:	f9400802 	ldr	x2, [x0,#16]
    26d0:	54000261 	b.ne	271c <ta_header_remove_session+0x6c>
/home/asaf/devel/optee/optee_os/lib/libutee/arch/arm/user_ta_entry.c:132
    26d4:	a9bf7bfd 	stp	x29, x30, [sp,#-16]!
    26d8:	910003fd 	mov	x29, sp
    26dc:	f9400c03 	ldr	x3, [x0,#24]
/home/asaf/devel/optee/optee_os/lib/libutee/arch/arm/user_ta_entry.c:137
    26e0:	b4000182 	cbz	x2, 2710 <ta_header_remove_session+0x60>
/home/asaf/devel/optee/optee_os/lib/libutee/arch/arm/user_ta_entry.c:137 (discriminator 1)
    26e4:	f9000c43 	str	x3, [x2,#24]
/home/asaf/devel/optee/optee_os/lib/libutee/arch/arm/user_ta_entry.c:137 (discriminator 4)
    26e8:	f9400c01 	ldr	x1, [x0,#24]
    26ec:	f9000022 	str	x2, [x1]
/home/asaf/devel/optee/optee_os/lib/libutee/arch/arm/user_ta_entry.c:138 (discriminator 4)
    26f0:	9400043b 	bl	37dc <TEE_Free>
/home/asaf/devel/optee/optee_os/lib/libutee/arch/arm/user_ta_entry.c:140 (discriminator 4)
    26f4:	b00000a1 	adrp	x1, 17000 <buf.3609+0x2c8>
    26f8:	b94d3c20 	ldr	w0, [x1,#3388]
    26fc:	51000400 	sub	w0, w0, #0x1
    2700:	b90d3c20 	str	w0, [x1,#3388]
/home/asaf/devel/optee/optee_os/lib/libutee/arch/arm/user_ta_entry.c:141 (discriminator 4)
    2704:	35000100 	cbnz	w0, 2724 <ta_header_remove_session+0x74>
/home/asaf/devel/optee/optee_os/lib/libutee/arch/arm/user_ta_entry.c:149
    2708:	a8c17bfd 	ldp	x29, x30, [sp],#16
/home/asaf/devel/optee/optee_os/lib/libutee/arch/arm/user_ta_entry.c:143
    270c:	17fff652 	b	54 <TA_DestroyEntryPoint>
/home/asaf/devel/optee/optee_os/lib/libutee/arch/arm/user_ta_entry.c:137 (discriminator 2)
    2710:	91038021 	add	x1, x1, #0xe0
    2714:	f9000423 	str	x3, [x1,#8]
    2718:	17fffff4 	b	26e8 <ta_header_remove_session+0x38>
/home/asaf/devel/optee/optee_os/lib/libutee/arch/arm/user_ta_entry.c:135 (discriminator 2)
    271c:	aa0203e0 	mov	x0, x2
    2720:	17ffffe7 	b	26bc <ta_header_remove_session+0xc>
/home/asaf/devel/optee/optee_os/lib/libutee/arch/arm/user_ta_entry.c:149
    2724:	a8c17bfd 	ldp	x29, x30, [sp],#16
    2728:	d65f03c0 	ret

000000000000272c <__utee_entry>:
__utee_entry():
/home/asaf/devel/optee/optee_os/lib/libutee/arch/arm/user_ta_entry.c:216
    272c:	a9b77bfd 	stp	x29, x30, [sp,#-144]!
/home/asaf/devel/optee/optee_os/lib/libutee/arch/arm/user_ta_entry.c:227
    2730:	f100041f 	cmp	x0, #0x1
/home/asaf/devel/optee/optee_os/lib/libutee/arch/arm/user_ta_entry.c:216
    2734:	910003fd 	mov	x29, sp
    2738:	a90153f3 	stp	x19, x20, [sp,#16]
    273c:	aa0103f4 	mov	x20, x1
    2740:	a9025bf5 	stp	x21, x22, [sp,#32]
    2744:	f9001bf7 	str	x23, [sp,#48]
/home/asaf/devel/optee/optee_os/lib/libutee/arch/arm/user_ta_entry.c:227
    2748:	54000b00 	b.eq	28a8 <__utee_entry+0x17c>
    274c:	aa0203f6 	mov	x22, x2
    2750:	b40000e0 	cbz	x0, 276c <__utee_entry+0x40>
    2754:	f100081f 	cmp	x0, #0x2
    2758:	54000bc0 	b.eq	28d0 <__utee_entry+0x1a4>
/home/asaf/devel/optee/optee_os/lib/libutee/arch/arm/user_ta_entry.c:239
    275c:	52800000 	mov	w0, #0x0                   	// #0
/home/asaf/devel/optee/optee_os/lib/libutee/arch/arm/user_ta_entry.c:238
    2760:	12800013 	mov	w19, #0xffffffff            	// #-1
/home/asaf/devel/optee/optee_os/lib/libutee/arch/arm/user_ta_entry.c:239
    2764:	97ffffc7 	bl	2680 <TEE_Panic>
/home/asaf/devel/optee/optee_os/lib/libutee/arch/arm/user_ta_entry.c:240
    2768:	14000010 	b	27a8 <__utee_entry+0x7c>
ta_header_add_session():
/home/asaf/devel/optee/optee_os/lib/libutee/arch/arm/user_ta_entry.c:97
    276c:	2a0103e0 	mov	w0, w1
    2770:	97ffffc6 	bl	2688 <ta_header_get_session>
/home/asaf/devel/optee/optee_os/lib/libutee/arch/arm/user_ta_entry.c:99
    2774:	b50005c0 	cbnz	x0, 282c <__utee_entry+0x100>
/home/asaf/devel/optee/optee_os/lib/libutee/arch/arm/user_ta_entry.c:102
    2778:	b00000a0 	adrp	x0, 17000 <buf.3609+0x2c8>
    277c:	9134f015 	add	x21, x0, #0xd3c
    2780:	b94d3c13 	ldr	w19, [x0,#3388]
    2784:	11000673 	add	w19, w19, #0x1
    2788:	b90d3c13 	str	w19, [x0,#3388]
/home/asaf/devel/optee/optee_os/lib/libutee/arch/arm/user_ta_entry.c:104
    278c:	7100067f 	cmp	w19, #0x1
    2790:	540001e0 	b.eq	27cc <__utee_entry+0xa0>
/home/asaf/devel/optee/optee_os/lib/libutee/arch/arm/user_ta_entry.c:120
    2794:	52b00001 	mov	w1, #0x80000000            	// #-2147483648
    2798:	52800400 	mov	w0, #0x20                  	// #32
/home/asaf/devel/optee/optee_os/lib/libutee/arch/arm/user_ta_entry.c:123
    279c:	129ffe73 	mov	w19, #0xffff000c            	// #-65524
/home/asaf/devel/optee/optee_os/lib/libutee/arch/arm/user_ta_entry.c:120
    27a0:	9400040b 	bl	37cc <TEE_Malloc>
/home/asaf/devel/optee/optee_os/lib/libutee/arch/arm/user_ta_entry.c:122
    27a4:	b5000320 	cbnz	x0, 2808 <__utee_entry+0xdc>
ta_header_save_params():
/home/asaf/devel/optee/optee_os/lib/libutee/arch/arm/user_ta_entry.c:76
    27a8:	d0000040 	adrp	x0, c000 <__func__.3637+0x608>
/home/asaf/devel/optee/optee_os/lib/libutee/arch/arm/user_ta_entry.c:81
    27ac:	d2800802 	mov	x2, #0x40                  	// #64
/home/asaf/devel/optee/optee_os/lib/libutee/arch/arm/user_ta_entry.c:76
    27b0:	f941e801 	ldr	x1, [x0,#976]
/home/asaf/devel/optee/optee_os/lib/libutee/arch/arm/user_ta_entry.c:81
    27b4:	f941f400 	ldr	x0, [x0,#1000]
/home/asaf/devel/optee/optee_os/lib/libutee/arch/arm/user_ta_entry.c:76
    27b8:	b900003f 	str	wzr, [x1]
/home/asaf/devel/optee/optee_os/lib/libutee/arch/arm/user_ta_entry.c:81
    27bc:	52800001 	mov	w1, #0x0                   	// #0
    27c0:	94000d8c 	bl	5df0 <memset>
__utee_entry():
/home/asaf/devel/optee/optee_os/lib/libutee/arch/arm/user_ta_entry.c:243
    27c4:	2a1303e0 	mov	w0, w19
    27c8:	94000063 	bl	2954 <utee_return>
ta_header_add_session():
/home/asaf/devel/optee/optee_os/lib/libutee/arch/arm/user_ta_entry.c:107
    27cc:	394012a0 	ldrb	w0, [x21,#4]
    27d0:	35000140 	cbnz	w0, 27f8 <__utee_entry+0xcc>
/home/asaf/devel/optee/optee_os/lib/libutee/arch/arm/user_ta_entry.c:108
    27d4:	97fff6a6 	bl	26c <tahead_get_trace_level>
    27d8:	940010c0 	bl	6ad8 <trace_set_level>
/home/asaf/devel/optee/optee_os/lib/libutee/arch/arm/user_ta_entry.c:110
    27dc:	d0000040 	adrp	x0, c000 <__func__.3637+0x608>
    27e0:	f941cc01 	ldr	x1, [x0,#920]
    27e4:	f941e400 	ldr	x0, [x0,#968]
    27e8:	f9400021 	ldr	x1, [x1]
    27ec:	94000c6d 	bl	59a0 <malloc_add_pool>
/home/asaf/devel/optee/optee_os/lib/libutee/arch/arm/user_ta_entry.c:111
    27f0:	9400012f 	bl	2cac <_TEE_MathAPI_Init>
/home/asaf/devel/optee/optee_os/lib/libutee/arch/arm/user_ta_entry.c:112
    27f4:	390012b3 	strb	w19, [x21,#4]
/home/asaf/devel/optee/optee_os/lib/libutee/arch/arm/user_ta_entry.c:115
    27f8:	97fff60a 	bl	20 <TA_CreateEntryPoint>
    27fc:	2a0003f3 	mov	w19, w0
/home/asaf/devel/optee/optee_os/lib/libutee/arch/arm/user_ta_entry.c:116
    2800:	34fffca0 	cbz	w0, 2794 <__utee_entry+0x68>
    2804:	17ffffe9 	b	27a8 <__utee_entry+0x7c>
/home/asaf/devel/optee/optee_os/lib/libutee/arch/arm/user_ta_entry.c:126
    2808:	f0000041 	adrp	x1, d000 <ta_props>
    280c:	91038021 	add	x1, x1, #0xe0
    2810:	f9400422 	ldr	x2, [x1,#8]
    2814:	f9000c02 	str	x2, [x0,#24]
/home/asaf/devel/optee/optee_os/lib/libutee/arch/arm/user_ta_entry.c:124
    2818:	b9000014 	str	w20, [x0]
/home/asaf/devel/optee/optee_os/lib/libutee/arch/arm/user_ta_entry.c:126
    281c:	a900fc1f 	stp	xzr, xzr, [x0,#8]
    2820:	f9000040 	str	x0, [x2]
    2824:	91004000 	add	x0, x0, #0x10
    2828:	f9000420 	str	x0, [x1,#8]
entry_open_session():
/home/asaf/devel/optee/optee_os/lib/libutee/arch/arm/user_ta_entry.c:163
    282c:	2a1403e0 	mov	w0, w20
/home/asaf/devel/optee/optee_os/lib/libutee/arch/arm/user_ta_entry.c:165
    2830:	129fff13 	mov	w19, #0xffff0007            	// #-65529
/home/asaf/devel/optee/optee_os/lib/libutee/arch/arm/user_ta_entry.c:163
    2834:	97ffff95 	bl	2688 <ta_header_get_session>
    2838:	aa0003f7 	mov	x23, x0
/home/asaf/devel/optee/optee_os/lib/libutee/arch/arm/user_ta_entry.c:164
    283c:	b4fffb60 	cbz	x0, 27a8 <__utee_entry+0x7c>
/home/asaf/devel/optee/optee_os/lib/libutee/arch/arm/user_ta_entry.c:167
    2840:	910143b5 	add	x21, x29, #0x50
    2844:	aa1603e2 	mov	x2, x22
    2848:	910133a1 	add	x1, x29, #0x4c
    284c:	aa1503e0 	mov	x0, x21
    2850:	940002e4 	bl	33e0 <__utee_to_param>
/home/asaf/devel/optee/optee_os/lib/libutee/arch/arm/user_ta_entry.c:168
    2854:	b9404fb3 	ldr	w19, [x29,#76]
ta_header_save_params():
/home/asaf/devel/optee/optee_os/lib/libutee/arch/arm/user_ta_entry.c:76
    2858:	d0000040 	adrp	x0, c000 <__func__.3637+0x608>
/home/asaf/devel/optee/optee_os/lib/libutee/arch/arm/user_ta_entry.c:79
    285c:	d2800802 	mov	x2, #0x40                  	// #64
/home/asaf/devel/optee/optee_os/lib/libutee/arch/arm/user_ta_entry.c:76
    2860:	f941e801 	ldr	x1, [x0,#976]
/home/asaf/devel/optee/optee_os/lib/libutee/arch/arm/user_ta_entry.c:79
    2864:	f941f400 	ldr	x0, [x0,#1000]
/home/asaf/devel/optee/optee_os/lib/libutee/arch/arm/user_ta_entry.c:76
    2868:	b9000033 	str	w19, [x1]
/home/asaf/devel/optee/optee_os/lib/libutee/arch/arm/user_ta_entry.c:79
    286c:	aa1503e1 	mov	x1, x21
    2870:	94000d45 	bl	5d84 <memcpy>
entry_open_session():
/home/asaf/devel/optee/optee_os/lib/libutee/arch/arm/user_ta_entry.c:170
    2874:	910022e2 	add	x2, x23, #0x8
    2878:	aa1503e1 	mov	x1, x21
    287c:	2a1303e0 	mov	w0, w19
    2880:	97fff5fe 	bl	78 <TA_OpenSessionEntryPoint>
/home/asaf/devel/optee/optee_os/lib/libutee/arch/arm/user_ta_entry.c:173
    2884:	b9404fa1 	ldr	w1, [x29,#76]
/home/asaf/devel/optee/optee_os/lib/libutee/arch/arm/user_ta_entry.c:170
    2888:	2a0003f3 	mov	w19, w0
/home/asaf/devel/optee/optee_os/lib/libutee/arch/arm/user_ta_entry.c:173
    288c:	aa1503e2 	mov	x2, x21
    2890:	aa1603e0 	mov	x0, x22
    2894:	940002b5 	bl	3368 <__utee_from_param>
/home/asaf/devel/optee/optee_os/lib/libutee/arch/arm/user_ta_entry.c:175
    2898:	34fff893 	cbz	w19, 27a8 <__utee_entry+0x7c>
/home/asaf/devel/optee/optee_os/lib/libutee/arch/arm/user_ta_entry.c:176
    289c:	2a1403e0 	mov	w0, w20
    28a0:	97ffff84 	bl	26b0 <ta_header_remove_session>
    28a4:	17ffffc1 	b	27a8 <__utee_entry+0x7c>
entry_close_session():
/home/asaf/devel/optee/optee_os/lib/libutee/arch/arm/user_ta_entry.c:182
    28a8:	2a0103e0 	mov	w0, w1
/home/asaf/devel/optee/optee_os/lib/libutee/arch/arm/user_ta_entry.c:185
    28ac:	129fff13 	mov	w19, #0xffff0007            	// #-65529
/home/asaf/devel/optee/optee_os/lib/libutee/arch/arm/user_ta_entry.c:182
    28b0:	97ffff76 	bl	2688 <ta_header_get_session>
/home/asaf/devel/optee/optee_os/lib/libutee/arch/arm/user_ta_entry.c:184
    28b4:	b4fff7a0 	cbz	x0, 27a8 <__utee_entry+0x7c>
/home/asaf/devel/optee/optee_os/lib/libutee/arch/arm/user_ta_entry.c:187
    28b8:	f9400400 	ldr	x0, [x0,#8]
/home/asaf/devel/optee/optee_os/lib/libutee/arch/arm/user_ta_entry.c:190
    28bc:	52800013 	mov	w19, #0x0                   	// #0
/home/asaf/devel/optee/optee_os/lib/libutee/arch/arm/user_ta_entry.c:187
    28c0:	97fff609 	bl	e4 <TA_CloseSessionEntryPoint>
/home/asaf/devel/optee/optee_os/lib/libutee/arch/arm/user_ta_entry.c:189
    28c4:	2a1403e0 	mov	w0, w20
    28c8:	97ffff7a 	bl	26b0 <ta_header_remove_session>
    28cc:	17ffffb7 	b	27a8 <__utee_entry+0x7c>
entry_invoke_command():
/home/asaf/devel/optee/optee_os/lib/libutee/arch/arm/user_ta_entry.c:199
    28d0:	2a0103e0 	mov	w0, w1
/home/asaf/devel/optee/optee_os/lib/libutee/arch/arm/user_ta_entry.c:202
    28d4:	129fff13 	mov	w19, #0xffff0007            	// #-65529
/home/asaf/devel/optee/optee_os/lib/libutee/arch/arm/user_ta_entry.c:199
    28d8:	97ffff6c 	bl	2688 <ta_header_get_session>
    28dc:	aa0003f5 	mov	x21, x0
/home/asaf/devel/optee/optee_os/lib/libutee/arch/arm/user_ta_entry.c:201
    28e0:	b4fff640 	cbz	x0, 27a8 <__utee_entry+0x7c>
/home/asaf/devel/optee/optee_os/lib/libutee/arch/arm/user_ta_entry.c:204
    28e4:	910143b4 	add	x20, x29, #0x50
    28e8:	aa0303f7 	mov	x23, x3
    28ec:	aa1603e2 	mov	x2, x22
    28f0:	910133a1 	add	x1, x29, #0x4c
    28f4:	aa1403e0 	mov	x0, x20
    28f8:	940002ba 	bl	33e0 <__utee_to_param>
ta_header_save_params():
/home/asaf/devel/optee/optee_os/lib/libutee/arch/arm/user_ta_entry.c:76
    28fc:	d0000040 	adrp	x0, c000 <__func__.3637+0x608>
entry_invoke_command():
/home/asaf/devel/optee/optee_os/lib/libutee/arch/arm/user_ta_entry.c:205
    2900:	b9404fb3 	ldr	w19, [x29,#76]
ta_header_save_params():
/home/asaf/devel/optee/optee_os/lib/libutee/arch/arm/user_ta_entry.c:79
    2904:	d2800802 	mov	x2, #0x40                  	// #64
/home/asaf/devel/optee/optee_os/lib/libutee/arch/arm/user_ta_entry.c:76
    2908:	f941e801 	ldr	x1, [x0,#976]
/home/asaf/devel/optee/optee_os/lib/libutee/arch/arm/user_ta_entry.c:79
    290c:	f941f400 	ldr	x0, [x0,#1000]
/home/asaf/devel/optee/optee_os/lib/libutee/arch/arm/user_ta_entry.c:76
    2910:	b9000033 	str	w19, [x1]
/home/asaf/devel/optee/optee_os/lib/libutee/arch/arm/user_ta_entry.c:79
    2914:	aa1403e1 	mov	x1, x20
    2918:	94000d1b 	bl	5d84 <memcpy>
entry_invoke_command():
/home/asaf/devel/optee/optee_os/lib/libutee/arch/arm/user_ta_entry.c:207
    291c:	f94006a0 	ldr	x0, [x21,#8]
    2920:	2a1303e2 	mov	w2, w19
    2924:	2a1703e1 	mov	w1, w23
    2928:	aa1403e3 	mov	x3, x20
    292c:	97fff5f7 	bl	108 <TA_InvokeCommandEntryPoint>
    2930:	2a0003f3 	mov	w19, w0
/home/asaf/devel/optee/optee_os/lib/libutee/arch/arm/user_ta_entry.c:210
    2934:	b9404fa1 	ldr	w1, [x29,#76]
    2938:	aa1403e2 	mov	x2, x20
    293c:	aa1603e0 	mov	x0, x22
    2940:	9400028a 	bl	3368 <__utee_from_param>
    2944:	17ffff99 	b	27a8 <__utee_entry+0x7c>

0000000000002948 <utee_panic>:
utee_panic():
/home/asaf/devel/optee/optee_os/lib/libutee/arch/arm/utee_syscalls_a64.S:46
    2948:	a9bf7bfd 	stp	x29, x30, [sp,#-16]!
/home/asaf/devel/optee/optee_os/lib/libutee/arch/arm/utee_syscalls_a64.S:47
    294c:	910003e1 	mov	x1, sp
/home/asaf/devel/optee/optee_os/lib/libutee/arch/arm/utee_syscalls_a64.S:48
    2950:	94000007 	bl	296c <__utee_panic>

0000000000002954 <utee_return>:
utee_return():
/home/asaf/devel/optee/optee_os/lib/libutee/arch/arm/utee_syscalls_asm.S:30
    2954:	d2800008 	mov	x8, #0x0                   	// #0
    2958:	d4000001 	svc	#0x0
    295c:	d65f03c0 	ret

0000000000002960 <utee_log>:
utee_log():
/home/asaf/devel/optee/optee_os/lib/libutee/arch/arm/utee_syscalls_asm.S:32
    2960:	d2800028 	mov	x8, #0x1                   	// #1
    2964:	d4000001 	svc	#0x0
    2968:	d65f03c0 	ret

000000000000296c <__utee_panic>:
__utee_panic():
/home/asaf/devel/optee/optee_os/lib/libutee/arch/arm/utee_syscalls_asm.S:34
    296c:	d2800048 	mov	x8, #0x2                   	// #2
    2970:	d4000001 	svc	#0x0
    2974:	d65f03c0 	ret

0000000000002978 <utee_get_property>:
utee_get_property():
/home/asaf/devel/optee/optee_os/lib/libutee/arch/arm/utee_syscalls_asm.S:36
    2978:	d2800068 	mov	x8, #0x3                   	// #3
    297c:	d4000001 	svc	#0x0
    2980:	d65f03c0 	ret

0000000000002984 <utee_get_property_name_to_index>:
utee_get_property_name_to_index():
/home/asaf/devel/optee/optee_os/lib/libutee/arch/arm/utee_syscalls_asm.S:38
    2984:	d2800088 	mov	x8, #0x4                   	// #4
    2988:	d4000001 	svc	#0x0
    298c:	d65f03c0 	ret

0000000000002990 <utee_open_ta_session>:
utee_open_ta_session():
/home/asaf/devel/optee/optee_os/lib/libutee/arch/arm/utee_syscalls_asm.S:41
    2990:	d28000a8 	mov	x8, #0x5                   	// #5
    2994:	d4000001 	svc	#0x0
    2998:	d65f03c0 	ret

000000000000299c <utee_close_ta_session>:
utee_close_ta_session():
/home/asaf/devel/optee/optee_os/lib/libutee/arch/arm/utee_syscalls_asm.S:43
    299c:	d28000c8 	mov	x8, #0x6                   	// #6
    29a0:	d4000001 	svc	#0x0
    29a4:	d65f03c0 	ret

00000000000029a8 <utee_invoke_ta_command>:
utee_invoke_ta_command():
/home/asaf/devel/optee/optee_os/lib/libutee/arch/arm/utee_syscalls_asm.S:45
    29a8:	d28000e8 	mov	x8, #0x7                   	// #7
    29ac:	d4000001 	svc	#0x0
    29b0:	d65f03c0 	ret

00000000000029b4 <utee_get_cancellation_flag>:
utee_get_cancellation_flag():
/home/asaf/devel/optee/optee_os/lib/libutee/arch/arm/utee_syscalls_asm.S:47
    29b4:	d2800128 	mov	x8, #0x9                   	// #9
    29b8:	d4000001 	svc	#0x0
    29bc:	d65f03c0 	ret

00000000000029c0 <utee_check_access_rights>:
utee_check_access_rights():
/home/asaf/devel/optee/optee_os/lib/libutee/arch/arm/utee_syscalls_asm.S:50
    29c0:	d2800108 	mov	x8, #0x8                   	// #8
    29c4:	d4000001 	svc	#0x0
    29c8:	d65f03c0 	ret

00000000000029cc <utee_unmask_cancellation>:
utee_unmask_cancellation():
/home/asaf/devel/optee/optee_os/lib/libutee/arch/arm/utee_syscalls_asm.S:52
    29cc:	d2800148 	mov	x8, #0xa                   	// #10
    29d0:	d4000001 	svc	#0x0
    29d4:	d65f03c0 	ret

00000000000029d8 <utee_mask_cancellation>:
utee_mask_cancellation():
/home/asaf/devel/optee/optee_os/lib/libutee/arch/arm/utee_syscalls_asm.S:54
    29d8:	d2800168 	mov	x8, #0xb                   	// #11
    29dc:	d4000001 	svc	#0x0
    29e0:	d65f03c0 	ret

00000000000029e4 <utee_wait>:
utee_wait():
/home/asaf/devel/optee/optee_os/lib/libutee/arch/arm/utee_syscalls_asm.S:56
    29e4:	d2800188 	mov	x8, #0xc                   	// #12
    29e8:	d4000001 	svc	#0x0
    29ec:	d65f03c0 	ret

00000000000029f0 <utee_get_time>:
utee_get_time():
/home/asaf/devel/optee/optee_os/lib/libutee/arch/arm/utee_syscalls_asm.S:58
    29f0:	d28001a8 	mov	x8, #0xd                   	// #13
    29f4:	d4000001 	svc	#0x0
    29f8:	d65f03c0 	ret

00000000000029fc <utee_set_ta_time>:
utee_set_ta_time():
/home/asaf/devel/optee/optee_os/lib/libutee/arch/arm/utee_syscalls_asm.S:60
    29fc:	d28001c8 	mov	x8, #0xe                   	// #14
    2a00:	d4000001 	svc	#0x0
    2a04:	d65f03c0 	ret

0000000000002a08 <utee_cryp_state_alloc>:
utee_cryp_state_alloc():
/home/asaf/devel/optee/optee_os/lib/libutee/arch/arm/utee_syscalls_asm.S:62
    2a08:	d28001e8 	mov	x8, #0xf                   	// #15
    2a0c:	d4000001 	svc	#0x0
    2a10:	d65f03c0 	ret

0000000000002a14 <utee_cryp_state_copy>:
utee_cryp_state_copy():
/home/asaf/devel/optee/optee_os/lib/libutee/arch/arm/utee_syscalls_asm.S:64
    2a14:	d2800208 	mov	x8, #0x10                  	// #16
    2a18:	d4000001 	svc	#0x0
    2a1c:	d65f03c0 	ret

0000000000002a20 <utee_cryp_state_free>:
utee_cryp_state_free():
/home/asaf/devel/optee/optee_os/lib/libutee/arch/arm/utee_syscalls_asm.S:66
    2a20:	d2800228 	mov	x8, #0x11                  	// #17
    2a24:	d4000001 	svc	#0x0
    2a28:	d65f03c0 	ret

0000000000002a2c <utee_hash_init>:
utee_hash_init():
/home/asaf/devel/optee/optee_os/lib/libutee/arch/arm/utee_syscalls_asm.S:68
    2a2c:	d2800248 	mov	x8, #0x12                  	// #18
    2a30:	d4000001 	svc	#0x0
    2a34:	d65f03c0 	ret

0000000000002a38 <utee_hash_update>:
utee_hash_update():
/home/asaf/devel/optee/optee_os/lib/libutee/arch/arm/utee_syscalls_asm.S:70
    2a38:	d2800268 	mov	x8, #0x13                  	// #19
    2a3c:	d4000001 	svc	#0x0
    2a40:	d65f03c0 	ret

0000000000002a44 <utee_hash_final>:
utee_hash_final():
/home/asaf/devel/optee/optee_os/lib/libutee/arch/arm/utee_syscalls_asm.S:72
    2a44:	d2800288 	mov	x8, #0x14                  	// #20
    2a48:	d4000001 	svc	#0x0
    2a4c:	d65f03c0 	ret

0000000000002a50 <utee_cipher_init>:
utee_cipher_init():
/home/asaf/devel/optee/optee_os/lib/libutee/arch/arm/utee_syscalls_asm.S:74
    2a50:	d28002a8 	mov	x8, #0x15                  	// #21
    2a54:	d4000001 	svc	#0x0
    2a58:	d65f03c0 	ret

0000000000002a5c <utee_cipher_update>:
utee_cipher_update():
/home/asaf/devel/optee/optee_os/lib/libutee/arch/arm/utee_syscalls_asm.S:76
    2a5c:	d28002c8 	mov	x8, #0x16                  	// #22
    2a60:	d4000001 	svc	#0x0
    2a64:	d65f03c0 	ret

0000000000002a68 <utee_cipher_final>:
utee_cipher_final():
/home/asaf/devel/optee/optee_os/lib/libutee/arch/arm/utee_syscalls_asm.S:78
    2a68:	d28002e8 	mov	x8, #0x17                  	// #23
    2a6c:	d4000001 	svc	#0x0
    2a70:	d65f03c0 	ret

0000000000002a74 <utee_cryp_obj_get_info>:
utee_cryp_obj_get_info():
/home/asaf/devel/optee/optee_os/lib/libutee/arch/arm/utee_syscalls_asm.S:80
    2a74:	d2800308 	mov	x8, #0x18                  	// #24
    2a78:	d4000001 	svc	#0x0
    2a7c:	d65f03c0 	ret

0000000000002a80 <utee_cryp_obj_restrict_usage>:
utee_cryp_obj_restrict_usage():
/home/asaf/devel/optee/optee_os/lib/libutee/arch/arm/utee_syscalls_asm.S:82
    2a80:	d2800328 	mov	x8, #0x19                  	// #25
    2a84:	d4000001 	svc	#0x0
    2a88:	d65f03c0 	ret

0000000000002a8c <utee_cryp_obj_get_attr>:
utee_cryp_obj_get_attr():
/home/asaf/devel/optee/optee_os/lib/libutee/arch/arm/utee_syscalls_asm.S:85
    2a8c:	d2800348 	mov	x8, #0x1a                  	// #26
    2a90:	d4000001 	svc	#0x0
    2a94:	d65f03c0 	ret

0000000000002a98 <utee_cryp_obj_alloc>:
utee_cryp_obj_alloc():
/home/asaf/devel/optee/optee_os/lib/libutee/arch/arm/utee_syscalls_asm.S:87
    2a98:	d2800368 	mov	x8, #0x1b                  	// #27
    2a9c:	d4000001 	svc	#0x0
    2aa0:	d65f03c0 	ret

0000000000002aa4 <utee_cryp_obj_close>:
utee_cryp_obj_close():
/home/asaf/devel/optee/optee_os/lib/libutee/arch/arm/utee_syscalls_asm.S:89
    2aa4:	d2800388 	mov	x8, #0x1c                  	// #28
    2aa8:	d4000001 	svc	#0x0
    2aac:	d65f03c0 	ret

0000000000002ab0 <utee_cryp_obj_reset>:
utee_cryp_obj_reset():
/home/asaf/devel/optee/optee_os/lib/libutee/arch/arm/utee_syscalls_asm.S:91
    2ab0:	d28003a8 	mov	x8, #0x1d                  	// #29
    2ab4:	d4000001 	svc	#0x0
    2ab8:	d65f03c0 	ret

0000000000002abc <utee_cryp_obj_populate>:
utee_cryp_obj_populate():
/home/asaf/devel/optee/optee_os/lib/libutee/arch/arm/utee_syscalls_asm.S:93
    2abc:	d28003c8 	mov	x8, #0x1e                  	// #30
    2ac0:	d4000001 	svc	#0x0
    2ac4:	d65f03c0 	ret

0000000000002ac8 <utee_cryp_obj_copy>:
utee_cryp_obj_copy():
/home/asaf/devel/optee/optee_os/lib/libutee/arch/arm/utee_syscalls_asm.S:95
    2ac8:	d28003e8 	mov	x8, #0x1f                  	// #31
    2acc:	d4000001 	svc	#0x0
    2ad0:	d65f03c0 	ret

0000000000002ad4 <utee_cryp_derive_key>:
utee_cryp_derive_key():
/home/asaf/devel/optee/optee_os/lib/libutee/arch/arm/utee_syscalls_asm.S:97
    2ad4:	d2800408 	mov	x8, #0x20                  	// #32
    2ad8:	d4000001 	svc	#0x0
    2adc:	d65f03c0 	ret

0000000000002ae0 <utee_cryp_random_number_generate>:
utee_cryp_random_number_generate():
/home/asaf/devel/optee/optee_os/lib/libutee/arch/arm/utee_syscalls_asm.S:99
    2ae0:	d2800428 	mov	x8, #0x21                  	// #33
    2ae4:	d4000001 	svc	#0x0
    2ae8:	d65f03c0 	ret

0000000000002aec <utee_authenc_init>:
utee_authenc_init():
/home/asaf/devel/optee/optee_os/lib/libutee/arch/arm/utee_syscalls_asm.S:102
    2aec:	d2800448 	mov	x8, #0x22                  	// #34
    2af0:	d4000001 	svc	#0x0
    2af4:	d65f03c0 	ret

0000000000002af8 <utee_authenc_update_aad>:
utee_authenc_update_aad():
/home/asaf/devel/optee/optee_os/lib/libutee/arch/arm/utee_syscalls_asm.S:104
    2af8:	d2800468 	mov	x8, #0x23                  	// #35
    2afc:	d4000001 	svc	#0x0
    2b00:	d65f03c0 	ret

0000000000002b04 <utee_authenc_update_payload>:
utee_authenc_update_payload():
/home/asaf/devel/optee/optee_os/lib/libutee/arch/arm/utee_syscalls_asm.S:106
    2b04:	d2800488 	mov	x8, #0x24                  	// #36
    2b08:	d4000001 	svc	#0x0
    2b0c:	d65f03c0 	ret

0000000000002b10 <utee_authenc_enc_final>:
utee_authenc_enc_final():
/home/asaf/devel/optee/optee_os/lib/libutee/arch/arm/utee_syscalls_asm.S:109
    2b10:	d28004a8 	mov	x8, #0x25                  	// #37
    2b14:	d4000001 	svc	#0x0
    2b18:	d65f03c0 	ret

0000000000002b1c <utee_authenc_dec_final>:
utee_authenc_dec_final():
/home/asaf/devel/optee/optee_os/lib/libutee/arch/arm/utee_syscalls_asm.S:111
    2b1c:	d28004c8 	mov	x8, #0x26                  	// #38
    2b20:	d4000001 	svc	#0x0
    2b24:	d65f03c0 	ret

0000000000002b28 <utee_asymm_operate>:
utee_asymm_operate():
/home/asaf/devel/optee/optee_os/lib/libutee/arch/arm/utee_syscalls_asm.S:113
    2b28:	d28004e8 	mov	x8, #0x27                  	// #39
    2b2c:	d4000001 	svc	#0x0
    2b30:	d65f03c0 	ret

0000000000002b34 <utee_asymm_verify>:
utee_asymm_verify():
/home/asaf/devel/optee/optee_os/lib/libutee/arch/arm/utee_syscalls_asm.S:115
    2b34:	d2800508 	mov	x8, #0x28                  	// #40
    2b38:	d4000001 	svc	#0x0
    2b3c:	d65f03c0 	ret

0000000000002b40 <utee_storage_obj_open>:
utee_storage_obj_open():
/home/asaf/devel/optee/optee_os/lib/libutee/arch/arm/utee_syscalls_asm.S:117
    2b40:	d2800528 	mov	x8, #0x29                  	// #41
    2b44:	d4000001 	svc	#0x0
    2b48:	d65f03c0 	ret

0000000000002b4c <utee_storage_obj_create>:
utee_storage_obj_create():
/home/asaf/devel/optee/optee_os/lib/libutee/arch/arm/utee_syscalls_asm.S:119
    2b4c:	d2800548 	mov	x8, #0x2a                  	// #42
    2b50:	d4000001 	svc	#0x0
    2b54:	d65f03c0 	ret

0000000000002b58 <utee_storage_obj_del>:
utee_storage_obj_del():
/home/asaf/devel/optee/optee_os/lib/libutee/arch/arm/utee_syscalls_asm.S:121
    2b58:	d2800568 	mov	x8, #0x2b                  	// #43
    2b5c:	d4000001 	svc	#0x0
    2b60:	d65f03c0 	ret

0000000000002b64 <utee_storage_obj_rename>:
utee_storage_obj_rename():
/home/asaf/devel/optee/optee_os/lib/libutee/arch/arm/utee_syscalls_asm.S:123
    2b64:	d2800588 	mov	x8, #0x2c                  	// #44
    2b68:	d4000001 	svc	#0x0
    2b6c:	d65f03c0 	ret

0000000000002b70 <utee_storage_alloc_enum>:
utee_storage_alloc_enum():
/home/asaf/devel/optee/optee_os/lib/libutee/arch/arm/utee_syscalls_asm.S:125
    2b70:	d28005a8 	mov	x8, #0x2d                  	// #45
    2b74:	d4000001 	svc	#0x0
    2b78:	d65f03c0 	ret

0000000000002b7c <utee_storage_free_enum>:
utee_storage_free_enum():
/home/asaf/devel/optee/optee_os/lib/libutee/arch/arm/utee_syscalls_asm.S:127
    2b7c:	d28005c8 	mov	x8, #0x2e                  	// #46
    2b80:	d4000001 	svc	#0x0
    2b84:	d65f03c0 	ret

0000000000002b88 <utee_storage_reset_enum>:
utee_storage_reset_enum():
/home/asaf/devel/optee/optee_os/lib/libutee/arch/arm/utee_syscalls_asm.S:129
    2b88:	d28005e8 	mov	x8, #0x2f                  	// #47
    2b8c:	d4000001 	svc	#0x0
    2b90:	d65f03c0 	ret

0000000000002b94 <utee_storage_start_enum>:
utee_storage_start_enum():
/home/asaf/devel/optee/optee_os/lib/libutee/arch/arm/utee_syscalls_asm.S:131
    2b94:	d2800608 	mov	x8, #0x30                  	// #48
    2b98:	d4000001 	svc	#0x0
    2b9c:	d65f03c0 	ret

0000000000002ba0 <utee_storage_next_enum>:
utee_storage_next_enum():
/home/asaf/devel/optee/optee_os/lib/libutee/arch/arm/utee_syscalls_asm.S:133
    2ba0:	d2800628 	mov	x8, #0x31                  	// #49
    2ba4:	d4000001 	svc	#0x0
    2ba8:	d65f03c0 	ret

0000000000002bac <utee_storage_obj_read>:
utee_storage_obj_read():
/home/asaf/devel/optee/optee_os/lib/libutee/arch/arm/utee_syscalls_asm.S:135
    2bac:	d2800648 	mov	x8, #0x32                  	// #50
    2bb0:	d4000001 	svc	#0x0
    2bb4:	d65f03c0 	ret

0000000000002bb8 <utee_storage_obj_write>:
utee_storage_obj_write():
/home/asaf/devel/optee/optee_os/lib/libutee/arch/arm/utee_syscalls_asm.S:137
    2bb8:	d2800668 	mov	x8, #0x33                  	// #51
    2bbc:	d4000001 	svc	#0x0
    2bc0:	d65f03c0 	ret

0000000000002bc4 <utee_storage_obj_trunc>:
utee_storage_obj_trunc():
/home/asaf/devel/optee/optee_os/lib/libutee/arch/arm/utee_syscalls_asm.S:139
    2bc4:	d2800688 	mov	x8, #0x34                  	// #52
    2bc8:	d4000001 	svc	#0x0
    2bcc:	d65f03c0 	ret

0000000000002bd0 <utee_storage_obj_seek>:
utee_storage_obj_seek():
/home/asaf/devel/optee/optee_os/lib/libutee/arch/arm/utee_syscalls_asm.S:141
    2bd0:	d28006a8 	mov	x8, #0x35                  	// #53
    2bd4:	d4000001 	svc	#0x0
    2bd8:	d65f03c0 	ret

0000000000002bdc <utee_cryp_obj_generate_key>:
utee_cryp_obj_generate_key():
/home/asaf/devel/optee/optee_os/lib/libutee/arch/arm/utee_syscalls_asm.S:143
    2bdc:	d28006c8 	mov	x8, #0x36                  	// #54
    2be0:	d4000001 	svc	#0x0
    2be4:	d65f03c0 	ret

0000000000002be8 <utee_se_service_open>:
utee_se_service_open():
/home/asaf/devel/optee/optee_os/lib/libutee/arch/arm/utee_syscalls_asm.S:146
    2be8:	d28006e8 	mov	x8, #0x37                  	// #55
    2bec:	d4000001 	svc	#0x0
    2bf0:	d65f03c0 	ret

0000000000002bf4 <utee_se_service_close>:
utee_se_service_close():
/home/asaf/devel/optee/optee_os/lib/libutee/arch/arm/utee_syscalls_asm.S:148
    2bf4:	d2800708 	mov	x8, #0x38                  	// #56
    2bf8:	d4000001 	svc	#0x0
    2bfc:	d65f03c0 	ret

0000000000002c00 <utee_se_service_get_readers>:
utee_se_service_get_readers():
/home/asaf/devel/optee/optee_os/lib/libutee/arch/arm/utee_syscalls_asm.S:150
    2c00:	d2800728 	mov	x8, #0x39                  	// #57
    2c04:	d4000001 	svc	#0x0
    2c08:	d65f03c0 	ret

0000000000002c0c <utee_se_reader_get_prop>:
utee_se_reader_get_prop():
/home/asaf/devel/optee/optee_os/lib/libutee/arch/arm/utee_syscalls_asm.S:153
    2c0c:	d2800748 	mov	x8, #0x3a                  	// #58
    2c10:	d4000001 	svc	#0x0
    2c14:	d65f03c0 	ret

0000000000002c18 <utee_se_reader_get_name>:
utee_se_reader_get_name():
/home/asaf/devel/optee/optee_os/lib/libutee/arch/arm/utee_syscalls_asm.S:156
    2c18:	d2800768 	mov	x8, #0x3b                  	// #59
    2c1c:	d4000001 	svc	#0x0
    2c20:	d65f03c0 	ret

0000000000002c24 <utee_se_reader_open_session>:
utee_se_reader_open_session():
/home/asaf/devel/optee/optee_os/lib/libutee/arch/arm/utee_syscalls_asm.S:159
    2c24:	d2800788 	mov	x8, #0x3c                  	// #60
    2c28:	d4000001 	svc	#0x0
    2c2c:	d65f03c0 	ret

0000000000002c30 <utee_se_reader_close_sessions>:
utee_se_reader_close_sessions():
/home/asaf/devel/optee/optee_os/lib/libutee/arch/arm/utee_syscalls_asm.S:162
    2c30:	d28007a8 	mov	x8, #0x3d                  	// #61
    2c34:	d4000001 	svc	#0x0
    2c38:	d65f03c0 	ret

0000000000002c3c <utee_se_session_is_closed>:
utee_se_session_is_closed():
/home/asaf/devel/optee/optee_os/lib/libutee/arch/arm/utee_syscalls_asm.S:165
    2c3c:	d28007c8 	mov	x8, #0x3e                  	// #62
    2c40:	d4000001 	svc	#0x0
    2c44:	d65f03c0 	ret

0000000000002c48 <utee_se_session_get_atr>:
utee_se_session_get_atr():
/home/asaf/devel/optee/optee_os/lib/libutee/arch/arm/utee_syscalls_asm.S:168
    2c48:	d28007e8 	mov	x8, #0x3f                  	// #63
    2c4c:	d4000001 	svc	#0x0
    2c50:	d65f03c0 	ret

0000000000002c54 <utee_se_session_open_channel>:
utee_se_session_open_channel():
/home/asaf/devel/optee/optee_os/lib/libutee/arch/arm/utee_syscalls_asm.S:171
    2c54:	d2800808 	mov	x8, #0x40                  	// #64
    2c58:	d4000001 	svc	#0x0
    2c5c:	d65f03c0 	ret

0000000000002c60 <utee_se_session_close>:
utee_se_session_close():
/home/asaf/devel/optee/optee_os/lib/libutee/arch/arm/utee_syscalls_asm.S:174
    2c60:	d2800828 	mov	x8, #0x41                  	// #65
    2c64:	d4000001 	svc	#0x0
    2c68:	d65f03c0 	ret

0000000000002c6c <utee_se_channel_select_next>:
utee_se_channel_select_next():
/home/asaf/devel/optee/optee_os/lib/libutee/arch/arm/utee_syscalls_asm.S:177
    2c6c:	d2800848 	mov	x8, #0x42                  	// #66
    2c70:	d4000001 	svc	#0x0
    2c74:	d65f03c0 	ret

0000000000002c78 <utee_se_channel_get_select_resp>:
utee_se_channel_get_select_resp():
/home/asaf/devel/optee/optee_os/lib/libutee/arch/arm/utee_syscalls_asm.S:180
    2c78:	d2800868 	mov	x8, #0x43                  	// #67
    2c7c:	d4000001 	svc	#0x0
    2c80:	d65f03c0 	ret

0000000000002c84 <utee_se_channel_transmit>:
utee_se_channel_transmit():
/home/asaf/devel/optee/optee_os/lib/libutee/arch/arm/utee_syscalls_asm.S:183
    2c84:	d2800888 	mov	x8, #0x44                  	// #68
    2c88:	d4000001 	svc	#0x0
    2c8c:	d65f03c0 	ret

0000000000002c90 <utee_se_channel_close>:
utee_se_channel_close():
/home/asaf/devel/optee/optee_os/lib/libutee/arch/arm/utee_syscalls_asm.S:186
    2c90:	d28008a8 	mov	x8, #0x45                  	// #69
    2c94:	d4000001 	svc	#0x0
    2c98:	d65f03c0 	ret

0000000000002c9c <utee_cache_operation>:
utee_cache_operation():
/home/asaf/devel/optee/optee_os/lib/libutee/arch/arm/utee_syscalls_asm.S:189
    2c9c:	d28008c8 	mov	x8, #0x46                  	// #70
    2ca0:	d4000001 	svc	#0x0
    2ca4:	d65f03c0 	ret

0000000000002ca8 <__utee_mcount>:
__utee_mcount():
